
mmsjos.elf:     file format elf32-littlearm


Disassembly of section .text:

00008000 <__start>:
    8000:	e3a0d902 	mov	sp, #32768	; 0x8000
    8004:	e59f403c 	ldr	r4, [pc, #60]	; 8048 <dummy+0x4>
    8008:	e59f903c 	ldr	r9, [pc, #60]	; 804c <dummy+0x8>
    800c:	e3a05000 	mov	r5, #0
    8010:	e3a06000 	mov	r6, #0
    8014:	e3a07000 	mov	r7, #0
    8018:	e3a08000 	mov	r8, #0
    801c:	ea000000 	b	8024 <__start+0x24>
    8020:	e8a401e0 	stmia	r4!, {r5, r6, r7, r8}
    8024:	e1540009 	cmp	r4, r9
    8028:	3afffffc 	bcc	8020 <__start+0x20>
    802c:	e3a02c01 	mov	r2, #256	; 0x100
    8030:	e59f3018 	ldr	r3, [pc, #24]	; 8050 <dummy+0xc>
    8034:	e12fff33 	blx	r3
    8038:	eaffffff 	b	803c <halt>

0000803c <halt>:
    803c:	e320f002 	wfe
    8040:	eafffffd 	b	803c <halt>

00008044 <dummy>:
    8044:	e12fff1e 	bx	lr
    8048:	00019000 	andeq	r9, r1, r0
    804c:	0001e000 	andeq	lr, r1, r0
    8050:	0000e948 	andeq	lr, r0, r8, asr #18

00008054 <exception_vector>:
    8054:	e59ff018 	ldr	pc, [pc, #24]	; 8074 <reset_handler_abs_addr>
    8058:	e59ff018 	ldr	pc, [pc, #24]	; 8078 <undefined_instruction_handler_abs_addr>
    805c:	e59ff018 	ldr	pc, [pc, #24]	; 807c <software_interrupt_handler_abs_addr>
    8060:	e59ff018 	ldr	pc, [pc, #24]	; 8080 <prefetch_abort_handler_abs_addr>
    8064:	e59ff018 	ldr	pc, [pc, #24]	; 8084 <data_abort_handler_abs_addr>
    8068:	e320f000 	nop	{0}
    806c:	e59ff014 	ldr	pc, [pc, #20]	; 8088 <irq_handler_abs_addr>
    8070:	e59ff014 	ldr	pc, [pc, #20]	; 808c <fast_irq_handler_abs_addr>

00008074 <reset_handler_abs_addr>:
    8074:	00008268 	andeq	r8, r0, r8, ror #4

00008078 <undefined_instruction_handler_abs_addr>:
    8078:	00008274 	andeq	r8, r0, r4, ror r2

0000807c <software_interrupt_handler_abs_addr>:
    807c:	00008278 	andeq	r8, r0, r8, ror r2

00008080 <prefetch_abort_handler_abs_addr>:
    8080:	0000826c 	andeq	r8, r0, ip, ror #4

00008084 <data_abort_handler_abs_addr>:
    8084:	00008270 	andeq	r8, r0, r0, ror r2

00008088 <irq_handler_abs_addr>:
    8088:	000080b4 	strheq	r8, [r0], -r4

0000808c <fast_irq_handler_abs_addr>:
    808c:	0000827c 	andeq	r8, r0, ip, ror r2

00008090 <move_exception_vector>:
    8090:	e92d03f0 	push	{r4, r5, r6, r7, r8, r9}
    8094:	e59f0048 	ldr	r0, [pc, #72]	; 80e4 <irq_handler_asm_wrapper+0x30>
    8098:	e3a01000 	mov	r1, #0
    809c:	e8b003fc 	ldm	r0!, {r2, r3, r4, r5, r6, r7, r8, r9}
    80a0:	e8a103fc 	stmia	r1!, {r2, r3, r4, r5, r6, r7, r8, r9}
    80a4:	e8b001fc 	ldm	r0!, {r2, r3, r4, r5, r6, r7, r8}
    80a8:	e8a101fc 	stmia	r1!, {r2, r3, r4, r5, r6, r7, r8}
    80ac:	e8bd03f0 	pop	{r4, r5, r6, r7, r8, r9}
    80b0:	e12fff3e 	blx	lr

000080b4 <irq_handler_asm_wrapper>:
    80b4:	e24ee004 	sub	lr, lr, #4
    80b8:	f96d0513 	srsdb	sp!, #19
    80bc:	f10e00d3 	cpsid	if,#19
    80c0:	e92d500f 	push	{r0, r1, r2, r3, ip, lr}
    80c4:	e20d1004 	and	r1, sp, #4
    80c8:	e04dd001 	sub	sp, sp, r1
    80cc:	e52d1004 	push	{r1}		; (str r1, [sp, #-4]!)
    80d0:	eb000034 	bl	81a8 <irq_handler>
    80d4:	e49d1004 	pop	{r1}		; (ldr r1, [sp], #4)
    80d8:	e08dd001 	add	sp, sp, r1
    80dc:	e8bd500f 	pop	{r0, r1, r2, r3, ip, lr}
    80e0:	f8bd0a00 	rfeia	sp!
    80e4:	00008054 	andeq	r8, r0, r4, asr r0

000080e8 <get_mem_size>:
    80e8:	e5901004 	ldr	r1, [r0, #4]
    80ec:	e3510000 	cmp	r1, #0
    80f0:	0a00000f 	beq	8134 <get_mem_size+0x4c>
    80f4:	e59fc048 	ldr	ip, [pc, #72]	; 8144 <get_mem_size+0x5c>
    80f8:	e151000c 	cmp	r1, ip
    80fc:	0a00000e 	beq	813c <get_mem_size+0x54>
    8100:	e3a03001 	mov	r3, #1
    8104:	ea000002 	b	8114 <get_mem_size+0x2c>
    8108:	e152000c 	cmp	r2, ip
    810c:	e2833001 	add	r3, r3, #1
    8110:	0a000009 	beq	813c <get_mem_size+0x54>
    8114:	e5902000 	ldr	r2, [r0]
    8118:	e0800102 	add	r0, r0, r2, lsl #2
    811c:	e5902004 	ldr	r2, [r0, #4]
    8120:	e353000b 	cmp	r3, #11
    8124:	13520000 	cmpne	r2, #0
    8128:	13a01001 	movne	r1, #1
    812c:	03a01000 	moveq	r1, #0
    8130:	1afffff4 	bne	8108 <get_mem_size+0x20>
    8134:	e1a00001 	mov	r0, r1
    8138:	e12fff1e 	bx	lr
    813c:	e5900008 	ldr	r0, [r0, #8]
    8140:	e12fff1e 	bx	lr
    8144:	54410002 	strbpl	r0, [r1], #-2

00008148 <interrupts_init>:
    8148:	e92d4010 	push	{r4, lr}
    814c:	e59f404c 	ldr	r4, [pc, #76]	; 81a0 <interrupts_init+0x58>
    8150:	e59f304c 	ldr	r3, [pc, #76]	; 81a4 <interrupts_init+0x5c>
    8154:	e08f4004 	add	r4, pc, r4
    8158:	e1a00004 	mov	r0, r4
    815c:	e3a01e12 	mov	r1, #288	; 0x120
    8160:	e4803004 	str	r3, [r0], #4
    8164:	eb0024d8 	bl	114cc <bzero>
    8168:	e2840f49 	add	r0, r4, #292	; 0x124
    816c:	e3a01e12 	mov	r1, #288	; 0x120
    8170:	eb0024d5 	bl	114cc <bzero>
    8174:	e3e02000 	mvn	r2, #0
    8178:	e5943000 	ldr	r3, [r4]
    817c:	e5832024 	str	r2, [r3, #36]	; 0x24
    8180:	e583201c 	str	r2, [r3, #28]
    8184:	e5832020 	str	r2, [r3, #32]
    8188:	ebffffc0 	bl	8090 <move_exception_vector>
    818c:	e10f3000 	mrs	r3, CPSR
    8190:	e3130080 	tst	r3, #128	; 0x80
    8194:	08bd8010 	popeq	{r4, pc}
    8198:	f1080080 	cpsie	i
    819c:	e8bd8010 	pop	{r4, pc}
    81a0:	00010ea4 	andeq	r0, r1, r4, lsr #29
    81a4:	2000b200 	andcs	fp, r0, r0, lsl #4

000081a8 <irq_handler>:
    81a8:	e92d4070 	push	{r4, r5, r6, lr}
    81ac:	e59f20ac 	ldr	r2, [pc, #172]	; 8260 <irq_handler+0xb8>
    81b0:	e59f60ac 	ldr	r6, [pc, #172]	; 8264 <irq_handler+0xbc>
    81b4:	e08f2002 	add	r2, pc, r2
    81b8:	e08f6006 	add	r6, pc, r6
    81bc:	e3a03000 	mov	r3, #0
    81c0:	e3a00001 	mov	r0, #1
    81c4:	e5921000 	ldr	r1, [r2]
    81c8:	e286c004 	add	ip, r6, #4
    81cc:	ea000002 	b	81dc <irq_handler+0x34>
    81d0:	e2833001 	add	r3, r3, #1
    81d4:	e3530048 	cmp	r3, #72	; 0x48
    81d8:	08bd8070 	popeq	{r4, r5, r6, pc}
    81dc:	e353003f 	cmp	r3, #63	; 0x3f
    81e0:	e2432020 	sub	r2, r3, #32
    81e4:	ca000014 	bgt	823c <irq_handler+0x94>
    81e8:	e352001f 	cmp	r2, #31
    81ec:	9a000017 	bls	8250 <irq_handler+0xa8>
    81f0:	e353001f 	cmp	r3, #31
    81f4:	cafffff5 	bgt	81d0 <irq_handler+0x28>
    81f8:	e5912004 	ldr	r2, [r1, #4]
    81fc:	e0122310 	ands	r2, r2, r0, lsl r3
    8200:	0afffff2 	beq	81d0 <irq_handler+0x28>
    8204:	e79c2103 	ldr	r2, [ip, r3, lsl #2]
    8208:	e1a0e103 	lsl	lr, r3, #2
    820c:	e3520000 	cmp	r2, #0
    8210:	0affffee 	beq	81d0 <irq_handler+0x28>
    8214:	e086600e 	add	r6, r6, lr
    8218:	e5963124 	ldr	r3, [r6, #292]	; 0x124
    821c:	e12fff33 	blx	r3
    8220:	e5963004 	ldr	r3, [r6, #4]
    8224:	e12fff33 	blx	r3
    8228:	e10f3000 	mrs	r3, CPSR
    822c:	e3130080 	tst	r3, #128	; 0x80
    8230:	18bd8070 	popne	{r4, r5, r6, pc}
    8234:	f10c0080 	cpsid	i
    8238:	e8bd8070 	pop	{r4, r5, r6, pc}
    823c:	e5914000 	ldr	r4, [r1]
    8240:	e2435040 	sub	r5, r3, #64	; 0x40
    8244:	e014e510 	ands	lr, r4, r0, lsl r5
    8248:	1affffed 	bne	8204 <irq_handler+0x5c>
    824c:	eaffffe5 	b	81e8 <irq_handler+0x40>
    8250:	e591e008 	ldr	lr, [r1, #8]
    8254:	e01e2210 	ands	r2, lr, r0, lsl r2
    8258:	1affffe9 	bne	8204 <irq_handler+0x5c>
    825c:	eaffffdb 	b	81d0 <irq_handler+0x28>
    8260:	00010e44 	andeq	r0, r1, r4, asr #28
    8264:	00010e40 	andeq	r0, r1, r0, asr #28

00008268 <reset_handler>:
    8268:	e25ef004 	subs	pc, lr, #4

0000826c <prefetch_abort_handler>:
    826c:	e25ef004 	subs	pc, lr, #4

00008270 <data_abort_handler>:
    8270:	e25ef004 	subs	pc, lr, #4

00008274 <undefined_instruction_handler>:
    8274:	e1b0f00e 	movs	pc, lr

00008278 <software_interrupt_handler>:
    8278:	e1b0f00e 	movs	pc, lr

0000827c <fast_irq_handler>:
    827c:	e25ef004 	subs	pc, lr, #4

00008280 <register_irq_handler>:
    8280:	e59f3084 	ldr	r3, [pc, #132]	; 830c <register_irq_handler+0x8c>
    8284:	e350003f 	cmp	r0, #63	; 0x3f
    8288:	e08f3003 	add	r3, pc, r3
    828c:	e92d4030 	push	{r4, r5, lr}
    8290:	e593e000 	ldr	lr, [r3]
    8294:	8a000013 	bhi	82e8 <register_irq_handler+0x68>
    8298:	e240c020 	sub	ip, r0, #32
    829c:	e6ef407c 	uxtb	r4, ip
    82a0:	e354001f 	cmp	r4, #31
    82a4:	9a000007 	bls	82c8 <register_irq_handler+0x48>
    82a8:	e3a05001 	mov	r5, #1
    82ac:	e59e4010 	ldr	r4, [lr, #16]
    82b0:	e083c100 	add	ip, r3, r0, lsl #2
    82b4:	e1843015 	orr	r3, r4, r5, lsl r0
    82b8:	e58c1004 	str	r1, [ip, #4]
    82bc:	e58c2124 	str	r2, [ip, #292]	; 0x124
    82c0:	e58e3010 	str	r3, [lr, #16]
    82c4:	e8bd8030 	pop	{r4, r5, pc}
    82c8:	e3a04001 	mov	r4, #1
    82cc:	e0833100 	add	r3, r3, r0, lsl #2
    82d0:	e59e0014 	ldr	r0, [lr, #20]
    82d4:	e5831004 	str	r1, [r3, #4]
    82d8:	e180cc14 	orr	ip, r0, r4, lsl ip
    82dc:	e5832124 	str	r2, [r3, #292]	; 0x124
    82e0:	e58ec014 	str	ip, [lr, #20]
    82e4:	e8bd8030 	pop	{r4, r5, pc}
    82e8:	e3a04001 	mov	r4, #1
    82ec:	e59ec018 	ldr	ip, [lr, #24]
    82f0:	e0833100 	add	r3, r3, r0, lsl #2
    82f4:	e2400040 	sub	r0, r0, #64	; 0x40
    82f8:	e18c0014 	orr	r0, ip, r4, lsl r0
    82fc:	e5831004 	str	r1, [r3, #4]
    8300:	e5832124 	str	r2, [r3, #292]	; 0x124
    8304:	e58e0018 	str	r0, [lr, #24]
    8308:	e8bd8030 	pop	{r4, r5, pc}
    830c:	00010d70 	andeq	r0, r1, r0, ror sp

00008310 <unregister_irq_handler>:
    8310:	e59f3088 	ldr	r3, [pc, #136]	; 83a0 <unregister_irq_handler+0x90>
    8314:	e350003f 	cmp	r0, #63	; 0x3f
    8318:	e08f3003 	add	r3, pc, r3
    831c:	e92d4010 	push	{r4, lr}
    8320:	e593c000 	ldr	ip, [r3]
    8324:	8a000013 	bhi	8378 <unregister_irq_handler+0x68>
    8328:	e2402020 	sub	r2, r0, #32
    832c:	e6ef1072 	uxtb	r1, r2
    8330:	e351001f 	cmp	r1, #31
    8334:	e3a04001 	mov	r4, #1
    8338:	e3a0e000 	mov	lr, #0
    833c:	9a000006 	bls	835c <unregister_irq_handler+0x4c>
    8340:	e59c101c 	ldr	r1, [ip, #28]
    8344:	e0832100 	add	r2, r3, r0, lsl #2
    8348:	e1813014 	orr	r3, r1, r4, lsl r0
    834c:	e582e004 	str	lr, [r2, #4]
    8350:	e582e124 	str	lr, [r2, #292]	; 0x124
    8354:	e58c301c 	str	r3, [ip, #28]
    8358:	e8bd8010 	pop	{r4, pc}
    835c:	e59c1020 	ldr	r1, [ip, #32]
    8360:	e0833100 	add	r3, r3, r0, lsl #2
    8364:	e1812214 	orr	r2, r1, r4, lsl r2
    8368:	e583e004 	str	lr, [r3, #4]
    836c:	e583e124 	str	lr, [r3, #292]	; 0x124
    8370:	e58c2020 	str	r2, [ip, #32]
    8374:	e8bd8010 	pop	{r4, pc}
    8378:	e3a0e001 	mov	lr, #1
    837c:	e3a01000 	mov	r1, #0
    8380:	e59c2024 	ldr	r2, [ip, #36]	; 0x24
    8384:	e0833100 	add	r3, r3, r0, lsl #2
    8388:	e2400040 	sub	r0, r0, #64	; 0x40
    838c:	e182001e 	orr	r0, r2, lr, lsl r0
    8390:	e5831004 	str	r1, [r3, #4]
    8394:	e5831124 	str	r1, [r3, #292]	; 0x124
    8398:	e58c0024 	str	r0, [ip, #36]	; 0x24
    839c:	e8bd8010 	pop	{r4, pc}
    83a0:	00010ce0 	andeq	r0, r1, r0, ror #25

000083a4 <append_page_list>:
    83a4:	e3a0c000 	mov	ip, #0
    83a8:	e5903008 	ldr	r3, [r0, #8]
    83ac:	e52de004 	push	{lr}		; (str lr, [sp, #-4]!)
    83b0:	e590e000 	ldr	lr, [r0]
    83b4:	e5902004 	ldr	r2, [r0, #4]
    83b8:	e2833001 	add	r3, r3, #1
    83bc:	e15e000c 	cmp	lr, ip
    83c0:	e5821008 	str	r1, [r2, #8]
    83c4:	e581200c 	str	r2, [r1, #12]
    83c8:	e5801004 	str	r1, [r0, #4]
    83cc:	e581c008 	str	ip, [r1, #8]
    83d0:	e5803008 	str	r3, [r0, #8]
    83d4:	05801000 	streq	r1, [r0]
    83d8:	e49df004 	pop	{pc}		; (ldr pc, [sp], #4)

000083dc <push_page_list>:
    83dc:	e3a02000 	mov	r2, #0
    83e0:	e5903008 	ldr	r3, [r0, #8]
    83e4:	e52de004 	push	{lr}		; (str lr, [sp, #-4]!)
    83e8:	e8905000 	ldm	r0, {ip, lr}
    83ec:	e2833001 	add	r3, r3, #1
    83f0:	e15e0002 	cmp	lr, r2
    83f4:	e581c008 	str	ip, [r1, #8]
    83f8:	e581200c 	str	r2, [r1, #12]
    83fc:	e5801000 	str	r1, [r0]
    8400:	e5803008 	str	r3, [r0, #8]
    8404:	05801004 	streq	r1, [r0, #4]
    8408:	e49df004 	pop	{pc}		; (ldr pc, [sp], #4)

0000840c <peek_page_list>:
    840c:	e5900000 	ldr	r0, [r0]
    8410:	e12fff1e 	bx	lr

00008414 <pop_page_list>:
    8414:	e1a03000 	mov	r3, r0
    8418:	e3a0c000 	mov	ip, #0
    841c:	e5900000 	ldr	r0, [r0]
    8420:	e5932008 	ldr	r2, [r3, #8]
    8424:	e5901008 	ldr	r1, [r0, #8]
    8428:	e2422001 	sub	r2, r2, #1
    842c:	e5831000 	str	r1, [r3]
    8430:	e581c00c 	str	ip, [r1, #12]
    8434:	e5832008 	str	r2, [r3, #8]
    8438:	e12fff1e 	bx	lr

0000843c <size_page_list>:
    843c:	e5900008 	ldr	r0, [r0, #8]
    8440:	e12fff1e 	bx	lr

00008444 <next_page_list>:
    8444:	e5900008 	ldr	r0, [r0, #8]
    8448:	e12fff1e 	bx	lr

0000844c <mem_init>:
    844c:	e92d47f0 	push	{r4, r5, r6, r7, r8, r9, sl, lr}
    8450:	ebffff24 	bl	80e8 <get_mem_size>
    8454:	e3a04000 	mov	r4, #0
    8458:	e59f8130 	ldr	r8, [pc, #304]	; 8590 <mem_init+0x144>
    845c:	e59f5130 	ldr	r5, [pc, #304]	; 8594 <mem_init+0x148>
    8460:	e08f8008 	add	r8, pc, r8
    8464:	e1a00620 	lsr	r0, r0, #12
    8468:	e59f3128 	ldr	r3, [pc, #296]	; 8598 <mem_init+0x14c>
    846c:	e08f5005 	add	r5, pc, r5
    8470:	e5880000 	str	r0, [r8]
    8474:	e7957003 	ldr	r7, [r5, r3]
    8478:	e1a06200 	lsl	r6, r0, #4
    847c:	e1a01006 	mov	r1, r6
    8480:	e1a00007 	mov	r0, r7
    8484:	e5887004 	str	r7, [r8, #4]
    8488:	eb00240f 	bl	114cc <bzero>
    848c:	e59f3108 	ldr	r3, [pc, #264]	; 859c <mem_init+0x150>
    8490:	e1a0e627 	lsr	lr, r7, #12
    8494:	e7955003 	ldr	r5, [r5, r3]
    8498:	e15e0004 	cmp	lr, r4
    849c:	e28ecc01 	add	ip, lr, #256	; 0x100
    84a0:	e5854004 	str	r4, [r5, #4]
    84a4:	e5854000 	str	r4, [r5]
    84a8:	e5854008 	str	r4, [r5, #8]
    84ac:	e5980004 	ldr	r0, [r8, #4]
    84b0:	0a000034 	beq	8588 <mem_init+0x13c>
    84b4:	e1a03000 	mov	r3, r0
    84b8:	e5d32004 	ldrb	r2, [r3, #4]
    84bc:	e1a01604 	lsl	r1, r4, #12
    84c0:	e7801204 	str	r1, [r0, r4, lsl #4]
    84c4:	e2844001 	add	r4, r4, #1
    84c8:	e3822003 	orr	r2, r2, #3
    84cc:	e15e0004 	cmp	lr, r4
    84d0:	e5c32004 	strb	r2, [r3, #4]
    84d4:	e2833010 	add	r3, r3, #16
    84d8:	1afffff6 	bne	84b8 <mem_init+0x6c>
    84dc:	e15c0004 	cmp	ip, r4
    84e0:	9a00000a 	bls	8510 <mem_init+0xc4>
    84e4:	e1a01604 	lsl	r1, r4, #12
    84e8:	e0803204 	add	r3, r0, r4, lsl #4
    84ec:	e5d32004 	ldrb	r2, [r3, #4]
    84f0:	e7801204 	str	r1, [r0, r4, lsl #4]
    84f4:	e2844001 	add	r4, r4, #1
    84f8:	e3822005 	orr	r2, r2, #5
    84fc:	e15c0004 	cmp	ip, r4
    8500:	e5c32004 	strb	r2, [r3, #4]
    8504:	e2811a01 	add	r1, r1, #4096	; 0x1000
    8508:	e2833010 	add	r3, r3, #16
    850c:	8afffff6 	bhi	84ec <mem_init+0xa0>
    8510:	e59f9088 	ldr	r9, [pc, #136]	; 85a0 <mem_init+0x154>
    8514:	e08f9009 	add	r9, pc, r9
    8518:	e5993000 	ldr	r3, [r9]
    851c:	e1530004 	cmp	r3, r4
    8520:	9a00000d 	bls	855c <mem_init+0x110>
    8524:	e1a08204 	lsl	r8, r4, #4
    8528:	e5993004 	ldr	r3, [r9, #4]
    852c:	e1a00005 	mov	r0, r5
    8530:	e0833008 	add	r3, r3, r8
    8534:	e5d32004 	ldrb	r2, [r3, #4]
    8538:	e1a01003 	mov	r1, r3
    853c:	e3c22001 	bic	r2, r2, #1
    8540:	e5c32004 	strb	r2, [r3, #4]
    8544:	ebffff96 	bl	83a4 <append_page_list>
    8548:	e5993000 	ldr	r3, [r9]
    854c:	e2844001 	add	r4, r4, #1
    8550:	e1530004 	cmp	r3, r4
    8554:	e2888010 	add	r8, r8, #16
    8558:	8afffff2 	bhi	8528 <mem_init+0xdc>
    855c:	e59f4040 	ldr	r4, [pc, #64]	; 85a4 <mem_init+0x158>
    8560:	e0876006 	add	r6, r7, r6
    8564:	e08f4004 	add	r4, pc, r4
    8568:	e1a00006 	mov	r0, r6
    856c:	e3a01010 	mov	r1, #16
    8570:	e5846008 	str	r6, [r4, #8]
    8574:	eb0023d4 	bl	114cc <bzero>
    8578:	e3a02601 	mov	r2, #1048576	; 0x100000
    857c:	e5943008 	ldr	r3, [r4, #8]
    8580:	e583200c 	str	r2, [r3, #12]
    8584:	e8bd87f0 	pop	{r4, r5, r6, r7, r8, r9, sl, pc}
    8588:	e1a0400e 	mov	r4, lr
    858c:	eaffffd4 	b	84e4 <mem_init+0x98>
    8590:	00010ddc 	ldrdeq	r0, [r1], -ip
    8594:	00010968 	andeq	r0, r1, r8, ror #18
    8598:	000000fc 	strdeq	r0, [r0], -ip
    859c:	00000098 	muleq	r0, r8, r0
    85a0:	00010d28 	andeq	r0, r1, r8, lsr #26
    85a4:	00010cd8 	ldrdeq	r0, [r1], -r8

000085a8 <alloc_page>:
    85a8:	e92d4070 	push	{r4, r5, r6, lr}
    85ac:	e59f3054 	ldr	r3, [pc, #84]	; 8608 <alloc_page+0x60>
    85b0:	e59f2054 	ldr	r2, [pc, #84]	; 860c <alloc_page+0x64>
    85b4:	e08f3003 	add	r3, pc, r3
    85b8:	e7935002 	ldr	r5, [r3, r2]
    85bc:	e1a00005 	mov	r0, r5
    85c0:	ebffff9d 	bl	843c <size_page_list>
    85c4:	e2504000 	subs	r4, r0, #0
    85c8:	0a00000c 	beq	8600 <alloc_page+0x58>
    85cc:	e1a00005 	mov	r0, r5
    85d0:	ebffff8f 	bl	8414 <pop_page_list>
    85d4:	e59f2034 	ldr	r2, [pc, #52]	; 8610 <alloc_page+0x68>
    85d8:	e5d03004 	ldrb	r3, [r0, #4]
    85dc:	e08f2002 	add	r2, pc, r2
    85e0:	e5924004 	ldr	r4, [r2, #4]
    85e4:	e3833003 	orr	r3, r3, #3
    85e8:	e0404004 	sub	r4, r0, r4
    85ec:	e1a04404 	lsl	r4, r4, #8
    85f0:	e5c03004 	strb	r3, [r0, #4]
    85f4:	e3a01a01 	mov	r1, #4096	; 0x1000
    85f8:	e1a00004 	mov	r0, r4
    85fc:	eb0023b2 	bl	114cc <bzero>
    8600:	e1a00004 	mov	r0, r4
    8604:	e8bd8070 	pop	{r4, r5, r6, pc}
    8608:	00010820 	andeq	r0, r1, r0, lsr #16
    860c:	00000098 	muleq	r0, r8, r0
    8610:	00010c60 	andeq	r0, r1, r0, ror #24

00008614 <free_page>:
    8614:	e59f302c 	ldr	r3, [pc, #44]	; 8648 <free_page+0x34>
    8618:	e1a00620 	lsr	r0, r0, #12
    861c:	e08f3003 	add	r3, pc, r3
    8620:	e5931004 	ldr	r1, [r3, #4]
    8624:	e59f3020 	ldr	r3, [pc, #32]	; 864c <free_page+0x38>
    8628:	e0811200 	add	r1, r1, r0, lsl #4
    862c:	e5d10004 	ldrb	r0, [r1, #4]
    8630:	e59f2018 	ldr	r2, [pc, #24]	; 8650 <free_page+0x3c>
    8634:	e3c00001 	bic	r0, r0, #1
    8638:	e08f3003 	add	r3, pc, r3
    863c:	e5c10004 	strb	r0, [r1, #4]
    8640:	e7930002 	ldr	r0, [r3, r2]
    8644:	eaffff56 	b	83a4 <append_page_list>
    8648:	00010c20 	andeq	r0, r1, r0, lsr #24
    864c:	0001079c 	muleq	r1, ip, r7
    8650:	00000098 	muleq	r0, r8, r0

00008654 <kmalloc>:
    8654:	e92d4070 	push	{r4, r5, r6, lr}
    8658:	e2805010 	add	r5, r0, #16
    865c:	e215300f 	ands	r3, r5, #15
    8660:	12800020 	addne	r0, r0, #32
    8664:	10405003 	subne	r5, r0, r3
    8668:	e59f30b0 	ldr	r3, [pc, #176]	; 8720 <kmalloc+0xcc>
    866c:	e08f3003 	add	r3, pc, r3
    8670:	e5930008 	ldr	r0, [r3, #8]
    8674:	e3500000 	cmp	r0, #0
    8678:	08bd8070 	popeq	{r4, r5, r6, pc}
    867c:	e3e01102 	mvn	r1, #-2147483648	; 0x80000000
    8680:	e3a04000 	mov	r4, #0
    8684:	e1c020d8 	ldrd	r2, [r0, #8]
    8688:	e3520000 	cmp	r2, #0
    868c:	e0433005 	sub	r3, r3, r5
    8690:	1a000007 	bne	86b4 <kmalloc+0x60>
    8694:	e1530001 	cmp	r3, r1
    8698:	b3a02001 	movlt	r2, #1
    869c:	a3a02000 	movge	r2, #0
    86a0:	e3530000 	cmp	r3, #0
    86a4:	b3a02000 	movlt	r2, #0
    86a8:	e3520000 	cmp	r2, #0
    86ac:	11a01003 	movne	r1, r3
    86b0:	11a04000 	movne	r4, r0
    86b4:	e5900000 	ldr	r0, [r0]
    86b8:	e3500000 	cmp	r0, #0
    86bc:	1afffff0 	bne	8684 <kmalloc+0x30>
    86c0:	e3540000 	cmp	r4, #0
    86c4:	0a000013 	beq	8718 <kmalloc+0xc4>
    86c8:	e3510020 	cmp	r1, #32
    86cc:	ca000003 	bgt	86e0 <kmalloc+0x8c>
    86d0:	e3a03001 	mov	r3, #1
    86d4:	e2840010 	add	r0, r4, #16
    86d8:	e5843008 	str	r3, [r4, #8]
    86dc:	e8bd8070 	pop	{r4, r5, r6, pc}
    86e0:	e0846005 	add	r6, r4, r5
    86e4:	e1a00006 	mov	r0, r6
    86e8:	e3a01010 	mov	r1, #16
    86ec:	eb002376 	bl	114cc <bzero>
    86f0:	e5942000 	ldr	r2, [r4]
    86f4:	e594300c 	ldr	r3, [r4, #12]
    86f8:	e5846000 	str	r6, [r4]
    86fc:	e7842005 	str	r2, [r4, r5]
    8700:	e5942000 	ldr	r2, [r4]
    8704:	e0433005 	sub	r3, r3, r5
    8708:	e5824004 	str	r4, [r2, #4]
    870c:	e582300c 	str	r3, [r2, #12]
    8710:	e584500c 	str	r5, [r4, #12]
    8714:	eaffffed 	b	86d0 <kmalloc+0x7c>
    8718:	e1a00004 	mov	r0, r4
    871c:	e8bd8070 	pop	{r4, r5, r6, pc}
    8720:	00010bd0 	ldrdeq	r0, [r1], -r0	; <UNPREDICTABLE>

00008724 <kfree>:
    8724:	e3500000 	cmp	r0, #0
    8728:	012fff1e 	bxeq	lr
    872c:	e3a03000 	mov	r3, #0
    8730:	e510200c 	ldr	r2, [r0, #-12]
    8734:	e5003008 	str	r3, [r0, #-8]
    8738:	e1520003 	cmp	r2, r3
    873c:	e2403010 	sub	r3, r0, #16
    8740:	0a000012 	beq	8790 <kfree+0x6c>
    8744:	e5921008 	ldr	r1, [r2, #8]
    8748:	e3510000 	cmp	r1, #0
    874c:	1a00000f 	bne	8790 <kfree+0x6c>
    8750:	e5101004 	ldr	r1, [r0, #-4]
    8754:	ea000002 	b	8764 <kfree+0x40>
    8758:	e5920008 	ldr	r0, [r2, #8]
    875c:	e3500000 	cmp	r0, #0
    8760:	1a00000a 	bne	8790 <kfree+0x6c>
    8764:	e5930000 	ldr	r0, [r3]
    8768:	e5820000 	str	r0, [r2]
    876c:	e5930000 	ldr	r0, [r3]
    8770:	e5802004 	str	r2, [r0, #4]
    8774:	e5933004 	ldr	r3, [r3, #4]
    8778:	e593000c 	ldr	r0, [r3, #12]
    877c:	e5932004 	ldr	r2, [r3, #4]
    8780:	e0811000 	add	r1, r1, r0
    8784:	e3520000 	cmp	r2, #0
    8788:	e583100c 	str	r1, [r3, #12]
    878c:	1afffff1 	bne	8758 <kfree+0x34>
    8790:	e5932000 	ldr	r2, [r3]
    8794:	e3520000 	cmp	r2, #0
    8798:	012fff1e 	bxeq	lr
    879c:	e5921008 	ldr	r1, [r2, #8]
    87a0:	e3510000 	cmp	r1, #0
    87a4:	112fff1e 	bxne	lr
    87a8:	e593100c 	ldr	r1, [r3, #12]
    87ac:	e5922000 	ldr	r2, [r2]
    87b0:	e592c00c 	ldr	ip, [r2, #12]
    87b4:	e5920008 	ldr	r0, [r2, #8]
    87b8:	e081100c 	add	r1, r1, ip
    87bc:	e3500000 	cmp	r0, #0
    87c0:	e5823004 	str	r3, [r2, #4]
    87c4:	e5832000 	str	r2, [r3]
    87c8:	e583100c 	str	r1, [r3, #12]
    87cc:	0afffff6 	beq	87ac <kfree+0x88>
    87d0:	e12fff1e 	bx	lr

000087d4 <__locale_ctype_ptr>:
    87d4:	e3a00000 	mov	r0, #0
    87d8:	e12fff1e 	bx	lr

000087dc <funcKey>:
    87dc:	e59fc0bc 	ldr	ip, [pc, #188]	; 88a0 <funcKey+0xc4>
    87e0:	e92d40f0 	push	{r4, r5, r6, r7, lr}
    87e4:	e3500000 	cmp	r0, #0
    87e8:	e08fc00c 	add	ip, pc, ip
    87ec:	e59de014 	ldr	lr, [sp, #20]
    87f0:	e59d0018 	ldr	r0, [sp, #24]
    87f4:	1a000021 	bne	8880 <funcKey+0xa4>
    87f8:	e59f40a4 	ldr	r4, [pc, #164]	; 88a4 <funcKey+0xc8>
    87fc:	e59f00a4 	ldr	r0, [pc, #164]	; 88a8 <funcKey+0xcc>
    8800:	e79c4004 	ldr	r4, [ip, r4]
    8804:	e79c0000 	ldr	r0, [ip, r0]
    8808:	e5944000 	ldr	r4, [r4]
    880c:	e5900000 	ldr	r0, [r0]
    8810:	e244400a 	sub	r4, r4, #10
    8814:	e1540000 	cmp	r4, r0
    8818:	82800001 	addhi	r0, r0, #1
    881c:	90800100 	addls	r0, r0, r0, lsl #2
    8820:	80800100 	addhi	r0, r0, r0, lsl #2
    8824:	91a00080 	lslls	r0, r0, #1
    8828:	81a00080 	lslhi	r0, r0, #1
    882c:	9240006e 	subls	r0, r0, #110	; 0x6e
    8830:	e3a07009 	mov	r7, #9
    8834:	e3e06024 	mvn	r6, #36	; 0x24
    8838:	e3a05000 	mov	r5, #0
    883c:	e59f4068 	ldr	r4, [pc, #104]	; 88ac <funcKey+0xd0>
    8840:	e79cc004 	ldr	ip, [ip, r4]
    8844:	e1a0442e 	lsr	r4, lr, #8
    8848:	e5cce003 	strb	lr, [ip, #3]
    884c:	e1a0e420 	lsr	lr, r0, #8
    8850:	e5cc0005 	strb	r0, [ip, #5]
    8854:	e5cc1006 	strb	r1, [ip, #6]
    8858:	e5cc2007 	strb	r2, [ip, #7]
    885c:	e5cc3009 	strb	r3, [ip, #9]
    8860:	e5cc4002 	strb	r4, [ip, #2]
    8864:	e5cce004 	strb	lr, [ip, #4]
    8868:	e5cc7000 	strb	r7, [ip]
    886c:	e5cc6001 	strb	r6, [ip, #1]
    8870:	e5cc5008 	strb	r5, [ip, #8]
    8874:	e1a0000c 	mov	r0, ip
    8878:	e8bd40f0 	pop	{r4, r5, r6, r7, lr}
    887c:	ea00325d 	b	151f8 <commVDG>
    8880:	e59f4028 	ldr	r4, [pc, #40]	; 88b0 <funcKey+0xd4>
    8884:	e79c4004 	ldr	r4, [ip, r4]
    8888:	e5944000 	ldr	r4, [r4]
    888c:	e2444064 	sub	r4, r4, #100	; 0x64
    8890:	e1540000 	cmp	r4, r0
    8894:	82800001 	addhi	r0, r0, #1
    8898:	92400064 	subls	r0, r0, #100	; 0x64
    889c:	eaffffe3 	b	8830 <funcKey+0x54>
    88a0:	000105ec 	andeq	r0, r1, ip, ror #11
    88a4:	000000bc 	strheq	r0, [r0], -ip
    88a8:	000001b8 			; <UNDEFINED> instruction: 0x000001b8
    88ac:	0000012c 	andeq	r0, r0, ip, lsr #2
    88b0:	000000f8 	strdeq	r0, [r0], -r8

000088b4 <fsSetClusterDir>:
    88b4:	e59f3010 	ldr	r3, [pc, #16]	; 88cc <fsSetClusterDir+0x18>
    88b8:	e59f2010 	ldr	r2, [pc, #16]	; 88d0 <fsSetClusterDir+0x1c>
    88bc:	e08f3003 	add	r3, pc, r3
    88c0:	e7933002 	ldr	r3, [r3, r2]
    88c4:	e5830000 	str	r0, [r3]
    88c8:	e12fff1e 	bx	lr
    88cc:	00010518 	andeq	r0, r1, r8, lsl r5
    88d0:	00000174 	andeq	r0, r0, r4, ror r1

000088d4 <fsGetClusterDir>:
    88d4:	e59f3010 	ldr	r3, [pc, #16]	; 88ec <fsGetClusterDir+0x18>
    88d8:	e59f2010 	ldr	r2, [pc, #16]	; 88f0 <fsGetClusterDir+0x1c>
    88dc:	e08f3003 	add	r3, pc, r3
    88e0:	e7933002 	ldr	r3, [r3, r2]
    88e4:	e5930000 	ldr	r0, [r3]
    88e8:	e12fff1e 	bx	lr
    88ec:	000104f8 	strdeq	r0, [r1], -r8
    88f0:	00000174 	andeq	r0, r0, r4, ror r1

000088f4 <fsPwdDir>:
    88f4:	e59f303c 	ldr	r3, [pc, #60]	; 8938 <fsPwdDir+0x44>
    88f8:	e59f103c 	ldr	r1, [pc, #60]	; 893c <fsPwdDir+0x48>
    88fc:	e08f3003 	add	r3, pc, r3
    8900:	e7931001 	ldr	r1, [r3, r1]
    8904:	e59f2034 	ldr	r2, [pc, #52]	; 8940 <fsPwdDir+0x4c>
    8908:	e5911000 	ldr	r1, [r1]
    890c:	e7932002 	ldr	r2, [r3, r2]
    8910:	e5911008 	ldr	r1, [r1, #8]
    8914:	e5922000 	ldr	r2, [r2]
    8918:	e3a03000 	mov	r3, #0
    891c:	e1510002 	cmp	r1, r2
    8920:	03a0202f 	moveq	r2, #47	; 0x2f
    8924:	13a0206f 	movne	r2, #111	; 0x6f
    8928:	e5c03001 	strb	r3, [r0, #1]
    892c:	e5c02000 	strb	r2, [r0]
    8930:	e3a00000 	mov	r0, #0
    8934:	e12fff1e 	bx	lr
    8938:	000104d8 	ldrdeq	r0, [r1], -r8
    893c:	0000007c 	andeq	r0, r0, ip, ror r0
    8940:	00000174 	andeq	r0, r0, r4, ror r1

00008944 <fsSectorRead>:
    8944:	e3a00001 	mov	r0, #1
    8948:	e12fff1e 	bx	lr

0000894c <fsSectorWrite>:
    894c:	e3a03000 	mov	r3, #0
    8950:	e2833040 	add	r3, r3, #64	; 0x40
    8954:	e3530c02 	cmp	r3, #512	; 0x200
    8958:	1afffffc 	bne	8950 <fsSectorWrite+0x4>
    895c:	e3a00001 	mov	r0, #1
    8960:	e12fff1e 	bx	lr

00008964 <fsUpdateDir>:
    8964:	e92d4070 	push	{r4, r5, r6, lr}
    8968:	e59f3188 	ldr	r3, [pc, #392]	; 8af8 <fsUpdateDir+0x194>
    896c:	e59f1188 	ldr	r1, [pc, #392]	; 8afc <fsUpdateDir+0x198>
    8970:	e08f3003 	add	r3, pc, r3
    8974:	e7935001 	ldr	r5, [r3, r1]
    8978:	e59f2180 	ldr	r2, [pc, #384]	; 8b00 <fsUpdateDir+0x19c>
    897c:	e7934002 	ldr	r4, [r3, r2]
    8980:	e5952000 	ldr	r2, [r5]
    8984:	e5941000 	ldr	r1, [r4]
    8988:	e592002c 	ldr	r0, [r2, #44]	; 0x2c
    898c:	ebffffec 	bl	8944 <fsSectorRead>
    8990:	e3500000 	cmp	r0, #0
    8994:	0a000055 	beq	8af0 <fsUpdateDir+0x18c>
    8998:	e5950000 	ldr	r0, [r5]
    899c:	e3a03000 	mov	r3, #0
    89a0:	e5901030 	ldr	r1, [r0, #48]	; 0x30
    89a4:	ea000000 	b	89ac <fsUpdateDir+0x48>
    89a8:	e5950000 	ldr	r0, [r5]
    89ac:	e5942000 	ldr	r2, [r4]
    89b0:	e7d00003 	ldrb	r0, [r0, r3]
    89b4:	e0822003 	add	r2, r2, r3
    89b8:	e2833001 	add	r3, r3, #1
    89bc:	e3530008 	cmp	r3, #8
    89c0:	e7c20001 	strb	r0, [r2, r1]
    89c4:	1afffff7 	bne	89a8 <fsUpdateDir+0x44>
    89c8:	e3a03000 	mov	r3, #0
    89cc:	e281c008 	add	ip, r1, #8
    89d0:	e5950000 	ldr	r0, [r5]
    89d4:	e5942000 	ldr	r2, [r4]
    89d8:	e0800003 	add	r0, r0, r3
    89dc:	e0822003 	add	r2, r2, r3
    89e0:	e5d00009 	ldrb	r0, [r0, #9]
    89e4:	e2833001 	add	r3, r3, #1
    89e8:	e3530003 	cmp	r3, #3
    89ec:	e7c2000c 	strb	r0, [r2, ip]
    89f0:	1afffff6 	bne	89d0 <fsUpdateDir+0x6c>
    89f4:	e5952000 	ldr	r2, [r5]
    89f8:	e5943000 	ldr	r3, [r4]
    89fc:	e5922018 	ldr	r2, [r2, #24]
    8a00:	e0833001 	add	r3, r3, r1
    8a04:	e5c32012 	strb	r2, [r3, #18]
    8a08:	e5952000 	ldr	r2, [r5]
    8a0c:	e5943000 	ldr	r3, [r4]
    8a10:	e5922018 	ldr	r2, [r2, #24]
    8a14:	e0833001 	add	r3, r3, r1
    8a18:	e1a02422 	lsr	r2, r2, #8
    8a1c:	e5c32013 	strb	r2, [r3, #19]
    8a20:	e5952000 	ldr	r2, [r5]
    8a24:	e5943000 	ldr	r3, [r4]
    8a28:	e5922020 	ldr	r2, [r2, #32]
    8a2c:	e0833001 	add	r3, r3, r1
    8a30:	e5c32016 	strb	r2, [r3, #22]
    8a34:	e5952000 	ldr	r2, [r5]
    8a38:	e5943000 	ldr	r3, [r4]
    8a3c:	e5922020 	ldr	r2, [r2, #32]
    8a40:	e0833001 	add	r3, r3, r1
    8a44:	e1a02422 	lsr	r2, r2, #8
    8a48:	e5c32017 	strb	r2, [r3, #23]
    8a4c:	e5952000 	ldr	r2, [r5]
    8a50:	e5943000 	ldr	r3, [r4]
    8a54:	e592201c 	ldr	r2, [r2, #28]
    8a58:	e0833001 	add	r3, r3, r1
    8a5c:	e5c32018 	strb	r2, [r3, #24]
    8a60:	e5952000 	ldr	r2, [r5]
    8a64:	e5943000 	ldr	r3, [r4]
    8a68:	e592201c 	ldr	r2, [r2, #28]
    8a6c:	e0833001 	add	r3, r3, r1
    8a70:	e1a02422 	lsr	r2, r2, #8
    8a74:	e5c32019 	strb	r2, [r3, #25]
    8a78:	e5952000 	ldr	r2, [r5]
    8a7c:	e5943000 	ldr	r3, [r4]
    8a80:	e5922028 	ldr	r2, [r2, #40]	; 0x28
    8a84:	e0833001 	add	r3, r3, r1
    8a88:	e5c3201c 	strb	r2, [r3, #28]
    8a8c:	e5952000 	ldr	r2, [r5]
    8a90:	e5943000 	ldr	r3, [r4]
    8a94:	e5922028 	ldr	r2, [r2, #40]	; 0x28
    8a98:	e0833001 	add	r3, r3, r1
    8a9c:	e1a02422 	lsr	r2, r2, #8
    8aa0:	e5c3201d 	strb	r2, [r3, #29]
    8aa4:	e5943000 	ldr	r3, [r4]
    8aa8:	e5952000 	ldr	r2, [r5]
    8aac:	e0833001 	add	r3, r3, r1
    8ab0:	e1d202ba 	ldrh	r0, [r2, #42]	; 0x2a
    8ab4:	e3a02000 	mov	r2, #0
    8ab8:	e5c3001e 	strb	r0, [r3, #30]
    8abc:	e5950000 	ldr	r0, [r5]
    8ac0:	e5943000 	ldr	r3, [r4]
    8ac4:	e5d0002b 	ldrb	r0, [r0, #43]	; 0x2b
    8ac8:	e0831001 	add	r1, r3, r1
    8acc:	e5c1001f 	strb	r0, [r1, #31]
    8ad0:	e5953000 	ldr	r3, [r5]
    8ad4:	e5941000 	ldr	r1, [r4]
    8ad8:	e593002c 	ldr	r0, [r3, #44]	; 0x2c
    8adc:	ebffff9a 	bl	894c <fsSectorWrite>
    8ae0:	e3500000 	cmp	r0, #0
    8ae4:	13a00000 	movne	r0, #0
    8ae8:	03a000e2 	moveq	r0, #226	; 0xe2
    8aec:	e8bd8070 	pop	{r4, r5, r6, pc}
    8af0:	e3a000e1 	mov	r0, #225	; 0xe1
    8af4:	e8bd8070 	pop	{r4, r5, r6, pc}
    8af8:	00010464 	andeq	r0, r1, r4, ror #8
    8afc:	00000068 	andeq	r0, r0, r8, rrx
    8b00:	00000030 	andeq	r0, r0, r0, lsr r0

00008b04 <fsFindNextCluster>:
    8b04:	e92d41f0 	push	{r4, r5, r6, r7, r8, lr}
    8b08:	e1a04000 	mov	r4, r0
    8b0c:	e59f30f8 	ldr	r3, [pc, #248]	; 8c0c <fsFindNextCluster+0x108>
    8b10:	e59f00f8 	ldr	r0, [pc, #248]	; 8c10 <fsFindNextCluster+0x10c>
    8b14:	e08f3003 	add	r3, pc, r3
    8b18:	e7930000 	ldr	r0, [r3, r0]
    8b1c:	e59f20f0 	ldr	r2, [pc, #240]	; 8c14 <fsFindNextCluster+0x110>
    8b20:	e1a06001 	mov	r6, r1
    8b24:	e7935002 	ldr	r5, [r3, r2]
    8b28:	e5902000 	ldr	r2, [r0]
    8b2c:	e5951000 	ldr	r1, [r5]
    8b30:	e5927004 	ldr	r7, [r2, #4]
    8b34:	e08773a4 	add	r7, r7, r4, lsr #7
    8b38:	e1a00007 	mov	r0, r7
    8b3c:	ebffff80 	bl	8944 <fsSectorRead>
    8b40:	e3500000 	cmp	r0, #0
    8b44:	03e0400e 	mvneq	r4, #14
    8b48:	0a000023 	beq	8bdc <fsFindNextCluster+0xd8>
    8b4c:	e204307f 	and	r3, r4, #127	; 0x7f
    8b50:	e5951000 	ldr	r1, [r5]
    8b54:	e1a02103 	lsl	r2, r3, #2
    8b58:	e2820003 	add	r0, r2, #3
    8b5c:	e282c002 	add	ip, r2, #2
    8b60:	e7d14000 	ldrb	r4, [r1, r0]
    8b64:	e7d1e00c 	ldrb	lr, [r1, ip]
    8b68:	e7d18103 	ldrb	r8, [r1, r3, lsl #2]
    8b6c:	e1a04c04 	lsl	r4, r4, #24
    8b70:	e2823001 	add	r3, r2, #1
    8b74:	e184480e 	orr	r4, r4, lr, lsl #16
    8b78:	e7d1e003 	ldrb	lr, [r1, r3]
    8b7c:	e1844008 	orr	r4, r4, r8
    8b80:	e3560005 	cmp	r6, #5
    8b84:	e0812002 	add	r2, r1, r2
    8b88:	e184440e 	orr	r4, r4, lr, lsl #8
    8b8c:	0a000012 	beq	8bdc <fsFindNextCluster+0xd8>
    8b90:	e3560003 	cmp	r6, #3
    8b94:	0a000012 	beq	8be4 <fsFindNextCluster+0xe0>
    8b98:	e3560004 	cmp	r6, #4
    8b9c:	1a000009 	bne	8bc8 <fsFindNextCluster+0xc4>
    8ba0:	e3e01000 	mvn	r1, #0
    8ba4:	e3a0e00f 	mov	lr, #15
    8ba8:	e5c21000 	strb	r1, [r2]
    8bac:	e5952000 	ldr	r2, [r5]
    8bb0:	e7c21003 	strb	r1, [r2, r3]
    8bb4:	e5953000 	ldr	r3, [r5]
    8bb8:	e7c3100c 	strb	r1, [r3, ip]
    8bbc:	e5953000 	ldr	r3, [r5]
    8bc0:	e7c3e000 	strb	lr, [r3, r0]
    8bc4:	e5951000 	ldr	r1, [r5]
    8bc8:	e1a00007 	mov	r0, r7
    8bcc:	e3a02000 	mov	r2, #0
    8bd0:	ebffff5d 	bl	894c <fsSectorWrite>
    8bd4:	e3500000 	cmp	r0, #0
    8bd8:	03e0400d 	mvneq	r4, #13
    8bdc:	e1a00004 	mov	r0, r4
    8be0:	e8bd81f0 	pop	{r4, r5, r6, r7, r8, pc}
    8be4:	e3a01000 	mov	r1, #0
    8be8:	e5c21000 	strb	r1, [r2]
    8bec:	e5952000 	ldr	r2, [r5]
    8bf0:	e7c21003 	strb	r1, [r2, r3]
    8bf4:	e5953000 	ldr	r3, [r5]
    8bf8:	e7c3100c 	strb	r1, [r3, ip]
    8bfc:	e5953000 	ldr	r3, [r5]
    8c00:	e7c31000 	strb	r1, [r3, r0]
    8c04:	e5951000 	ldr	r1, [r5]
    8c08:	eaffffee 	b	8bc8 <fsFindNextCluster+0xc4>
    8c0c:	000102c0 	andeq	r0, r1, r0, asr #5
    8c10:	0000007c 	andeq	r0, r0, ip, ror r0
    8c14:	00000030 	andeq	r0, r0, r0, lsr r0

00008c18 <fsFindClusterFree>:
    8c18:	e92d4ff0 	push	{r4, r5, r6, r7, r8, r9, sl, fp, lr}
    8c1c:	e3a09000 	mov	r9, #0
    8c20:	e1a04009 	mov	r4, r9
    8c24:	e59f312c 	ldr	r3, [pc, #300]	; 8d58 <fsFindClusterFree+0x140>
    8c28:	e24dd00c 	sub	sp, sp, #12
    8c2c:	e59f1128 	ldr	r1, [pc, #296]	; 8d5c <fsFindClusterFree+0x144>
    8c30:	e08f3003 	add	r3, pc, r3
    8c34:	e58d0004 	str	r0, [sp, #4]
    8c38:	e59f2120 	ldr	r2, [pc, #288]	; 8d60 <fsFindClusterFree+0x148>
    8c3c:	e7936001 	ldr	r6, [r3, r1]
    8c40:	e7935002 	ldr	r5, [r3, r2]
    8c44:	e5962000 	ldr	r2, [r6]
    8c48:	e5927004 	ldr	r7, [r2, #4]
    8c4c:	e0878009 	add	r8, r7, r9
    8c50:	e1a00008 	mov	r0, r8
    8c54:	e5951000 	ldr	r1, [r5]
    8c58:	ebffff39 	bl	8944 <fsSectorRead>
    8c5c:	e3500000 	cmp	r0, #0
    8c60:	0a000038 	beq	8d48 <fsFindClusterFree+0x130>
    8c64:	e596b000 	ldr	fp, [r6]
    8c68:	e59b0018 	ldr	r0, [fp, #24]
    8c6c:	e3500000 	cmp	r0, #0
    8c70:	0a000015 	beq	8ccc <fsFindClusterFree+0xb4>
    8c74:	e3a03000 	mov	r3, #0
    8c78:	e5951000 	ldr	r1, [r5]
    8c7c:	e5d12000 	ldrb	r2, [r1]
    8c80:	e283c001 	add	ip, r3, #1
    8c84:	e3520000 	cmp	r2, #0
    8c88:	1a00000a 	bne	8cb8 <fsFindClusterFree+0xa0>
    8c8c:	e5d12001 	ldrb	r2, [r1, #1]
    8c90:	e283e002 	add	lr, r3, #2
    8c94:	e3520000 	cmp	r2, #0
    8c98:	1a000006 	bne	8cb8 <fsFindClusterFree+0xa0>
    8c9c:	e5d12002 	ldrb	r2, [r1, #2]
    8ca0:	e283a003 	add	sl, r3, #3
    8ca4:	e3520000 	cmp	r2, #0
    8ca8:	1a000002 	bne	8cb8 <fsFindClusterFree+0xa0>
    8cac:	e5d12003 	ldrb	r2, [r1, #3]
    8cb0:	e3520000 	cmp	r2, #0
    8cb4:	0a00000c 	beq	8cec <fsFindClusterFree+0xd4>
    8cb8:	e2833004 	add	r3, r3, #4
    8cbc:	e1500003 	cmp	r0, r3
    8cc0:	e2844001 	add	r4, r4, #1
    8cc4:	e2811004 	add	r1, r1, #4
    8cc8:	8affffeb 	bhi	8c7c <fsFindClusterFree+0x64>
    8ccc:	e59b301c 	ldr	r3, [fp, #28]
    8cd0:	e2899001 	add	r9, r9, #1
    8cd4:	e1530009 	cmp	r3, r9
    8cd8:	2affffdb 	bcs	8c4c <fsFindClusterFree+0x34>
    8cdc:	e3e0400b 	mvn	r4, #11
    8ce0:	e1a00004 	mov	r0, r4
    8ce4:	e28dd00c 	add	sp, sp, #12
    8ce8:	e8bd8ff0 	pop	{r4, r5, r6, r7, r8, r9, sl, fp, pc}
    8cec:	e59b301c 	ldr	r3, [fp, #28]
    8cf0:	e1530009 	cmp	r3, r9
    8cf4:	3afffff8 	bcc	8cdc <fsFindClusterFree+0xc4>
    8cf8:	e59d3004 	ldr	r3, [sp, #4]
    8cfc:	e3530002 	cmp	r3, #2
    8d00:	1afffff6 	bne	8ce0 <fsFindClusterFree+0xc8>
    8d04:	e3e03000 	mvn	r3, #0
    8d08:	e3a0600f 	mov	r6, #15
    8d0c:	e5c13000 	strb	r3, [r1]
    8d10:	e5951000 	ldr	r1, [r5]
    8d14:	e1a00008 	mov	r0, r8
    8d18:	e7c1300c 	strb	r3, [r1, ip]
    8d1c:	e5951000 	ldr	r1, [r5]
    8d20:	e7c1300e 	strb	r3, [r1, lr]
    8d24:	e5953000 	ldr	r3, [r5]
    8d28:	e7c3600a 	strb	r6, [r3, sl]
    8d2c:	e5951000 	ldr	r1, [r5]
    8d30:	ebffff05 	bl	894c <fsSectorWrite>
    8d34:	e3500000 	cmp	r0, #0
    8d38:	03e0400d 	mvneq	r4, #13
    8d3c:	e1a00004 	mov	r0, r4
    8d40:	e28dd00c 	add	sp, sp, #12
    8d44:	e8bd8ff0 	pop	{r4, r5, r6, r7, r8, r9, sl, fp, pc}
    8d48:	e3e0400e 	mvn	r4, #14
    8d4c:	e1a00004 	mov	r0, r4
    8d50:	e28dd00c 	add	sp, sp, #12
    8d54:	e8bd8ff0 	pop	{r4, r5, r6, r7, r8, r9, sl, fp, pc}
    8d58:	000101a4 	andeq	r0, r1, r4, lsr #3
    8d5c:	0000007c 	andeq	r0, r0, ip, ror r0
    8d60:	00000030 	andeq	r0, r0, r0, lsr r0

00008d64 <fsRWFile>:
    8d64:	e92d4ff0 	push	{r4, r5, r6, r7, r8, r9, sl, fp, lr}
    8d68:	e59fb234 	ldr	fp, [pc, #564]	; 8fa4 <fsRWFile+0x240>
    8d6c:	e59fc234 	ldr	ip, [pc, #564]	; 8fa8 <fsRWFile+0x244>
    8d70:	e08fb00b 	add	fp, pc, fp
    8d74:	e79b900c 	ldr	r9, [fp, ip]
    8d78:	e24dd014 	sub	sp, sp, #20
    8d7c:	e5995000 	ldr	r5, [r9]
    8d80:	e1a07000 	mov	r7, r0
    8d84:	e1a00001 	mov	r0, r1
    8d88:	e5951018 	ldr	r1, [r5, #24]
    8d8c:	e1a0a002 	mov	sl, r2
    8d90:	e1a06003 	mov	r6, r3
    8d94:	eb0022e7 	bl	11938 <__aeabi_uidiv>
    8d98:	e5d53021 	ldrb	r3, [r5, #33]	; 0x21
    8d9c:	e58d000c 	str	r0, [sp, #12]
    8da0:	e1a01003 	mov	r1, r3
    8da4:	e58d3004 	str	r3, [sp, #4]
    8da8:	eb0022e2 	bl	11938 <__aeabi_uidiv>
    8dac:	e2508000 	subs	r8, r0, #0
    8db0:	e59d3004 	ldr	r3, [sp, #4]
    8db4:	0a000078 	beq	8f9c <fsRWFile+0x238>
    8db8:	e3a05000 	mov	r5, #0
    8dbc:	ea00000c 	b	8df4 <fsRWFile+0x90>
    8dc0:	e3a01005 	mov	r1, #5
    8dc4:	e1a00007 	mov	r0, r7
    8dc8:	ebffff4d 	bl	8b04 <fsFindNextCluster>
    8dcc:	e3560001 	cmp	r6, #1
    8dd0:	0370021f 	cmneq	r0, #-268435455	; 0xf0000001
    8dd4:	e1a04000 	mov	r4, r0
    8dd8:	0a00006a 	beq	8f88 <fsRWFile+0x224>
    8ddc:	e3560003 	cmp	r6, #3
    8de0:	0a00001d 	beq	8e5c <fsRWFile+0xf8>
    8de4:	e2855001 	add	r5, r5, #1
    8de8:	e1580005 	cmp	r8, r5
    8dec:	e1a07004 	mov	r7, r4
    8df0:	9a00004a 	bls	8f20 <fsRWFile+0x1bc>
    8df4:	e3560002 	cmp	r6, #2
    8df8:	1afffff0 	bne	8dc0 <fsRWFile+0x5c>
    8dfc:	e5993000 	ldr	r3, [r9]
    8e00:	e3a02000 	mov	r2, #0
    8e04:	e5930004 	ldr	r0, [r3, #4]
    8e08:	e1a0100a 	mov	r1, sl
    8e0c:	e2400001 	sub	r0, r0, #1
    8e10:	ebfffecd 	bl	894c <fsSectorWrite>
    8e14:	e3500000 	cmp	r0, #0
    8e18:	0a00000c 	beq	8e50 <fsRWFile+0xec>
    8e1c:	e3a01005 	mov	r1, #5
    8e20:	e1a00007 	mov	r0, r7
    8e24:	ebffff36 	bl	8b04 <fsFindNextCluster>
    8e28:	e370021f 	cmn	r0, #-268435455	; 0xf0000001
    8e2c:	e1a04000 	mov	r4, r0
    8e30:	0a00000b 	beq	8e64 <fsRWFile+0x100>
    8e34:	e5993000 	ldr	r3, [r9]
    8e38:	e1a0100a 	mov	r1, sl
    8e3c:	e5930004 	ldr	r0, [r3, #4]
    8e40:	e2400001 	sub	r0, r0, #1
    8e44:	ebfffebe 	bl	8944 <fsSectorRead>
    8e48:	e3500000 	cmp	r0, #0
    8e4c:	1affffe4 	bne	8de4 <fsRWFile+0x80>
    8e50:	e3a000e1 	mov	r0, #225	; 0xe1
    8e54:	e28dd014 	add	sp, sp, #20
    8e58:	e8bd8ff0 	pop	{r4, r5, r6, r7, r8, r9, sl, fp, pc}
    8e5c:	e370021f 	cmn	r0, #-268435455	; 0xf0000001
    8e60:	1affffdf 	bne	8de4 <fsRWFile+0x80>
    8e64:	e3a00002 	mov	r0, #2
    8e68:	ebffff6a 	bl	8c18 <fsFindClusterFree>
    8e6c:	e370000c 	cmn	r0, #12
    8e70:	e1a04000 	mov	r4, r0
    8e74:	0a000046 	beq	8f94 <fsRWFile+0x230>
    8e78:	e5992000 	ldr	r2, [r9]
    8e7c:	e59f3128 	ldr	r3, [pc, #296]	; 8fac <fsRWFile+0x248>
    8e80:	e5922004 	ldr	r2, [r2, #4]
    8e84:	e79b3003 	ldr	r3, [fp, r3]
    8e88:	e08223a7 	add	r2, r2, r7, lsr #7
    8e8c:	e1a00002 	mov	r0, r2
    8e90:	e5931000 	ldr	r1, [r3]
    8e94:	e58d2008 	str	r2, [sp, #8]
    8e98:	e58d3004 	str	r3, [sp, #4]
    8e9c:	ebfffea8 	bl	8944 <fsSectorRead>
    8ea0:	e3500000 	cmp	r0, #0
    8ea4:	0affffe9 	beq	8e50 <fsRWFile+0xec>
    8ea8:	e59d3004 	ldr	r3, [sp, #4]
    8eac:	e207507f 	and	r5, r7, #127	; 0x7f
    8eb0:	e5931000 	ldr	r1, [r3]
    8eb4:	e1a00424 	lsr	r0, r4, #8
    8eb8:	e7c14105 	strb	r4, [r1, r5, lsl #2]
    8ebc:	e5931000 	ldr	r1, [r3]
    8ec0:	e1a05105 	lsl	r5, r5, #2
    8ec4:	e0811005 	add	r1, r1, r5
    8ec8:	e5c10001 	strb	r0, [r1, #1]
    8ecc:	e5931000 	ldr	r1, [r3]
    8ed0:	e1a00824 	lsr	r0, r4, #16
    8ed4:	e0811005 	add	r1, r1, r5
    8ed8:	e5c10002 	strb	r0, [r1, #2]
    8edc:	e5931000 	ldr	r1, [r3]
    8ee0:	e59d2008 	ldr	r2, [sp, #8]
    8ee4:	e1a00c24 	lsr	r0, r4, #24
    8ee8:	e0811005 	add	r1, r1, r5
    8eec:	e5c10003 	strb	r0, [r1, #3]
    8ef0:	e5931000 	ldr	r1, [r3]
    8ef4:	e1a00002 	mov	r0, r2
    8ef8:	e3a02000 	mov	r2, #0
    8efc:	ebfffe92 	bl	894c <fsSectorWrite>
    8f00:	e3500000 	cmp	r0, #0
    8f04:	0a00001a 	beq	8f74 <fsRWFile+0x210>
    8f08:	e3560002 	cmp	r6, #2
    8f0c:	0affffc8 	beq	8e34 <fsRWFile+0xd0>
    8f10:	e2855001 	add	r5, r5, #1
    8f14:	e1580005 	cmp	r8, r5
    8f18:	e1a07004 	mov	r7, r4
    8f1c:	8affffb4 	bhi	8df4 <fsRWFile+0x90>
    8f20:	e5995000 	ldr	r5, [r9]
    8f24:	e5d53021 	ldrb	r3, [r5, #33]	; 0x21
    8f28:	e5952000 	ldr	r2, [r5]
    8f2c:	e59d100c 	ldr	r1, [sp, #12]
    8f30:	e2440002 	sub	r0, r4, #2
    8f34:	e0814002 	add	r4, r1, r2
    8f38:	e0204093 	mla	r0, r3, r0, r4
    8f3c:	e0080893 	mul	r8, r3, r8
    8f40:	e5d52020 	ldrb	r2, [r5, #32]
    8f44:	e595301c 	ldr	r3, [r5, #28]
    8f48:	e20660fd 	and	r6, r6, #253	; 0xfd
    8f4c:	e0800002 	add	r0, r0, r2
    8f50:	e0800083 	add	r0, r0, r3, lsl #1
    8f54:	e3560001 	cmp	r6, #1
    8f58:	e1a0100a 	mov	r1, sl
    8f5c:	e0400008 	sub	r0, r0, r8
    8f60:	0a000005 	beq	8f7c <fsRWFile+0x218>
    8f64:	e3a02000 	mov	r2, #0
    8f68:	ebfffe77 	bl	894c <fsSectorWrite>
    8f6c:	e3500000 	cmp	r0, #0
    8f70:	1a000004 	bne	8f88 <fsRWFile+0x224>
    8f74:	e3a000e2 	mov	r0, #226	; 0xe2
    8f78:	ea000003 	b	8f8c <fsRWFile+0x228>
    8f7c:	ebfffe70 	bl	8944 <fsSectorRead>
    8f80:	e3500000 	cmp	r0, #0
    8f84:	0affffb1 	beq	8e50 <fsRWFile+0xec>
    8f88:	e3a00000 	mov	r0, #0
    8f8c:	e28dd014 	add	sp, sp, #20
    8f90:	e8bd8ff0 	pop	{r4, r5, r6, r7, r8, r9, sl, fp, pc}
    8f94:	e3a000eb 	mov	r0, #235	; 0xeb
    8f98:	eafffffb 	b	8f8c <fsRWFile+0x228>
    8f9c:	e1a04007 	mov	r4, r7
    8fa0:	eaffffe0 	b	8f28 <fsRWFile+0x1c4>
    8fa4:	00010064 	andeq	r0, r1, r4, rrx
    8fa8:	0000007c 	andeq	r0, r0, ip, ror r0
    8fac:	00000030 	andeq	r0, r0, r0, lsr r0

00008fb0 <fsFindInDir>:
    8fb0:	e92d4ff0 	push	{r4, r5, r6, r7, r8, r9, sl, fp, lr}
    8fb4:	e1a04000 	mov	r4, r0
    8fb8:	e24dd08c 	sub	sp, sp, #140	; 0x8c
    8fbc:	e28d307c 	add	r3, sp, #124	; 0x7c
    8fc0:	e1a00003 	mov	r0, r3
    8fc4:	e58d1004 	str	r1, [sp, #4]
    8fc8:	e3a02008 	mov	r2, #8
    8fcc:	e3a01020 	mov	r1, #32
    8fd0:	e28d5070 	add	r5, sp, #112	; 0x70
    8fd4:	e58d3058 	str	r3, [sp, #88]	; 0x58
    8fd8:	e58d5054 	str	r5, [sp, #84]	; 0x54
    8fdc:	eb002128 	bl	11484 <memset>
    8fe0:	e1a00005 	mov	r0, r5
    8fe4:	e3a02003 	mov	r2, #3
    8fe8:	e3a01020 	mov	r1, #32
    8fec:	eb002124 	bl	11484 <memset>
    8ff0:	e59f3c8c 	ldr	r3, [pc, #3212]	; 9c84 <fsFindInDir+0xcd4>
    8ff4:	e3540000 	cmp	r4, #0
    8ff8:	e08f3003 	add	r3, pc, r3
    8ffc:	e58d305c 	str	r3, [sp, #92]	; 0x5c
    9000:	0a000020 	beq	9088 <fsFindInDir+0xd8>
    9004:	e5d43000 	ldrb	r3, [r4]
    9008:	e353002e 	cmp	r3, #46	; 0x2e
    900c:	0a0002a1 	beq	9a98 <fsFindInDir+0xae8>
    9010:	e1a00004 	mov	r0, r4
    9014:	eb0021c0 	bl	1171c <strlen>
    9018:	e1a06004 	mov	r6, r4
    901c:	e3a05000 	mov	r5, #0
    9020:	e4d61001 	ldrb	r1, [r6], #1
    9024:	e3510000 	cmp	r1, #0
    9028:	0a000016 	beq	9088 <fsFindInDir+0xd8>
    902c:	e351002e 	cmp	r1, #46	; 0x2e
    9030:	0a000172 	beq	9600 <fsFindInDir+0x650>
    9034:	e59f3c4c 	ldr	r3, [pc, #3148]	; 9c88 <fsFindInDir+0xcd8>
    9038:	e59d205c 	ldr	r2, [sp, #92]	; 0x5c
    903c:	e7923003 	ldr	r3, [r2, r3]
    9040:	e2830039 	add	r0, r3, #57	; 0x39
    9044:	ea000001 	b	9050 <fsFindInDir+0xa0>
    9048:	e1500003 	cmp	r0, r3
    904c:	0a00028e 	beq	9a8c <fsFindInDir+0xadc>
    9050:	e4d32001 	ldrb	r2, [r3], #1
    9054:	e1510002 	cmp	r1, r2
    9058:	1afffffa 	bne	9048 <fsFindInDir+0x98>
    905c:	e3550007 	cmp	r5, #7
    9060:	8a000168 	bhi	9608 <fsFindInDir+0x658>
    9064:	e28d3088 	add	r3, sp, #136	; 0x88
    9068:	e0833005 	add	r3, r3, r5
    906c:	e543100c 	strb	r1, [r3, #-12]
    9070:	e2855001 	add	r5, r5, #1
    9074:	e1a00004 	mov	r0, r4
    9078:	eb0021a7 	bl	1171c <strlen>
    907c:	e0463004 	sub	r3, r6, r4
    9080:	e1500003 	cmp	r0, r3
    9084:	2affffe5 	bcs	9020 <fsFindInDir+0x70>
    9088:	e59d105c 	ldr	r1, [sp, #92]	; 0x5c
    908c:	e59f2bf8 	ldr	r2, [pc, #3064]	; 9c8c <fsFindInDir+0xcdc>
    9090:	e59f3bf8 	ldr	r3, [pc, #3064]	; 9c90 <fsFindInDir+0xce0>
    9094:	e7918002 	ldr	r8, [r1, r2]
    9098:	e7913003 	ldr	r3, [r1, r3]
    909c:	e5982000 	ldr	r2, [r8]
    90a0:	e593c000 	ldr	ip, [r3]
    90a4:	e592001c 	ldr	r0, [r2, #28]
    90a8:	e58d306c 	str	r3, [sp, #108]	; 0x6c
    90ac:	e5d23020 	ldrb	r3, [r2, #32]
    90b0:	e5921000 	ldr	r1, [r2]
    90b4:	e0833080 	add	r3, r3, r0, lsl #1
    90b8:	e5d22021 	ldrb	r2, [r2, #33]	; 0x21
    90bc:	e0833001 	add	r3, r3, r1
    90c0:	e24c1002 	sub	r1, ip, #2
    90c4:	e0233192 	mla	r3, r2, r1, r3
    90c8:	e373021f 	cmn	r3, #-268435455	; 0xf0000001
    90cc:	e58dc068 	str	ip, [sp, #104]	; 0x68
    90d0:	e58d3008 	str	r3, [sp, #8]
    90d4:	0a00013e 	beq	95d4 <fsFindInDir+0x624>
    90d8:	e3a03000 	mov	r3, #0
    90dc:	e58d3060 	str	r3, [sp, #96]	; 0x60
    90e0:	e3e03000 	mvn	r3, #0
    90e4:	e1a05008 	mov	r5, r8
    90e8:	e58d304c 	str	r3, [sp, #76]	; 0x4c
    90ec:	e59d105c 	ldr	r1, [sp, #92]	; 0x5c
    90f0:	e59f3b9c 	ldr	r3, [pc, #2972]	; 9c94 <fsFindInDir+0xce4>
    90f4:	e7913003 	ldr	r3, [r1, r3]
    90f8:	e58d300c 	str	r3, [sp, #12]
    90fc:	e3520000 	cmp	r2, #0
    9100:	0a0000a9 	beq	93ac <fsFindInDir+0x3fc>
    9104:	e1a07005 	mov	r7, r5
    9108:	e59d3060 	ldr	r3, [sp, #96]	; 0x60
    910c:	e58d3050 	str	r3, [sp, #80]	; 0x50
    9110:	e59d300c 	ldr	r3, [sp, #12]
    9114:	e59d0008 	ldr	r0, [sp, #8]
    9118:	e5931000 	ldr	r1, [r3]
    911c:	ebfffe08 	bl	8944 <fsSectorRead>
    9120:	e3500000 	cmp	r0, #0
    9124:	0a000255 	beq	9a80 <fsFindInDir+0xad0>
    9128:	e5973000 	ldr	r3, [r7]
    912c:	e5933018 	ldr	r3, [r3, #24]
    9130:	e3530000 	cmp	r3, #0
    9134:	0a000086 	beq	9354 <fsFindInDir+0x3a4>
    9138:	e3a04000 	mov	r4, #0
    913c:	e59f3b54 	ldr	r3, [pc, #2900]	; 9c98 <fsFindInDir+0xce8>
    9140:	e59d205c 	ldr	r2, [sp, #92]	; 0x5c
    9144:	e7923003 	ldr	r3, [r2, r3]
    9148:	e58d7010 	str	r7, [sp, #16]
    914c:	e58d3064 	str	r3, [sp, #100]	; 0x64
    9150:	e5933000 	ldr	r3, [r3]
    9154:	e59d200c 	ldr	r2, [sp, #12]
    9158:	e2431001 	sub	r1, r3, #1
    915c:	e5922000 	ldr	r2, [r2]
    9160:	e2835007 	add	r5, r3, #7
    9164:	e0820004 	add	r0, r2, r4
    9168:	e1a0c000 	mov	ip, r0
    916c:	e4dce001 	ldrb	lr, [ip], #1
    9170:	e5e1e001 	strb	lr, [r1, #1]!
    9174:	e1550001 	cmp	r5, r1
    9178:	1afffffb 	bne	916c <fsFindInDir+0x1bc>
    917c:	e5d01008 	ldrb	r1, [r0, #8]
    9180:	e284c00b 	add	ip, r4, #11
    9184:	e5c31009 	strb	r1, [r3, #9]
    9188:	e5d01009 	ldrb	r1, [r0, #9]
    918c:	e284e00f 	add	lr, r4, #15
    9190:	e5c3100a 	strb	r1, [r3, #10]
    9194:	e5d0100a 	ldrb	r1, [r0, #10]
    9198:	e284500e 	add	r5, r4, #14
    919c:	e5c3100b 	strb	r1, [r3, #11]
    91a0:	e7d2700c 	ldrb	r7, [r2, ip]
    91a4:	e58dc044 	str	ip, [sp, #68]	; 0x44
    91a8:	e5c3700d 	strb	r7, [r3, #13]
    91ac:	e7d2100e 	ldrb	r1, [r2, lr]
    91b0:	e2846011 	add	r6, r4, #17
    91b4:	e1a01401 	lsl	r1, r1, #8
    91b8:	e5831014 	str	r1, [r3, #20]
    91bc:	e7d2c005 	ldrb	ip, [r2, r5]
    91c0:	e58de01c 	str	lr, [sp, #28]
    91c4:	e18c1001 	orr	r1, ip, r1
    91c8:	e5831014 	str	r1, [r3, #20]
    91cc:	e7d21006 	ldrb	r1, [r2, r6]
    91d0:	e284e010 	add	lr, r4, #16
    91d4:	e1a01401 	lsl	r1, r1, #8
    91d8:	e5831010 	str	r1, [r3, #16]
    91dc:	e7d2c00e 	ldrb	ip, [r2, lr]
    91e0:	e58d5020 	str	r5, [sp, #32]
    91e4:	e18c1001 	orr	r1, ip, r1
    91e8:	e5831010 	str	r1, [r3, #16]
    91ec:	e2845013 	add	r5, r4, #19
    91f0:	e7d21005 	ldrb	r1, [r2, r5]
    91f4:	e58d6024 	str	r6, [sp, #36]	; 0x24
    91f8:	e1a01401 	lsl	r1, r1, #8
    91fc:	e5831018 	str	r1, [r3, #24]
    9200:	e2846012 	add	r6, r4, #18
    9204:	e58d502c 	str	r5, [sp, #44]	; 0x2c
    9208:	e7d25006 	ldrb	r5, [r2, r6]
    920c:	e2848017 	add	r8, r4, #23
    9210:	e1851001 	orr	r1, r5, r1
    9214:	e5831018 	str	r1, [r3, #24]
    9218:	e7d21008 	ldrb	r1, [r2, r8]
    921c:	e284c016 	add	ip, r4, #22
    9220:	e1a01401 	lsl	r1, r1, #8
    9224:	e58d8034 	str	r8, [sp, #52]	; 0x34
    9228:	e5831020 	str	r1, [r3, #32]
    922c:	e2848018 	add	r8, r4, #24
    9230:	e58de028 	str	lr, [sp, #40]	; 0x28
    9234:	e58dc048 	str	ip, [sp, #72]	; 0x48
    9238:	e58d8038 	str	r8, [sp, #56]	; 0x38
    923c:	e58d6030 	str	r6, [sp, #48]	; 0x30
    9240:	e7d2600c 	ldrb	r6, [r2, ip]
    9244:	e284e019 	add	lr, r4, #25
    9248:	e1861001 	orr	r1, r6, r1
    924c:	e5831020 	str	r1, [r3, #32]
    9250:	e7d2100e 	ldrb	r1, [r2, lr]
    9254:	e2845015 	add	r5, r4, #21
    9258:	e1a01401 	lsl	r1, r1, #8
    925c:	e583101c 	str	r1, [r3, #28]
    9260:	e7d26008 	ldrb	r6, [r2, r8]
    9264:	e2849014 	add	r9, r4, #20
    9268:	e1861001 	orr	r1, r6, r1
    926c:	e583101c 	str	r1, [r3, #28]
    9270:	e7d2a005 	ldrb	sl, [r2, r5]
    9274:	e284801b 	add	r8, r4, #27
    9278:	e1a0ac0a 	lsl	sl, sl, #24
    927c:	e583a024 	str	sl, [r3, #36]	; 0x24
    9280:	e7d21009 	ldrb	r1, [r2, r9]
    9284:	e284601a 	add	r6, r4, #26
    9288:	e18aa801 	orr	sl, sl, r1, lsl #16
    928c:	e583a024 	str	sl, [r3, #36]	; 0x24
    9290:	e7d21008 	ldrb	r1, [r2, r8]
    9294:	e284b01f 	add	fp, r4, #31
    9298:	e18a1401 	orr	r1, sl, r1, lsl #8
    929c:	e5831024 	str	r1, [r3, #36]	; 0x24
    92a0:	e7d2a006 	ldrb	sl, [r2, r6]
    92a4:	e58d8018 	str	r8, [sp, #24]
    92a8:	e18aa001 	orr	sl, sl, r1
    92ac:	e583a024 	str	sl, [r3, #36]	; 0x24
    92b0:	e7d2100b 	ldrb	r1, [r2, fp]
    92b4:	e284801e 	add	r8, r4, #30
    92b8:	e1a01c01 	lsl	r1, r1, #24
    92bc:	e5831028 	str	r1, [r3, #40]	; 0x28
    92c0:	e58db03c 	str	fp, [sp, #60]	; 0x3c
    92c4:	e7d2b008 	ldrb	fp, [r2, r8]
    92c8:	e58d9014 	str	r9, [sp, #20]
    92cc:	e181180b 	orr	r1, r1, fp, lsl #16
    92d0:	e5831028 	str	r1, [r3, #40]	; 0x28
    92d4:	e284901d 	add	r9, r4, #29
    92d8:	e7d2b009 	ldrb	fp, [r2, r9]
    92dc:	e59dc004 	ldr	ip, [sp, #4]
    92e0:	e181140b 	orr	r1, r1, fp, lsl #8
    92e4:	e5831028 	str	r1, [r3, #40]	; 0x28
    92e8:	e35c0008 	cmp	ip, #8
    92ec:	e284c01c 	add	ip, r4, #28
    92f0:	e7d2b00c 	ldrb	fp, [r2, ip]
    92f4:	e59d2008 	ldr	r2, [sp, #8]
    92f8:	e18b1001 	orr	r1, fp, r1
    92fc:	e583202c 	str	r2, [r3, #44]	; 0x2c
    9300:	e58dc040 	str	ip, [sp, #64]	; 0x40
    9304:	e5831028 	str	r1, [r3, #40]	; 0x28
    9308:	e5834030 	str	r4, [r3, #48]	; 0x30
    930c:	e5d32000 	ldrb	r2, [r3]
    9310:	0a000063 	beq	94a4 <fsFindInDir+0x4f4>
    9314:	e59d1004 	ldr	r1, [sp, #4]
    9318:	e2411003 	sub	r1, r1, #3
    931c:	e3510002 	cmp	r1, #2
    9320:	9a00004c 	bls	9458 <fsFindInDir+0x4a8>
    9324:	e3520000 	cmp	r2, #0
    9328:	135200e5 	cmpne	r2, #229	; 0xe5
    932c:	1a000065 	bne	94c8 <fsFindInDir+0x518>
    9330:	e3520000 	cmp	r2, #0
    9334:	0a000057 	beq	9498 <fsFindInDir+0x4e8>
    9338:	e59d2010 	ldr	r2, [sp, #16]
    933c:	e2844020 	add	r4, r4, #32
    9340:	e5922000 	ldr	r2, [r2]
    9344:	e5922018 	ldr	r2, [r2, #24]
    9348:	e1520004 	cmp	r2, r4
    934c:	8affff80 	bhi	9154 <fsFindInDir+0x1a4>
    9350:	e59d7010 	ldr	r7, [sp, #16]
    9354:	e59d0008 	ldr	r0, [sp, #8]
    9358:	e59d304c 	ldr	r3, [sp, #76]	; 0x4c
    935c:	e370021f 	cmn	r0, #-268435455	; 0xf0000001
    9360:	13730011 	cmnne	r3, #17
    9364:	9a00004b 	bls	9498 <fsFindInDir+0x4e8>
    9368:	e59d3050 	ldr	r3, [sp, #80]	; 0x50
    936c:	e5972000 	ldr	r2, [r7]
    9370:	e59d1060 	ldr	r1, [sp, #96]	; 0x60
    9374:	e2833001 	add	r3, r3, #1
    9378:	e58d3050 	str	r3, [sp, #80]	; 0x50
    937c:	e5d22021 	ldrb	r2, [r2, #33]	; 0x21
    9380:	e0433001 	sub	r3, r3, r1
    9384:	e6ef3073 	uxtb	r3, r3
    9388:	e1520003 	cmp	r2, r3
    938c:	e2803001 	add	r3, r0, #1
    9390:	e58d3008 	str	r3, [sp, #8]
    9394:	8affff5d 	bhi	9110 <fsFindInDir+0x160>
    9398:	e373021f 	cmn	r3, #-268435455	; 0xf0000001
    939c:	e1a05007 	mov	r5, r7
    93a0:	0a00003c 	beq	9498 <fsFindInDir+0x4e8>
    93a4:	e59d3050 	ldr	r3, [sp, #80]	; 0x50
    93a8:	e58d3060 	str	r3, [sp, #96]	; 0x60
    93ac:	e5953000 	ldr	r3, [r5]
    93b0:	e59d7068 	ldr	r7, [sp, #104]	; 0x68
    93b4:	e5934004 	ldr	r4, [r3, #4]
    93b8:	e59d600c 	ldr	r6, [sp, #12]
    93bc:	e08443a7 	add	r4, r4, r7, lsr #7
    93c0:	e5961000 	ldr	r1, [r6]
    93c4:	e1a00004 	mov	r0, r4
    93c8:	ebfffd5d 	bl	8944 <fsSectorRead>
    93cc:	e3500000 	cmp	r0, #0
    93d0:	0a0001aa 	beq	9a80 <fsFindInDir+0xad0>
    93d4:	e207807f 	and	r8, r7, #127	; 0x7f
    93d8:	e5962000 	ldr	r2, [r6]
    93dc:	e1a01108 	lsl	r1, r8, #2
    93e0:	e2817003 	add	r7, r1, #3
    93e4:	e7d23007 	ldrb	r3, [r2, r7]
    93e8:	e2816002 	add	r6, r1, #2
    93ec:	e7d20006 	ldrb	r0, [r2, r6]
    93f0:	e2819001 	add	r9, r1, #1
    93f4:	e1a03c03 	lsl	r3, r3, #24
    93f8:	e7d21108 	ldrb	r1, [r2, r8, lsl #2]
    93fc:	e1833800 	orr	r3, r3, r0, lsl #16
    9400:	e7d22009 	ldrb	r2, [r2, r9]
    9404:	e1833001 	orr	r3, r3, r1
    9408:	e1833402 	orr	r3, r3, r2, lsl #8
    940c:	e373021f 	cmn	r3, #-268435455	; 0xf0000001
    9410:	e58d3068 	str	r3, [sp, #104]	; 0x68
    9414:	0a00015d 	beq	9990 <fsFindInDir+0x9e0>
    9418:	e5952000 	ldr	r2, [r5]
    941c:	e2431002 	sub	r1, r3, #2
    9420:	e592001c 	ldr	r0, [r2, #28]
    9424:	e5d23020 	ldrb	r3, [r2, #32]
    9428:	e592c000 	ldr	ip, [r2]
    942c:	e0833080 	add	r3, r3, r0, lsl #1
    9430:	e5d20021 	ldrb	r0, [r2, #33]	; 0x21
    9434:	e083300c 	add	r3, r3, ip
    9438:	e0233190 	mla	r3, r0, r1, r3
    943c:	e58d3008 	str	r3, [sp, #8]
    9440:	e59d3008 	ldr	r3, [sp, #8]
    9444:	e373021f 	cmn	r3, #-268435455	; 0xf0000001
    9448:	0a000012 	beq	9498 <fsFindInDir+0x4e8>
    944c:	e5953000 	ldr	r3, [r5]
    9450:	e5d32021 	ldrb	r2, [r3, #33]	; 0x21
    9454:	eaffff28 	b	90fc <fsFindInDir+0x14c>
    9458:	e35200e5 	cmp	r2, #229	; 0xe5
    945c:	13520000 	cmpne	r2, #0
    9460:	1affffb4 	bne	9338 <fsFindInDir+0x388>
    9464:	e59d3004 	ldr	r3, [sp, #4]
    9468:	e1cd86f0 	strd	r8, [sp, #96]	; 0x60
    946c:	e3530003 	cmp	r3, #3
    9470:	e59d7014 	ldr	r7, [sp, #20]
    9474:	e59db044 	ldr	fp, [sp, #68]	; 0x44
    9478:	e58de05c 	str	lr, [sp, #92]	; 0x5c
    947c:	e1a0a006 	mov	sl, r6
    9480:	e58d5014 	str	r5, [sp, #20]
    9484:	e59d9018 	ldr	r9, [sp, #24]
    9488:	e59d8010 	ldr	r8, [sp, #16]
    948c:	1a000061 	bne	9618 <fsFindInDir+0x668>
    9490:	e59d3050 	ldr	r3, [sp, #80]	; 0x50
    9494:	e58d304c 	str	r3, [sp, #76]	; 0x4c
    9498:	e59d004c 	ldr	r0, [sp, #76]	; 0x4c
    949c:	e28dd08c 	add	sp, sp, #140	; 0x8c
    94a0:	e8bd8ff0 	pop	{r4, r5, r6, r7, r8, r9, sl, fp, pc}
    94a4:	e35200e5 	cmp	r2, #229	; 0xe5
    94a8:	0affffa2 	beq	9338 <fsFindInDir+0x388>
    94ac:	e3520000 	cmp	r2, #0
    94b0:	e59d304c 	ldr	r3, [sp, #76]	; 0x4c
    94b4:	11a0300a 	movne	r3, sl
    94b8:	e58d304c 	str	r3, [sp, #76]	; 0x4c
    94bc:	e59d004c 	ldr	r0, [sp, #76]	; 0x4c
    94c0:	e28dd08c 	add	sp, sp, #140	; 0x8c
    94c4:	e8bd8ff0 	pop	{r4, r5, r6, r7, r8, r9, sl, fp, pc}
    94c8:	e3a02000 	mov	r2, #0
    94cc:	e59d8054 	ldr	r8, [sp, #84]	; 0x54
    94d0:	e59de058 	ldr	lr, [sp, #88]	; 0x58
    94d4:	ea000006 	b	94f4 <fsFindInDir+0x544>
    94d8:	e7dec002 	ldrb	ip, [lr, r2]
    94dc:	e7d31002 	ldrb	r1, [r3, r2]
    94e0:	e15c0001 	cmp	ip, r1
    94e4:	1affff93 	bne	9338 <fsFindInDir+0x388>
    94e8:	e2822001 	add	r2, r2, #1
    94ec:	e352000b 	cmp	r2, #11
    94f0:	0a00000a 	beq	9520 <fsFindInDir+0x570>
    94f4:	e3520007 	cmp	r2, #7
    94f8:	9afffff6 	bls	94d8 <fsFindInDir+0x528>
    94fc:	e088c002 	add	ip, r8, r2
    9500:	e0831002 	add	r1, r3, r2
    9504:	e55cc008 	ldrb	ip, [ip, #-8]
    9508:	e5d11001 	ldrb	r1, [r1, #1]
    950c:	e15c0001 	cmp	ip, r1
    9510:	1affff88 	bne	9338 <fsFindInDir+0x388>
    9514:	e2822001 	add	r2, r2, #1
    9518:	e352000b 	cmp	r2, #11
    951c:	1afffff4 	bne	94f4 <fsFindInDir+0x544>
    9520:	e59d2004 	ldr	r2, [sp, #4]
    9524:	e35200ff 	cmp	r2, #255	; 0xff
    9528:	0a00002e 	beq	95e8 <fsFindInDir+0x638>
    952c:	e59d2004 	ldr	r2, [sp, #4]
    9530:	e3520002 	cmp	r2, #2
    9534:	0a000029 	beq	95e0 <fsFindInDir+0x630>
    9538:	e59d2004 	ldr	r2, [sp, #4]
    953c:	e3520001 	cmp	r2, #1
    9540:	0a00002b 	beq	95f4 <fsFindInDir+0x644>
    9544:	e59d2004 	ldr	r2, [sp, #4]
    9548:	e3520009 	cmp	r2, #9
    954c:	03a02008 	moveq	r2, #8
    9550:	058d2004 	streq	r2, [sp, #4]
    9554:	0affff77 	beq	9338 <fsFindInDir+0x388>
    9558:	e2422006 	sub	r2, r2, #6
    955c:	e3520001 	cmp	r2, #1
    9560:	8affff74 	bhi	9338 <fsFindInDir+0x388>
    9564:	e3e0301a 	mvn	r3, #26
    9568:	e3a0c000 	mov	ip, #0
    956c:	e59d100c 	ldr	r1, [sp, #12]
    9570:	e5c03000 	strb	r3, [r0]
    9574:	e5913000 	ldr	r3, [r1]
    9578:	e59de018 	ldr	lr, [sp, #24]
    957c:	e7c3c006 	strb	ip, [r3, r6]
    9580:	e5913000 	ldr	r3, [r1]
    9584:	e59d0008 	ldr	r0, [sp, #8]
    9588:	e7c3c00e 	strb	ip, [r3, lr]
    958c:	e5913000 	ldr	r3, [r1]
    9590:	e59de014 	ldr	lr, [sp, #20]
    9594:	e3a02000 	mov	r2, #0
    9598:	e7c3c00e 	strb	ip, [r3, lr]
    959c:	e5913000 	ldr	r3, [r1]
    95a0:	e7c3c005 	strb	ip, [r3, r5]
    95a4:	e5911000 	ldr	r1, [r1]
    95a8:	ebfffce7 	bl	894c <fsSectorWrite>
    95ac:	e3500000 	cmp	r0, #0
    95b0:	0a0000f3 	beq	9984 <fsFindInDir+0x9d4>
    95b4:	e1a0000a 	mov	r0, sl
    95b8:	ea000001 	b	95c4 <fsFindInDir+0x614>
    95bc:	e370021f 	cmn	r0, #-268435455	; 0xf0000001
    95c0:	0a00013a 	beq	9ab0 <fsFindInDir+0xb00>
    95c4:	e3a01003 	mov	r1, #3
    95c8:	ebfffd4d 	bl	8b04 <fsFindNextCluster>
    95cc:	e3700011 	cmn	r0, #17
    95d0:	9afffff9 	bls	95bc <fsFindInDir+0x60c>
    95d4:	e3e03000 	mvn	r3, #0
    95d8:	e58d304c 	str	r3, [sp, #76]	; 0x4c
    95dc:	eaffffad 	b	9498 <fsFindInDir+0x4e8>
    95e0:	e3570010 	cmp	r7, #16
    95e4:	0affff53 	beq	9338 <fsFindInDir+0x388>
    95e8:	e59d7010 	ldr	r7, [sp, #16]
    95ec:	e58da04c 	str	sl, [sp, #76]	; 0x4c
    95f0:	eaffff57 	b	9354 <fsFindInDir+0x3a4>
    95f4:	e3570010 	cmp	r7, #16
    95f8:	1affff4e 	bne	9338 <fsFindInDir+0x388>
    95fc:	eafffff9 	b	95e8 <fsFindInDir+0x638>
    9600:	e3a05008 	mov	r5, #8
    9604:	eafffe9a 	b	9074 <fsFindInDir+0xc4>
    9608:	e28d3088 	add	r3, sp, #136	; 0x88
    960c:	e0833005 	add	r3, r3, r5
    9610:	e5431020 	strb	r1, [r3, #-32]	; 0xffffffe0
    9614:	eafffe95 	b	9070 <fsFindInDir+0xc0>
    9618:	e3a00002 	mov	r0, #2
    961c:	ebfffd7d 	bl	8c18 <fsFindClusterFree>
    9620:	e3700011 	cmn	r0, #17
    9624:	e58d004c 	str	r0, [sp, #76]	; 0x4c
    9628:	8affffe9 	bhi	95d4 <fsFindInDir+0x624>
    962c:	e59d500c 	ldr	r5, [sp, #12]
    9630:	e59d0008 	ldr	r0, [sp, #8]
    9634:	e5951000 	ldr	r1, [r5]
    9638:	ebfffcc1 	bl	8944 <fsSectorRead>
    963c:	e3500000 	cmp	r0, #0
    9640:	0a00010e 	beq	9a80 <fsFindInDir+0xad0>
    9644:	e3a03000 	mov	r3, #0
    9648:	e1a0c005 	mov	ip, r5
    964c:	e59d6014 	ldr	r6, [sp, #20]
    9650:	e59de058 	ldr	lr, [sp, #88]	; 0x58
    9654:	e3530007 	cmp	r3, #7
    9658:	859d0054 	ldrhi	r0, [sp, #84]	; 0x54
    965c:	97de0003 	ldrbls	r0, [lr, r3]
    9660:	80800003 	addhi	r0, r0, r3
    9664:	e0842003 	add	r2, r4, r3
    9668:	85500008 	ldrbhi	r0, [r0, #-8]
    966c:	e59c1000 	ldr	r1, [ip]
    9670:	e2833001 	add	r3, r3, #1
    9674:	e353000b 	cmp	r3, #11
    9678:	e7c10002 	strb	r0, [r1, r2]
    967c:	1afffff4 	bne	9654 <fsFindInDir+0x6a4>
    9680:	e59d3004 	ldr	r3, [sp, #4]
    9684:	e3a01000 	mov	r1, #0
    9688:	e3530004 	cmp	r3, #4
    968c:	03a02000 	moveq	r2, #0
    9690:	13a02010 	movne	r2, #16
    9694:	e59d300c 	ldr	r3, [sp, #12]
    9698:	e28d5074 	add	r5, sp, #116	; 0x74
    969c:	e5933000 	ldr	r3, [r3]
    96a0:	e1a00005 	mov	r0, r5
    96a4:	e7c3200b 	strb	r2, [r3, fp]
    96a8:	e58d1058 	str	r1, [sp, #88]	; 0x58
    96ac:	e1a0b001 	mov	fp, r1
    96b0:	e5cd1074 	strb	r1, [sp, #116]	; 0x74
    96b4:	e5cd1075 	strb	r1, [sp, #117]	; 0x75
    96b8:	e58d1050 	str	r1, [sp, #80]	; 0x50
    96bc:	e5cd1076 	strb	r1, [sp, #118]	; 0x76
    96c0:	e58d6014 	str	r6, [sp, #20]
    96c4:	eb002010 	bl	1170c <atoi>
    96c8:	e3a03000 	mov	r3, #0
    96cc:	e58d0010 	str	r0, [sp, #16]
    96d0:	e1a00005 	mov	r0, r5
    96d4:	e1a06003 	mov	r6, r3
    96d8:	e5cd3074 	strb	r3, [sp, #116]	; 0x74
    96dc:	e5cd3075 	strb	r3, [sp, #117]	; 0x75
    96e0:	e5cdb076 	strb	fp, [sp, #118]	; 0x76
    96e4:	eb002008 	bl	1170c <atoi>
    96e8:	e58d0018 	str	r0, [sp, #24]
    96ec:	e1a00005 	mov	r0, r5
    96f0:	e5cd6074 	strb	r6, [sp, #116]	; 0x74
    96f4:	e5cdb078 	strb	fp, [sp, #120]	; 0x78
    96f8:	e5cdb075 	strb	fp, [sp, #117]	; 0x75
    96fc:	e58db054 	str	fp, [sp, #84]	; 0x54
    9700:	e5cdb076 	strb	fp, [sp, #118]	; 0x76
    9704:	e5cdb077 	strb	fp, [sp, #119]	; 0x77
    9708:	eb001fff 	bl	1170c <atoi>
    970c:	e59d1058 	ldr	r1, [sp, #88]	; 0x58
    9710:	e59d2050 	ldr	r2, [sp, #80]	; 0x50
    9714:	e58d0044 	str	r0, [sp, #68]	; 0x44
    9718:	e1a00005 	mov	r0, r5
    971c:	e5cd1074 	strb	r1, [sp, #116]	; 0x74
    9720:	e5cd2075 	strb	r2, [sp, #117]	; 0x75
    9724:	e5cdb076 	strb	fp, [sp, #118]	; 0x76
    9728:	eb001ff7 	bl	1170c <atoi>
    972c:	e3a03000 	mov	r3, #0
    9730:	e1a06000 	mov	r6, r0
    9734:	e1a00005 	mov	r0, r5
    9738:	e5cd3074 	strb	r3, [sp, #116]	; 0x74
    973c:	e5cd3075 	strb	r3, [sp, #117]	; 0x75
    9740:	e5cdb076 	strb	fp, [sp, #118]	; 0x76
    9744:	eb001ff0 	bl	1170c <atoi>
    9748:	e3a03000 	mov	r3, #0
    974c:	e5cd3074 	strb	r3, [sp, #116]	; 0x74
    9750:	e59d3054 	ldr	r3, [sp, #84]	; 0x54
    9754:	e58d0050 	str	r0, [sp, #80]	; 0x50
    9758:	e1a00005 	mov	r0, r5
    975c:	e5cd3075 	strb	r3, [sp, #117]	; 0x75
    9760:	e5cdb076 	strb	fp, [sp, #118]	; 0x76
    9764:	eb001fe8 	bl	1170c <atoi>
    9768:	e59d1050 	ldr	r1, [sp, #80]	; 0x50
    976c:	e6ef2070 	uxtb	r2, r0
    9770:	e6ef1071 	uxtb	r1, r1
    9774:	e3a03002 	mov	r3, #2
    9778:	e6ef0076 	uxtb	r0, r6
    977c:	eb00173d 	bl	f478 <datetimetodir>
    9780:	e1a05000 	mov	r5, r0
    9784:	e5dd2044 	ldrb	r2, [sp, #68]	; 0x44
    9788:	e5dd1018 	ldrb	r1, [sp, #24]
    978c:	e3a03001 	mov	r3, #1
    9790:	e5dd0010 	ldrb	r0, [sp, #16]
    9794:	eb001737 	bl	f478 <datetimetodir>
    9798:	e59d100c 	ldr	r1, [sp, #12]
    979c:	e59d2020 	ldr	r2, [sp, #32]
    97a0:	e5913000 	ldr	r3, [r1]
    97a4:	e6efc075 	uxtb	ip, r5
    97a8:	e0833004 	add	r3, r3, r4
    97ac:	e5c3b00c 	strb	fp, [r3, #12]
    97b0:	e5913000 	ldr	r3, [r1]
    97b4:	e1a05425 	lsr	r5, r5, #8
    97b8:	e0834004 	add	r4, r3, r4
    97bc:	e5c4b00d 	strb	fp, [r4, #13]
    97c0:	e5913000 	ldr	r3, [r1]
    97c4:	e6efe075 	uxtb	lr, r5
    97c8:	e7c3c002 	strb	ip, [r3, r2]
    97cc:	e5913000 	ldr	r3, [r1]
    97d0:	e59d201c 	ldr	r2, [sp, #28]
    97d4:	e6ef4070 	uxtb	r4, r0
    97d8:	e7c3e002 	strb	lr, [r3, r2]
    97dc:	e5913000 	ldr	r3, [r1]
    97e0:	e59d2028 	ldr	r2, [sp, #40]	; 0x28
    97e4:	e1a00420 	lsr	r0, r0, #8
    97e8:	e7c34002 	strb	r4, [r3, r2]
    97ec:	e5913000 	ldr	r3, [r1]
    97f0:	e6ef5070 	uxtb	r5, r0
    97f4:	e59d2024 	ldr	r2, [sp, #36]	; 0x24
    97f8:	e59d004c 	ldr	r0, [sp, #76]	; 0x4c
    97fc:	e7c35002 	strb	r5, [r3, r2]
    9800:	e6ef2070 	uxtb	r2, r0
    9804:	e5913000 	ldr	r3, [r1]
    9808:	e58d2010 	str	r2, [sp, #16]
    980c:	e59d2030 	ldr	r2, [sp, #48]	; 0x30
    9810:	e59d602c 	ldr	r6, [sp, #44]	; 0x2c
    9814:	e7c34002 	strb	r4, [r3, r2]
    9818:	e5912000 	ldr	r2, [r1]
    981c:	e1a03420 	lsr	r3, r0, #8
    9820:	e7c25006 	strb	r5, [r2, r6]
    9824:	e5912000 	ldr	r2, [r1]
    9828:	e59d6048 	ldr	r6, [sp, #72]	; 0x48
    982c:	e6ef3073 	uxtb	r3, r3
    9830:	e7c2c006 	strb	ip, [r2, r6]
    9834:	e5912000 	ldr	r2, [r1]
    9838:	e58dc044 	str	ip, [sp, #68]	; 0x44
    983c:	e58de050 	str	lr, [sp, #80]	; 0x50
    9840:	e58d3018 	str	r3, [sp, #24]
    9844:	e59d6034 	ldr	r6, [sp, #52]	; 0x34
    9848:	e1a03820 	lsr	r3, r0, #16
    984c:	e7c2e006 	strb	lr, [r2, r6]
    9850:	e5912000 	ldr	r2, [r1]
    9854:	e59d6038 	ldr	r6, [sp, #56]	; 0x38
    9858:	e6efe073 	uxtb	lr, r3
    985c:	e7c24006 	strb	r4, [r2, r6]
    9860:	e5913000 	ldr	r3, [r1]
    9864:	e59d605c 	ldr	r6, [sp, #92]	; 0x5c
    9868:	e59d2010 	ldr	r2, [sp, #16]
    986c:	e7c35006 	strb	r5, [r3, r6]
    9870:	e5913000 	ldr	r3, [r1]
    9874:	e59dc018 	ldr	ip, [sp, #24]
    9878:	e7c3200a 	strb	r2, [r3, sl]
    987c:	e5913000 	ldr	r3, [r1]
    9880:	e1a00c20 	lsr	r0, r0, #24
    9884:	e7c3c009 	strb	ip, [r3, r9]
    9888:	e5913000 	ldr	r3, [r1]
    988c:	e58d001c 	str	r0, [sp, #28]
    9890:	e7c3e007 	strb	lr, [r3, r7]
    9894:	e5913000 	ldr	r3, [r1]
    9898:	e59dc01c 	ldr	ip, [sp, #28]
    989c:	e58de020 	str	lr, [sp, #32]
    98a0:	e59de014 	ldr	lr, [sp, #20]
    98a4:	e59d0008 	ldr	r0, [sp, #8]
    98a8:	e7c3c00e 	strb	ip, [r3, lr]
    98ac:	e5913000 	ldr	r3, [r1]
    98b0:	e59dc040 	ldr	ip, [sp, #64]	; 0x40
    98b4:	e1a0200b 	mov	r2, fp
    98b8:	e7c3b00c 	strb	fp, [r3, ip]
    98bc:	e5913000 	ldr	r3, [r1]
    98c0:	e59dc064 	ldr	ip, [sp, #100]	; 0x64
    98c4:	e7c3b00c 	strb	fp, [r3, ip]
    98c8:	e5913000 	ldr	r3, [r1]
    98cc:	e59dc060 	ldr	ip, [sp, #96]	; 0x60
    98d0:	e7c3b00c 	strb	fp, [r3, ip]
    98d4:	e5913000 	ldr	r3, [r1]
    98d8:	e59dc03c 	ldr	ip, [sp, #60]	; 0x3c
    98dc:	e7c3b00c 	strb	fp, [r3, ip]
    98e0:	e5911000 	ldr	r1, [r1]
    98e4:	ebfffc18 	bl	894c <fsSectorWrite>
    98e8:	e150000b 	cmp	r0, fp
    98ec:	0a000024 	beq	9984 <fsFindInDir+0x9d4>
    98f0:	e59d3004 	ldr	r3, [sp, #4]
    98f4:	e3530005 	cmp	r3, #5
    98f8:	1afffee6 	bne	9498 <fsFindInDir+0x4e8>
    98fc:	e5982000 	ldr	r2, [r8]
    9900:	e1a0100b 	mov	r1, fp
    9904:	e592001c 	ldr	r0, [r2, #28]
    9908:	e5d23020 	ldrb	r3, [r2, #32]
    990c:	e5926000 	ldr	r6, [r2]
    9910:	e0833080 	add	r3, r3, r0, lsl #1
    9914:	e59d004c 	ldr	r0, [sp, #76]	; 0x4c
    9918:	e5d2c021 	ldrb	ip, [r2, #33]	; 0x21
    991c:	e2409002 	sub	r9, r0, #2
    9920:	e59d000c 	ldr	r0, [sp, #12]
    9924:	e0833006 	add	r3, r3, r6
    9928:	e5922018 	ldr	r2, [r2, #24]
    992c:	e5900000 	ldr	r0, [r0]
    9930:	e0263c99 	mla	r6, r9, ip, r3
    9934:	eb001ed2 	bl	11484 <memset>
    9938:	e5982000 	ldr	r2, [r8]
    993c:	e5d23021 	ldrb	r3, [r2, #33]	; 0x21
    9940:	e3530000 	cmp	r3, #0
    9944:	0a000068 	beq	9aec <fsFindInDir+0xb3c>
    9948:	e1a07006 	mov	r7, r6
    994c:	ea000003 	b	9960 <fsFindInDir+0x9b0>
    9950:	e5982000 	ldr	r2, [r8]
    9954:	e5d23021 	ldrb	r3, [r2, #33]	; 0x21
    9958:	e1530001 	cmp	r3, r1
    995c:	9a000062 	bls	9aec <fsFindInDir+0xb3c>
    9960:	e59d300c 	ldr	r3, [sp, #12]
    9964:	e1a00007 	mov	r0, r7
    9968:	e5931000 	ldr	r1, [r3]
    996c:	e3a02000 	mov	r2, #0
    9970:	ebfffbf5 	bl	894c <fsSectorWrite>
    9974:	e2877001 	add	r7, r7, #1
    9978:	e3500000 	cmp	r0, #0
    997c:	e0471006 	sub	r1, r7, r6
    9980:	1afffff2 	bne	9950 <fsFindInDir+0x9a0>
    9984:	e3e0300d 	mvn	r3, #13
    9988:	e58d304c 	str	r3, [sp, #76]	; 0x4c
    998c:	eafffec1 	b	9498 <fsFindInDir+0x4e8>
    9990:	e59d3004 	ldr	r3, [sp, #4]
    9994:	e2433003 	sub	r3, r3, #3
    9998:	e3530002 	cmp	r3, #2
    999c:	8afffebd 	bhi	9498 <fsFindInDir+0x4e8>
    99a0:	e3a00002 	mov	r0, #2
    99a4:	ebfffc9b 	bl	8c18 <fsFindClusterFree>
    99a8:	e3700011 	cmn	r0, #17
    99ac:	e58d0068 	str	r0, [sp, #104]	; 0x68
    99b0:	8affff07 	bhi	95d4 <fsFindInDir+0x624>
    99b4:	e59da00c 	ldr	sl, [sp, #12]
    99b8:	e1a00004 	mov	r0, r4
    99bc:	e59a1000 	ldr	r1, [sl]
    99c0:	ebfffbdf 	bl	8944 <fsSectorRead>
    99c4:	e3500000 	cmp	r0, #0
    99c8:	0a00002c 	beq	9a80 <fsFindInDir+0xad0>
    99cc:	e59a3000 	ldr	r3, [sl]
    99d0:	e1a00004 	mov	r0, r4
    99d4:	e59d4068 	ldr	r4, [sp, #104]	; 0x68
    99d8:	e7c34108 	strb	r4, [r3, r8, lsl #2]
    99dc:	e59a3000 	ldr	r3, [sl]
    99e0:	e1a02424 	lsr	r2, r4, #8
    99e4:	e7c32009 	strb	r2, [r3, r9]
    99e8:	e59a3000 	ldr	r3, [sl]
    99ec:	e1a02824 	lsr	r2, r4, #16
    99f0:	e7c32006 	strb	r2, [r3, r6]
    99f4:	e59a3000 	ldr	r3, [sl]
    99f8:	e1a02c24 	lsr	r2, r4, #24
    99fc:	e7c32007 	strb	r2, [r3, r7]
    9a00:	e59a1000 	ldr	r1, [sl]
    9a04:	e3a02000 	mov	r2, #0
    9a08:	ebfffbcf 	bl	894c <fsSectorWrite>
    9a0c:	e3500000 	cmp	r0, #0
    9a10:	0affffdb 	beq	9984 <fsFindInDir+0x9d4>
    9a14:	e5952000 	ldr	r2, [r5]
    9a18:	e2444002 	sub	r4, r4, #2
    9a1c:	e592101c 	ldr	r1, [r2, #28]
    9a20:	e5d23020 	ldrb	r3, [r2, #32]
    9a24:	e5920000 	ldr	r0, [r2]
    9a28:	e5d2c021 	ldrb	ip, [r2, #33]	; 0x21
    9a2c:	e0833081 	add	r3, r3, r1, lsl #1
    9a30:	e0833000 	add	r3, r3, r0
    9a34:	e5922018 	ldr	r2, [r2, #24]
    9a38:	e3a01000 	mov	r1, #0
    9a3c:	e59a0000 	ldr	r0, [sl]
    9a40:	e0273c94 	mla	r7, r4, ip, r3
    9a44:	e3a06000 	mov	r6, #0
    9a48:	eb001e8d 	bl	11484 <memset>
    9a4c:	e5952000 	ldr	r2, [r5]
    9a50:	e0860007 	add	r0, r6, r7
    9a54:	e5d23021 	ldrb	r3, [r2, #33]	; 0x21
    9a58:	e1530006 	cmp	r3, r6
    9a5c:	9a00001a 	bls	9acc <fsFindInDir+0xb1c>
    9a60:	e59d300c 	ldr	r3, [sp, #12]
    9a64:	e3a02000 	mov	r2, #0
    9a68:	e5931000 	ldr	r1, [r3]
    9a6c:	ebfffbb6 	bl	894c <fsSectorWrite>
    9a70:	e3500000 	cmp	r0, #0
    9a74:	0affffc2 	beq	9984 <fsFindInDir+0x9d4>
    9a78:	e2866001 	add	r6, r6, #1
    9a7c:	eafffff2 	b	9a4c <fsFindInDir+0xa9c>
    9a80:	e3e0300e 	mvn	r3, #14
    9a84:	e58d304c 	str	r3, [sp, #76]	; 0x4c
    9a88:	eafffe82 	b	9498 <fsFindInDir+0x4e8>
    9a8c:	e3e0300a 	mvn	r3, #10
    9a90:	e58d304c 	str	r3, [sp, #76]	; 0x4c
    9a94:	eafffe7f 	b	9498 <fsFindInDir+0x4e8>
    9a98:	e5d42001 	ldrb	r2, [r4, #1]
    9a9c:	e352002e 	cmp	r2, #46	; 0x2e
    9aa0:	02833c2e 	addeq	r3, r3, #11776	; 0x2e00
    9aa4:	01cd37bc 	strheq	r3, [sp, #124]	; 0x7c
    9aa8:	15cd307c 	strbne	r3, [sp, #124]	; 0x7c
    9aac:	eafffd75 	b	9088 <fsFindInDir+0xd8>
    9ab0:	e59d3064 	ldr	r3, [sp, #100]	; 0x64
    9ab4:	e58d0068 	str	r0, [sp, #104]	; 0x68
    9ab8:	e5933000 	ldr	r3, [r3]
    9abc:	e58d004c 	str	r0, [sp, #76]	; 0x4c
    9ac0:	e58d0008 	str	r0, [sp, #8]
    9ac4:	e5d32000 	ldrb	r2, [r3]
    9ac8:	eafffe18 	b	9330 <fsFindInDir+0x380>
    9acc:	e5920000 	ldr	r0, [r2]
    9ad0:	e5d21020 	ldrb	r1, [r2, #32]
    9ad4:	e0230493 	mla	r3, r3, r4, r0
    9ad8:	e592201c 	ldr	r2, [r2, #28]
    9adc:	e0833001 	add	r3, r3, r1
    9ae0:	e0833082 	add	r3, r3, r2, lsl #1
    9ae4:	e58d3008 	str	r3, [sp, #8]
    9ae8:	eafffe54 	b	9440 <fsFindInDir+0x490>
    9aec:	e5926000 	ldr	r6, [r2]
    9af0:	e59d700c 	ldr	r7, [sp, #12]
    9af4:	e0266399 	mla	r6, r9, r3, r6
    9af8:	e5d21020 	ldrb	r1, [r2, #32]
    9afc:	e592c01c 	ldr	ip, [r2, #28]
    9b00:	e0866001 	add	r6, r6, r1
    9b04:	e5922018 	ldr	r2, [r2, #24]
    9b08:	e3a01000 	mov	r1, #0
    9b0c:	e5970000 	ldr	r0, [r7]
    9b10:	e086608c 	add	r6, r6, ip, lsl #1
    9b14:	eb001e5a 	bl	11484 <memset>
    9b18:	e3a0102e 	mov	r1, #46	; 0x2e
    9b1c:	e3a02020 	mov	r2, #32
    9b20:	e3a0a010 	mov	sl, #16
    9b24:	e3a0c000 	mov	ip, #0
    9b28:	e5973000 	ldr	r3, [r7]
    9b2c:	e59de010 	ldr	lr, [sp, #16]
    9b30:	e5c31000 	strb	r1, [r3]
    9b34:	e5973000 	ldr	r3, [r7]
    9b38:	e59d9044 	ldr	r9, [sp, #68]	; 0x44
    9b3c:	e5c32001 	strb	r2, [r3, #1]
    9b40:	e5973000 	ldr	r3, [r7]
    9b44:	e59db050 	ldr	fp, [sp, #80]	; 0x50
    9b48:	e5c32002 	strb	r2, [r3, #2]
    9b4c:	e5973000 	ldr	r3, [r7]
    9b50:	e1a00006 	mov	r0, r6
    9b54:	e5c32003 	strb	r2, [r3, #3]
    9b58:	e5973000 	ldr	r3, [r7]
    9b5c:	e5c3e01a 	strb	lr, [r3, #26]
    9b60:	e59de018 	ldr	lr, [sp, #24]
    9b64:	e5c32004 	strb	r2, [r3, #4]
    9b68:	e5c32005 	strb	r2, [r3, #5]
    9b6c:	e5c32006 	strb	r2, [r3, #6]
    9b70:	e5c32007 	strb	r2, [r3, #7]
    9b74:	e5c32008 	strb	r2, [r3, #8]
    9b78:	e5c32009 	strb	r2, [r3, #9]
    9b7c:	e5c3200a 	strb	r2, [r3, #10]
    9b80:	e5c3900e 	strb	r9, [r3, #14]
    9b84:	e5c3b00f 	strb	fp, [r3, #15]
    9b88:	e5c34010 	strb	r4, [r3, #16]
    9b8c:	e5c35011 	strb	r5, [r3, #17]
    9b90:	e5c34012 	strb	r4, [r3, #18]
    9b94:	e5c35013 	strb	r5, [r3, #19]
    9b98:	e5c39016 	strb	r9, [r3, #22]
    9b9c:	e5c3b017 	strb	fp, [r3, #23]
    9ba0:	e5c34018 	strb	r4, [r3, #24]
    9ba4:	e5c35019 	strb	r5, [r3, #25]
    9ba8:	e5c3e01b 	strb	lr, [r3, #27]
    9bac:	e59de020 	ldr	lr, [sp, #32]
    9bb0:	e5c31020 	strb	r1, [r3, #32]
    9bb4:	e5c3e014 	strb	lr, [r3, #20]
    9bb8:	e59de01c 	ldr	lr, [sp, #28]
    9bbc:	e5c31021 	strb	r1, [r3, #33]	; 0x21
    9bc0:	e5c3e015 	strb	lr, [r3, #21]
    9bc4:	e59de06c 	ldr	lr, [sp, #108]	; 0x6c
    9bc8:	e5c32022 	strb	r2, [r3, #34]	; 0x22
    9bcc:	e59ee000 	ldr	lr, [lr]
    9bd0:	e5c32023 	strb	r2, [r3, #35]	; 0x23
    9bd4:	e1a0842e 	lsr	r8, lr, #8
    9bd8:	e1a07a3e 	lsr	r7, lr, sl
    9bdc:	e1a06c2e 	lsr	r6, lr, #24
    9be0:	e5c32024 	strb	r2, [r3, #36]	; 0x24
    9be4:	e5c32025 	strb	r2, [r3, #37]	; 0x25
    9be8:	e5c32026 	strb	r2, [r3, #38]	; 0x26
    9bec:	e5c32027 	strb	r2, [r3, #39]	; 0x27
    9bf0:	e5c32028 	strb	r2, [r3, #40]	; 0x28
    9bf4:	e5c32029 	strb	r2, [r3, #41]	; 0x29
    9bf8:	e5c3202a 	strb	r2, [r3, #42]	; 0x2a
    9bfc:	e5c3a00b 	strb	sl, [r3, #11]
    9c00:	e5c3c00c 	strb	ip, [r3, #12]
    9c04:	e5c3c00d 	strb	ip, [r3, #13]
    9c08:	e5c3c01c 	strb	ip, [r3, #28]
    9c0c:	e5c3c01d 	strb	ip, [r3, #29]
    9c10:	e5c3c01e 	strb	ip, [r3, #30]
    9c14:	e5c3c01f 	strb	ip, [r3, #31]
    9c18:	e5c3a02b 	strb	sl, [r3, #43]	; 0x2b
    9c1c:	e5c3c02c 	strb	ip, [r3, #44]	; 0x2c
    9c20:	e5c3c02d 	strb	ip, [r3, #45]	; 0x2d
    9c24:	e5c3902e 	strb	r9, [r3, #46]	; 0x2e
    9c28:	e5c3b02f 	strb	fp, [r3, #47]	; 0x2f
    9c2c:	e5c34030 	strb	r4, [r3, #48]	; 0x30
    9c30:	e5c35031 	strb	r5, [r3, #49]	; 0x31
    9c34:	e5c34032 	strb	r4, [r3, #50]	; 0x32
    9c38:	e1a01003 	mov	r1, r3
    9c3c:	e5c35033 	strb	r5, [r3, #51]	; 0x33
    9c40:	e1a0200c 	mov	r2, ip
    9c44:	e5c39036 	strb	r9, [r3, #54]	; 0x36
    9c48:	e5c3b037 	strb	fp, [r3, #55]	; 0x37
    9c4c:	e5c34038 	strb	r4, [r3, #56]	; 0x38
    9c50:	e5c35039 	strb	r5, [r3, #57]	; 0x39
    9c54:	e5c3e03a 	strb	lr, [r3, #58]	; 0x3a
    9c58:	e5c3803b 	strb	r8, [r3, #59]	; 0x3b
    9c5c:	e5c37034 	strb	r7, [r3, #52]	; 0x34
    9c60:	e5c36035 	strb	r6, [r3, #53]	; 0x35
    9c64:	e5c3c03c 	strb	ip, [r3, #60]	; 0x3c
    9c68:	e5c3c03d 	strb	ip, [r3, #61]	; 0x3d
    9c6c:	e5c3c03e 	strb	ip, [r3, #62]	; 0x3e
    9c70:	e5c3c03f 	strb	ip, [r3, #63]	; 0x3f
    9c74:	ebfffb34 	bl	894c <fsSectorWrite>
    9c78:	e3500000 	cmp	r0, #0
    9c7c:	1afffe05 	bne	9498 <fsFindInDir+0x4e8>
    9c80:	eaffff3f 	b	9984 <fsFindInDir+0x9d4>
    9c84:	0000fddc 	ldrdeq	pc, [r0], -ip
    9c88:	000000c8 	andeq	r0, r0, r8, asr #1
    9c8c:	0000007c 	andeq	r0, r0, ip, ror r0
    9c90:	00000174 	andeq	r0, r0, r4, ror r1
    9c94:	00000030 	andeq	r0, r0, r0, lsr r0
    9c98:	00000068 	andeq	r0, r0, r8, rrx

00009c9c <fsCreateFile>:
    9c9c:	e92d4010 	push	{r4, lr}
    9ca0:	e3a010ff 	mov	r1, #255	; 0xff
    9ca4:	e1a04000 	mov	r4, r0
    9ca8:	ebfffcc0 	bl	8fb0 <fsFindInDir>
    9cac:	e3700011 	cmn	r0, #17
    9cb0:	9a000006 	bls	9cd0 <fsCreateFile+0x34>
    9cb4:	e1a00004 	mov	r0, r4
    9cb8:	e3a01004 	mov	r1, #4
    9cbc:	ebfffcbb 	bl	8fb0 <fsFindInDir>
    9cc0:	e3700011 	cmn	r0, #17
    9cc4:	83a000e6 	movhi	r0, #230	; 0xe6
    9cc8:	93a00000 	movls	r0, #0
    9ccc:	e8bd8010 	pop	{r4, pc}
    9cd0:	e3a000e8 	mov	r0, #232	; 0xe8
    9cd4:	e8bd8010 	pop	{r4, pc}

00009cd8 <fsOpenFile>:
    9cd8:	e92d41f0 	push	{r4, r5, r6, r7, r8, lr}
    9cdc:	e3a01002 	mov	r1, #2
    9ce0:	e24dd018 	sub	sp, sp, #24
    9ce4:	ebfffcb1 	bl	8fb0 <fsFindInDir>
    9ce8:	e59f40bc 	ldr	r4, [pc, #188]	; 9dac <fsOpenFile+0xd4>
    9cec:	e3700011 	cmn	r0, #17
    9cf0:	e08f4004 	add	r4, pc, r4
    9cf4:	83a000e0 	movhi	r0, #224	; 0xe0
    9cf8:	8a000029 	bhi	9da4 <fsOpenFile+0xcc>
    9cfc:	e3a05000 	mov	r5, #0
    9d00:	e5dd200c 	ldrb	r2, [sp, #12]
    9d04:	e5dd300d 	ldrb	r3, [sp, #13]
    9d08:	e28d6004 	add	r6, sp, #4
    9d0c:	e1a00006 	mov	r0, r6
    9d10:	e5cd2004 	strb	r2, [sp, #4]
    9d14:	e5cd3005 	strb	r3, [sp, #5]
    9d18:	e5cd5006 	strb	r5, [sp, #6]
    9d1c:	eb001e7a 	bl	1170c <atoi>
    9d20:	e5dd200f 	ldrb	r2, [sp, #15]
    9d24:	e5dd3010 	ldrb	r3, [sp, #16]
    9d28:	e1a07000 	mov	r7, r0
    9d2c:	e1a00006 	mov	r0, r6
    9d30:	e5cd2004 	strb	r2, [sp, #4]
    9d34:	e5cd3005 	strb	r3, [sp, #5]
    9d38:	e5cd5006 	strb	r5, [sp, #6]
    9d3c:	eb001e72 	bl	1170c <atoi>
    9d40:	e5dd3012 	ldrb	r3, [sp, #18]
    9d44:	e5dd1013 	ldrb	r1, [sp, #19]
    9d48:	e5dd2014 	ldrb	r2, [sp, #20]
    9d4c:	e5cd3004 	strb	r3, [sp, #4]
    9d50:	e5dd3015 	ldrb	r3, [sp, #21]
    9d54:	e1a08000 	mov	r8, r0
    9d58:	e1a00006 	mov	r0, r6
    9d5c:	e5cd1005 	strb	r1, [sp, #5]
    9d60:	e5cd2006 	strb	r2, [sp, #6]
    9d64:	e5cd3007 	strb	r3, [sp, #7]
    9d68:	e5cd5008 	strb	r5, [sp, #8]
    9d6c:	eb001e66 	bl	1170c <atoi>
    9d70:	e6ef1078 	uxtb	r1, r8
    9d74:	e6ef2070 	uxtb	r2, r0
    9d78:	e3a03001 	mov	r3, #1
    9d7c:	e6ef0077 	uxtb	r0, r7
    9d80:	eb0015bc 	bl	f478 <datetimetodir>
    9d84:	e59f3024 	ldr	r3, [pc, #36]	; 9db0 <fsOpenFile+0xd8>
    9d88:	e7943003 	ldr	r3, [r4, r3]
    9d8c:	e5933000 	ldr	r3, [r3]
    9d90:	e5830018 	str	r0, [r3, #24]
    9d94:	ebfffaf2 	bl	8964 <fsUpdateDir>
    9d98:	e1500005 	cmp	r0, r5
    9d9c:	13a000e9 	movne	r0, #233	; 0xe9
    9da0:	01a00005 	moveq	r0, r5
    9da4:	e28dd018 	add	sp, sp, #24
    9da8:	e8bd81f0 	pop	{r4, r5, r6, r7, r8, pc}
    9dac:	0000f0e4 	andeq	pc, r0, r4, ror #1
    9db0:	00000068 	andeq	r0, r0, r8, rrx

00009db4 <fsCloseFile>:
    9db4:	e92d4ff0 	push	{r4, r5, r6, r7, r8, r9, sl, fp, lr}
    9db8:	e1a05001 	mov	r5, r1
    9dbc:	e24dd01c 	sub	sp, sp, #28
    9dc0:	e3a01002 	mov	r1, #2
    9dc4:	ebfffc79 	bl	8fb0 <fsFindInDir>
    9dc8:	e59f4130 	ldr	r4, [pc, #304]	; 9f00 <fsCloseFile+0x14c>
    9dcc:	e3700011 	cmn	r0, #17
    9dd0:	e08f4004 	add	r4, pc, r4
    9dd4:	83a000ff 	movhi	r0, #255	; 0xff
    9dd8:	8a000002 	bhi	9de8 <fsCloseFile+0x34>
    9ddc:	e3550000 	cmp	r5, #0
    9de0:	1a000002 	bne	9df0 <fsCloseFile+0x3c>
    9de4:	e3a00000 	mov	r0, #0
    9de8:	e28dd01c 	add	sp, sp, #28
    9dec:	e8bd8ff0 	pop	{r4, r5, r6, r7, r8, r9, sl, fp, pc}
    9df0:	e3a02000 	mov	r2, #0
    9df4:	e28d6010 	add	r6, sp, #16
    9df8:	e1a00006 	mov	r0, r6
    9dfc:	e1a0b002 	mov	fp, r2
    9e00:	e1a05002 	mov	r5, r2
    9e04:	e1a09002 	mov	r9, r2
    9e08:	e5cd2010 	strb	r2, [sp, #16]
    9e0c:	e58d200c 	str	r2, [sp, #12]
    9e10:	e5cd2011 	strb	r2, [sp, #17]
    9e14:	e5cd2012 	strb	r2, [sp, #18]
    9e18:	eb001e3b 	bl	1170c <atoi>
    9e1c:	e1a0a000 	mov	sl, r0
    9e20:	e1a00006 	mov	r0, r6
    9e24:	e5cdb012 	strb	fp, [sp, #18]
    9e28:	e5cdb010 	strb	fp, [sp, #16]
    9e2c:	e5cdb011 	strb	fp, [sp, #17]
    9e30:	eb001e35 	bl	1170c <atoi>
    9e34:	e58d0000 	str	r0, [sp]
    9e38:	e1a00006 	mov	r0, r6
    9e3c:	e5cdb014 	strb	fp, [sp, #20]
    9e40:	e5cdb010 	strb	fp, [sp, #16]
    9e44:	e5cdb011 	strb	fp, [sp, #17]
    9e48:	e58db008 	str	fp, [sp, #8]
    9e4c:	e5cdb012 	strb	fp, [sp, #18]
    9e50:	e5cdb013 	strb	fp, [sp, #19]
    9e54:	eb001e2c 	bl	1170c <atoi>
    9e58:	e59d200c 	ldr	r2, [sp, #12]
    9e5c:	e58d0004 	str	r0, [sp, #4]
    9e60:	e1a00006 	mov	r0, r6
    9e64:	e5cd2010 	strb	r2, [sp, #16]
    9e68:	e5cdb011 	strb	fp, [sp, #17]
    9e6c:	e5cdb012 	strb	fp, [sp, #18]
    9e70:	eb001e25 	bl	1170c <atoi>
    9e74:	e1a0b000 	mov	fp, r0
    9e78:	e1a00006 	mov	r0, r6
    9e7c:	e5cd5010 	strb	r5, [sp, #16]
    9e80:	e5cd5011 	strb	r5, [sp, #17]
    9e84:	e5cd5012 	strb	r5, [sp, #18]
    9e88:	eb001e1f 	bl	1170c <atoi>
    9e8c:	e59d3008 	ldr	r3, [sp, #8]
    9e90:	e1a08000 	mov	r8, r0
    9e94:	e1a00006 	mov	r0, r6
    9e98:	e5cd5010 	strb	r5, [sp, #16]
    9e9c:	e5cd3011 	strb	r3, [sp, #17]
    9ea0:	e5cd5012 	strb	r5, [sp, #18]
    9ea4:	eb001e18 	bl	1170c <atoi>
    9ea8:	e6ef1078 	uxtb	r1, r8
    9eac:	e6ef2070 	uxtb	r2, r0
    9eb0:	e3a03002 	mov	r3, #2
    9eb4:	e6ef007b 	uxtb	r0, fp
    9eb8:	eb00156e 	bl	f478 <datetimetodir>
    9ebc:	e5dd2004 	ldrb	r2, [sp, #4]
    9ec0:	e1a05000 	mov	r5, r0
    9ec4:	e5dd1000 	ldrb	r1, [sp]
    9ec8:	e3a03001 	mov	r3, #1
    9ecc:	e6ef007a 	uxtb	r0, sl
    9ed0:	eb001568 	bl	f478 <datetimetodir>
    9ed4:	e59f3028 	ldr	r3, [pc, #40]	; 9f04 <fsCloseFile+0x150>
    9ed8:	e7943003 	ldr	r3, [r4, r3]
    9edc:	e5933000 	ldr	r3, [r3]
    9ee0:	e5835020 	str	r5, [r3, #32]
    9ee4:	e5830018 	str	r0, [r3, #24]
    9ee8:	e583001c 	str	r0, [r3, #28]
    9eec:	ebfffa9c 	bl	8964 <fsUpdateDir>
    9ef0:	e1500009 	cmp	r0, r9
    9ef4:	13a000e9 	movne	r0, #233	; 0xe9
    9ef8:	0affffb9 	beq	9de4 <fsCloseFile+0x30>
    9efc:	eaffffb9 	b	9de8 <fsCloseFile+0x34>
    9f00:	0000f004 	andeq	pc, r0, r4
    9f04:	00000068 	andeq	r0, r0, r8, rrx

00009f08 <fsInfoFile>:
    9f08:	e92d4010 	push	{r4, lr}
    9f0c:	e1a04001 	mov	r4, r1
    9f10:	e3a01002 	mov	r1, #2
    9f14:	ebfffc25 	bl	8fb0 <fsFindInDir>
    9f18:	e59f3090 	ldr	r3, [pc, #144]	; 9fb0 <fsInfoFile+0xa8>
    9f1c:	e3700011 	cmn	r0, #17
    9f20:	e08f3003 	add	r3, pc, r3
    9f24:	8a000007 	bhi	9f48 <fsInfoFile+0x40>
    9f28:	e2441001 	sub	r1, r4, #1
    9f2c:	e3510003 	cmp	r1, #3
    9f30:	908ff101 	addls	pc, pc, r1, lsl #2
    9f34:	ea000003 	b	9f48 <fsInfoFile+0x40>
    9f38:	ea000009 	b	9f64 <fsInfoFile+0x5c>
    9f3c:	ea00000d 	b	9f78 <fsInfoFile+0x70>
    9f40:	ea000013 	b	9f94 <fsInfoFile+0x8c>
    9f44:	ea000001 	b	9f50 <fsInfoFile+0x48>
    9f48:	e3e00000 	mvn	r0, #0
    9f4c:	e8bd8010 	pop	{r4, pc}
    9f50:	e59f205c 	ldr	r2, [pc, #92]	; 9fb4 <fsInfoFile+0xac>
    9f54:	e7933002 	ldr	r3, [r3, r2]
    9f58:	e5933000 	ldr	r3, [r3]
    9f5c:	e5930018 	ldr	r0, [r3, #24]
    9f60:	e8bd8010 	pop	{r4, pc}
    9f64:	e59f2048 	ldr	r2, [pc, #72]	; 9fb4 <fsInfoFile+0xac>
    9f68:	e7933002 	ldr	r3, [r3, r2]
    9f6c:	e5933000 	ldr	r3, [r3]
    9f70:	e5930028 	ldr	r0, [r3, #40]	; 0x28
    9f74:	e8bd8010 	pop	{r4, pc}
    9f78:	e59f2034 	ldr	r2, [pc, #52]	; 9fb4 <fsInfoFile+0xac>
    9f7c:	e7933002 	ldr	r3, [r3, r2]
    9f80:	e5933000 	ldr	r3, [r3]
    9f84:	e5932010 	ldr	r2, [r3, #16]
    9f88:	e5930014 	ldr	r0, [r3, #20]
    9f8c:	e1800802 	orr	r0, r0, r2, lsl #16
    9f90:	e8bd8010 	pop	{r4, pc}
    9f94:	e59f2018 	ldr	r2, [pc, #24]	; 9fb4 <fsInfoFile+0xac>
    9f98:	e7933002 	ldr	r3, [r3, r2]
    9f9c:	e5933000 	ldr	r3, [r3]
    9fa0:	e593201c 	ldr	r2, [r3, #28]
    9fa4:	e5930020 	ldr	r0, [r3, #32]
    9fa8:	e1800802 	orr	r0, r0, r2, lsl #16
    9fac:	e8bd8010 	pop	{r4, pc}
    9fb0:	0000eeb4 			; <UNDEFINED> instruction: 0x0000eeb4
    9fb4:	00000068 	andeq	r0, r0, r8, rrx

00009fb8 <fsDelFile>:
    9fb8:	e92d4010 	push	{r4, lr}
    9fbc:	e3a01006 	mov	r1, #6
    9fc0:	ebfffbfa 	bl	8fb0 <fsFindInDir>
    9fc4:	e3700011 	cmn	r0, #17
    9fc8:	83a000e7 	movhi	r0, #231	; 0xe7
    9fcc:	93a00000 	movls	r0, #0
    9fd0:	e8bd8010 	pop	{r4, pc}

00009fd4 <fsRenameFile>:
    9fd4:	e92d41f0 	push	{r4, r5, r6, r7, r8, lr}
    9fd8:	e1a06001 	mov	r6, r1
    9fdc:	e1a05000 	mov	r5, r0
    9fe0:	e3a010ff 	mov	r1, #255	; 0xff
    9fe4:	e1a00006 	mov	r0, r6
    9fe8:	ebfffbf0 	bl	8fb0 <fsFindInDir>
    9fec:	e59f40c4 	ldr	r4, [pc, #196]	; a0b8 <fsRenameFile+0xe4>
    9ff0:	e3700011 	cmn	r0, #17
    9ff4:	e08f4004 	add	r4, pc, r4
    9ff8:	9a00002c 	bls	a0b0 <fsRenameFile+0xdc>
    9ffc:	e1a00005 	mov	r0, r5
    a000:	e3a01002 	mov	r1, #2
    a004:	ebfffbe9 	bl	8fb0 <fsFindInDir>
    a008:	e3700011 	cmn	r0, #17
    a00c:	8a000025 	bhi	a0a8 <fsRenameFile+0xd4>
    a010:	e3a05000 	mov	r5, #0
    a014:	e59f30a0 	ldr	r3, [pc, #160]	; a0bc <fsRenameFile+0xe8>
    a018:	e3a02008 	mov	r2, #8
    a01c:	e7947003 	ldr	r7, [r4, r3]
    a020:	e3a01020 	mov	r1, #32
    a024:	e5970000 	ldr	r0, [r7]
    a028:	eb001d15 	bl	11484 <memset>
    a02c:	e5970000 	ldr	r0, [r7]
    a030:	e3a02003 	mov	r2, #3
    a034:	e2800009 	add	r0, r0, #9
    a038:	e3a01020 	mov	r1, #32
    a03c:	eb001d10 	bl	11484 <memset>
    a040:	e1a04005 	mov	r4, r5
    a044:	ea00000d 	b	a080 <fsRenameFile+0xac>
    a048:	e7d63003 	ldrb	r3, [r6, r3]
    a04c:	e3530000 	cmp	r3, #0
    a050:	0a00000f 	beq	a094 <fsRenameFile+0xc0>
    a054:	e353002e 	cmp	r3, #46	; 0x2e
    a058:	03a04008 	moveq	r4, #8
    a05c:	0a000006 	beq	a07c <fsRenameFile+0xa8>
    a060:	e5972000 	ldr	r2, [r7]
    a064:	e3540007 	cmp	r4, #7
    a068:	80822004 	addhi	r2, r2, r4
    a06c:	97c23004 	strbls	r3, [r2, r4]
    a070:	e2844001 	add	r4, r4, #1
    a074:	85c23001 	strbhi	r3, [r2, #1]
    a078:	e6ef4074 	uxtb	r4, r4
    a07c:	e2855001 	add	r5, r5, #1
    a080:	e1a00006 	mov	r0, r6
    a084:	eb001da4 	bl	1171c <strlen>
    a088:	e6ef3075 	uxtb	r3, r5
    a08c:	e1530000 	cmp	r3, r0
    a090:	daffffec 	ble	a048 <fsRenameFile+0x74>
    a094:	ebfffa32 	bl	8964 <fsUpdateDir>
    a098:	e3500000 	cmp	r0, #0
    a09c:	13a000e9 	movne	r0, #233	; 0xe9
    a0a0:	03a00000 	moveq	r0, #0
    a0a4:	e8bd81f0 	pop	{r4, r5, r6, r7, r8, pc}
    a0a8:	e3a000e0 	mov	r0, #224	; 0xe0
    a0ac:	e8bd81f0 	pop	{r4, r5, r6, r7, r8, pc}
    a0b0:	e3a000e8 	mov	r0, #232	; 0xe8
    a0b4:	e8bd81f0 	pop	{r4, r5, r6, r7, r8, pc}
    a0b8:	0000ede0 	andeq	lr, r0, r0, ror #27
    a0bc:	00000068 	andeq	r0, r0, r8, rrx

0000a0c0 <fsReadFile>:
    a0c0:	e92d4ff0 	push	{r4, r5, r6, r7, r8, r9, sl, fp, lr}
    a0c4:	e1a08001 	mov	r8, r1
    a0c8:	e24dd014 	sub	sp, sp, #20
    a0cc:	e3a01002 	mov	r1, #2
    a0d0:	e58d2008 	str	r2, [sp, #8]
    a0d4:	e58d3000 	str	r3, [sp]
    a0d8:	ebfffbb4 	bl	8fb0 <fsFindInDir>
    a0dc:	e59f6148 	ldr	r6, [pc, #328]	; a22c <fsReadFile+0x16c>
    a0e0:	e3700011 	cmn	r0, #17
    a0e4:	e58d0004 	str	r0, [sp, #4]
    a0e8:	e08f6006 	add	r6, pc, r6
    a0ec:	8a00004a 	bhi	a21c <fsReadFile+0x15c>
    a0f0:	e59f3138 	ldr	r3, [pc, #312]	; a230 <fsReadFile+0x170>
    a0f4:	e796b003 	ldr	fp, [r6, r3]
    a0f8:	e59b3000 	ldr	r3, [fp]
    a0fc:	e5933028 	ldr	r3, [r3, #40]	; 0x28
    a100:	e1530008 	cmp	r3, r8
    a104:	3a000044 	bcc	a21c <fsReadFile+0x15c>
    a108:	e59f3124 	ldr	r3, [pc, #292]	; a234 <fsReadFile+0x174>
    a10c:	e1a00008 	mov	r0, r8
    a110:	e796a003 	ldr	sl, [r6, r3]
    a114:	e3a09000 	mov	r9, #0
    a118:	e59a3000 	ldr	r3, [sl]
    a11c:	e1a05009 	mov	r5, r9
    a120:	e5934018 	ldr	r4, [r3, #24]
    a124:	e1a07009 	mov	r7, r9
    a128:	e1a01004 	mov	r1, r4
    a12c:	eb001caa 	bl	113dc <__aeabi_uidivmod>
    a130:	e59d3000 	ldr	r3, [sp]
    a134:	e0811003 	add	r1, r1, r3
    a138:	e1540001 	cmp	r4, r1
    a13c:	23a01000 	movcs	r1, #0
    a140:	33a01001 	movcc	r1, #1
    a144:	e2812001 	add	r2, r1, #1
    a148:	e1a01004 	mov	r1, r4
    a14c:	e59f30e4 	ldr	r3, [pc, #228]	; a238 <fsReadFile+0x178>
    a150:	e58d200c 	str	r2, [sp, #12]
    a154:	e7966003 	ldr	r6, [r6, r3]
    a158:	e1a00008 	mov	r0, r8
    a15c:	eb001c9e 	bl	113dc <__aeabi_uidivmod>
    a160:	e3a03001 	mov	r3, #1
    a164:	e1a04001 	mov	r4, r1
    a168:	e5962000 	ldr	r2, [r6]
    a16c:	e1a01008 	mov	r1, r8
    a170:	e59d0004 	ldr	r0, [sp, #4]
    a174:	ebfffafa 	bl	8d64 <fsRWFile>
    a178:	e3500000 	cmp	r0, #0
    a17c:	1a000027 	bne	a220 <fsReadFile+0x160>
    a180:	e59a2000 	ldr	r2, [sl]
    a184:	e59d0000 	ldr	r0, [sp]
    a188:	e5921018 	ldr	r1, [r2, #24]
    a18c:	e0803004 	add	r3, r0, r4
    a190:	e1530001 	cmp	r3, r1
    a194:	e59b3000 	ldr	r3, [fp]
    a198:	90401005 	subls	r1, r0, r5
    a19c:	80411004 	subhi	r1, r1, r4
    a1a0:	e6ef1071 	uxtb	r1, r1
    a1a4:	e5933028 	ldr	r3, [r3, #40]	; 0x28
    a1a8:	e0817007 	add	r7, r1, r7
    a1ac:	e6ef7077 	uxtb	r7, r7
    a1b0:	e0433008 	sub	r3, r3, r8
    a1b4:	e1570003 	cmp	r7, r3
    a1b8:	86ef7073 	uxtbhi	r7, r3
    a1bc:	e3510000 	cmp	r1, #0
    a1c0:	0a00000c 	beq	a1f8 <fsReadFile+0x138>
    a1c4:	e59d2008 	ldr	r2, [sp, #8]
    a1c8:	e2410001 	sub	r0, r1, #1
    a1cc:	e2843001 	add	r3, r4, #1
    a1d0:	e0825005 	add	r5, r2, r5
    a1d4:	e6e30070 	uxtab	r0, r3, r0
    a1d8:	ea000000 	b	a1e0 <fsReadFile+0x120>
    a1dc:	e2833001 	add	r3, r3, #1
    a1e0:	e5962000 	ldr	r2, [r6]
    a1e4:	e1500003 	cmp	r0, r3
    a1e8:	e7d22004 	ldrb	r2, [r2, r4]
    a1ec:	e1a04003 	mov	r4, r3
    a1f0:	e4c52001 	strb	r2, [r5], #1
    a1f4:	1afffff8 	bne	a1dc <fsReadFile+0x11c>
    a1f8:	e59d300c 	ldr	r3, [sp, #12]
    a1fc:	e2899001 	add	r9, r9, #1
    a200:	e1590003 	cmp	r9, r3
    a204:	e0888001 	add	r8, r8, r1
    a208:	0a000004 	beq	a220 <fsReadFile+0x160>
    a20c:	e59a3000 	ldr	r3, [sl]
    a210:	e1a05001 	mov	r5, r1
    a214:	e5931018 	ldr	r1, [r3, #24]
    a218:	eaffffce 	b	a158 <fsReadFile+0x98>
    a21c:	e3a07000 	mov	r7, #0
    a220:	e1a00007 	mov	r0, r7
    a224:	e28dd014 	add	sp, sp, #20
    a228:	e8bd8ff0 	pop	{r4, r5, r6, r7, r8, r9, sl, fp, pc}
    a22c:	0000ecec 	andeq	lr, r0, ip, ror #25
    a230:	00000068 	andeq	r0, r0, r8, rrx
    a234:	0000007c 	andeq	r0, r0, ip, ror r0
    a238:	00000030 	andeq	r0, r0, r0, lsr r0

0000a23c <loadFile>:
    a23c:	e92d41f0 	push	{r4, r5, r6, r7, r8, lr}
    a240:	e3a05000 	mov	r5, #0
    a244:	e59f3094 	ldr	r3, [pc, #148]	; a2e0 <loadFile+0xa4>
    a248:	e59f2094 	ldr	r2, [pc, #148]	; a2e4 <loadFile+0xa8>
    a24c:	e08f3003 	add	r3, pc, r3
    a250:	e7934002 	ldr	r4, [r3, r2]
    a254:	e24dd080 	sub	sp, sp, #128	; 0x80
    a258:	e1a08001 	mov	r8, r1
    a25c:	e1a07000 	mov	r7, r0
    a260:	e5845000 	str	r5, [r4]
    a264:	ebfffe9b 	bl	9cd8 <fsOpenFile>
    a268:	e3500000 	cmp	r0, #0
    a26c:	13a03001 	movne	r3, #1
    a270:	15843000 	strne	r3, [r4]
    a274:	1a000016 	bne	a2d4 <loadFile+0x98>
    a278:	e1a05000 	mov	r5, r0
    a27c:	e1a0600d 	mov	r6, sp
    a280:	e28d4080 	add	r4, sp, #128	; 0x80
    a284:	e1a01005 	mov	r1, r5
    a288:	e3a03080 	mov	r3, #128	; 0x80
    a28c:	e1a02006 	mov	r2, r6
    a290:	e1a00007 	mov	r0, r7
    a294:	ebffff89 	bl	a0c0 <fsReadFile>
    a298:	e2501000 	subs	r1, r0, #0
    a29c:	e088c005 	add	ip, r8, r5
    a2a0:	0a000009 	beq	a2cc <loadFile+0x90>
    a2a4:	e1a03006 	mov	r3, r6
    a2a8:	e5d31000 	ldrb	r1, [r3]
    a2ac:	e5d32001 	ldrb	r2, [r3, #1]
    a2b0:	e2833002 	add	r3, r3, #2
    a2b4:	e1822401 	orr	r2, r2, r1, lsl #8
    a2b8:	e1540003 	cmp	r4, r3
    a2bc:	e0cc20b2 	strh	r2, [ip], #2
    a2c0:	1afffff8 	bne	a2a8 <loadFile+0x6c>
    a2c4:	e2855080 	add	r5, r5, #128	; 0x80
    a2c8:	eaffffed 	b	a284 <loadFile+0x48>
    a2cc:	e1a00007 	mov	r0, r7
    a2d0:	ebfffeb7 	bl	9db4 <fsCloseFile>
    a2d4:	e1a00005 	mov	r0, r5
    a2d8:	e28dd080 	add	sp, sp, #128	; 0x80
    a2dc:	e8bd81f0 	pop	{r4, r5, r6, r7, r8, pc}
    a2e0:	0000eb88 	andeq	lr, r0, r8, lsl #23
    a2e4:	00000010 	andeq	r0, r0, r0, lsl r0

0000a2e8 <fsWriteFile>:
    a2e8:	e92d4ff0 	push	{r4, r5, r6, r7, r8, r9, sl, fp, lr}
    a2ec:	e1a09001 	mov	r9, r1
    a2f0:	e24dd01c 	sub	sp, sp, #28
    a2f4:	e3a01002 	mov	r1, #2
    a2f8:	e1a08002 	mov	r8, r2
    a2fc:	e1a06003 	mov	r6, r3
    a300:	e58d3004 	str	r3, [sp, #4]
    a304:	ebfffb29 	bl	8fb0 <fsFindInDir>
    a308:	e59f4188 	ldr	r4, [pc, #392]	; a498 <fsWriteFile+0x1b0>
    a30c:	e3700011 	cmn	r0, #17
    a310:	e08f4004 	add	r4, pc, r4
    a314:	e58d0000 	str	r0, [sp]
    a318:	e58d4014 	str	r4, [sp, #20]
    a31c:	83a050e0 	movhi	r5, #224	; 0xe0
    a320:	8a000051 	bhi	a46c <fsWriteFile+0x184>
    a324:	e59f3170 	ldr	r3, [pc, #368]	; a49c <fsWriteFile+0x1b4>
    a328:	e1a00009 	mov	r0, r9
    a32c:	e794b003 	ldr	fp, [r4, r3]
    a330:	e3a0a000 	mov	sl, #0
    a334:	e59b3000 	ldr	r3, [fp]
    a338:	e1a0700a 	mov	r7, sl
    a33c:	e5935018 	ldr	r5, [r3, #24]
    a340:	e1a01005 	mov	r1, r5
    a344:	e58d5008 	str	r5, [sp, #8]
    a348:	eb001c23 	bl	113dc <__aeabi_uidivmod>
    a34c:	e0813006 	add	r3, r1, r6
    a350:	e1550003 	cmp	r5, r3
    a354:	23a02000 	movcs	r2, #0
    a358:	33a02001 	movcc	r2, #1
    a35c:	e1a01005 	mov	r1, r5
    a360:	e58d300c 	str	r3, [sp, #12]
    a364:	e2822001 	add	r2, r2, #1
    a368:	e59f3130 	ldr	r3, [pc, #304]	; a4a0 <fsWriteFile+0x1b8>
    a36c:	e58d2010 	str	r2, [sp, #16]
    a370:	e7946003 	ldr	r6, [r4, r3]
    a374:	e1a00009 	mov	r0, r9
    a378:	eb001c17 	bl	113dc <__aeabi_uidivmod>
    a37c:	e3a03003 	mov	r3, #3
    a380:	e1a05001 	mov	r5, r1
    a384:	e5962000 	ldr	r2, [r6]
    a388:	e1a01009 	mov	r1, r9
    a38c:	e59d0000 	ldr	r0, [sp]
    a390:	ebfffa73 	bl	8d64 <fsRWFile>
    a394:	e3500000 	cmp	r0, #0
    a398:	1a000036 	bne	a478 <fsWriteFile+0x190>
    a39c:	e59b2000 	ldr	r2, [fp]
    a3a0:	e59d1004 	ldr	r1, [sp, #4]
    a3a4:	e5924018 	ldr	r4, [r2, #24]
    a3a8:	e0813005 	add	r3, r1, r5
    a3ac:	e1530004 	cmp	r3, r4
    a3b0:	90414007 	subls	r4, r1, r7
    a3b4:	80444005 	subhi	r4, r4, r5
    a3b8:	e3540000 	cmp	r4, #0
    a3bc:	0a00000a 	beq	a3ec <fsWriteFile+0x104>
    a3c0:	e3a03000 	mov	r3, #0
    a3c4:	e0881003 	add	r1, r8, r3
    a3c8:	e5962000 	ldr	r2, [r6]
    a3cc:	e2800001 	add	r0, r0, #1
    a3d0:	e6ef0070 	uxtb	r0, r0
    a3d4:	e7d11007 	ldrb	r1, [r1, r7]
    a3d8:	e0823003 	add	r3, r2, r3
    a3dc:	e1500004 	cmp	r0, r4
    a3e0:	e7c31005 	strb	r1, [r3, r5]
    a3e4:	e1a03000 	mov	r3, r0
    a3e8:	3afffff5 	bcc	a3c4 <fsWriteFile+0xdc>
    a3ec:	e3a03002 	mov	r3, #2
    a3f0:	e5962000 	ldr	r2, [r6]
    a3f4:	e1a01009 	mov	r1, r9
    a3f8:	e59d0000 	ldr	r0, [sp]
    a3fc:	ebfffa58 	bl	8d64 <fsRWFile>
    a400:	e3500000 	cmp	r0, #0
    a404:	1a00001f 	bne	a488 <fsWriteFile+0x1a0>
    a408:	e59d3008 	ldr	r3, [sp, #8]
    a40c:	e59d200c 	ldr	r2, [sp, #12]
    a410:	e28aa001 	add	sl, sl, #1
    a414:	e1530002 	cmp	r3, r2
    a418:	e59d3010 	ldr	r3, [sp, #16]
    a41c:	30899004 	addcc	r9, r9, r4
    a420:	e153000a 	cmp	r3, sl
    a424:	159b3000 	ldrne	r3, [fp]
    a428:	11a07004 	movne	r7, r4
    a42c:	15931018 	ldrne	r1, [r3, #24]
    a430:	1affffcf 	bne	a374 <fsWriteFile+0x8c>
    a434:	e59d2004 	ldr	r2, [sp, #4]
    a438:	e59f3064 	ldr	r3, [pc, #100]	; a4a4 <fsWriteFile+0x1bc>
    a43c:	e0829009 	add	r9, r2, r9
    a440:	e59d2014 	ldr	r2, [sp, #20]
    a444:	e1a05000 	mov	r5, r0
    a448:	e7923003 	ldr	r3, [r2, r3]
    a44c:	e5933000 	ldr	r3, [r3]
    a450:	e5932028 	ldr	r2, [r3, #40]	; 0x28
    a454:	e1590002 	cmp	r9, r2
    a458:	9a000003 	bls	a46c <fsWriteFile+0x184>
    a45c:	e5839028 	str	r9, [r3, #40]	; 0x28
    a460:	ebfff93f 	bl	8964 <fsUpdateDir>
    a464:	e3500000 	cmp	r0, #0
    a468:	13a050e9 	movne	r5, #233	; 0xe9
    a46c:	e1a00005 	mov	r0, r5
    a470:	e28dd01c 	add	sp, sp, #28
    a474:	e8bd8ff0 	pop	{r4, r5, r6, r7, r8, r9, sl, fp, pc}
    a478:	e3a050ec 	mov	r5, #236	; 0xec
    a47c:	e1a00005 	mov	r0, r5
    a480:	e28dd01c 	add	sp, sp, #28
    a484:	e8bd8ff0 	pop	{r4, r5, r6, r7, r8, r9, sl, fp, pc}
    a488:	e3a050ed 	mov	r5, #237	; 0xed
    a48c:	e1a00005 	mov	r0, r5
    a490:	e28dd01c 	add	sp, sp, #28
    a494:	e8bd8ff0 	pop	{r4, r5, r6, r7, r8, r9, sl, fp, pc}
    a498:	0000eac4 	andeq	lr, r0, r4, asr #21
    a49c:	0000007c 	andeq	r0, r0, ip, ror r0
    a4a0:	00000030 	andeq	r0, r0, r0, lsr r0
    a4a4:	00000068 	andeq	r0, r0, r8, rrx

0000a4a8 <fsMakeDir>:
    a4a8:	e92d4010 	push	{r4, lr}
    a4ac:	e3a010ff 	mov	r1, #255	; 0xff
    a4b0:	e1a04000 	mov	r4, r0
    a4b4:	ebfffabd 	bl	8fb0 <fsFindInDir>
    a4b8:	e3700011 	cmn	r0, #17
    a4bc:	9a000006 	bls	a4dc <fsMakeDir+0x34>
    a4c0:	e1a00004 	mov	r0, r4
    a4c4:	e3a01005 	mov	r1, #5
    a4c8:	ebfffab8 	bl	8fb0 <fsFindInDir>
    a4cc:	e3700011 	cmn	r0, #17
    a4d0:	83a000ef 	movhi	r0, #239	; 0xef
    a4d4:	93a00000 	movls	r0, #0
    a4d8:	e8bd8010 	pop	{r4, pc}
    a4dc:	e3a000ee 	mov	r0, #238	; 0xee
    a4e0:	e8bd8010 	pop	{r4, pc}

0000a4e4 <fsChangeDir>:
    a4e4:	e92d4010 	push	{r4, lr}
    a4e8:	e5d03000 	ldrb	r3, [r0]
    a4ec:	e59f403c 	ldr	r4, [pc, #60]	; a530 <fsChangeDir+0x4c>
    a4f0:	e353002f 	cmp	r3, #47	; 0x2f
    a4f4:	e08f4004 	add	r4, pc, r4
    a4f8:	03a02002 	moveq	r2, #2
    a4fc:	1a000004 	bne	a514 <fsChangeDir+0x30>
    a500:	e59f302c 	ldr	r3, [pc, #44]	; a534 <fsChangeDir+0x50>
    a504:	e3a00000 	mov	r0, #0
    a508:	e7943003 	ldr	r3, [r4, r3]
    a50c:	e5832000 	str	r2, [r3]
    a510:	e8bd8010 	pop	{r4, pc}
    a514:	e3a01001 	mov	r1, #1
    a518:	ebfffaa4 	bl	8fb0 <fsFindInDir>
    a51c:	e3700011 	cmn	r0, #17
    a520:	e1a02000 	mov	r2, r0
    a524:	9afffff5 	bls	a500 <fsChangeDir+0x1c>
    a528:	e3a000e5 	mov	r0, #229	; 0xe5
    a52c:	e8bd8010 	pop	{r4, pc}
    a530:	0000e8e0 	andeq	lr, r0, r0, ror #17
    a534:	00000174 	andeq	r0, r0, r4, ror r1

0000a538 <fsRemoveDir>:
    a538:	e92d4010 	push	{r4, lr}
    a53c:	e3a01007 	mov	r1, #7
    a540:	ebfffa9a 	bl	8fb0 <fsFindInDir>
    a544:	e3700011 	cmn	r0, #17
    a548:	83a000e5 	movhi	r0, #229	; 0xe5
    a54c:	93a00000 	movls	r0, #0
    a550:	e8bd8010 	pop	{r4, pc}

0000a554 <fsFormat>:
    a554:	e92d4ff0 	push	{r4, r5, r6, r7, r8, r9, sl, fp, lr}
    a558:	e59f3594 	ldr	r3, [pc, #1428]	; aaf4 <fsFormat+0x5a0>
    a55c:	e59f2594 	ldr	r2, [pc, #1428]	; aaf8 <fsFormat+0x5a4>
    a560:	e08f3003 	add	r3, pc, r3
    a564:	e7934002 	ldr	r4, [r3, r2]
    a568:	e24dd00c 	sub	sp, sp, #12
    a56c:	e5945000 	ldr	r5, [r4]
    a570:	e1a06000 	mov	r6, r0
    a574:	e1a0a001 	mov	sl, r1
    a578:	e3a00000 	mov	r0, #0
    a57c:	e1a01005 	mov	r1, r5
    a580:	ebfff8ef 	bl	8944 <fsSectorRead>
    a584:	e3500000 	cmp	r0, #0
    a588:	03a000e1 	moveq	r0, #225	; 0xe1
    a58c:	0a0000d9 	beq	a8f8 <fsFormat+0x3a4>
    a590:	e3a0300b 	mov	r3, #11
    a594:	e5941000 	ldr	r1, [r4]
    a598:	e3a02001 	mov	r2, #1
    a59c:	e59171ca 	ldr	r7, [r1, #458]	; 0x1ca
    a5a0:	e59181c6 	ldr	r8, [r1, #454]	; 0x1c6
    a5a4:	e3a00000 	mov	r0, #0
    a5a8:	e5c531c2 	strb	r3, [r5, #450]	; 0x1c2
    a5ac:	ebfff8e6 	bl	894c <fsSectorWrite>
    a5b0:	e3500000 	cmp	r0, #0
    a5b4:	0a0000ce 	beq	a8f4 <fsFormat+0x3a0>
    a5b8:	e59f353c 	ldr	r3, [pc, #1340]	; aafc <fsFormat+0x5a8>
    a5bc:	e59f253c 	ldr	r2, [pc, #1340]	; ab00 <fsFormat+0x5ac>
    a5c0:	e0873003 	add	r3, r7, r3
    a5c4:	e1530002 	cmp	r3, r2
    a5c8:	8a0000cc 	bhi	a900 <fsFormat+0x3ac>
    a5cc:	e3a03008 	mov	r3, #8
    a5d0:	e59f152c 	ldr	r1, [pc, #1324]	; ab04 <fsFormat+0x5b0>
    a5d4:	e58d3004 	str	r3, [sp, #4]
    a5d8:	e2470026 	sub	r0, r7, #38	; 0x26
    a5dc:	eb001cd5 	bl	11938 <__aeabi_uidiv>
    a5e0:	e3e0b014 	mvn	fp, #20
    a5e4:	e1a05000 	mov	r5, r0
    a5e8:	e3a02c02 	mov	r2, #512	; 0x200
    a5ec:	e3a01000 	mov	r1, #0
    a5f0:	e5940000 	ldr	r0, [r4]
    a5f4:	eb001ba2 	bl	11484 <memset>
    a5f8:	e3560000 	cmp	r6, #0
    a5fc:	e5949000 	ldr	r9, [r4]
    a600:	e28600ff 	add	r0, r6, #255	; 0xff
    a604:	a1a00006 	movge	r0, r6
    a608:	e2861cff 	add	r1, r6, #65280	; 0xff00
    a60c:	e5c9b000 	strb	fp, [r9]
    a610:	e28110ff 	add	r1, r1, #255	; 0xff
    a614:	e3a0903c 	mov	r9, #60	; 0x3c
    a618:	a1a01006 	movge	r1, r6
    a61c:	e1a0b440 	asr	fp, r0, #8
    a620:	e5940000 	ldr	r0, [r4]
    a624:	e3a0c04d 	mov	ip, #77	; 0x4d
    a628:	e5c09001 	strb	r9, [r0, #1]
    a62c:	e1a00841 	asr	r0, r1, #16
    a630:	e3e0106f 	mvn	r1, #111	; 0x6f
    a634:	e5949000 	ldr	r9, [r4]
    a638:	e3a03000 	mov	r3, #0
    a63c:	e5c91002 	strb	r1, [r9, #2]
    a640:	e5941000 	ldr	r1, [r4]
    a644:	e3a0e002 	mov	lr, #2
    a648:	e5c1c003 	strb	ip, [r1, #3]
    a64c:	e5941000 	ldr	r1, [r4]
    a650:	e2862401 	add	r2, r6, #16777216	; 0x1000000
    a654:	e5c1c004 	strb	ip, [r1, #4]
    a658:	e59dc004 	ldr	ip, [sp, #4]
    a65c:	e5c1300b 	strb	r3, [r1, #11]
    a660:	e5c1c00d 	strb	ip, [r1, #13]
    a664:	e3a0c053 	mov	ip, #83	; 0x53
    a668:	e5c1c005 	strb	ip, [r1, #5]
    a66c:	e3a0c04a 	mov	ip, #74	; 0x4a
    a670:	e5c1c006 	strb	ip, [r1, #6]
    a674:	e3a0c020 	mov	ip, #32
    a678:	e5c1c007 	strb	ip, [r1, #7]
    a67c:	e3a0c046 	mov	ip, #70	; 0x46
    a680:	e5c1c008 	strb	ip, [r1, #8]
    a684:	e3a0c041 	mov	ip, #65	; 0x41
    a688:	e5c1c009 	strb	ip, [r1, #9]
    a68c:	e3a0c054 	mov	ip, #84	; 0x54
    a690:	e5c1c00a 	strb	ip, [r1, #10]
    a694:	e3a0c026 	mov	ip, #38	; 0x26
    a698:	e5c1c00e 	strb	ip, [r1, #14]
    a69c:	e3e0c007 	mvn	ip, #7
    a6a0:	e5c1c015 	strb	ip, [r1, #21]
    a6a4:	e3a0c03f 	mov	ip, #63	; 0x3f
    a6a8:	e5c1c018 	strb	ip, [r1, #24]
    a6ac:	e3e0c000 	mvn	ip, #0
    a6b0:	e5c1c01a 	strb	ip, [r1, #26]
    a6b4:	e1a0c428 	lsr	ip, r8, #8
    a6b8:	e5c1300f 	strb	r3, [r1, #15]
    a6bc:	e5c13011 	strb	r3, [r1, #17]
    a6c0:	e5c13012 	strb	r3, [r1, #18]
    a6c4:	e5c13013 	strb	r3, [r1, #19]
    a6c8:	e5c13014 	strb	r3, [r1, #20]
    a6cc:	e5c13016 	strb	r3, [r1, #22]
    a6d0:	e5c13017 	strb	r3, [r1, #23]
    a6d4:	e5c13019 	strb	r3, [r1, #25]
    a6d8:	e5c1e00c 	strb	lr, [r1, #12]
    a6dc:	e5c1e010 	strb	lr, [r1, #16]
    a6e0:	e5c1c01d 	strb	ip, [r1, #29]
    a6e4:	e1a0c828 	lsr	ip, r8, #16
    a6e8:	e5c1c01e 	strb	ip, [r1, #30]
    a6ec:	e1a0cc28 	lsr	ip, r8, #24
    a6f0:	e5c1c01f 	strb	ip, [r1, #31]
    a6f4:	e1a0c427 	lsr	ip, r7, #8
    a6f8:	e5c1c021 	strb	ip, [r1, #33]	; 0x21
    a6fc:	e1a0c827 	lsr	ip, r7, #16
    a700:	e5c1c022 	strb	ip, [r1, #34]	; 0x22
    a704:	e1a0c425 	lsr	ip, r5, #8
    a708:	e5c1c025 	strb	ip, [r1, #37]	; 0x25
    a70c:	e1a0c825 	lsr	ip, r5, #16
    a710:	e5c1c026 	strb	ip, [r1, #38]	; 0x26
    a714:	e3a0c001 	mov	ip, #1
    a718:	e2422001 	sub	r2, r2, #1
    a71c:	e5c17020 	strb	r7, [r1, #32]
    a720:	a1a02006 	movge	r2, r6
    a724:	e1a07c27 	lsr	r7, r7, #24
    a728:	e5c1301b 	strb	r3, [r1, #27]
    a72c:	e5c1801c 	strb	r8, [r1, #28]
    a730:	e5c15024 	strb	r5, [r1, #36]	; 0x24
    a734:	e5c13027 	strb	r3, [r1, #39]	; 0x27
    a738:	e5c13028 	strb	r3, [r1, #40]	; 0x28
    a73c:	e5c13029 	strb	r3, [r1, #41]	; 0x29
    a740:	e5c1302a 	strb	r3, [r1, #42]	; 0x2a
    a744:	e5c1302b 	strb	r3, [r1, #43]	; 0x2b
    a748:	e5c1e02c 	strb	lr, [r1, #44]	; 0x2c
    a74c:	e5c1302d 	strb	r3, [r1, #45]	; 0x2d
    a750:	e5c1302e 	strb	r3, [r1, #46]	; 0x2e
    a754:	e5c1302f 	strb	r3, [r1, #47]	; 0x2f
    a758:	e5c13031 	strb	r3, [r1, #49]	; 0x31
    a75c:	e5c13032 	strb	r3, [r1, #50]	; 0x32
    a760:	e5c13033 	strb	r3, [r1, #51]	; 0x33
    a764:	e5c13034 	strb	r3, [r1, #52]	; 0x34
    a768:	e5c13035 	strb	r3, [r1, #53]	; 0x35
    a76c:	e5c13036 	strb	r3, [r1, #54]	; 0x36
    a770:	e5c13037 	strb	r3, [r1, #55]	; 0x37
    a774:	e5c13038 	strb	r3, [r1, #56]	; 0x38
    a778:	e5c13039 	strb	r3, [r1, #57]	; 0x39
    a77c:	e5c1303a 	strb	r3, [r1, #58]	; 0x3a
    a780:	e5c1303b 	strb	r3, [r1, #59]	; 0x3b
    a784:	e5c17023 	strb	r7, [r1, #35]	; 0x23
    a788:	e5c1c030 	strb	ip, [r1, #48]	; 0x30
    a78c:	e3a0c029 	mov	ip, #41	; 0x29
    a790:	e1a02c42 	asr	r2, r2, #24
    a794:	e15a0003 	cmp	sl, r3
    a798:	e5c1303c 	strb	r3, [r1, #60]	; 0x3c
    a79c:	e5c1303d 	strb	r3, [r1, #61]	; 0x3d
    a7a0:	e5c1303e 	strb	r3, [r1, #62]	; 0x3e
    a7a4:	e5c1303f 	strb	r3, [r1, #63]	; 0x3f
    a7a8:	e5c13040 	strb	r3, [r1, #64]	; 0x40
    a7ac:	e5c13041 	strb	r3, [r1, #65]	; 0x41
    a7b0:	e5c16043 	strb	r6, [r1, #67]	; 0x43
    a7b4:	e5c1c042 	strb	ip, [r1, #66]	; 0x42
    a7b8:	e5c1b044 	strb	fp, [r1, #68]	; 0x44
    a7bc:	e5c10045 	strb	r0, [r1, #69]	; 0x45
    a7c0:	e5c12046 	strb	r2, [r1, #70]	; 0x46
    a7c4:	0a000059 	beq	a930 <fsFormat+0x3dc>
    a7c8:	e5da2000 	ldrb	r2, [sl]
    a7cc:	e1520003 	cmp	r2, r3
    a7d0:	0a00008c 	beq	aa08 <fsFormat+0x4b4>
    a7d4:	e1a0000a 	mov	r0, sl
    a7d8:	e0811003 	add	r1, r1, r3
    a7dc:	e5c12047 	strb	r2, [r1, #71]	; 0x47
    a7e0:	e5f02001 	ldrb	r2, [r0, #1]!
    a7e4:	e2833001 	add	r3, r3, #1
    a7e8:	e3520000 	cmp	r2, #0
    a7ec:	0a000057 	beq	a950 <fsFormat+0x3fc>
    a7f0:	e353000b 	cmp	r3, #11
    a7f4:	e5941000 	ldr	r1, [r4]
    a7f8:	1afffff6 	bne	a7d8 <fsFormat+0x284>
    a7fc:	e3a03020 	mov	r3, #32
    a800:	e3a0e033 	mov	lr, #51	; 0x33
    a804:	e3a0c032 	mov	ip, #50	; 0x32
    a808:	e3a00055 	mov	r0, #85	; 0x55
    a80c:	e3e02055 	mvn	r2, #85	; 0x55
    a810:	e3a09046 	mov	r9, #70	; 0x46
    a814:	e3a07041 	mov	r7, #65	; 0x41
    a818:	e3a06054 	mov	r6, #84	; 0x54
    a81c:	e5c101fe 	strb	r0, [r1, #510]	; 0x1fe
    a820:	e5c121ff 	strb	r2, [r1, #511]	; 0x1ff
    a824:	e5c19052 	strb	r9, [r1, #82]	; 0x52
    a828:	e5c17053 	strb	r7, [r1, #83]	; 0x53
    a82c:	e5c16054 	strb	r6, [r1, #84]	; 0x54
    a830:	e5c1e055 	strb	lr, [r1, #85]	; 0x55
    a834:	e5c1c056 	strb	ip, [r1, #86]	; 0x56
    a838:	e5c13057 	strb	r3, [r1, #87]	; 0x57
    a83c:	e5c13058 	strb	r3, [r1, #88]	; 0x58
    a840:	e5c13059 	strb	r3, [r1, #89]	; 0x59
    a844:	e3a02000 	mov	r2, #0
    a848:	e1a00008 	mov	r0, r8
    a84c:	ebfff83e 	bl	894c <fsSectorWrite>
    a850:	e3500000 	cmp	r0, #0
    a854:	0a000026 	beq	a8f4 <fsFormat+0x3a0>
    a858:	e3a02c02 	mov	r2, #512	; 0x200
    a85c:	e3a01000 	mov	r1, #0
    a860:	e5940000 	ldr	r0, [r4]
    a864:	eb001b06 	bl	11484 <memset>
    a868:	e3e00007 	mvn	r0, #7
    a86c:	e3e03000 	mvn	r3, #0
    a870:	e3a0200f 	mov	r2, #15
    a874:	e5941000 	ldr	r1, [r4]
    a878:	e2889026 	add	r9, r8, #38	; 0x26
    a87c:	e5c10000 	strb	r0, [r1]
    a880:	e5941000 	ldr	r1, [r4]
    a884:	e0899005 	add	r9, r9, r5
    a888:	e5c13001 	strb	r3, [r1, #1]
    a88c:	e5941000 	ldr	r1, [r4]
    a890:	e1a06009 	mov	r6, r9
    a894:	e5c13002 	strb	r3, [r1, #2]
    a898:	e5941000 	ldr	r1, [r4]
    a89c:	e59f7264 	ldr	r7, [pc, #612]	; ab08 <fsFormat+0x5b4>
    a8a0:	e5c12003 	strb	r2, [r1, #3]
    a8a4:	e5940000 	ldr	r0, [r4]
    a8a8:	e5c0200b 	strb	r2, [r0, #11]
    a8ac:	e5c03004 	strb	r3, [r0, #4]
    a8b0:	e5c03005 	strb	r3, [r0, #5]
    a8b4:	e5c03006 	strb	r3, [r0, #6]
    a8b8:	e5c03007 	strb	r3, [r0, #7]
    a8bc:	e5c03008 	strb	r3, [r0, #8]
    a8c0:	e5c03009 	strb	r3, [r0, #9]
    a8c4:	e5c0300a 	strb	r3, [r0, #10]
    a8c8:	e1a01000 	mov	r1, r0
    a8cc:	ea000003 	b	a8e0 <fsFormat+0x38c>
    a8d0:	e2577001 	subs	r7, r7, #1
    a8d4:	e0466005 	sub	r6, r6, r5
    a8d8:	e5941000 	ldr	r1, [r4]
    a8dc:	0a000034 	beq	a9b4 <fsFormat+0x460>
    a8e0:	e3a02000 	mov	r2, #0
    a8e4:	e1a00006 	mov	r0, r6
    a8e8:	ebfff817 	bl	894c <fsSectorWrite>
    a8ec:	e3500000 	cmp	r0, #0
    a8f0:	1afffff6 	bne	a8d0 <fsFormat+0x37c>
    a8f4:	e3a000e2 	mov	r0, #226	; 0xe2
    a8f8:	e28dd00c 	add	sp, sp, #12
    a8fc:	e8bd8ff0 	pop	{r4, r5, r6, r7, r8, r9, sl, fp, pc}
    a900:	e28734ff 	add	r3, r7, #-16777216	; 0xff000000
    a904:	e2433001 	sub	r3, r3, #1
    a908:	e3530401 	cmp	r3, #16777216	; 0x1000000
    a90c:	3a00001d 	bcc	a988 <fsFormat+0x434>
    a910:	e28734fe 	add	r3, r7, #-33554432	; 0xfe000000
    a914:	e2433001 	sub	r3, r3, #1
    a918:	e3530402 	cmp	r3, #33554432	; 0x2000000
    a91c:	2a00001d 	bcs	a998 <fsFormat+0x444>
    a920:	e3a03020 	mov	r3, #32
    a924:	e59f11e0 	ldr	r1, [pc, #480]	; ab0c <fsFormat+0x5b8>
    a928:	e58d3004 	str	r3, [sp, #4]
    a92c:	eaffff29 	b	a5d8 <fsFormat+0x84>
    a930:	e3a03047 	mov	r3, #71	; 0x47
    a934:	e1a0200a 	mov	r2, sl
    a938:	e7c12003 	strb	r2, [r1, r3]
    a93c:	e2833001 	add	r3, r3, #1
    a940:	e3530052 	cmp	r3, #82	; 0x52
    a944:	e5941000 	ldr	r1, [r4]
    a948:	1afffffa 	bne	a938 <fsFormat+0x3e4>
    a94c:	eaffffaa 	b	a7fc <fsFormat+0x2a8>
    a950:	e353000b 	cmp	r3, #11
    a954:	e5941000 	ldr	r1, [r4]
    a958:	0affffa7 	beq	a7fc <fsFormat+0x2a8>
    a95c:	e3a00020 	mov	r0, #32
    a960:	ea000001 	b	a96c <fsFormat+0x418>
    a964:	e1a03002 	mov	r3, r2
    a968:	e5941000 	ldr	r1, [r4]
    a96c:	e2832001 	add	r2, r3, #1
    a970:	e352000b 	cmp	r2, #11
    a974:	e0813003 	add	r3, r1, r3
    a978:	e5c30047 	strb	r0, [r3, #71]	; 0x47
    a97c:	1afffff8 	bne	a964 <fsFormat+0x410>
    a980:	e5941000 	ldr	r1, [r4]
    a984:	eaffff9c 	b	a7fc <fsFormat+0x2a8>
    a988:	e3a03010 	mov	r3, #16
    a98c:	e59f117c 	ldr	r1, [pc, #380]	; ab10 <fsFormat+0x5bc>
    a990:	e58d3004 	str	r3, [sp, #4]
    a994:	eaffff0f 	b	a5d8 <fsFormat+0x84>
    a998:	e3570301 	cmp	r7, #67108864	; 0x4000000
    a99c:	83a03040 	movhi	r3, #64	; 0x40
    a9a0:	93a03000 	movls	r3, #0
    a9a4:	e59f1168 	ldr	r1, [pc, #360]	; ab14 <fsFormat+0x5c0>
    a9a8:	e58d3004 	str	r3, [sp, #4]
    a9ac:	93a01001 	movls	r1, #1
    a9b0:	eaffff08 	b	a5d8 <fsFormat+0x84>
    a9b4:	e1a00001 	mov	r0, r1
    a9b8:	e3a0200c 	mov	r2, #12
    a9bc:	e1a01007 	mov	r1, r7
    a9c0:	e2888027 	add	r8, r8, #39	; 0x27
    a9c4:	eb001aae 	bl	11484 <memset>
    a9c8:	e1580009 	cmp	r8, r9
    a9cc:	2a000013 	bcs	aa20 <fsFormat+0x4cc>
    a9d0:	e0858008 	add	r8, r5, r8
    a9d4:	e1a06008 	mov	r6, r8
    a9d8:	e59f7128 	ldr	r7, [pc, #296]	; ab08 <fsFormat+0x5b4>
    a9dc:	ea000002 	b	a9ec <fsFormat+0x498>
    a9e0:	e2577001 	subs	r7, r7, #1
    a9e4:	e0466005 	sub	r6, r6, r5
    a9e8:	0a000008 	beq	aa10 <fsFormat+0x4bc>
    a9ec:	e3a02000 	mov	r2, #0
    a9f0:	e5941000 	ldr	r1, [r4]
    a9f4:	e1a00006 	mov	r0, r6
    a9f8:	ebfff7d3 	bl	894c <fsSectorWrite>
    a9fc:	e3500000 	cmp	r0, #0
    aa00:	1afffff6 	bne	a9e0 <fsFormat+0x48c>
    aa04:	eaffffba 	b	a8f4 <fsFormat+0x3a0>
    aa08:	e1a03002 	mov	r3, r2
    aa0c:	eaffffd2 	b	a95c <fsFormat+0x408>
    aa10:	e2888001 	add	r8, r8, #1
    aa14:	e0483005 	sub	r3, r8, r5
    aa18:	e1530009 	cmp	r3, r9
    aa1c:	3affffec 	bcc	a9d4 <fsFormat+0x480>
    aa20:	e59d3004 	ldr	r3, [sp, #4]
    aa24:	e0859009 	add	r9, r5, r9
    aa28:	e0835009 	add	r5, r3, r9
    aa2c:	e2896001 	add	r6, r9, #1
    aa30:	ea000001 	b	aa3c <fsFormat+0x4e8>
    aa34:	e1560005 	cmp	r6, r5
    aa38:	0a000007 	beq	aa5c <fsFormat+0x508>
    aa3c:	e1a00006 	mov	r0, r6
    aa40:	e3a02000 	mov	r2, #0
    aa44:	e5941000 	ldr	r1, [r4]
    aa48:	ebfff7bf 	bl	894c <fsSectorWrite>
    aa4c:	e3500000 	cmp	r0, #0
    aa50:	e2866001 	add	r6, r6, #1
    aa54:	1afffff6 	bne	aa34 <fsFormat+0x4e0>
    aa58:	eaffffa5 	b	a8f4 <fsFormat+0x3a0>
    aa5c:	e5da2000 	ldrb	r2, [sl]
    aa60:	e3520000 	cmp	r2, #0
    aa64:	0a000020 	beq	aaec <fsFormat+0x598>
    aa68:	e1a0100a 	mov	r1, sl
    aa6c:	e3a03000 	mov	r3, #0
    aa70:	ea000001 	b	aa7c <fsFormat+0x528>
    aa74:	e353000b 	cmp	r3, #11
    aa78:	0a00000d 	beq	aab4 <fsFormat+0x560>
    aa7c:	e5940000 	ldr	r0, [r4]
    aa80:	e7c02003 	strb	r2, [r0, r3]
    aa84:	e5f12001 	ldrb	r2, [r1, #1]!
    aa88:	e2833001 	add	r3, r3, #1
    aa8c:	e3520000 	cmp	r2, #0
    aa90:	1afffff7 	bne	aa74 <fsFormat+0x520>
    aa94:	e353000b 	cmp	r3, #11
    aa98:	0a000005 	beq	aab4 <fsFormat+0x560>
    aa9c:	e3a01020 	mov	r1, #32
    aaa0:	e5942000 	ldr	r2, [r4]
    aaa4:	e7c21003 	strb	r1, [r2, r3]
    aaa8:	e2833001 	add	r3, r3, #1
    aaac:	e353000b 	cmp	r3, #11
    aab0:	1afffffa 	bne	aaa0 <fsFormat+0x54c>
    aab4:	e3a03011 	mov	r3, #17
    aab8:	e3a02008 	mov	r2, #8
    aabc:	e5941000 	ldr	r1, [r4]
    aac0:	e1a00009 	mov	r0, r9
    aac4:	e5c1200b 	strb	r2, [r1, #11]
    aac8:	e5c13011 	strb	r3, [r1, #17]
    aacc:	e5c13013 	strb	r3, [r1, #19]
    aad0:	e5c13017 	strb	r3, [r1, #23]
    aad4:	e3a02000 	mov	r2, #0
    aad8:	ebfff79b 	bl	894c <fsSectorWrite>
    aadc:	e3500000 	cmp	r0, #0
    aae0:	13a00000 	movne	r0, #0
    aae4:	1affff83 	bne	a8f8 <fsFormat+0x3a4>
    aae8:	eaffff81 	b	a8f4 <fsFormat+0x3a0>
    aaec:	e1a03002 	mov	r3, r2
    aaf0:	eaffffe9 	b	aa9c <fsFormat+0x548>
    aaf4:	0000e874 	andeq	lr, r0, r4, ror r8
    aaf8:	00000030 	andeq	r0, r0, r0, lsr r0
    aafc:	fff11481 			; <UNDEFINED> instruction: 0xfff11481
    ab00:	00f11481 	rscseq	r1, r1, r1, lsl #9
    ab04:	00000401 	andeq	r0, r0, r1, lsl #8
    ab08:	ffff0002 			; <UNDEFINED> instruction: 0xffff0002
    ab0c:	00001001 	andeq	r1, r0, r1
    ab10:	00000801 	andeq	r0, r0, r1, lsl #16
    ab14:	00002001 	andeq	r2, r0, r1

0000ab18 <writesxy>:
    ab18:	e5d3c000 	ldrb	ip, [r3]
    ab1c:	e92d40f0 	push	{r4, r5, r6, r7, lr}
    ab20:	e59f50b8 	ldr	r5, [pc, #184]	; abe0 <writesxy+0xc8>
    ab24:	e35c0000 	cmp	ip, #0
    ab28:	e08f5005 	add	r5, pc, r5
    ab2c:	e59d7014 	ldr	r7, [sp, #20]
    ab30:	e59d6018 	ldr	r6, [sp, #24]
    ab34:	08bd80f0 	popeq	{r4, r5, r6, r7, pc}
    ab38:	e1a04003 	mov	r4, r3
    ab3c:	e3a0e00a 	mov	lr, #10
    ab40:	e35c001f 	cmp	ip, #31
    ab44:	e5f4c001 	ldrb	ip, [r4, #1]!
    ab48:	828ee001 	addhi	lr, lr, #1
    ab4c:	86efe07e 	uxtbhi	lr, lr
    ab50:	e35c0000 	cmp	ip, #0
    ab54:	1afffff9 	bne	ab40 <writesxy+0x28>
    ab58:	e35e000a 	cmp	lr, #10
    ab5c:	98bd80f0 	popls	{r4, r5, r6, r7, pc}
    ab60:	e3e0402e 	mvn	r4, #46	; 0x2e
    ab64:	e59fc078 	ldr	ip, [pc, #120]	; abe4 <writesxy+0xcc>
    ab68:	e795c00c 	ldr	ip, [r5, ip]
    ab6c:	e1a05420 	lsr	r5, r0, #8
    ab70:	e5cce000 	strb	lr, [ip]
    ab74:	e5cc0003 	strb	r0, [ip, #3]
    ab78:	e1a0e421 	lsr	lr, r1, #8
    ab7c:	e5cc1005 	strb	r1, [ip, #5]
    ab80:	e1a00427 	lsr	r0, r7, #8
    ab84:	e1a01426 	lsr	r1, r6, #8
    ab88:	e5cc2006 	strb	r2, [ip, #6]
    ab8c:	e5cc7008 	strb	r7, [ip, #8]
    ab90:	e5cc600a 	strb	r6, [ip, #10]
    ab94:	e5cc5002 	strb	r5, [ip, #2]
    ab98:	e5cce004 	strb	lr, [ip, #4]
    ab9c:	e5cc0007 	strb	r0, [ip, #7]
    aba0:	e5cc1009 	strb	r1, [ip, #9]
    aba4:	e5cc4001 	strb	r4, [ip, #1]
    aba8:	e5d32000 	ldrb	r2, [r3]
    abac:	e3520000 	cmp	r2, #0
    abb0:	0a000007 	beq	abd4 <writesxy+0xbc>
    abb4:	e3a0100b 	mov	r1, #11
    abb8:	e2420020 	sub	r0, r2, #32
    abbc:	e350005f 	cmp	r0, #95	; 0x5f
    abc0:	97cc2001 	strbls	r2, [ip, r1]
    abc4:	e5f32001 	ldrb	r2, [r3, #1]!
    abc8:	e2811001 	add	r1, r1, #1
    abcc:	e3520000 	cmp	r2, #0
    abd0:	1afffff8 	bne	abb8 <writesxy+0xa0>
    abd4:	e8bd40f0 	pop	{r4, r5, r6, r7, lr}
    abd8:	e1a0000c 	mov	r0, ip
    abdc:	ea002985 	b	151f8 <commVDG>
    abe0:	0000e2ac 	andeq	lr, r0, ip, lsr #5
    abe4:	0000012c 	andeq	r0, r0, ip, lsr #2

0000abe8 <writecxy>:
    abe8:	e92d41f0 	push	{r4, r5, r6, r7, r8, lr}
    abec:	e3a0600b 	mov	r6, #11
    abf0:	e3e0e02d 	mvn	lr, #45	; 0x2d
    abf4:	e1a05000 	mov	r5, r0
    abf8:	e59f4090 	ldr	r4, [pc, #144]	; ac90 <writecxy+0xa8>
    abfc:	e59fc090 	ldr	ip, [pc, #144]	; ac94 <writecxy+0xac>
    ac00:	e08f4004 	add	r4, pc, r4
    ac04:	e794c00c 	ldr	ip, [r4, ip]
    ac08:	e59f0088 	ldr	r0, [pc, #136]	; ac98 <writecxy+0xb0>
    ac0c:	e5cce001 	strb	lr, [ip, #1]
    ac10:	e5cc6000 	strb	r6, [ip]
    ac14:	e7946000 	ldr	r6, [r4, r0]
    ac18:	e59fe07c 	ldr	lr, [pc, #124]	; ac9c <writecxy+0xb4>
    ac1c:	e5960000 	ldr	r0, [r6]
    ac20:	e1a07422 	lsr	r7, r2, #8
    ac24:	e5cc0003 	strb	r0, [ip, #3]
    ac28:	e1a00420 	lsr	r0, r0, #8
    ac2c:	e5cc0002 	strb	r0, [ip, #2]
    ac30:	e794000e 	ldr	r0, [r4, lr]
    ac34:	e1a0e423 	lsr	lr, r3, #8
    ac38:	e5900000 	ldr	r0, [r0]
    ac3c:	e5cc5006 	strb	r5, [ip, #6]
    ac40:	e5cc0005 	strb	r0, [ip, #5]
    ac44:	e1a00420 	lsr	r0, r0, #8
    ac48:	e5cc0004 	strb	r0, [ip, #4]
    ac4c:	e1a0000c 	mov	r0, ip
    ac50:	e5cc2008 	strb	r2, [ip, #8]
    ac54:	e5cc300a 	strb	r3, [ip, #10]
    ac58:	e5cc100b 	strb	r1, [ip, #11]
    ac5c:	e5cc7007 	strb	r7, [ip, #7]
    ac60:	e5cce009 	strb	lr, [ip, #9]
    ac64:	eb002963 	bl	151f8 <commVDG>
    ac68:	e5961000 	ldr	r1, [r6]
    ac6c:	e59f302c 	ldr	r3, [pc, #44]	; aca0 <writecxy+0xb8>
    ac70:	e0852001 	add	r2, r5, r1
    ac74:	e5862000 	str	r2, [r6]
    ac78:	e7943003 	ldr	r3, [r4, r3]
    ac7c:	e0855002 	add	r5, r5, r2
    ac80:	e5933000 	ldr	r3, [r3]
    ac84:	e1550003 	cmp	r5, r3
    ac88:	85861000 	strhi	r1, [r6]
    ac8c:	e8bd81f0 	pop	{r4, r5, r6, r7, r8, pc}
    ac90:	0000e1d4 	ldrdeq	lr, [r0], -r4
    ac94:	0000012c 	andeq	r0, r0, ip, lsr #2
    ac98:	00000164 	andeq	r0, r0, r4, ror #2
    ac9c:	0000009c 	muleq	r0, ip, r0
    aca0:	0000016c 	andeq	r0, r0, ip, ror #2

0000aca4 <locatexy>:
    aca4:	e59f301c 	ldr	r3, [pc, #28]	; acc8 <locatexy+0x24>
    aca8:	e59fc01c 	ldr	ip, [pc, #28]	; accc <locatexy+0x28>
    acac:	e08f3003 	add	r3, pc, r3
    acb0:	e793c00c 	ldr	ip, [r3, ip]
    acb4:	e59f2014 	ldr	r2, [pc, #20]	; acd0 <locatexy+0x2c>
    acb8:	e58c0000 	str	r0, [ip]
    acbc:	e7933002 	ldr	r3, [r3, r2]
    acc0:	e5831000 	str	r1, [r3]
    acc4:	e12fff1e 	bx	lr
    acc8:	0000e128 	andeq	lr, r0, r8, lsr #2
    accc:	00000164 	andeq	r0, r0, r4, ror #2
    acd0:	0000009c 	muleq	r0, ip, r0

0000acd4 <SaveScreen>:
    acd4:	e92d40f0 	push	{r4, r5, r6, r7, lr}
    acd8:	e3a05009 	mov	r5, #9
    acdc:	e3e04015 	mvn	r4, #21
    ace0:	e59fe04c 	ldr	lr, [pc, #76]	; ad34 <SaveScreen+0x60>
    ace4:	e59fc04c 	ldr	ip, [pc, #76]	; ad38 <SaveScreen+0x64>
    ace8:	e08fe00e 	add	lr, pc, lr
    acec:	e79ec00c 	ldr	ip, [lr, ip]
    acf0:	e1a07421 	lsr	r7, r1, #8
    acf4:	e1a06420 	lsr	r6, r0, #8
    acf8:	e5cc1003 	strb	r1, [ip, #3]
    acfc:	e1a01422 	lsr	r1, r2, #8
    ad00:	e1a0e423 	lsr	lr, r3, #8
    ad04:	e5cc0005 	strb	r0, [ip, #5]
    ad08:	e5cc7002 	strb	r7, [ip, #2]
    ad0c:	e5cc3007 	strb	r3, [ip, #7]
    ad10:	e5cc2009 	strb	r2, [ip, #9]
    ad14:	e5cc6004 	strb	r6, [ip, #4]
    ad18:	e5cce006 	strb	lr, [ip, #6]
    ad1c:	e5cc1008 	strb	r1, [ip, #8]
    ad20:	e5cc5000 	strb	r5, [ip]
    ad24:	e5cc4001 	strb	r4, [ip, #1]
    ad28:	e1a0000c 	mov	r0, ip
    ad2c:	e8bd40f0 	pop	{r4, r5, r6, r7, lr}
    ad30:	ea002930 	b	151f8 <commVDG>
    ad34:	0000e0ec 	andeq	lr, r0, ip, ror #1
    ad38:	0000012c 	andeq	r0, r0, ip, lsr #2

0000ad3c <RestoreScreen>:
    ad3c:	e92d40f0 	push	{r4, r5, r6, r7, lr}
    ad40:	e3a05009 	mov	r5, #9
    ad44:	e3e04014 	mvn	r4, #20
    ad48:	e59fe04c 	ldr	lr, [pc, #76]	; ad9c <RestoreScreen+0x60>
    ad4c:	e59fc04c 	ldr	ip, [pc, #76]	; ada0 <RestoreScreen+0x64>
    ad50:	e08fe00e 	add	lr, pc, lr
    ad54:	e79ec00c 	ldr	ip, [lr, ip]
    ad58:	e1a07421 	lsr	r7, r1, #8
    ad5c:	e1a06420 	lsr	r6, r0, #8
    ad60:	e5cc1003 	strb	r1, [ip, #3]
    ad64:	e1a01422 	lsr	r1, r2, #8
    ad68:	e1a0e423 	lsr	lr, r3, #8
    ad6c:	e5cc0005 	strb	r0, [ip, #5]
    ad70:	e5cc7002 	strb	r7, [ip, #2]
    ad74:	e5cc3007 	strb	r3, [ip, #7]
    ad78:	e5cc2009 	strb	r2, [ip, #9]
    ad7c:	e5cc6004 	strb	r6, [ip, #4]
    ad80:	e5cce006 	strb	lr, [ip, #6]
    ad84:	e5cc1008 	strb	r1, [ip, #8]
    ad88:	e5cc5000 	strb	r5, [ip]
    ad8c:	e5cc4001 	strb	r4, [ip, #1]
    ad90:	e1a0000c 	mov	r0, ip
    ad94:	e8bd40f0 	pop	{r4, r5, r6, r7, lr}
    ad98:	ea002916 	b	151f8 <commVDG>
    ad9c:	0000e084 	andeq	lr, r0, r4, lsl #1
    ada0:	0000012c 	andeq	r0, r0, ip, lsr #2

0000ada4 <SetDot>:
    ada4:	e92d4070 	push	{r4, r5, r6, lr}
    ada8:	e3a05009 	mov	r5, #9
    adac:	e3e04028 	mvn	r4, #40	; 0x28
    adb0:	e3a0e000 	mov	lr, #0
    adb4:	e59fc044 	ldr	ip, [pc, #68]	; ae00 <SetDot+0x5c>
    adb8:	e59f3044 	ldr	r3, [pc, #68]	; ae04 <SetDot+0x60>
    adbc:	e08fc00c 	add	ip, pc, ip
    adc0:	e79c3003 	ldr	r3, [ip, r3]
    adc4:	e1a06420 	lsr	r6, r0, #8
    adc8:	e5c31005 	strb	r1, [r3, #5]
    adcc:	e1a0c421 	lsr	ip, r1, #8
    add0:	e1a01422 	lsr	r1, r2, #8
    add4:	e5c30003 	strb	r0, [r3, #3]
    add8:	e5c36002 	strb	r6, [r3, #2]
    addc:	e5c32008 	strb	r2, [r3, #8]
    ade0:	e5c3c004 	strb	ip, [r3, #4]
    ade4:	e5c31007 	strb	r1, [r3, #7]
    ade8:	e5c35000 	strb	r5, [r3]
    adec:	e5c34001 	strb	r4, [r3, #1]
    adf0:	e5c3e006 	strb	lr, [r3, #6]
    adf4:	e1a00003 	mov	r0, r3
    adf8:	e8bd4070 	pop	{r4, r5, r6, lr}
    adfc:	ea0028fd 	b	151f8 <commVDG>
    ae00:	0000e018 	andeq	lr, r0, r8, lsl r0
    ae04:	0000012c 	andeq	r0, r0, ip, lsr #2

0000ae08 <FillRect>:
    ae08:	e92d40f0 	push	{r4, r5, r6, r7, lr}
    ae0c:	e3a0500b 	mov	r5, #11
    ae10:	e3e0402c 	mvn	r4, #44	; 0x2c
    ae14:	e59fe064 	ldr	lr, [pc, #100]	; ae80 <FillRect+0x78>
    ae18:	e59fc064 	ldr	ip, [pc, #100]	; ae84 <FillRect+0x7c>
    ae1c:	e08fe00e 	add	lr, pc, lr
    ae20:	e79ec00c 	ldr	ip, [lr, ip]
    ae24:	e59d6014 	ldr	r6, [sp, #20]
    ae28:	e0802002 	add	r2, r0, r2
    ae2c:	e0813003 	add	r3, r1, r3
    ae30:	e1a07422 	lsr	r7, r2, #8
    ae34:	e5cc1005 	strb	r1, [ip, #5]
    ae38:	e5cc2007 	strb	r2, [ip, #7]
    ae3c:	e5cc3009 	strb	r3, [ip, #9]
    ae40:	e1a02423 	lsr	r2, r3, #8
    ae44:	e1a03426 	lsr	r3, r6, #8
    ae48:	e1a0e420 	lsr	lr, r0, #8
    ae4c:	e1a01421 	lsr	r1, r1, #8
    ae50:	e5cc0003 	strb	r0, [ip, #3]
    ae54:	e5cc7006 	strb	r7, [ip, #6]
    ae58:	e5cc2008 	strb	r2, [ip, #8]
    ae5c:	e5cce002 	strb	lr, [ip, #2]
    ae60:	e5cc1004 	strb	r1, [ip, #4]
    ae64:	e5cc5000 	strb	r5, [ip]
    ae68:	e5cc4001 	strb	r4, [ip, #1]
    ae6c:	e5cc600b 	strb	r6, [ip, #11]
    ae70:	e5cc300a 	strb	r3, [ip, #10]
    ae74:	e1a0000c 	mov	r0, ip
    ae78:	e8bd40f0 	pop	{r4, r5, r6, r7, lr}
    ae7c:	ea0028dd 	b	151f8 <commVDG>
    ae80:	0000dfb8 			; <UNDEFINED> instruction: 0x0000dfb8
    ae84:	0000012c 	andeq	r0, r0, ip, lsr #2

0000ae88 <DrawLine>:
    ae88:	e92d4070 	push	{r4, r5, r6, lr}
    ae8c:	e3a0500b 	mov	r5, #11
    ae90:	e3e0402b 	mvn	r4, #43	; 0x2b
    ae94:	e59fe05c 	ldr	lr, [pc, #92]	; aef8 <DrawLine+0x70>
    ae98:	e59fc05c 	ldr	ip, [pc, #92]	; aefc <DrawLine+0x74>
    ae9c:	e08fe00e 	add	lr, pc, lr
    aea0:	e79ec00c 	ldr	ip, [lr, ip]
    aea4:	e59de010 	ldr	lr, [sp, #16]
    aea8:	e1a06420 	lsr	r6, r0, #8
    aeac:	e5cc0003 	strb	r0, [ip, #3]
    aeb0:	e5cc1005 	strb	r1, [ip, #5]
    aeb4:	e1a00421 	lsr	r0, r1, #8
    aeb8:	e5cc2007 	strb	r2, [ip, #7]
    aebc:	e1a01422 	lsr	r1, r2, #8
    aec0:	e5cc3009 	strb	r3, [ip, #9]
    aec4:	e1a02423 	lsr	r2, r3, #8
    aec8:	e1a0342e 	lsr	r3, lr, #8
    aecc:	e5cc0004 	strb	r0, [ip, #4]
    aed0:	e5cc6002 	strb	r6, [ip, #2]
    aed4:	e5cc1006 	strb	r1, [ip, #6]
    aed8:	e5cc2008 	strb	r2, [ip, #8]
    aedc:	e5cc5000 	strb	r5, [ip]
    aee0:	e5cc4001 	strb	r4, [ip, #1]
    aee4:	e5cce00b 	strb	lr, [ip, #11]
    aee8:	e5cc300a 	strb	r3, [ip, #10]
    aeec:	e1a0000c 	mov	r0, ip
    aef0:	e8bd4070 	pop	{r4, r5, r6, lr}
    aef4:	ea0028bf 	b	151f8 <commVDG>
    aef8:	0000df38 	andeq	sp, r0, r8, lsr pc
    aefc:	0000012c 	andeq	r0, r0, ip, lsr #2

0000af00 <DrawRect>:
    af00:	e92d40f0 	push	{r4, r5, r6, r7, lr}
    af04:	e3a0500b 	mov	r5, #11
    af08:	e3e0402a 	mvn	r4, #42	; 0x2a
    af0c:	e59fe064 	ldr	lr, [pc, #100]	; af78 <DrawRect+0x78>
    af10:	e59fc064 	ldr	ip, [pc, #100]	; af7c <DrawRect+0x7c>
    af14:	e08fe00e 	add	lr, pc, lr
    af18:	e79ec00c 	ldr	ip, [lr, ip]
    af1c:	e59d6014 	ldr	r6, [sp, #20]
    af20:	e0802002 	add	r2, r0, r2
    af24:	e0813003 	add	r3, r1, r3
    af28:	e1a07422 	lsr	r7, r2, #8
    af2c:	e5cc1005 	strb	r1, [ip, #5]
    af30:	e5cc2007 	strb	r2, [ip, #7]
    af34:	e5cc3009 	strb	r3, [ip, #9]
    af38:	e1a02423 	lsr	r2, r3, #8
    af3c:	e1a03426 	lsr	r3, r6, #8
    af40:	e1a0e420 	lsr	lr, r0, #8
    af44:	e1a01421 	lsr	r1, r1, #8
    af48:	e5cc0003 	strb	r0, [ip, #3]
    af4c:	e5cc7006 	strb	r7, [ip, #6]
    af50:	e5cc2008 	strb	r2, [ip, #8]
    af54:	e5cce002 	strb	lr, [ip, #2]
    af58:	e5cc1004 	strb	r1, [ip, #4]
    af5c:	e5cc5000 	strb	r5, [ip]
    af60:	e5cc4001 	strb	r4, [ip, #1]
    af64:	e5cc600b 	strb	r6, [ip, #11]
    af68:	e5cc300a 	strb	r3, [ip, #10]
    af6c:	e1a0000c 	mov	r0, ip
    af70:	e8bd40f0 	pop	{r4, r5, r6, r7, lr}
    af74:	ea00289f 	b	151f8 <commVDG>
    af78:	0000dec0 	andeq	sp, r0, r0, asr #29
    af7c:	0000012c 	andeq	r0, r0, ip, lsr #2

0000af80 <DrawRoundRect>:
    af80:	e92d4ff0 	push	{r4, r5, r6, r7, r8, r9, sl, fp, lr}
    af84:	e59f31f4 	ldr	r3, [pc, #500]	; b180 <DrawRoundRect+0x200>
    af88:	e59f21f4 	ldr	r2, [pc, #500]	; b184 <DrawRoundRect+0x204>
    af8c:	e08f3003 	add	r3, pc, r3
    af90:	e7933002 	ldr	r3, [r3, r2]
    af94:	e3a05000 	mov	r5, #0
    af98:	e5931004 	ldr	r1, [r3, #4]
    af9c:	e5d36010 	ldrb	r6, [r3, #16]
    afa0:	e5932000 	ldr	r2, [r3]
    afa4:	e5930008 	ldr	r0, [r3, #8]
    afa8:	e593c00c 	ldr	ip, [r3, #12]
    afac:	e5934014 	ldr	r4, [r3, #20]
    afb0:	e1a03001 	mov	r3, r1
    afb4:	e24dd03c 	sub	sp, sp, #60	; 0x3c
    afb8:	e58d0028 	str	r0, [sp, #40]	; 0x28
    afbc:	e58d1024 	str	r1, [sp, #36]	; 0x24
    afc0:	e0820000 	add	r0, r2, r0
    afc4:	e081100c 	add	r1, r1, ip
    afc8:	e1a0e086 	lsl	lr, r6, #1
    afcc:	e58d2020 	str	r2, [sp, #32]
    afd0:	e58d0030 	str	r0, [sp, #48]	; 0x30
    afd4:	e58d1034 	str	r1, [sp, #52]	; 0x34
    afd8:	e0400006 	sub	r0, r0, r6
    afdc:	e0411006 	sub	r1, r1, r6
    afe0:	e0862002 	add	r2, r6, r2
    afe4:	e0863003 	add	r3, r6, r3
    afe8:	e58dc02c 	str	ip, [sp, #44]	; 0x2c
    afec:	e58de01c 	str	lr, [sp, #28]
    aff0:	e58d000c 	str	r0, [sp, #12]
    aff4:	e26e7003 	rsb	r7, lr, #3
    aff8:	e58d1008 	str	r1, [sp, #8]
    affc:	e58d2014 	str	r2, [sp, #20]
    b000:	e58d3018 	str	r3, [sp, #24]
    b004:	e59dc018 	ldr	ip, [sp, #24]
    b008:	e59d3014 	ldr	r3, [sp, #20]
    b00c:	e04c9006 	sub	r9, ip, r6
    b010:	e043a005 	sub	sl, r3, r5
    b014:	e1a01009 	mov	r1, r9
    b018:	e1a0000a 	mov	r0, sl
    b01c:	e1a02004 	mov	r2, r4
    b020:	e04cb005 	sub	fp, ip, r5
    b024:	e0438006 	sub	r8, r3, r6
    b028:	ebffff5d 	bl	ada4 <SetDot>
    b02c:	e59d300c 	ldr	r3, [sp, #12]
    b030:	e1a0100b 	mov	r1, fp
    b034:	e0833005 	add	r3, r3, r5
    b038:	e1a00008 	mov	r0, r8
    b03c:	e1a02004 	mov	r2, r4
    b040:	e58d3010 	str	r3, [sp, #16]
    b044:	ebffff56 	bl	ada4 <SetDot>
    b048:	e59d3010 	ldr	r3, [sp, #16]
    b04c:	e1a01009 	mov	r1, r9
    b050:	e1a09003 	mov	r9, r3
    b054:	e1a00003 	mov	r0, r3
    b058:	e59d300c 	ldr	r3, [sp, #12]
    b05c:	e1a02004 	mov	r2, r4
    b060:	e0833006 	add	r3, r3, r6
    b064:	e58d3010 	str	r3, [sp, #16]
    b068:	ebffff4d 	bl	ada4 <SetDot>
    b06c:	e59d3010 	ldr	r3, [sp, #16]
    b070:	e1a0100b 	mov	r1, fp
    b074:	e1a00003 	mov	r0, r3
    b078:	e59d3008 	ldr	r3, [sp, #8]
    b07c:	e1a02004 	mov	r2, r4
    b080:	e083b006 	add	fp, r3, r6
    b084:	ebffff46 	bl	ada4 <SetDot>
    b088:	e59d3008 	ldr	r3, [sp, #8]
    b08c:	e1a00009 	mov	r0, r9
    b090:	e1a0100b 	mov	r1, fp
    b094:	e1a02004 	mov	r2, r4
    b098:	e0839005 	add	r9, r3, r5
    b09c:	ebffff40 	bl	ada4 <SetDot>
    b0a0:	e59d3010 	ldr	r3, [sp, #16]
    b0a4:	e1a01009 	mov	r1, r9
    b0a8:	e1a00003 	mov	r0, r3
    b0ac:	e1a02004 	mov	r2, r4
    b0b0:	ebffff3b 	bl	ada4 <SetDot>
    b0b4:	e1a02004 	mov	r2, r4
    b0b8:	e1a0100b 	mov	r1, fp
    b0bc:	e1a0000a 	mov	r0, sl
    b0c0:	ebffff37 	bl	ada4 <SetDot>
    b0c4:	e1a02004 	mov	r2, r4
    b0c8:	e1a01009 	mov	r1, r9
    b0cc:	e1a00008 	mov	r0, r8
    b0d0:	ebffff33 	bl	ada4 <SetDot>
    b0d4:	e3570000 	cmp	r7, #0
    b0d8:	a0453006 	subge	r3, r5, r6
    b0dc:	b0877105 	addlt	r7, r7, r5, lsl #2
    b0e0:	a287700a 	addge	r7, r7, #10
    b0e4:	a2466001 	subge	r6, r6, #1
    b0e8:	e2855001 	add	r5, r5, #1
    b0ec:	b2877006 	addlt	r7, r7, #6
    b0f0:	a0877103 	addge	r7, r7, r3, lsl #2
    b0f4:	e1560005 	cmp	r6, r5
    b0f8:	2affffc1 	bcs	b004 <DrawRoundRect+0x84>
    b0fc:	e59dc01c 	ldr	ip, [sp, #28]
    b100:	e59d3028 	ldr	r3, [sp, #40]	; 0x28
    b104:	e59d7014 	ldr	r7, [sp, #20]
    b108:	e043500c 	sub	r5, r3, ip
    b10c:	e59de02c 	ldr	lr, [sp, #44]	; 0x2c
    b110:	e59d1024 	ldr	r1, [sp, #36]	; 0x24
    b114:	e1a02005 	mov	r2, r5
    b118:	e1a00007 	mov	r0, r7
    b11c:	e58d4000 	str	r4, [sp]
    b120:	e3a03000 	mov	r3, #0
    b124:	e04e600c 	sub	r6, lr, ip
    b128:	ebffff36 	bl	ae08 <FillRect>
    b12c:	e1a02005 	mov	r2, r5
    b130:	e59d1034 	ldr	r1, [sp, #52]	; 0x34
    b134:	e1a00007 	mov	r0, r7
    b138:	e58d4000 	str	r4, [sp]
    b13c:	e3a03000 	mov	r3, #0
    b140:	ebffff30 	bl	ae08 <FillRect>
    b144:	e59d5018 	ldr	r5, [sp, #24]
    b148:	e59d0020 	ldr	r0, [sp, #32]
    b14c:	e1a03006 	mov	r3, r6
    b150:	e1a01005 	mov	r1, r5
    b154:	e58d4000 	str	r4, [sp]
    b158:	e3a02000 	mov	r2, #0
    b15c:	ebffff29 	bl	ae08 <FillRect>
    b160:	e1a03006 	mov	r3, r6
    b164:	e58d4000 	str	r4, [sp]
    b168:	e1a01005 	mov	r1, r5
    b16c:	e59d0030 	ldr	r0, [sp, #48]	; 0x30
    b170:	e3a02000 	mov	r2, #0
    b174:	ebffff23 	bl	ae08 <FillRect>
    b178:	e28dd03c 	add	sp, sp, #60	; 0x3c
    b17c:	e8bd8ff0 	pop	{r4, r5, r6, r7, r8, r9, sl, fp, pc}
    b180:	0000de48 	andeq	sp, r0, r8, asr #28
    b184:	00000090 	muleq	r0, r0, r0

0000b188 <DrawCircle>:
    b188:	e92d40f0 	push	{r4, r5, r6, r7, lr}
    b18c:	e3a0600a 	mov	r6, #10
    b190:	e3e05029 	mvn	r5, #41	; 0x29
    b194:	e3a04000 	mov	r4, #0
    b198:	e59fe050 	ldr	lr, [pc, #80]	; b1f0 <DrawCircle+0x68>
    b19c:	e59fc050 	ldr	ip, [pc, #80]	; b1f4 <DrawCircle+0x6c>
    b1a0:	e08fe00e 	add	lr, pc, lr
    b1a4:	e79ec00c 	ldr	ip, [lr, ip]
    b1a8:	e59de014 	ldr	lr, [sp, #20]
    b1ac:	e1a07420 	lsr	r7, r0, #8
    b1b0:	e5cc1005 	strb	r1, [ip, #5]
    b1b4:	e5cc2006 	strb	r2, [ip, #6]
    b1b8:	e1a01421 	lsr	r1, r1, #8
    b1bc:	e1a0242e 	lsr	r2, lr, #8
    b1c0:	e5cc0003 	strb	r0, [ip, #3]
    b1c4:	e5cc7002 	strb	r7, [ip, #2]
    b1c8:	e5cc3007 	strb	r3, [ip, #7]
    b1cc:	e5cc1004 	strb	r1, [ip, #4]
    b1d0:	e5cc6000 	strb	r6, [ip]
    b1d4:	e5cc5001 	strb	r5, [ip, #1]
    b1d8:	e5cc4008 	strb	r4, [ip, #8]
    b1dc:	e5cce00a 	strb	lr, [ip, #10]
    b1e0:	e5cc2009 	strb	r2, [ip, #9]
    b1e4:	e1a0000c 	mov	r0, ip
    b1e8:	e8bd40f0 	pop	{r4, r5, r6, r7, lr}
    b1ec:	ea002801 	b	151f8 <commVDG>
    b1f0:	0000dc34 	andeq	sp, r0, r4, lsr ip
    b1f4:	0000012c 	andeq	r0, r0, ip, lsr #2

0000b1f8 <InvertRect>:
    b1f8:	e92d40f0 	push	{r4, r5, r6, r7, lr}
    b1fc:	e3a05009 	mov	r5, #9
    b200:	e3e04013 	mvn	r4, #19
    b204:	e59fe04c 	ldr	lr, [pc, #76]	; b258 <InvertRect+0x60>
    b208:	e59fc04c 	ldr	ip, [pc, #76]	; b25c <InvertRect+0x64>
    b20c:	e08fe00e 	add	lr, pc, lr
    b210:	e79ec00c 	ldr	ip, [lr, ip]
    b214:	e1a07420 	lsr	r7, r0, #8
    b218:	e1a06421 	lsr	r6, r1, #8
    b21c:	e5cc1005 	strb	r1, [ip, #5]
    b220:	e1a01422 	lsr	r1, r2, #8
    b224:	e1a0e423 	lsr	lr, r3, #8
    b228:	e5cc0003 	strb	r0, [ip, #3]
    b22c:	e5cc7002 	strb	r7, [ip, #2]
    b230:	e5cc3007 	strb	r3, [ip, #7]
    b234:	e5cc2009 	strb	r2, [ip, #9]
    b238:	e5cc6004 	strb	r6, [ip, #4]
    b23c:	e5cce006 	strb	lr, [ip, #6]
    b240:	e5cc1008 	strb	r1, [ip, #8]
    b244:	e5cc5000 	strb	r5, [ip]
    b248:	e5cc4001 	strb	r4, [ip, #1]
    b24c:	e1a0000c 	mov	r0, ip
    b250:	e8bd40f0 	pop	{r4, r5, r6, r7, lr}
    b254:	ea0027e7 	b	151f8 <commVDG>
    b258:	0000dbc8 	andeq	sp, r0, r8, asr #23
    b25c:	0000012c 	andeq	r0, r0, ip, lsr #2

0000b260 <SelRect>:
    b260:	e3a0cb3e 	mov	ip, #63488	; 0xf800
    b264:	e52de004 	push	{lr}		; (str lr, [sp, #-4]!)
    b268:	e24dd00c 	sub	sp, sp, #12
    b26c:	e2833002 	add	r3, r3, #2
    b270:	e2822002 	add	r2, r2, #2
    b274:	e2411001 	sub	r1, r1, #1
    b278:	e2400001 	sub	r0, r0, #1
    b27c:	e58dc000 	str	ip, [sp]
    b280:	ebffff1e 	bl	af00 <DrawRect>
    b284:	e28dd00c 	add	sp, sp, #12
    b288:	e49df004 	pop	{pc}		; (ldr pc, [sp], #4)

0000b28c <PutImage>:
    b28c:	e12fff1e 	bx	lr

0000b290 <PutIcone>:
    b290:	e92d4ff0 	push	{r4, r5, r6, r7, r8, r9, sl, fp, lr}
    b294:	e3e0c021 	mvn	ip, #33	; 0x21
    b298:	e3a0b000 	mov	fp, #0
    b29c:	e3e0e07d 	mvn	lr, #125	; 0x7d
    b2a0:	e1a0a001 	mov	sl, r1
    b2a4:	e59f1108 	ldr	r1, [pc, #264]	; b3b4 <PutIcone+0x124>
    b2a8:	e24dd00c 	sub	sp, sp, #12
    b2ac:	e59f4104 	ldr	r4, [pc, #260]	; b3b8 <PutIcone+0x128>
    b2b0:	e58d2004 	str	r2, [sp, #4]
    b2b4:	e08f1001 	add	r1, pc, r1
    b2b8:	e7915004 	ldr	r5, [r1, r4]
    b2bc:	e2807d12 	add	r7, r0, #1152	; 0x480
    b2c0:	e1a0600b 	mov	r6, fp
    b2c4:	e1a0200b 	mov	r2, fp
    b2c8:	e1a0900e 	mov	r9, lr
    b2cc:	e1a0800c 	mov	r8, ip
    b2d0:	e3a03003 	mov	r3, #3
    b2d4:	e2877002 	add	r7, r7, #2
    b2d8:	e2804002 	add	r4, r0, #2
    b2dc:	e5c5b002 	strb	fp, [r5, #2]
    b2e0:	e5c5e000 	strb	lr, [r5]
    b2e4:	e5c5c001 	strb	ip, [r5, #1]
    b2e8:	ea000002 	b	b2f8 <PutIcone+0x68>
    b2ec:	e2844002 	add	r4, r4, #2
    b2f0:	e1540007 	cmp	r4, r7
    b2f4:	0a000017 	beq	b358 <PutIcone+0xc8>
    b2f8:	e2822001 	add	r2, r2, #1
    b2fc:	e3560007 	cmp	r6, #7
    b300:	93520040 	cmpls	r2, #64	; 0x40
    b304:	e5540002 	ldrb	r0, [r4, #-2]
    b308:	e2831001 	add	r1, r3, #1
    b30c:	e7c50003 	strb	r0, [r5, r3]
    b310:	e5540001 	ldrb	r0, [r4, #-1]
    b314:	e6ef1071 	uxtb	r1, r1
    b318:	e2833002 	add	r3, r3, #2
    b31c:	e7c50001 	strb	r0, [r5, r1]
    b320:	16ef3073 	uxtbne	r3, r3
    b324:	1afffff0 	bne	b2ec <PutIcone+0x5c>
    b328:	e2866001 	add	r6, r6, #1
    b32c:	e1a00005 	mov	r0, r5
    b330:	e2844002 	add	r4, r4, #2
    b334:	eb0027af 	bl	151f8 <commVDG>
    b338:	e6ef6076 	uxtb	r6, r6
    b33c:	e1540007 	cmp	r4, r7
    b340:	e3a03003 	mov	r3, #3
    b344:	e3a02000 	mov	r2, #0
    b348:	e5c56002 	strb	r6, [r5, #2]
    b34c:	e5c59000 	strb	r9, [r5]
    b350:	e5c58001 	strb	r8, [r5, #1]
    b354:	1affffe7 	bne	b2f8 <PutIcone+0x68>
    b358:	e1a00005 	mov	r0, r5
    b35c:	eb0027a5 	bl	151f8 <commVDG>
    b360:	e3a01000 	mov	r1, #0
    b364:	e3a02018 	mov	r2, #24
    b368:	e3a0e009 	mov	lr, #9
    b36c:	e3e0c020 	mvn	ip, #32
    b370:	e1a00005 	mov	r0, r5
    b374:	e59d3004 	ldr	r3, [sp, #4]
    b378:	e5c5a003 	strb	sl, [r5, #3]
    b37c:	e5c53005 	strb	r3, [r5, #5]
    b380:	e1a0a42a 	lsr	sl, sl, #8
    b384:	e1a03423 	lsr	r3, r3, #8
    b388:	e5c5a002 	strb	sl, [r5, #2]
    b38c:	e5c53004 	strb	r3, [r5, #4]
    b390:	e5c5e000 	strb	lr, [r5]
    b394:	e5c5c001 	strb	ip, [r5, #1]
    b398:	e5c51006 	strb	r1, [r5, #6]
    b39c:	e5c51008 	strb	r1, [r5, #8]
    b3a0:	e5c52007 	strb	r2, [r5, #7]
    b3a4:	e5c52009 	strb	r2, [r5, #9]
    b3a8:	e28dd00c 	add	sp, sp, #12
    b3ac:	e8bd4ff0 	pop	{r4, r5, r6, r7, r8, r9, sl, fp, lr}
    b3b0:	ea002790 	b	151f8 <commVDG>
    b3b4:	0000db20 	andeq	sp, r0, r0, lsr #22
    b3b8:	0000012c 	andeq	r0, r0, ip, lsr #2

0000b3bc <MostraIcone>:
    b3bc:	e92d41f0 	push	{r4, r5, r6, r7, r8, lr}
    b3c0:	e59f60a8 	ldr	r6, [pc, #168]	; b470 <MostraIcone+0xb4>
    b3c4:	e59f30a8 	ldr	r3, [pc, #168]	; b474 <MostraIcone+0xb8>
    b3c8:	e08f6006 	add	r6, pc, r6
    b3cc:	e7967003 	ldr	r7, [r6, r3]
    b3d0:	e3520031 	cmp	r2, #49	; 0x31
    b3d4:	e1a05001 	mov	r5, r1
    b3d8:	e24dd010 	sub	sp, sp, #16
    b3dc:	e1a04000 	mov	r4, r0
    b3e0:	e5d71000 	ldrb	r1, [r7]
    b3e4:	9a00000a 	bls	b414 <MostraIcone+0x58>
    b3e8:	e2422032 	sub	r2, r2, #50	; 0x32
    b3ec:	e6ef2072 	uxtb	r2, r2
    b3f0:	e0822182 	add	r2, r2, r2, lsl #3
    b3f4:	e1a00382 	lsl	r0, r2, #7
    b3f8:	e2800e41 	add	r0, r0, #1040	; 0x410
    b3fc:	e0810000 	add	r0, r1, r0
    b400:	e1a02005 	mov	r2, r5
    b404:	e1a01004 	mov	r1, r4
    b408:	ebffffa0 	bl	b290 <PutIcone>
    b40c:	e28dd010 	add	sp, sp, #16
    b410:	e8bd81f0 	pop	{r4, r5, r6, r7, r8, pc}
    b414:	e0822102 	add	r2, r2, r2, lsl #2
    b418:	e2811d06 	add	r1, r1, #384	; 0x180
    b41c:	e0811082 	add	r1, r1, r2, lsl #1
    b420:	e59f2050 	ldr	r2, [pc, #80]	; b478 <MostraIcone+0xbc>
    b424:	e28d8004 	add	r8, sp, #4
    b428:	e08f2002 	add	r2, pc, r2
    b42c:	e1a00008 	mov	r0, r8
    b430:	eb000ff2 	bl	f400 <_strcat>
    b434:	e59f3040 	ldr	r3, [pc, #64]	; b47c <MostraIcone+0xc0>
    b438:	e1a00008 	mov	r0, r8
    b43c:	e7961003 	ldr	r1, [r6, r3]
    b440:	ebfffb7d 	bl	a23c <loadFile>
    b444:	e59f3034 	ldr	r3, [pc, #52]	; b480 <MostraIcone+0xc4>
    b448:	e7963003 	ldr	r3, [r6, r3]
    b44c:	e5933000 	ldr	r3, [r3]
    b450:	e3530000 	cmp	r3, #0
    b454:	15d71000 	ldrbne	r1, [r7]
    b458:	159f0024 	ldrne	r0, [pc, #36]	; b484 <MostraIcone+0xc8>
    b45c:	1affffe6 	bne	b3fc <MostraIcone+0x40>
    b460:	e59f3020 	ldr	r3, [pc, #32]	; b488 <MostraIcone+0xcc>
    b464:	e7963003 	ldr	r3, [r6, r3]
    b468:	e5930000 	ldr	r0, [r3]
    b46c:	eaffffe3 	b	b400 <MostraIcone+0x44>
    b470:	0000da0c 	andeq	sp, r0, ip, lsl #20
    b474:	00000008 	andeq	r0, r0, r8
    b478:	0000b068 	andeq	fp, r0, r8, rrx
    b47c:	0000005c 	andeq	r0, r0, ip, asr r0
    b480:	00000010 	andeq	r0, r0, r0, lsl r0
    b484:	00002c90 	muleq	r0, r0, ip
    b488:	000000d8 	ldrdeq	r0, [r0], -r8

0000b48c <desenhaMenu>:
    b48c:	e92d4070 	push	{r4, r5, r6, lr}
    b490:	e59f6068 	ldr	r6, [pc, #104]	; b500 <desenhaMenu+0x74>
    b494:	e24dd008 	sub	sp, sp, #8
    b498:	e3a05030 	mov	r5, #48	; 0x30
    b49c:	e3a04032 	mov	r4, #50	; 0x32
    b4a0:	e08f6006 	add	r6, pc, r6
    b4a4:	e1a02004 	mov	r2, r4
    b4a8:	e1a00005 	mov	r0, r5
    b4ac:	e3a01004 	mov	r1, #4
    b4b0:	e2855020 	add	r5, r5, #32
    b4b4:	ebffffc0 	bl	b3bc <MostraIcone>
    b4b8:	e2844001 	add	r4, r4, #1
    b4bc:	e3550e11 	cmp	r5, #272	; 0x110
    b4c0:	e6ef4074 	uxtb	r4, r4
    b4c4:	1afffff6 	bne	b4a4 <desenhaMenu+0x18>
    b4c8:	e59f3034 	ldr	r3, [pc, #52]	; b504 <desenhaMenu+0x78>
    b4cc:	e59f2034 	ldr	r2, [pc, #52]	; b508 <desenhaMenu+0x7c>
    b4d0:	e7963003 	ldr	r3, [r6, r3]
    b4d4:	e7962002 	ldr	r2, [r6, r2]
    b4d8:	e5931000 	ldr	r1, [r3]
    b4dc:	e59f3028 	ldr	r3, [pc, #40]	; b50c <desenhaMenu+0x80>
    b4e0:	e5922000 	ldr	r2, [r2]
    b4e4:	e2411023 	sub	r1, r1, #35	; 0x23
    b4e8:	e58d3000 	str	r3, [sp]
    b4ec:	e3a00000 	mov	r0, #0
    b4f0:	e3a03023 	mov	r3, #35	; 0x23
    b4f4:	ebfffe43 	bl	ae08 <FillRect>
    b4f8:	e28dd008 	add	sp, sp, #8
    b4fc:	e8bd8070 	pop	{r4, r5, r6, pc}
    b500:	0000d934 	andeq	sp, r0, r4, lsr r9
    b504:	000000f8 	strdeq	r0, [r0], -r8
    b508:	0000016c 	andeq	r0, r0, ip, ror #2
    b50c:	00007bef 	andeq	r7, r0, pc, ror #23

0000b510 <desenhaIconesUsuario>:
    b510:	e3a00000 	mov	r0, #0
    b514:	e92d47f0 	push	{r4, r5, r6, r7, r8, r9, sl, lr}
    b518:	e59f30e0 	ldr	r3, [pc, #224]	; b600 <desenhaIconesUsuario+0xf0>
    b51c:	e59f10e0 	ldr	r1, [pc, #224]	; b604 <desenhaIconesUsuario+0xf4>
    b520:	e08f3003 	add	r3, pc, r3
    b524:	e7939001 	ldr	r9, [r3, r1]
    b528:	e59f20d8 	ldr	r2, [pc, #216]	; b608 <desenhaIconesUsuario+0xf8>
    b52c:	e5c90000 	strb	r0, [r9]
    b530:	e7933002 	ldr	r3, [r3, r2]
    b534:	e3a08028 	mov	r8, #40	; 0x28
    b538:	e5d37000 	ldrb	r7, [r3]
    b53c:	e1a04000 	mov	r4, r0
    b540:	e2876020 	add	r6, r7, #32
    b544:	e2865020 	add	r5, r6, #32
    b548:	e2877d06 	add	r7, r7, #384	; 0x180
    b54c:	ea000009 	b	b578 <desenhaIconesUsuario+0x68>
    b550:	e3a0301c 	mov	r3, #28
    b554:	e3a01028 	mov	r1, #40	; 0x28
    b558:	e1008083 	smlabb	r0, r3, r0, r8
    b55c:	ebffff96 	bl	b3bc <MostraIcone>
    b560:	e5d93000 	ldrb	r3, [r9]
    b564:	e2833001 	add	r3, r3, #1
    b568:	e5c93000 	strb	r3, [r9]
    b56c:	e2844001 	add	r4, r4, #1
    b570:	e3540020 	cmp	r4, #32
    b574:	08bd87f0 	popeq	{r4, r5, r6, r7, r8, r9, sl, pc}
    b578:	e0843104 	add	r3, r4, r4, lsl #2
    b57c:	e1a03083 	lsl	r3, r3, #1
    b580:	e7f72003 	ldrb	r2, [r7, r3]!
    b584:	e0866004 	add	r6, r6, r4
    b588:	e3520000 	cmp	r2, #0
    b58c:	e0855003 	add	r5, r5, r3
    b590:	e6ef2074 	uxtb	r2, r4
    b594:	0afffff4 	beq	b56c <desenhaIconesUsuario+0x5c>
    b598:	e5d53000 	ldrb	r3, [r5]
    b59c:	e3530000 	cmp	r3, #0
    b5a0:	0afffff1 	beq	b56c <desenhaIconesUsuario+0x5c>
    b5a4:	e5d60000 	ldrb	r0, [r6]
    b5a8:	e3500007 	cmp	r0, #7
    b5ac:	9affffe7 	bls	b550 <desenhaIconesUsuario+0x40>
    b5b0:	e350000f 	cmp	r0, #15
    b5b4:	8a000005 	bhi	b5d0 <desenhaIconesUsuario+0xc0>
    b5b8:	e2400008 	sub	r0, r0, #8
    b5bc:	e0600180 	rsb	r0, r0, r0, lsl #3
    b5c0:	e1a00100 	lsl	r0, r0, #2
    b5c4:	e2800028 	add	r0, r0, #40	; 0x28
    b5c8:	e3a01048 	mov	r1, #72	; 0x48
    b5cc:	eaffffe2 	b	b55c <desenhaIconesUsuario+0x4c>
    b5d0:	e3500017 	cmp	r0, #23
    b5d4:	92400008 	subls	r0, r0, #8
    b5d8:	82400010 	subhi	r0, r0, #16
    b5dc:	90600180 	rsbls	r0, r0, r0, lsl #3
    b5e0:	80600180 	rsbhi	r0, r0, r0, lsl #3
    b5e4:	91a00100 	lslls	r0, r0, #2
    b5e8:	81a00100 	lslhi	r0, r0, #2
    b5ec:	92800028 	addls	r0, r0, #40	; 0x28
    b5f0:	93a01068 	movls	r1, #104	; 0x68
    b5f4:	83a01088 	movhi	r1, #136	; 0x88
    b5f8:	82800028 	addhi	r0, r0, #40	; 0x28
    b5fc:	eaffffd6 	b	b55c <desenhaIconesUsuario+0x4c>
    b600:	0000d8b4 			; <UNDEFINED> instruction: 0x0000d8b4
    b604:	000000c4 	andeq	r0, r0, r4, asr #1
    b608:	00000008 	andeq	r0, r0, r8

0000b60c <VerifyTouchLcd>:
    b60c:	e3a02000 	mov	r2, #0
    b610:	e92d47f0 	push	{r4, r5, r6, r7, r8, r9, sl, lr}
    b614:	e3a07001 	mov	r7, #1
    b618:	e3e06023 	mvn	r6, #35	; 0x23
    b61c:	e59f3050 	ldr	r3, [pc, #80]	; b674 <VerifyTouchLcd+0x68>
    b620:	e59f1050 	ldr	r1, [pc, #80]	; b678 <VerifyTouchLcd+0x6c>
    b624:	e08f3003 	add	r3, pc, r3
    b628:	e1a09000 	mov	r9, r0
    b62c:	e7930001 	ldr	r0, [r3, r1]
    b630:	e59f1044 	ldr	r1, [pc, #68]	; b67c <VerifyTouchLcd+0x70>
    b634:	e5802000 	str	r2, [r0]
    b638:	e7930001 	ldr	r0, [r3, r1]
    b63c:	e1a08002 	mov	r8, r2
    b640:	e5802000 	str	r2, [r0]
    b644:	e59f1034 	ldr	r1, [pc, #52]	; b680 <VerifyTouchLcd+0x74>
    b648:	e59f2034 	ldr	r2, [pc, #52]	; b684 <VerifyTouchLcd+0x78>
    b64c:	e7934001 	ldr	r4, [r3, r1]
    b650:	e7935002 	ldr	r5, [r3, r2]
    b654:	e1a00004 	mov	r0, r4
    b658:	e5c47000 	strb	r7, [r4]
    b65c:	e5c46001 	strb	r6, [r4, #1]
    b660:	eb0026e4 	bl	151f8 <commVDG>
    b664:	e3590000 	cmp	r9, #0
    b668:	e5c58000 	strb	r8, [r5]
    b66c:	1afffff8 	bne	b654 <VerifyTouchLcd+0x48>
    b670:	e8bd87f0 	pop	{r4, r5, r6, r7, r8, r9, sl, pc}
    b674:	0000d7b0 			; <UNDEFINED> instruction: 0x0000d7b0
    b678:	000001c4 	andeq	r0, r0, r4, asr #3
    b67c:	00000078 	andeq	r0, r0, r8, ror r0
    b680:	0000012c 	andeq	r0, r0, ip, lsr #2
    b684:	000000b8 	strheq	r0, [r0], -r8

0000b688 <new_icon>:
    b688:	e12fff1e 	bx	lr

0000b68c <del_icon>:
    b68c:	e12fff1e 	bx	lr

0000b690 <mgi_setup>:
    b690:	e12fff1e 	bx	lr

0000b694 <drawButtons>:
    b694:	e92d43f0 	push	{r4, r5, r6, r7, r8, r9, lr}
    b698:	e3a0202a 	mov	r2, #42	; 0x2a
    b69c:	e3a0300a 	mov	r3, #10
    b6a0:	e3a0e001 	mov	lr, #1
    b6a4:	e3a08000 	mov	r8, #0
    b6a8:	e59f4218 	ldr	r4, [pc, #536]	; b8c8 <drawButtons+0x234>
    b6ac:	e59fc218 	ldr	ip, [pc, #536]	; b8cc <drawButtons+0x238>
    b6b0:	e08f4004 	add	r4, pc, r4
    b6b4:	e794c00c 	ldr	ip, [r4, ip]
    b6b8:	e59f7210 	ldr	r7, [pc, #528]	; b8d0 <drawButtons+0x23c>
    b6bc:	e24dd00c 	sub	sp, sp, #12
    b6c0:	e58d7000 	str	r7, [sp]
    b6c4:	e58c2008 	str	r2, [ip, #8]
    b6c8:	e58c300c 	str	r3, [ip, #12]
    b6cc:	e58ce010 	str	lr, [ip, #16]
    b6d0:	e1cc00f0 	strd	r0, [ip]
    b6d4:	e58c8014 	str	r8, [ip, #20]
    b6d8:	e1a05000 	mov	r5, r0
    b6dc:	e1a06001 	mov	r6, r1
    b6e0:	ebfffdc8 	bl	ae08 <FillRect>
    b6e4:	ebfffe25 	bl	af80 <DrawRoundRect>
    b6e8:	e59f31e4 	ldr	r3, [pc, #484]	; b8d4 <drawButtons+0x240>
    b6ec:	e7949003 	ldr	r9, [r4, r3]
    b6f0:	e5d93000 	ldrb	r3, [r9]
    b6f4:	e2132001 	ands	r2, r3, #1
    b6f8:	1a000028 	bne	b7a0 <drawButtons+0x10c>
    b6fc:	e2131020 	ands	r1, r3, #32
    b700:	1a000017 	bne	b764 <drawButtons+0xd0>
    b704:	e2132040 	ands	r2, r3, #64	; 0x40
    b708:	1a000042 	bne	b818 <drawButtons+0x184>
    b70c:	e2131002 	ands	r1, r3, #2
    b710:	1a00004f 	bne	b854 <drawButtons+0x1c0>
    b714:	e2132004 	ands	r2, r3, #4
    b718:	1a000030 	bne	b7e0 <drawButtons+0x14c>
    b71c:	e2131008 	ands	r1, r3, #8
    b720:	1a00005a 	bne	b890 <drawButtons+0x1fc>
    b724:	e3130010 	tst	r3, #16
    b728:	0a00001a 	beq	b798 <drawButtons+0x104>
    b72c:	e59f31a4 	ldr	r3, [pc, #420]	; b8d8 <drawButtons+0x244>
    b730:	e88d0082 	stm	sp, {r1, r7}
    b734:	e08f3003 	add	r3, pc, r3
    b738:	e3a02008 	mov	r2, #8
    b73c:	e2861002 	add	r1, r6, #2
    b740:	e2850004 	add	r0, r5, #4
    b744:	ebfffcf3 	bl	ab18 <writesxy>
    b748:	e5d92000 	ldrb	r2, [r9]
    b74c:	e59f3188 	ldr	r3, [pc, #392]	; b8dc <drawButtons+0x248>
    b750:	e3c22010 	bic	r2, r2, #16
    b754:	e5c92000 	strb	r2, [r9]
    b758:	e7943003 	ldr	r3, [r4, r3]
    b75c:	e5c35005 	strb	r5, [r3, #5]
    b760:	ea00000c 	b	b798 <drawButtons+0x104>
    b764:	e59f3174 	ldr	r3, [pc, #372]	; b8e0 <drawButtons+0x24c>
    b768:	e88d0084 	stm	sp, {r2, r7}
    b76c:	e08f3003 	add	r3, pc, r3
    b770:	e3a02008 	mov	r2, #8
    b774:	e2861002 	add	r1, r6, #2
    b778:	e2850001 	add	r0, r5, #1
    b77c:	ebfffce5 	bl	ab18 <writesxy>
    b780:	e5d92000 	ldrb	r2, [r9]
    b784:	e59f3150 	ldr	r3, [pc, #336]	; b8dc <drawButtons+0x248>
    b788:	e3c22020 	bic	r2, r2, #32
    b78c:	e5c92000 	strb	r2, [r9]
    b790:	e7943003 	ldr	r3, [r4, r3]
    b794:	e5c35006 	strb	r5, [r3, #6]
    b798:	e28dd00c 	add	sp, sp, #12
    b79c:	e8bd83f0 	pop	{r4, r5, r6, r7, r8, r9, pc}
    b7a0:	e59f313c 	ldr	r3, [pc, #316]	; b8e4 <drawButtons+0x250>
    b7a4:	e58d7004 	str	r7, [sp, #4]
    b7a8:	e58d8000 	str	r8, [sp]
    b7ac:	e2861002 	add	r1, r6, #2
    b7b0:	e08f3003 	add	r3, pc, r3
    b7b4:	e3a02008 	mov	r2, #8
    b7b8:	e285000a 	add	r0, r5, #10
    b7bc:	ebfffcd5 	bl	ab18 <writesxy>
    b7c0:	e5d92000 	ldrb	r2, [r9]
    b7c4:	e59f3110 	ldr	r3, [pc, #272]	; b8dc <drawButtons+0x248>
    b7c8:	e3c22001 	bic	r2, r2, #1
    b7cc:	e5c92000 	strb	r2, [r9]
    b7d0:	e7943003 	ldr	r3, [r4, r3]
    b7d4:	e5c35001 	strb	r5, [r3, #1]
    b7d8:	e28dd00c 	add	sp, sp, #12
    b7dc:	e8bd83f0 	pop	{r4, r5, r6, r7, r8, r9, pc}
    b7e0:	e59f3100 	ldr	r3, [pc, #256]	; b8e8 <drawButtons+0x254>
    b7e4:	e88d0082 	stm	sp, {r1, r7}
    b7e8:	e08f3003 	add	r3, pc, r3
    b7ec:	e3a02008 	mov	r2, #8
    b7f0:	e2861002 	add	r1, r6, #2
    b7f4:	e2850007 	add	r0, r5, #7
    b7f8:	ebfffcc6 	bl	ab18 <writesxy>
    b7fc:	e5d92000 	ldrb	r2, [r9]
    b800:	e59f30d4 	ldr	r3, [pc, #212]	; b8dc <drawButtons+0x248>
    b804:	e3c22004 	bic	r2, r2, #4
    b808:	e5c92000 	strb	r2, [r9]
    b80c:	e7943003 	ldr	r3, [r4, r3]
    b810:	e5c35003 	strb	r5, [r3, #3]
    b814:	eaffffdf 	b	b798 <drawButtons+0x104>
    b818:	e59f30cc 	ldr	r3, [pc, #204]	; b8ec <drawButtons+0x258>
    b81c:	e88d0082 	stm	sp, {r1, r7}
    b820:	e08f3003 	add	r3, pc, r3
    b824:	e2861002 	add	r1, r6, #2
    b828:	e3a02008 	mov	r2, #8
    b82c:	e2850001 	add	r0, r5, #1
    b830:	ebfffcb8 	bl	ab18 <writesxy>
    b834:	e5d92000 	ldrb	r2, [r9]
    b838:	e59f309c 	ldr	r3, [pc, #156]	; b8dc <drawButtons+0x248>
    b83c:	e3c22040 	bic	r2, r2, #64	; 0x40
    b840:	e5c92000 	strb	r2, [r9]
    b844:	e7943003 	ldr	r3, [r4, r3]
    b848:	e5c35007 	strb	r5, [r3, #7]
    b84c:	e28dd00c 	add	sp, sp, #12
    b850:	e8bd83f0 	pop	{r4, r5, r6, r7, r8, r9, pc}
    b854:	e59f3094 	ldr	r3, [pc, #148]	; b8f0 <drawButtons+0x25c>
    b858:	e88d0084 	stm	sp, {r2, r7}
    b85c:	e2861002 	add	r1, r6, #2
    b860:	e08f3003 	add	r3, pc, r3
    b864:	e3a02008 	mov	r2, #8
    b868:	e2850004 	add	r0, r5, #4
    b86c:	ebfffca9 	bl	ab18 <writesxy>
    b870:	e5d92000 	ldrb	r2, [r9]
    b874:	e59f3060 	ldr	r3, [pc, #96]	; b8dc <drawButtons+0x248>
    b878:	e3c22002 	bic	r2, r2, #2
    b87c:	e5c92000 	strb	r2, [r9]
    b880:	e7943003 	ldr	r3, [r4, r3]
    b884:	e5c35002 	strb	r5, [r3, #2]
    b888:	e28dd00c 	add	sp, sp, #12
    b88c:	e8bd83f0 	pop	{r4, r5, r6, r7, r8, r9, pc}
    b890:	e59f305c 	ldr	r3, [pc, #92]	; b8f4 <drawButtons+0x260>
    b894:	e88d0084 	stm	sp, {r2, r7}
    b898:	e08f3003 	add	r3, pc, r3
    b89c:	e3a02008 	mov	r2, #8
    b8a0:	e2861002 	add	r1, r6, #2
    b8a4:	e285000a 	add	r0, r5, #10
    b8a8:	ebfffc9a 	bl	ab18 <writesxy>
    b8ac:	e5d92000 	ldrb	r2, [r9]
    b8b0:	e59f3024 	ldr	r3, [pc, #36]	; b8dc <drawButtons+0x248>
    b8b4:	e3c22008 	bic	r2, r2, #8
    b8b8:	e5c92000 	strb	r2, [r9]
    b8bc:	e7943003 	ldr	r3, [r4, r3]
    b8c0:	e5c35004 	strb	r5, [r3, #4]
    b8c4:	eaffffb3 	b	b798 <drawButtons+0x104>
    b8c8:	0000d724 	andeq	sp, r0, r4, lsr #14
    b8cc:	00000090 	muleq	r0, r0, r0
    b8d0:	0000ffff 	strdeq	pc, [r0], -pc	; <UNPREDICTABLE>
    b8d4:	000000a4 	andeq	r0, r0, r4, lsr #1
    b8d8:	0000ad88 	andeq	sl, r0, r8, lsl #27
    b8dc:	000001d0 	ldrdeq	r0, [r0], -r0	; <UNPREDICTABLE>
    b8e0:	0000ad30 	andeq	sl, r0, r0, lsr sp
    b8e4:	0000ace8 	andeq	sl, r0, r8, ror #25
    b8e8:	0000accc 	andeq	sl, r0, ip, asr #25
    b8ec:	0000ac84 	andeq	sl, r0, r4, lsl #25
    b8f0:	0000ac4c 	andeq	sl, r0, ip, asr #24
    b8f4:	0000ac20 	andeq	sl, r0, r0, lsr #24

0000b8f8 <message>:
    b8f8:	e3a03000 	mov	r3, #0
    b8fc:	e92d4ff0 	push	{r4, r5, r6, r7, r8, r9, sl, fp, lr}
    b900:	e1a04000 	mov	r4, r0
    b904:	e59fe3dc 	ldr	lr, [pc, #988]	; bce8 <message+0x3f0>
    b908:	e24dd054 	sub	sp, sp, #84	; 0x54
    b90c:	e08fe00e 	add	lr, pc, lr
    b910:	e58d000c 	str	r0, [sp, #12]
    b914:	e59f03d0 	ldr	r0, [pc, #976]	; bcec <message+0x3f4>
    b918:	e58de020 	str	lr, [sp, #32]
    b91c:	e5cd3041 	strb	r3, [sp, #65]	; 0x41
    b920:	e5cd3049 	strb	r3, [sp, #73]	; 0x49
    b924:	e79ec000 	ldr	ip, [lr, r0]
    b928:	e58d1014 	str	r1, [sp, #20]
    b92c:	e5cc3000 	strb	r3, [ip]
    b930:	e5cc3001 	strb	r3, [ip, #1]
    b934:	e5cc3002 	strb	r3, [ip, #2]
    b938:	e5cc3003 	strb	r3, [ip, #3]
    b93c:	e5cc3004 	strb	r3, [ip, #4]
    b940:	e5cc3005 	strb	r3, [ip, #5]
    b944:	e5cc3006 	strb	r3, [ip, #6]
    b948:	e5cc3007 	strb	r3, [ip, #7]
    b94c:	e58dc018 	str	ip, [sp, #24]
    b950:	e5d4c000 	ldrb	ip, [r4]
    b954:	e1a09002 	mov	r9, r2
    b958:	e15c0003 	cmp	ip, r3
    b95c:	0a0000d2 	beq	bcac <message+0x3b4>
    b960:	e3a01001 	mov	r1, #1
    b964:	e1a02003 	mov	r2, r3
    b968:	e59d000c 	ldr	r0, [sp, #12]
    b96c:	e1a03001 	mov	r3, r1
    b970:	e1a04001 	mov	r4, r1
    b974:	e1a08002 	mov	r8, r2
    b978:	e1a0e000 	mov	lr, r0
    b97c:	e3a0601a 	mov	r6, #26
    b980:	e5cd1041 	strb	r1, [sp, #65]	; 0x41
    b984:	e0417000 	sub	r7, r1, r0
    b988:	e1520003 	cmp	r2, r3
    b98c:	e28d0050 	add	r0, sp, #80	; 0x50
    b990:	31a02003 	movcc	r2, r3
    b994:	e35c000a 	cmp	ip, #10
    b998:	e0800001 	add	r0, r0, r1
    b99c:	0a00000b 	beq	b9d0 <message+0xd8>
    b9a0:	e5fec001 	ldrb	ip, [lr, #1]!
    b9a4:	e35c0000 	cmp	ip, #0
    b9a8:	0a00001a 	beq	ba18 <message+0x120>
    b9ac:	e5503010 	ldrb	r3, [r0, #-16]
    b9b0:	e1a04001 	mov	r4, r1
    b9b4:	e2833001 	add	r3, r3, #1
    b9b8:	e6ef3073 	uxtb	r3, r3
    b9bc:	e353001a 	cmp	r3, #26
    b9c0:	83a0301a 	movhi	r3, #26
    b9c4:	85406010 	strbhi	r6, [r0, #-16]
    b9c8:	95403010 	strbls	r3, [r0, #-16]
    b9cc:	eaffffed 	b	b988 <message+0x90>
    b9d0:	e2811001 	add	r1, r1, #1
    b9d4:	e6ef1071 	uxtb	r1, r1
    b9d8:	e3510006 	cmp	r1, #6
    b9dc:	23a01006 	movcs	r1, #6
    b9e0:	e08e5007 	add	r5, lr, r7
    b9e4:	e5fec001 	ldrb	ip, [lr, #1]!
    b9e8:	e28d0050 	add	r0, sp, #80	; 0x50
    b9ec:	e0804004 	add	r4, r0, r4
    b9f0:	e2433001 	sub	r3, r3, #1
    b9f4:	e0800001 	add	r0, r0, r1
    b9f8:	e35c0000 	cmp	ip, #0
    b9fc:	e5443010 	strb	r3, [r4, #-16]
    ba00:	e5405008 	strb	r5, [r0, #-8]
    ba04:	e5408010 	strb	r8, [r0, #-16]
    ba08:	13a03001 	movne	r3, #1
    ba0c:	11a04001 	movne	r4, r1
    ba10:	15403010 	strbne	r3, [r0, #-16]
    ba14:	1affffdb 	bne	b988 <message+0x90>
    ba18:	e3510006 	cmp	r1, #6
    ba1c:	23a01006 	movcs	r1, #6
    ba20:	e3a0c00a 	mov	ip, #10
    ba24:	e3a00014 	mov	r0, #20
    ba28:	e352001a 	cmp	r2, #26
    ba2c:	23a0201a 	movcs	r2, #26
    ba30:	e3a03002 	mov	r3, #2
    ba34:	e1a04001 	mov	r4, r1
    ba38:	e101018c 	smlabb	r1, ip, r1, r0
    ba3c:	e0833182 	add	r3, r3, r2, lsl #3
    ba40:	e58d3024 	str	r3, [sp, #36]	; 0x24
    ba44:	e1a020a1 	lsr	r2, r1, #1
    ba48:	e1a030a3 	lsr	r3, r3, #1
    ba4c:	e58d102c 	str	r1, [sp, #44]	; 0x2c
    ba50:	e58d303c 	str	r3, [sp, #60]	; 0x3c
    ba54:	e26310a1 	rsb	r1, r3, #161	; 0xa1
    ba58:	e263509f 	rsb	r5, r3, #159	; 0x9f
    ba5c:	e2623077 	rsb	r3, r2, #119	; 0x77
    ba60:	e58d201c 	str	r2, [sp, #28]
    ba64:	e58d1028 	str	r1, [sp, #40]	; 0x28
    ba68:	e58d3030 	str	r3, [sp, #48]	; 0x30
    ba6c:	e59db02c 	ldr	fp, [sp, #44]	; 0x2c
    ba70:	e59d7024 	ldr	r7, [sp, #36]	; 0x24
    ba74:	e59d6030 	ldr	r6, [sp, #48]	; 0x30
    ba78:	e59f8270 	ldr	r8, [pc, #624]	; bcf0 <message+0x3f8>
    ba7c:	e1a0300b 	mov	r3, fp
    ba80:	e1a02007 	mov	r2, r7
    ba84:	e1a01006 	mov	r1, r6
    ba88:	e59d0028 	ldr	r0, [sp, #40]	; 0x28
    ba8c:	ebfffc90 	bl	acd4 <SaveScreen>
    ba90:	e1a0300b 	mov	r3, fp
    ba94:	e1a02007 	mov	r2, r7
    ba98:	e1a01006 	mov	r1, r6
    ba9c:	e1a00005 	mov	r0, r5
    baa0:	e58d8000 	str	r8, [sp]
    baa4:	ebfffcd7 	bl	ae08 <FillRect>
    baa8:	e3a01002 	mov	r1, #2
    baac:	e3a02000 	mov	r2, #0
    bab0:	e28d0041 	add	r0, sp, #65	; 0x41
    bab4:	e59dc020 	ldr	ip, [sp, #32]
    bab8:	e59f3234 	ldr	r3, [pc, #564]	; bcf4 <message+0x3fc>
    babc:	e58d0034 	str	r0, [sp, #52]	; 0x34
    bac0:	e79c3003 	ldr	r3, [ip, r3]
    bac4:	e59d001c 	ldr	r0, [sp, #28]
    bac8:	e88308e0 	stm	r3, {r5, r6, r7, fp}
    bacc:	e260a079 	rsb	sl, r0, #121	; 0x79
    bad0:	e5831010 	str	r1, [r3, #16]
    bad4:	e5832014 	str	r2, [r3, #20]
    bad8:	ebfffd28 	bl	af80 <DrawRoundRect>
    badc:	e59d001c 	ldr	r0, [sp, #28]
    bae0:	e0844104 	add	r4, r4, r4, lsl #2
    bae4:	e0604084 	rsb	r4, r0, r4, lsl #1
    bae8:	e2843079 	add	r3, r4, #121	; 0x79
    baec:	e58d9038 	str	r9, [sp, #56]	; 0x38
    baf0:	e59d9034 	ldr	r9, [sp, #52]	; 0x34
    baf4:	e58d3010 	str	r3, [sp, #16]
    baf8:	e28db049 	add	fp, sp, #73	; 0x49
    bafc:	e4d95001 	ldrb	r5, [r9], #1
    bb00:	e1a0100a 	mov	r1, sl
    bb04:	e1a00105 	lsl	r0, r5, #2
    bb08:	e260009f 	rsb	r0, r0, #159	; 0x9f
    bb0c:	ebfffc64 	bl	aca4 <locatexy>
    bb10:	e4db6001 	ldrb	r6, [fp], #1
    bb14:	e59d300c 	ldr	r3, [sp, #12]
    bb18:	e0855006 	add	r5, r5, r6
    bb1c:	e2455001 	sub	r5, r5, #1
    bb20:	e1560005 	cmp	r6, r5
    bb24:	e0837006 	add	r7, r3, r6
    bb28:	8a000009 	bhi	bb54 <message+0x25c>
    bb2c:	e1a04007 	mov	r4, r7
    bb30:	e4d41001 	ldrb	r1, [r4], #1
    bb34:	e1a03008 	mov	r3, r8
    bb38:	e3a02000 	mov	r2, #0
    bb3c:	e3a00008 	mov	r0, #8
    bb40:	ebfffc28 	bl	abe8 <writecxy>
    bb44:	e0843006 	add	r3, r4, r6
    bb48:	e0433007 	sub	r3, r3, r7
    bb4c:	e1550003 	cmp	r5, r3
    bb50:	2afffff6 	bcs	bb30 <message+0x238>
    bb54:	e59d3010 	ldr	r3, [sp, #16]
    bb58:	e28aa00a 	add	sl, sl, #10
    bb5c:	e153000a 	cmp	r3, sl
    bb60:	1affffe5 	bne	bafc <message+0x204>
    bb64:	e59f318c 	ldr	r3, [pc, #396]	; bcf8 <message+0x400>
    bb68:	e59d1020 	ldr	r1, [sp, #32]
    bb6c:	e59d2014 	ldr	r2, [sp, #20]
    bb70:	e7915003 	ldr	r5, [r1, r3]
    bb74:	e3520000 	cmp	r2, #0
    bb78:	e59d9038 	ldr	r9, [sp, #56]	; 0x38
    bb7c:	e5c52000 	strb	r2, [r5]
    bb80:	0a00000c 	beq	bbb8 <message+0x2c0>
    bb84:	e59d301c 	ldr	r3, [sp, #28]
    bb88:	e283406b 	add	r4, r3, #107	; 0x6b
    bb8c:	e59d303c 	ldr	r3, [sp, #60]	; 0x3c
    bb90:	e26360a1 	rsb	r6, r3, #161	; 0xa1
    bb94:	e6ef3074 	uxtb	r3, r4
    bb98:	e58d3014 	str	r3, [sp, #20]
    bb9c:	e1a00006 	mov	r0, r6
    bba0:	e1a01004 	mov	r1, r4
    bba4:	ebfffeba 	bl	b694 <drawButtons>
    bba8:	e5d53000 	ldrb	r3, [r5]
    bbac:	e286602c 	add	r6, r6, #44	; 0x2c
    bbb0:	e3530000 	cmp	r3, #0
    bbb4:	1afffff8 	bne	bb9c <message+0x2a4>
    bbb8:	e3590000 	cmp	r9, #0
    bbbc:	1a000030 	bne	bc84 <message+0x38c>
    bbc0:	e59f3134 	ldr	r3, [pc, #308]	; bcfc <message+0x404>
    bbc4:	e59d1020 	ldr	r1, [sp, #32]
    bbc8:	e59f2130 	ldr	r2, [pc, #304]	; bd00 <message+0x408>
    bbcc:	e7914003 	ldr	r4, [r1, r3]
    bbd0:	e59d3014 	ldr	r3, [sp, #20]
    bbd4:	e7915002 	ldr	r5, [r1, r2]
    bbd8:	e283600a 	add	r6, r3, #10
    bbdc:	e3a00001 	mov	r0, #1
    bbe0:	ebfffe89 	bl	b60c <VerifyTouchLcd>
    bbe4:	e59d1018 	ldr	r1, [sp, #24]
    bbe8:	e3a03001 	mov	r3, #1
    bbec:	e5950000 	ldr	r0, [r5]
    bbf0:	e594e000 	ldr	lr, [r4]
    bbf4:	ea000002 	b	bc04 <message+0x30c>
    bbf8:	e2833001 	add	r3, r3, #1
    bbfc:	e3530008 	cmp	r3, #8
    bc00:	0afffff5 	beq	bbdc <message+0x2e4>
    bc04:	e5f12001 	ldrb	r2, [r1, #1]!
    bc08:	e3520000 	cmp	r2, #0
    bc0c:	0afffff9 	beq	bbf8 <message+0x300>
    bc10:	e1520000 	cmp	r2, r0
    bc14:	e282c020 	add	ip, r2, #32
    bc18:	8afffff6 	bhi	bbf8 <message+0x300>
    bc1c:	e150000c 	cmp	r0, ip
    bc20:	8afffff4 	bhi	bbf8 <message+0x300>
    bc24:	e59d2014 	ldr	r2, [sp, #20]
    bc28:	e15e0002 	cmp	lr, r2
    bc2c:	3afffff1 	bcc	bbf8 <message+0x300>
    bc30:	e15e0006 	cmp	lr, r6
    bc34:	8affffef 	bhi	bbf8 <message+0x300>
    bc38:	e2533001 	subs	r3, r3, #1
    bc3c:	0a000027 	beq	bce0 <message+0x3e8>
    bc40:	e3a02001 	mov	r2, #1
    bc44:	e1a00002 	mov	r0, r2
    bc48:	e2822001 	add	r2, r2, #1
    bc4c:	e1530002 	cmp	r3, r2
    bc50:	e1a00080 	lsl	r0, r0, #1
    bc54:	2afffffb 	bcs	bc48 <message+0x350>
    bc58:	e3500000 	cmp	r0, #0
    bc5c:	0affffde 	beq	bbdc <message+0x2e4>
    bc60:	e6ef4070 	uxtb	r4, r0
    bc64:	e59d0028 	ldr	r0, [sp, #40]	; 0x28
    bc68:	e59d302c 	ldr	r3, [sp, #44]	; 0x2c
    bc6c:	e59d2024 	ldr	r2, [sp, #36]	; 0x24
    bc70:	e59d1030 	ldr	r1, [sp, #48]	; 0x30
    bc74:	ebfffc30 	bl	ad3c <RestoreScreen>
    bc78:	e1a00004 	mov	r0, r4
    bc7c:	e28dd054 	add	sp, sp, #84	; 0x54
    bc80:	e8bd8ff0 	pop	{r4, r5, r6, r7, r8, r9, sl, fp, pc}
    bc84:	e3a0400b 	mov	r4, #11
    bc88:	e3a03000 	mov	r3, #0
    bc8c:	e2833001 	add	r3, r3, #1
    bc90:	e6ef3073 	uxtb	r3, r3
    bc94:	e1530009 	cmp	r3, r9
    bc98:	9afffffb 	bls	bc8c <message+0x394>
    bc9c:	e2444001 	sub	r4, r4, #1
    bca0:	e21440ff 	ands	r4, r4, #255	; 0xff
    bca4:	1afffff7 	bne	bc88 <message+0x390>
    bca8:	eaffffed 	b	bc64 <message+0x36c>
    bcac:	e3a03068 	mov	r3, #104	; 0x68
    bcb0:	e58d3030 	str	r3, [sp, #48]	; 0x30
    bcb4:	e3a0300f 	mov	r3, #15
    bcb8:	e3a04001 	mov	r4, #1
    bcbc:	e58d301c 	str	r3, [sp, #28]
    bcc0:	e3a06002 	mov	r6, #2
    bcc4:	e3a0301e 	mov	r3, #30
    bcc8:	e3a070a0 	mov	r7, #160	; 0xa0
    bccc:	e58d403c 	str	r4, [sp, #60]	; 0x3c
    bcd0:	e58d302c 	str	r3, [sp, #44]	; 0x2c
    bcd4:	e3a0509e 	mov	r5, #158	; 0x9e
    bcd8:	e1cd62f4 	strd	r6, [sp, #36]	; 0x24
    bcdc:	eaffff62 	b	ba6c <message+0x174>
    bce0:	e3a04001 	mov	r4, #1
    bce4:	eaffffde 	b	bc64 <message+0x36c>
    bce8:	0000d4c8 	andeq	sp, r0, r8, asr #9
    bcec:	000001d0 	ldrdeq	r0, [r0], -r0	; <UNPREDICTABLE>
    bcf0:	0000ffff 	strdeq	pc, [r0], -pc	; <UNPREDICTABLE>
    bcf4:	00000090 	muleq	r0, r0, r0
    bcf8:	000000a4 	andeq	r0, r0, r4, lsr #1
    bcfc:	00000078 	andeq	r0, r0, r8, ror r0
    bd00:	000001c4 	andeq	r0, r0, r4, asr #3

0000bd04 <showWindow>:
    bd04:	e92d4ff0 	push	{r4, r5, r6, r7, r8, r9, sl, fp, lr}
    bd08:	e59f613c 	ldr	r6, [pc, #316]	; be4c <showWindow+0x148>
    bd0c:	e59f213c 	ldr	r2, [pc, #316]	; be50 <showWindow+0x14c>
    bd10:	e59f313c 	ldr	r3, [pc, #316]	; be54 <showWindow+0x150>
    bd14:	e08f6006 	add	r6, pc, r6
    bd18:	e796c002 	ldr	ip, [r6, r2]
    bd1c:	e796b003 	ldr	fp, [r6, r3]
    bd20:	e59c8008 	ldr	r8, [ip, #8]
    bd24:	e59c700c 	ldr	r7, [ip, #12]
    bd28:	e59be000 	ldr	lr, [fp]
    bd2c:	e24dd014 	sub	sp, sp, #20
    bd30:	e1cc40d0 	ldrd	r4, [ip]
    bd34:	e1a02008 	mov	r2, r8
    bd38:	e58de000 	str	lr, [sp]
    bd3c:	e1a00004 	mov	r0, r4
    bd40:	e1a01005 	mov	r1, r5
    bd44:	e1a03007 	mov	r3, r7
    bd48:	e5dc9010 	ldrb	r9, [ip, #16]
    bd4c:	ebfffc2d 	bl	ae08 <FillRect>
    bd50:	e59f2100 	ldr	r2, [pc, #256]	; be58 <showWindow+0x154>
    bd54:	e1a03007 	mov	r3, r7
    bd58:	e796a002 	ldr	sl, [r6, r2]
    bd5c:	e1a01005 	mov	r1, r5
    bd60:	e59ac000 	ldr	ip, [sl]
    bd64:	e1a02008 	mov	r2, r8
    bd68:	e1a00004 	mov	r0, r4
    bd6c:	e58dc000 	str	ip, [sp]
    bd70:	ebfffc62 	bl	af00 <DrawRect>
    bd74:	e59f30e0 	ldr	r3, [pc, #224]	; be5c <showWindow+0x158>
    bd78:	e7963003 	ldr	r3, [r6, r3]
    bd7c:	e58d300c 	str	r3, [sp, #12]
    bd80:	e5d33000 	ldrb	r3, [r3]
    bd84:	e3530000 	cmp	r3, #0
    bd88:	1a00001e 	bne	be08 <showWindow+0x104>
    bd8c:	e3a02000 	mov	r2, #0
    bd90:	e59f30c8 	ldr	r3, [pc, #200]	; be60 <showWindow+0x15c>
    bd94:	e59f10c8 	ldr	r1, [pc, #200]	; be64 <showWindow+0x160>
    bd98:	e7963003 	ldr	r3, [r6, r3]
    bd9c:	e1590002 	cmp	r9, r2
    bda0:	e5c32000 	strb	r2, [r3]
    bda4:	e5c32001 	strb	r2, [r3, #1]
    bda8:	e5c32002 	strb	r2, [r3, #2]
    bdac:	e5c32003 	strb	r2, [r3, #3]
    bdb0:	e5c32004 	strb	r2, [r3, #4]
    bdb4:	e5c32005 	strb	r2, [r3, #5]
    bdb8:	e5c32006 	strb	r2, [r3, #6]
    bdbc:	e5c32007 	strb	r2, [r3, #7]
    bdc0:	e7968001 	ldr	r8, [r6, r1]
    bdc4:	e5c89000 	strb	r9, [r8]
    bdc8:	0a00000c 	beq	be00 <showWindow+0xfc>
    bdcc:	e59f3094 	ldr	r3, [pc, #148]	; be68 <showWindow+0x164>
    bdd0:	e0855007 	add	r5, r5, r7
    bdd4:	e7966003 	ldr	r6, [r6, r3]
    bdd8:	e245500c 	sub	r5, r5, #12
    bddc:	e2844002 	add	r4, r4, #2
    bde0:	e1a00004 	mov	r0, r4
    bde4:	e1a01005 	mov	r1, r5
    bde8:	e5865000 	str	r5, [r6]
    bdec:	ebfffe28 	bl	b694 <drawButtons>
    bdf0:	e5d83000 	ldrb	r3, [r8]
    bdf4:	e284402c 	add	r4, r4, #44	; 0x2c
    bdf8:	e3530000 	cmp	r3, #0
    bdfc:	1afffff7 	bne	bde0 <showWindow+0xdc>
    be00:	e28dd014 	add	sp, sp, #20
    be04:	e8bd8ff0 	pop	{r4, r5, r6, r7, r8, r9, sl, fp, pc}
    be08:	e59a3000 	ldr	r3, [sl]
    be0c:	e1a02008 	mov	r2, r8
    be10:	e58d3000 	str	r3, [sp]
    be14:	e1a01005 	mov	r1, r5
    be18:	e1a00004 	mov	r0, r4
    be1c:	e3a0300c 	mov	r3, #12
    be20:	ebfffc36 	bl	af00 <DrawRect>
    be24:	e59b2000 	ldr	r2, [fp]
    be28:	e59a3000 	ldr	r3, [sl]
    be2c:	e2851003 	add	r1, r5, #3
    be30:	e58d2004 	str	r2, [sp, #4]
    be34:	e58d3000 	str	r3, [sp]
    be38:	e3a02008 	mov	r2, #8
    be3c:	e59d300c 	ldr	r3, [sp, #12]
    be40:	e2840002 	add	r0, r4, #2
    be44:	ebfffb33 	bl	ab18 <writesxy>
    be48:	eaffffcf 	b	bd8c <showWindow+0x88>
    be4c:	0000d0c0 	andeq	sp, r0, r0, asr #1
    be50:	00000090 	muleq	r0, r0, r0
    be54:	00000074 	andeq	r0, r0, r4, ror r0
    be58:	00000004 	andeq	r0, r0, r4
    be5c:	000001a8 	andeq	r0, r0, r8, lsr #3
    be60:	000001d0 	ldrdeq	r0, [r0], -r0	; <UNPREDICTABLE>
    be64:	000000a4 	andeq	r0, r0, r4, lsr #1
    be68:	00000014 	andeq	r0, r0, r4, lsl r0

0000be6c <verifyMGI>:
    be6c:	e92d41f0 	push	{r4, r5, r6, r7, r8, lr}
    be70:	e59f40dc 	ldr	r4, [pc, #220]	; bf54 <verifyMGI+0xe8>
    be74:	e59f30dc 	ldr	r3, [pc, #220]	; bf58 <verifyMGI+0xec>
    be78:	e08f4004 	add	r4, pc, r4
    be7c:	e7943003 	ldr	r3, [r4, r3]
    be80:	e5933000 	ldr	r3, [r3]
    be84:	e3530002 	cmp	r3, #2
    be88:	18bd81f0 	popne	{r4, r5, r6, r7, r8, pc}
    be8c:	e59f30c8 	ldr	r3, [pc, #200]	; bf5c <verifyMGI+0xf0>
    be90:	e7942003 	ldr	r2, [r4, r3]
    be94:	e5923000 	ldr	r3, [r2]
    be98:	e3530000 	cmp	r3, #0
    be9c:	18bd81f0 	popne	{r4, r5, r6, r7, r8, pc}
    bea0:	e3a07022 	mov	r7, #34	; 0x22
    bea4:	e3a0600e 	mov	r6, #14
    bea8:	e3a00016 	mov	r0, #22
    beac:	e3a01024 	mov	r1, #36	; 0x24
    beb0:	e59fc0a8 	ldr	ip, [pc, #168]	; bf60 <verifyMGI+0xf4>
    beb4:	e794e00c 	ldr	lr, [r4, ip]
    beb8:	e59ec000 	ldr	ip, [lr]
    bebc:	e582c000 	str	ip, [r2]
    bec0:	e59fc09c 	ldr	ip, [pc, #156]	; bf64 <verifyMGI+0xf8>
    bec4:	e59f209c 	ldr	r2, [pc, #156]	; bf68 <verifyMGI+0xfc>
    bec8:	e794c00c 	ldr	ip, [r4, ip]
    becc:	e7945002 	ldr	r5, [r4, r2]
    bed0:	e58e7000 	str	r7, [lr]
    bed4:	e59ce000 	ldr	lr, [ip]
    bed8:	e59f208c 	ldr	r2, [pc, #140]	; bf6c <verifyMGI+0x100>
    bedc:	e58c6000 	str	r6, [ip]
    bee0:	e585e000 	str	lr, [r5]
    bee4:	e794c002 	ldr	ip, [r4, r2]
    bee8:	e59f2080 	ldr	r2, [pc, #128]	; bf70 <verifyMGI+0x104>
    beec:	e58c3000 	str	r3, [ip]
    bef0:	e794c002 	ldr	ip, [r4, r2]
    bef4:	e59f2078 	ldr	r2, [pc, #120]	; bf74 <verifyMGI+0x108>
    bef8:	e58c3000 	str	r3, [ip]
    befc:	e7942002 	ldr	r2, [r4, r2]
    bf00:	e59f3070 	ldr	r3, [pc, #112]	; bf78 <verifyMGI+0x10c>
    bf04:	e5820000 	str	r0, [r2]
    bf08:	e7942003 	ldr	r2, [r4, r3]
    bf0c:	e59f3068 	ldr	r3, [pc, #104]	; bf7c <verifyMGI+0x110>
    bf10:	e5821000 	str	r1, [r2]
    bf14:	e59f1064 	ldr	r1, [pc, #100]	; bf80 <verifyMGI+0x114>
    bf18:	e7940003 	ldr	r0, [r4, r3]
    bf1c:	e08f1001 	add	r1, pc, r1
    bf20:	eb001614 	bl	11778 <strcpy>
    bf24:	e3a02014 	mov	r2, #20
    bf28:	e3a0cf46 	mov	ip, #280	; 0x118
    bf2c:	e3a000b4 	mov	r0, #180	; 0xb4
    bf30:	e3a01040 	mov	r1, #64	; 0x40
    bf34:	e59f3048 	ldr	r3, [pc, #72]	; bf84 <verifyMGI+0x118>
    bf38:	e7943003 	ldr	r3, [r4, r3]
    bf3c:	e8bd41f0 	pop	{r4, r5, r6, r7, r8, lr}
    bf40:	e583c008 	str	ip, [r3, #8]
    bf44:	e1c300fc 	strd	r0, [r3, #12]
    bf48:	e5832000 	str	r2, [r3]
    bf4c:	e5832004 	str	r2, [r3, #4]
    bf50:	eaffff6b 	b	bd04 <showWindow>
    bf54:	0000cf5c 	andeq	ip, r0, ip, asr pc
    bf58:	00000158 	andeq	r0, r0, r8, asr r1
    bf5c:	000001ac 	andeq	r0, r0, ip, lsr #3
    bf60:	00000048 	andeq	r0, r0, r8, asr #32
    bf64:	000000bc 	strheq	r0, [r0], -ip
    bf68:	000001ec 	andeq	r0, r0, ip, ror #3
    bf6c:	00000044 	andeq	r0, r0, r4, asr #32
    bf70:	000001b8 			; <UNDEFINED> instruction: 0x000001b8
    bf74:	00000024 	andeq	r0, r0, r4, lsr #32
    bf78:	000000cc 	andeq	r0, r0, ip, asr #1
    bf7c:	000001a8 	andeq	r0, r0, r8, lsr #3
    bf80:	0000a5a8 	andeq	sl, r0, r8, lsr #11
    bf84:	00000090 	muleq	r0, r0, r0

0000bf88 <writec>:
    bf88:	e92d47f0 	push	{r4, r5, r6, r7, r8, r9, sl, lr}
    bf8c:	e59f4184 	ldr	r4, [pc, #388]	; c118 <writec+0x190>
    bf90:	e1a08003 	mov	r8, r3
    bf94:	e1a07000 	mov	r7, r0
    bf98:	e1a05001 	mov	r5, r1
    bf9c:	e1a0a002 	mov	sl, r2
    bfa0:	ebffffb1 	bl	be6c <verifyMGI>
    bfa4:	e59f3170 	ldr	r3, [pc, #368]	; c11c <writec+0x194>
    bfa8:	e08f4004 	add	r4, pc, r4
    bfac:	e7943003 	ldr	r3, [r4, r3]
    bfb0:	e5933000 	ldr	r3, [r3]
    bfb4:	e3530002 	cmp	r3, #2
    bfb8:	1a000005 	bne	bfd4 <writec+0x4c>
    bfbc:	e59f215c 	ldr	r2, [pc, #348]	; c120 <writec+0x198>
    bfc0:	e59f315c 	ldr	r3, [pc, #348]	; c124 <writec+0x19c>
    bfc4:	e7942002 	ldr	r2, [r4, r2]
    bfc8:	e7943003 	ldr	r3, [r4, r3]
    bfcc:	e5925000 	ldr	r5, [r2]
    bfd0:	e593a000 	ldr	sl, [r3]
    bfd4:	e59f314c 	ldr	r3, [pc, #332]	; c128 <writec+0x1a0>
    bfd8:	e357000a 	cmp	r7, #10
    bfdc:	e7946003 	ldr	r6, [r4, r3]
    bfe0:	e5960000 	ldr	r0, [r6]
    bfe4:	1a000011 	bne	c030 <writec+0xa8>
    bfe8:	e3a0c001 	mov	ip, #1
    bfec:	e59f3138 	ldr	r3, [pc, #312]	; c12c <writec+0x1a4>
    bff0:	e080100c 	add	r1, r0, ip
    bff4:	e5861000 	str	r1, [r6]
    bff8:	e7942003 	ldr	r2, [r4, r3]
    bffc:	e59f312c 	ldr	r3, [pc, #300]	; c130 <writec+0x1a8>
    c000:	e582c000 	str	ip, [r2]
    c004:	e7943003 	ldr	r3, [r4, r3]
    c008:	e3a00001 	mov	r0, #1
    c00c:	e5933000 	ldr	r3, [r3]
    c010:	e083200c 	add	r2, r3, ip
    c014:	e1510002 	cmp	r1, r2
    c018:	01a01003 	moveq	r1, r3
    c01c:	05863000 	streq	r3, [r6]
    c020:	e6ef1071 	uxtb	r1, r1
    c024:	e3a02002 	mov	r2, #2
    c028:	e8bd47f0 	pop	{r4, r5, r6, r7, r8, r9, sl, lr}
    c02c:	ea000052 	b	c17c <locate>
    c030:	e3a0200b 	mov	r2, #11
    c034:	e3e0e02d 	mvn	lr, #45	; 0x2d
    c038:	e3a0c008 	mov	ip, #8
    c03c:	e59f30f0 	ldr	r3, [pc, #240]	; c134 <writec+0x1ac>
    c040:	e59f10e4 	ldr	r1, [pc, #228]	; c12c <writec+0x1a4>
    c044:	e7943003 	ldr	r3, [r4, r3]
    c048:	e0800100 	add	r0, r0, r0, lsl #2
    c04c:	e5c32000 	strb	r2, [r3]
    c050:	e59f20e0 	ldr	r2, [pc, #224]	; c138 <writec+0x1b0>
    c054:	e5c3e001 	strb	lr, [r3, #1]
    c058:	e7949001 	ldr	r9, [r4, r1]
    c05c:	e7942002 	ldr	r2, [r4, r2]
    c060:	e5991000 	ldr	r1, [r9]
    c064:	e5922000 	ldr	r2, [r2]
    c068:	e0822181 	add	r2, r2, r1, lsl #3
    c06c:	e1a01c32 	lsr	r1, r2, ip
    c070:	e5c32003 	strb	r2, [r3, #3]
    c074:	e59f20c0 	ldr	r2, [pc, #192]	; c13c <writec+0x1b4>
    c078:	e5c31002 	strb	r1, [r3, #2]
    c07c:	e7942002 	ldr	r2, [r4, r2]
    c080:	e5c35008 	strb	r5, [r3, #8]
    c084:	e5922000 	ldr	r2, [r2]
    c088:	e1a05c35 	lsr	r5, r5, ip
    c08c:	e0820080 	add	r0, r2, r0, lsl #1
    c090:	e1a01c30 	lsr	r1, r0, ip
    c094:	e1a02c3a 	lsr	r2, sl, ip
    c098:	e5c30005 	strb	r0, [r3, #5]
    c09c:	e1a00003 	mov	r0, r3
    c0a0:	e5c31004 	strb	r1, [r3, #4]
    c0a4:	e5c3a00a 	strb	sl, [r3, #10]
    c0a8:	e5c3700b 	strb	r7, [r3, #11]
    c0ac:	e5c35007 	strb	r5, [r3, #7]
    c0b0:	e5c32009 	strb	r2, [r3, #9]
    c0b4:	e5c3c006 	strb	ip, [r3, #6]
    c0b8:	eb00244e 	bl	151f8 <commVDG>
    c0bc:	e3580003 	cmp	r8, #3
    c0c0:	18bd87f0 	popne	{r4, r5, r6, r7, r8, r9, sl, pc}
    c0c4:	e5992000 	ldr	r2, [r9]
    c0c8:	e59f3060 	ldr	r3, [pc, #96]	; c130 <writec+0x1a8>
    c0cc:	e2820001 	add	r0, r2, #1
    c0d0:	e5890000 	str	r0, [r9]
    c0d4:	e7943003 	ldr	r3, [r4, r3]
    c0d8:	e5961000 	ldr	r1, [r6]
    c0dc:	e5933000 	ldr	r3, [r3]
    c0e0:	e2433001 	sub	r3, r3, #1
    c0e4:	e1530001 	cmp	r3, r1
    c0e8:	1a000005 	bne	c104 <writec+0x17c>
    c0ec:	e59f304c 	ldr	r3, [pc, #76]	; c140 <writec+0x1b8>
    c0f0:	e7943003 	ldr	r3, [r4, r3]
    c0f4:	e5933000 	ldr	r3, [r3]
    c0f8:	e1500003 	cmp	r0, r3
    c0fc:	01a00002 	moveq	r0, r2
    c100:	05892000 	streq	r2, [r9]
    c104:	e6ef1071 	uxtb	r1, r1
    c108:	e6ef0070 	uxtb	r0, r0
    c10c:	e3a02002 	mov	r2, #2
    c110:	e8bd47f0 	pop	{r4, r5, r6, r7, r8, r9, sl, lr}
    c114:	ea000018 	b	c17c <locate>
    c118:	0000ce2c 	andeq	ip, r0, ip, lsr #28
    c11c:	00000158 	andeq	r0, r0, r8, asr r1
    c120:	00000004 	andeq	r0, r0, r4
    c124:	00000074 	andeq	r0, r0, r4, ror r0
    c128:	000001b8 			; <UNDEFINED> instruction: 0x000001b8
    c12c:	00000044 	andeq	r0, r0, r4, asr #32
    c130:	000000bc 	strheq	r0, [r0], -ip
    c134:	0000012c 	andeq	r0, r0, ip, lsr #2
    c138:	00000024 	andeq	r0, r0, r4, lsr #32
    c13c:	000000cc 	andeq	r0, r0, ip, asr #1
    c140:	00000048 	andeq	r0, r0, r8, asr #32

0000c144 <writechar>:
    c144:	e59fc024 	ldr	ip, [pc, #36]	; c170 <writechar+0x2c>
    c148:	e59f2024 	ldr	r2, [pc, #36]	; c174 <writechar+0x30>
    c14c:	e59f3024 	ldr	r3, [pc, #36]	; c178 <writechar+0x34>
    c150:	e08fc00c 	add	ip, pc, ip
    c154:	e79c3003 	ldr	r3, [ip, r3]
    c158:	e79c2002 	ldr	r2, [ip, r2]
    c15c:	e5931000 	ldr	r1, [r3]
    c160:	e6ef0070 	uxtb	r0, r0
    c164:	e5922000 	ldr	r2, [r2]
    c168:	e3a03003 	mov	r3, #3
    c16c:	eaffff85 	b	bf88 <writec>
    c170:	0000cc84 	andeq	ip, r0, r4, lsl #25
    c174:	0000003c 	andeq	r0, r0, ip, lsr r0
    c178:	000000e4 	andeq	r0, r0, r4, ror #1

0000c17c <locate>:
    c17c:	e92d4070 	push	{r4, r5, r6, lr}
    c180:	e59f4134 	ldr	r4, [pc, #308]	; c2bc <locate+0x140>
    c184:	e59f3134 	ldr	r3, [pc, #308]	; c2c0 <locate+0x144>
    c188:	e08f4004 	add	r4, pc, r4
    c18c:	e7943003 	ldr	r3, [r4, r3]
    c190:	e24dd008 	sub	sp, sp, #8
    c194:	e5933000 	ldr	r3, [r3]
    c198:	e1500003 	cmp	r0, r3
    c19c:	e59f3120 	ldr	r3, [pc, #288]	; c2c4 <locate+0x148>
    c1a0:	82811001 	addhi	r1, r1, #1
    c1a4:	e7943003 	ldr	r3, [r4, r3]
    c1a8:	86ef1071 	uxtbhi	r1, r1
    c1ac:	e5936000 	ldr	r6, [r3]
    c1b0:	83a05001 	movhi	r5, #1
    c1b4:	83a00000 	movhi	r0, #0
    c1b8:	93a05000 	movls	r5, #0
    c1bc:	e1510006 	cmp	r1, r6
    c1c0:	9a000007 	bls	c1e4 <locate+0x68>
    c1c4:	e59f30fc 	ldr	r3, [pc, #252]	; c2c8 <locate+0x14c>
    c1c8:	e7943003 	ldr	r3, [r4, r3]
    c1cc:	e5935000 	ldr	r5, [r3]
    c1d0:	e3550001 	cmp	r5, #1
    c1d4:	13a01000 	movne	r1, #0
    c1d8:	13a05001 	movne	r5, #1
    c1dc:	11a00001 	movne	r0, r1
    c1e0:	0a000015 	beq	c23c <locate+0xc0>
    c1e4:	e59fc0e0 	ldr	ip, [pc, #224]	; c2cc <locate+0x150>
    c1e8:	e59f30e0 	ldr	r3, [pc, #224]	; c2d0 <locate+0x154>
    c1ec:	e794600c 	ldr	r6, [r4, ip]
    c1f0:	e3520001 	cmp	r2, #1
    c1f4:	e5860000 	str	r0, [r6]
    c1f8:	e7943003 	ldr	r3, [r4, r3]
    c1fc:	e5831000 	str	r1, [r3]
    c200:	0a000004 	beq	c218 <locate+0x9c>
    c204:	e3520002 	cmp	r2, #2
    c208:	13a02000 	movne	r2, #0
    c20c:	02052001 	andeq	r2, r5, #1
    c210:	e3520000 	cmp	r2, #0
    c214:	0a000006 	beq	c234 <locate+0xb8>
    c218:	e59f30a8 	ldr	r3, [pc, #168]	; c2c8 <locate+0x14c>
    c21c:	e7943003 	ldr	r3, [r4, r3]
    c220:	e5933000 	ldr	r3, [r3]
    c224:	e3530001 	cmp	r3, #1
    c228:	0a000018 	beq	c290 <locate+0x114>
    c22c:	e2400001 	sub	r0, r0, #1
    c230:	e5860000 	str	r0, [r6]
    c234:	e28dd008 	add	sp, sp, #8
    c238:	e8bd8070 	pop	{r4, r5, r6, pc}
    c23c:	e3e01026 	mvn	r1, #38	; 0x26
    c240:	e3a0c004 	mov	ip, #4
    c244:	e3a0000a 	mov	r0, #10
    c248:	e59f3084 	ldr	r3, [pc, #132]	; c2d4 <locate+0x158>
    c24c:	e58d2004 	str	r2, [sp, #4]
    c250:	e7943003 	ldr	r3, [r4, r3]
    c254:	e5c31001 	strb	r1, [r3, #1]
    c258:	e59f1078 	ldr	r1, [pc, #120]	; c2d8 <locate+0x15c>
    c25c:	e5c30002 	strb	r0, [r3, #2]
    c260:	e5c3c000 	strb	ip, [r3]
    c264:	e7941001 	ldr	r1, [r4, r1]
    c268:	e1a00003 	mov	r0, r3
    c26c:	e5911000 	ldr	r1, [r1]
    c270:	e5c31004 	strb	r1, [r3, #4]
    c274:	e1a01421 	lsr	r1, r1, #8
    c278:	e5c31003 	strb	r1, [r3, #3]
    c27c:	eb0023dd 	bl	151f8 <commVDG>
    c280:	e6ef1076 	uxtb	r1, r6
    c284:	e3a00000 	mov	r0, #0
    c288:	e59d2004 	ldr	r2, [sp, #4]
    c28c:	eaffffd4 	b	c1e4 <locate+0x68>
    c290:	e59f2040 	ldr	r2, [pc, #64]	; c2d8 <locate+0x15c>
    c294:	e59f3040 	ldr	r3, [pc, #64]	; c2dc <locate+0x160>
    c298:	e7942002 	ldr	r2, [r4, r2]
    c29c:	e7943003 	ldr	r3, [r4, r3]
    c2a0:	e3a00008 	mov	r0, #8
    c2a4:	e5931000 	ldr	r1, [r3]
    c2a8:	e5922000 	ldr	r2, [r2]
    c2ac:	e3a03003 	mov	r3, #3
    c2b0:	ebffff34 	bl	bf88 <writec>
    c2b4:	e5960000 	ldr	r0, [r6]
    c2b8:	eaffffdb 	b	c22c <locate+0xb0>
    c2bc:	0000cc4c 	andeq	ip, r0, ip, asr #24
    c2c0:	00000048 	andeq	r0, r0, r8, asr #32
    c2c4:	000000bc 	strheq	r0, [r0], -ip
    c2c8:	00000158 	andeq	r0, r0, r8, asr r1
    c2cc:	00000044 	andeq	r0, r0, r4, asr #32
    c2d0:	000001b8 			; <UNDEFINED> instruction: 0x000001b8
    c2d4:	0000012c 	andeq	r0, r0, ip, lsr #2
    c2d8:	0000003c 	andeq	r0, r0, ip, lsr r0
    c2dc:	000000e4 	andeq	r0, r0, r4, ror #1

0000c2e0 <clearScr>:
    c2e0:	e92d4010 	push	{r4, lr}
    c2e4:	e1a01000 	mov	r1, r0
    c2e8:	e3a0e003 	mov	lr, #3
    c2ec:	e3e0c02f 	mvn	ip, #47	; 0x2f
    c2f0:	e59f2038 	ldr	r2, [pc, #56]	; c330 <clearScr+0x50>
    c2f4:	e59f3038 	ldr	r3, [pc, #56]	; c334 <clearScr+0x54>
    c2f8:	e08f2002 	add	r2, pc, r2
    c2fc:	e7923003 	ldr	r3, [r2, r3]
    c300:	e1a04420 	lsr	r4, r0, #8
    c304:	e1a00003 	mov	r0, r3
    c308:	e5c34002 	strb	r4, [r3, #2]
    c30c:	e5c31003 	strb	r1, [r3, #3]
    c310:	e5c3e000 	strb	lr, [r3]
    c314:	e5c3c001 	strb	ip, [r3, #1]
    c318:	eb0023b6 	bl	151f8 <commVDG>
    c31c:	e8bd4010 	pop	{r4, lr}
    c320:	e3a01000 	mov	r1, #0
    c324:	e3a02001 	mov	r2, #1
    c328:	e1a00001 	mov	r0, r1
    c32c:	eaffff92 	b	c17c <locate>
    c330:	0000cadc 	ldrdeq	ip, [r0], -ip	; <UNPREDICTABLE>
    c334:	0000012c 	andeq	r0, r0, ip, lsr #2

0000c338 <redrawMain>:
    c338:	e92d4010 	push	{r4, lr}
    c33c:	e3a0001f 	mov	r0, #31
    c340:	ebffffe6 	bl	c2e0 <clearScr>
    c344:	ebfffc50 	bl	b48c <desenhaMenu>
    c348:	e8bd4010 	pop	{r4, lr}
    c34c:	eafffc6f 	b	b510 <desenhaIconesUsuario>

0000c350 <writes>:
    c350:	e92d4ff0 	push	{r4, r5, r6, r7, r8, r9, sl, fp, lr}
    c354:	e59fb2fc 	ldr	fp, [pc, #764]	; c658 <writes+0x308>
    c358:	e24dd01c 	sub	sp, sp, #28
    c35c:	e58d200c 	str	r2, [sp, #12]
    c360:	e1a06000 	mov	r6, r0
    c364:	e58d1008 	str	r1, [sp, #8]
    c368:	ebfffebf 	bl	be6c <verifyMGI>
    c36c:	e59f22e8 	ldr	r2, [pc, #744]	; c65c <writes+0x30c>
    c370:	e08fb00b 	add	fp, pc, fp
    c374:	e79b2002 	ldr	r2, [fp, r2]
    c378:	e5922000 	ldr	r2, [r2]
    c37c:	e3520002 	cmp	r2, #2
    c380:	1a000007 	bne	c3a4 <writes+0x54>
    c384:	e59f12d4 	ldr	r1, [pc, #724]	; c660 <writes+0x310>
    c388:	e59f22d4 	ldr	r2, [pc, #724]	; c664 <writes+0x314>
    c38c:	e79b1001 	ldr	r1, [fp, r1]
    c390:	e79b2002 	ldr	r2, [fp, r2]
    c394:	e5913000 	ldr	r3, [r1]
    c398:	e58d3008 	str	r3, [sp, #8]
    c39c:	e5923000 	ldr	r3, [r2]
    c3a0:	e58d300c 	str	r3, [sp, #12]
    c3a4:	e59d3008 	ldr	r3, [sp, #8]
    c3a8:	e3a0500a 	mov	r5, #10
    c3ac:	e1a01423 	lsr	r1, r3, #8
    c3b0:	e59d300c 	ldr	r3, [sp, #12]
    c3b4:	e3a0a000 	mov	sl, #0
    c3b8:	e1a02423 	lsr	r2, r3, #8
    c3bc:	e6ef3071 	uxtb	r3, r1
    c3c0:	e58d3010 	str	r3, [sp, #16]
    c3c4:	e6ef3072 	uxtb	r3, r2
    c3c8:	e58d3014 	str	r3, [sp, #20]
    c3cc:	e1a0300b 	mov	r3, fp
    c3d0:	e1a0b006 	mov	fp, r6
    c3d4:	e1a09003 	mov	r9, r3
    c3d8:	e4db2001 	ldrb	r2, [fp], #1
    c3dc:	e3520000 	cmp	r2, #0
    c3e0:	0a000080 	beq	c5e8 <writes+0x298>
    c3e4:	e352001f 	cmp	r2, #31
    c3e8:	93a03001 	movls	r3, #1
    c3ec:	958d3004 	strls	r3, [sp, #4]
    c3f0:	83a03000 	movhi	r3, #0
    c3f4:	82855001 	addhi	r5, r5, #1
    c3f8:	86ef5075 	uxtbhi	r5, r5
    c3fc:	858d3004 	strhi	r3, [sp, #4]
    c400:	e59f1260 	ldr	r1, [pc, #608]	; c668 <writes+0x318>
    c404:	e59f2260 	ldr	r2, [pc, #608]	; c66c <writes+0x31c>
    c408:	e7997001 	ldr	r7, [r9, r1]
    c40c:	e7992002 	ldr	r2, [r9, r2]
    c410:	e5971000 	ldr	r1, [r7]
    c414:	e5920000 	ldr	r0, [r2]
    c418:	e241200a 	sub	r2, r1, #10
    c41c:	e0822005 	add	r2, r2, r5
    c420:	e1520000 	cmp	r2, r0
    c424:	8a000015 	bhi	c480 <writes+0x130>
    c428:	e5db2000 	ldrb	r2, [fp]
    c42c:	e59d3004 	ldr	r3, [sp, #4]
    c430:	e1932002 	orrs	r2, r3, r2
    c434:	0a00006d 	beq	c5f0 <writes+0x2a0>
    c438:	e3530000 	cmp	r3, #0
    c43c:	0affffe5 	beq	c3d8 <writes+0x88>
    c440:	e355000a 	cmp	r5, #10
    c444:	8a000011 	bhi	c490 <writes+0x140>
    c448:	e59f2220 	ldr	r2, [pc, #544]	; c670 <writes+0x320>
    c44c:	e7998002 	ldr	r8, [r9, r2]
    c450:	e2855001 	add	r5, r5, #1
    c454:	e5d62000 	ldrb	r2, [r6]
    c458:	e6ef5075 	uxtb	r5, r5
    c45c:	e3520000 	cmp	r2, #0
    c460:	1355000a 	cmpne	r5, #10
    c464:	83a03001 	movhi	r3, #1
    c468:	858d3004 	strhi	r3, [sp, #4]
    c46c:	8a00002e 	bhi	c52c <writes+0x1dc>
    c470:	e1a00008 	mov	r0, r8
    c474:	eb00235f 	bl	151f8 <commVDG>
    c478:	e3a0500a 	mov	r5, #10
    c47c:	eaffffd5 	b	c3d8 <writes+0x88>
    c480:	e355000a 	cmp	r5, #10
    c484:	9a000063 	bls	c618 <writes+0x2c8>
    c488:	e3a03002 	mov	r3, #2
    c48c:	e58d3004 	str	r3, [sp, #4]
    c490:	e3e0c02e 	mvn	ip, #46	; 0x2e
    c494:	e3a00008 	mov	r0, #8
    c498:	e59f21d0 	ldr	r2, [pc, #464]	; c670 <writes+0x320>
    c49c:	e59d3004 	ldr	r3, [sp, #4]
    c4a0:	e7998002 	ldr	r8, [r9, r2]
    c4a4:	e59f21c8 	ldr	r2, [pc, #456]	; c674 <writes+0x324>
    c4a8:	e5c85000 	strb	r5, [r8]
    c4ac:	e5c8c001 	strb	ip, [r8, #1]
    c4b0:	e7992002 	ldr	r2, [r9, r2]
    c4b4:	e3530001 	cmp	r3, #1
    c4b8:	e5922000 	ldr	r2, [r2]
    c4bc:	e59d3010 	ldr	r3, [sp, #16]
    c4c0:	e0821181 	add	r1, r2, r1, lsl #3
    c4c4:	e1a02031 	lsr	r2, r1, r0
    c4c8:	e5c81003 	strb	r1, [r8, #3]
    c4cc:	e59f11a4 	ldr	r1, [pc, #420]	; c678 <writes+0x328>
    c4d0:	e5c82002 	strb	r2, [r8, #2]
    c4d4:	e59f21a0 	ldr	r2, [pc, #416]	; c67c <writes+0x32c>
    c4d8:	e7991001 	ldr	r1, [r9, r1]
    c4dc:	e7992002 	ldr	r2, [r9, r2]
    c4e0:	e5c83007 	strb	r3, [r8, #7]
    c4e4:	e59d3008 	ldr	r3, [sp, #8]
    c4e8:	e5911000 	ldr	r1, [r1]
    c4ec:	e5922000 	ldr	r2, [r2]
    c4f0:	e5c83008 	strb	r3, [r8, #8]
    c4f4:	e59d3014 	ldr	r3, [sp, #20]
    c4f8:	e0811101 	add	r1, r1, r1, lsl #2
    c4fc:	e0822081 	add	r2, r2, r1, lsl #1
    c500:	e5c83009 	strb	r3, [r8, #9]
    c504:	e59d300c 	ldr	r3, [sp, #12]
    c508:	e1a01032 	lsr	r1, r2, r0
    c50c:	e5c82005 	strb	r2, [r8, #5]
    c510:	e5c81004 	strb	r1, [r8, #4]
    c514:	e5c8300a 	strb	r3, [r8, #10]
    c518:	e5c80006 	strb	r0, [r8, #6]
    c51c:	0affffcb 	beq	c450 <writes+0x100>
    c520:	e5d62000 	ldrb	r2, [r6]
    c524:	e3520000 	cmp	r2, #0
    c528:	0a000025 	beq	c5c4 <writes+0x274>
    c52c:	e3a0400b 	mov	r4, #11
    c530:	ea00000f 	b	c574 <writes+0x224>
    c534:	e1a01008 	mov	r1, r8
    c538:	e5973000 	ldr	r3, [r7]
    c53c:	e7e12004 	strb	r2, [r1, r4]!
    c540:	e2833001 	add	r3, r3, #1
    c544:	e5c1a001 	strb	sl, [r1, #1]
    c548:	e5873000 	str	r3, [r7]
    c54c:	e2844001 	add	r4, r4, #1
    c550:	e5f62001 	ldrb	r2, [r6, #1]!
    c554:	e6ef4074 	uxtb	r4, r4
    c558:	e1540005 	cmp	r4, r5
    c55c:	83a03000 	movhi	r3, #0
    c560:	93a03001 	movls	r3, #1
    c564:	e3520000 	cmp	r2, #0
    c568:	03a03000 	moveq	r3, #0
    c56c:	e3530000 	cmp	r3, #0
    c570:	0a000013 	beq	c5c4 <writes+0x274>
    c574:	e2423020 	sub	r3, r2, #32
    c578:	e353005f 	cmp	r3, #95	; 0x5f
    c57c:	e59f10f4 	ldr	r1, [pc, #244]	; c678 <writes+0x328>
    c580:	9affffeb 	bls	c534 <writes+0x1e4>
    c584:	e7993001 	ldr	r3, [r9, r1]
    c588:	e352000d 	cmp	r2, #13
    c58c:	e5931000 	ldr	r1, [r3]
    c590:	0587a000 	streq	sl, [r7]
    c594:	03a00000 	moveq	r0, #0
    c598:	0a000005 	beq	c5b4 <writes+0x264>
    c59c:	e352000a 	cmp	r2, #10
    c5a0:	03a00000 	moveq	r0, #0
    c5a4:	02811001 	addeq	r1, r1, #1
    c5a8:	15d70000 	ldrbne	r0, [r7]
    c5ac:	05831000 	streq	r1, [r3]
    c5b0:	0587a000 	streq	sl, [r7]
    c5b4:	e3a02000 	mov	r2, #0
    c5b8:	e6ef1071 	uxtb	r1, r1
    c5bc:	ebfffeee 	bl	c17c <locate>
    c5c0:	eaffffe1 	b	c54c <writes+0x1fc>
    c5c4:	e1a00008 	mov	r0, r8
    c5c8:	eb00230a 	bl	151f8 <commVDG>
    c5cc:	e59d3004 	ldr	r3, [sp, #4]
    c5d0:	e3530002 	cmp	r3, #2
    c5d4:	13a0500a 	movne	r5, #10
    c5d8:	0a000012 	beq	c628 <writes+0x2d8>
    c5dc:	e4db2001 	ldrb	r2, [fp], #1
    c5e0:	e3520000 	cmp	r2, #0
    c5e4:	1affff7e 	bne	c3e4 <writes+0x94>
    c5e8:	e28dd01c 	add	sp, sp, #28
    c5ec:	e8bd8ff0 	pop	{r4, r5, r6, r7, r8, r9, sl, fp, pc}
    c5f0:	e355000a 	cmp	r5, #10
    c5f4:	83a03003 	movhi	r3, #3
    c5f8:	858d3004 	strhi	r3, [sp, #4]
    c5fc:	8affffa3 	bhi	c490 <writes+0x140>
    c600:	e59f2068 	ldr	r2, [pc, #104]	; c670 <writes+0x320>
    c604:	e3a0500a 	mov	r5, #10
    c608:	e7998002 	ldr	r8, [r9, r2]
    c60c:	e1a00008 	mov	r0, r8
    c610:	eb0022f8 	bl	151f8 <commVDG>
    c614:	eaffff6f 	b	c3d8 <writes+0x88>
    c618:	e59f2050 	ldr	r2, [pc, #80]	; c670 <writes+0x320>
    c61c:	e7998002 	ldr	r8, [r9, r2]
    c620:	e1a00008 	mov	r0, r8
    c624:	eb0022f3 	bl	151f8 <commVDG>
    c628:	e3a02000 	mov	r2, #0
    c62c:	e59f1044 	ldr	r1, [pc, #68]	; c678 <writes+0x328>
    c630:	e587a000 	str	sl, [r7]
    c634:	e799c001 	ldr	ip, [r9, r1]
    c638:	e1a00002 	mov	r0, r2
    c63c:	e59c1000 	ldr	r1, [ip]
    c640:	e3a0500a 	mov	r5, #10
    c644:	e2811001 	add	r1, r1, #1
    c648:	e58c1000 	str	r1, [ip]
    c64c:	e6ef1071 	uxtb	r1, r1
    c650:	ebfffec9 	bl	c17c <locate>
    c654:	eaffff5f 	b	c3d8 <writes+0x88>
    c658:	0000ca64 	andeq	ip, r0, r4, ror #20
    c65c:	00000158 	andeq	r0, r0, r8, asr r1
    c660:	00000004 	andeq	r0, r0, r4
    c664:	00000074 	andeq	r0, r0, r4, ror r0
    c668:	00000044 	andeq	r0, r0, r4, asr #32
    c66c:	00000048 	andeq	r0, r0, r8, asr #32
    c670:	0000012c 	andeq	r0, r0, ip, lsr #2
    c674:	00000024 	andeq	r0, r0, r4, lsr #32
    c678:	000001b8 			; <UNDEFINED> instruction: 0x000001b8
    c67c:	000000cc 	andeq	r0, r0, ip, asr #1

0000c680 <putPrompt>:
    c680:	e3a02000 	mov	r2, #0
    c684:	e92d41f0 	push	{r4, r5, r6, r7, r8, lr}
    c688:	e59f4090 	ldr	r4, [pc, #144]	; c720 <putPrompt+0xa0>
    c68c:	e59f3090 	ldr	r3, [pc, #144]	; c724 <putPrompt+0xa4>
    c690:	e08f4004 	add	r4, pc, r4
    c694:	e7943003 	ldr	r3, [r4, r3]
    c698:	e3500000 	cmp	r0, #0
    c69c:	e5931000 	ldr	r1, [r3]
    c6a0:	e1a00002 	mov	r0, r2
    c6a4:	12811001 	addne	r1, r1, #1
    c6a8:	15831000 	strne	r1, [r3]
    c6ac:	e6ef1071 	uxtb	r1, r1
    c6b0:	ebfffeb1 	bl	c17c <locate>
    c6b4:	e59f306c 	ldr	r3, [pc, #108]	; c728 <putPrompt+0xa8>
    c6b8:	e59f206c 	ldr	r2, [pc, #108]	; c72c <putPrompt+0xac>
    c6bc:	e59f506c 	ldr	r5, [pc, #108]	; c730 <putPrompt+0xb0>
    c6c0:	e7946003 	ldr	r6, [r4, r3]
    c6c4:	e7947002 	ldr	r7, [r4, r2]
    c6c8:	e08f5005 	add	r5, pc, r5
    c6cc:	e5972000 	ldr	r2, [r7]
    c6d0:	e5961000 	ldr	r1, [r6]
    c6d4:	e1a00005 	mov	r0, r5
    c6d8:	ebffff1c 	bl	c350 <writes>
    c6dc:	e59f3050 	ldr	r3, [pc, #80]	; c734 <putPrompt+0xb4>
    c6e0:	e5972000 	ldr	r2, [r7]
    c6e4:	e7943003 	ldr	r3, [r4, r3]
    c6e8:	e5961000 	ldr	r1, [r6]
    c6ec:	e5930000 	ldr	r0, [r3]
    c6f0:	ebffff16 	bl	c350 <writes>
    c6f4:	e5972000 	ldr	r2, [r7]
    c6f8:	e5961000 	ldr	r1, [r6]
    c6fc:	e2850004 	add	r0, r5, #4
    c700:	ebffff12 	bl	c350 <writes>
    c704:	e59f202c 	ldr	r2, [pc, #44]	; c738 <putPrompt+0xb8>
    c708:	e59f302c 	ldr	r3, [pc, #44]	; c73c <putPrompt+0xbc>
    c70c:	e7942002 	ldr	r2, [r4, r2]
    c710:	e7943003 	ldr	r3, [r4, r3]
    c714:	e5922000 	ldr	r2, [r2]
    c718:	e5c32000 	strb	r2, [r3]
    c71c:	e8bd81f0 	pop	{r4, r5, r6, r7, r8, pc}
    c720:	0000c744 	andeq	ip, r0, r4, asr #14
    c724:	000001b8 			; <UNDEFINED> instruction: 0x000001b8
    c728:	000000e4 	andeq	r0, r0, r4, ror #1
    c72c:	0000003c 	andeq	r0, r0, ip, lsr r0
    c730:	00009930 	andeq	r9, r0, r0, lsr r9
    c734:	000001d4 	ldrdeq	r0, [r0], -r4
    c738:	00000044 	andeq	r0, r0, r4, asr #32
    c73c:	000001a4 	andeq	r0, r0, r4, lsr #3

0000c740 <loadCFG>:
    c740:	e92d4ff0 	push	{r4, r5, r6, r7, r8, r9, sl, fp, lr}
    c744:	e59f8360 	ldr	r8, [pc, #864]	; caac <loadCFG+0x36c>
    c748:	e59f3360 	ldr	r3, [pc, #864]	; cab0 <loadCFG+0x370>
    c74c:	e24dd06c 	sub	sp, sp, #108	; 0x6c
    c750:	e08f8008 	add	r8, pc, r8
    c754:	e59f1358 	ldr	r1, [pc, #856]	; cab4 <loadCFG+0x374>
    c758:	e7984003 	ldr	r4, [r8, r3]
    c75c:	e28d300c 	add	r3, sp, #12
    c760:	e08f1001 	add	r1, pc, r1
    c764:	e1a09000 	mov	r9, r0
    c768:	e1a00003 	mov	r0, r3
    c76c:	e58d3000 	str	r3, [sp]
    c770:	e594b000 	ldr	fp, [r4]
    c774:	eb0013ff 	bl	11778 <strcpy>
    c778:	e1a01004 	mov	r1, r4
    c77c:	e59d0000 	ldr	r0, [sp]
    c780:	ebfff6ad 	bl	a23c <loadFile>
    c784:	e59f332c 	ldr	r3, [pc, #812]	; cab8 <loadCFG+0x378>
    c788:	e7983003 	ldr	r3, [r8, r3]
    c78c:	e5932000 	ldr	r2, [r3]
    c790:	e3520000 	cmp	r2, #0
    c794:	1a000083 	bne	c9a8 <loadCFG+0x268>
    c798:	e59f031c 	ldr	r0, [pc, #796]	; cabc <loadCFG+0x37c>
    c79c:	e5cd2018 	strb	r2, [sp, #24]
    c7a0:	e5cd2040 	strb	r2, [sp, #64]	; 0x40
    c7a4:	e7983000 	ldr	r3, [r8, r0]
    c7a8:	e59f1310 	ldr	r1, [pc, #784]	; cac0 <loadCFG+0x380>
    c7ac:	e58d3000 	str	r3, [sp]
    c7b0:	e7983001 	ldr	r3, [r8, r1]
    c7b4:	e28b6e7f 	add	r6, fp, #2032	; 0x7f0
    c7b8:	e1a07002 	mov	r7, r2
    c7bc:	e1a04002 	mov	r4, r2
    c7c0:	e1a0a002 	mov	sl, r2
    c7c4:	e58d3004 	str	r3, [sp, #4]
    c7c8:	e286600f 	add	r6, r6, #15
    c7cc:	e24bb001 	sub	fp, fp, #1
    c7d0:	ea000010 	b	c818 <loadCFG+0xd8>
    c7d4:	e351000d 	cmp	r1, #13
    c7d8:	0a00003f 	beq	c8dc <loadCFG+0x19c>
    c7dc:	e2410020 	sub	r0, r1, #32
    c7e0:	e350005f 	cmp	r0, #95	; 0x5f
    c7e4:	8a000007 	bhi	c808 <loadCFG+0xc8>
    c7e8:	e28d3068 	add	r3, sp, #104	; 0x68
    c7ec:	e0830004 	add	r0, r3, r4
    c7f0:	e2844001 	add	r4, r4, #1
    c7f4:	e6ef3074 	uxtb	r3, r4
    c7f8:	e1a04003 	mov	r4, r3
    c7fc:	e35a0000 	cmp	sl, #0
    c800:	05401050 	strbeq	r1, [r0, #-80]	; 0xffffffb0
    c804:	15401028 	strbne	r1, [r0, #-40]	; 0xffffffd8
    c808:	e3540028 	cmp	r4, #40	; 0x28
    c80c:	8a00007a 	bhi	c9fc <loadCFG+0x2bc>
    c810:	e15b0006 	cmp	fp, r6
    c814:	0a00000a 	beq	c844 <loadCFG+0x104>
    c818:	e5fb1001 	ldrb	r1, [fp, #1]!
    c81c:	e351003d 	cmp	r1, #61	; 0x3d
    c820:	1affffeb 	bne	c7d4 <loadCFG+0x94>
    c824:	e28d3068 	add	r3, sp, #104	; 0x68
    c828:	e0833004 	add	r3, r3, r4
    c82c:	e5437050 	strb	r7, [r3, #-80]	; 0xffffffb0
    c830:	e3a03000 	mov	r3, #0
    c834:	e15b0006 	cmp	fp, r6
    c838:	e1a0a004 	mov	sl, r4
    c83c:	e1a04003 	mov	r4, r3
    c840:	1afffff4 	bne	c818 <loadCFG+0xd8>
    c844:	e3540028 	cmp	r4, #40	; 0x28
    c848:	83a04000 	movhi	r4, #0
    c84c:	93a04001 	movls	r4, #1
    c850:	e3590000 	cmp	r9, #0
    c854:	03a04000 	moveq	r4, #0
    c858:	e3540000 	cmp	r4, #0
    c85c:	0a00000a 	beq	c88c <loadCFG+0x14c>
    c860:	e59f325c 	ldr	r3, [pc, #604]	; cac4 <loadCFG+0x384>
    c864:	e7983003 	ldr	r3, [r8, r3]
    c868:	e5933000 	ldr	r3, [r3]
    c86c:	e3530001 	cmp	r3, #1
    c870:	0a00007b 	beq	ca64 <loadCFG+0x324>
    c874:	e59f024c 	ldr	r0, [pc, #588]	; cac8 <loadCFG+0x388>
    c878:	e3a02000 	mov	r2, #0
    c87c:	e08f0000 	add	r0, pc, r0
    c880:	e280006c 	add	r0, r0, #108	; 0x6c
    c884:	e3a01040 	mov	r1, #64	; 0x40
    c888:	ebfffc1a 	bl	b8f8 <message>
    c88c:	e59d3004 	ldr	r3, [sp, #4]
    c890:	e3a00008 	mov	r0, #8
    c894:	e5932000 	ldr	r2, [r3]
    c898:	e59d3000 	ldr	r3, [sp]
    c89c:	e3a09001 	mov	r9, #1
    c8a0:	e5931000 	ldr	r1, [r3]
    c8a4:	e3a03004 	mov	r3, #4
    c8a8:	ebfffdb6 	bl	bf88 <writec>
    c8ac:	e3a01002 	mov	r1, #2
    c8b0:	e3e02027 	mvn	r2, #39	; 0x27
    c8b4:	e59f3210 	ldr	r3, [pc, #528]	; cacc <loadCFG+0x38c>
    c8b8:	e7983003 	ldr	r3, [r8, r3]
    c8bc:	e1a00003 	mov	r0, r3
    c8c0:	e5c31000 	strb	r1, [r3]
    c8c4:	e5c32001 	strb	r2, [r3, #1]
    c8c8:	e5c39002 	strb	r9, [r3, #2]
    c8cc:	eb002249 	bl	151f8 <commVDG>
    c8d0:	e1a00009 	mov	r0, r9
    c8d4:	e28dd06c 	add	sp, sp, #108	; 0x6c
    c8d8:	e8bd8ff0 	pop	{r4, r5, r6, r7, r8, r9, sl, fp, pc}
    c8dc:	e28d3068 	add	r3, sp, #104	; 0x68
    c8e0:	e35a0000 	cmp	sl, #0
    c8e4:	e0831004 	add	r1, r3, r4
    c8e8:	0541a050 	strbeq	sl, [r1, #-80]	; 0xffffffb0
    c8ec:	15417028 	strbne	r7, [r1, #-40]	; 0xffffffd8
    c8f0:	e59f11d8 	ldr	r1, [pc, #472]	; cad0 <loadCFG+0x390>
    c8f4:	e28d5018 	add	r5, sp, #24
    c8f8:	e1a00005 	mov	r0, r5
    c8fc:	e08f1001 	add	r1, pc, r1
    c900:	01a0a004 	moveq	sl, r4
    c904:	eb00138f 	bl	11748 <strcmp>
    c908:	e3500000 	cmp	r0, #0
    c90c:	1a000019 	bne	c978 <loadCFG+0x238>
    c910:	e35a0006 	cmp	sl, #6
    c914:	0a000033 	beq	c9e8 <loadCFG+0x2a8>
    c918:	e59f11b4 	ldr	r1, [pc, #436]	; cad4 <loadCFG+0x394>
    c91c:	e1a00005 	mov	r0, r5
    c920:	e08f1001 	add	r1, pc, r1
    c924:	eb001387 	bl	11748 <strcmp>
    c928:	e59f11a8 	ldr	r1, [pc, #424]	; cad8 <loadCFG+0x398>
    c92c:	e1a00005 	mov	r0, r5
    c930:	e08f1001 	add	r1, pc, r1
    c934:	eb001383 	bl	11748 <strcmp>
    c938:	e35a0004 	cmp	sl, #4
    c93c:	03500000 	cmpeq	r0, #0
    c940:	0a000006 	beq	c960 <loadCFG+0x220>
    c944:	e59f1190 	ldr	r1, [pc, #400]	; cadc <loadCFG+0x39c>
    c948:	e1a00005 	mov	r0, r5
    c94c:	e08f1001 	add	r1, pc, r1
    c950:	eb00137c 	bl	11748 <strcmp>
    c954:	e3500000 	cmp	r0, #0
    c958:	035a0005 	cmpeq	sl, #5
    c95c:	0affffb8 	beq	c844 <loadCFG+0x104>
    c960:	e3a03000 	mov	r3, #0
    c964:	e5cd7018 	strb	r7, [sp, #24]
    c968:	e1a04003 	mov	r4, r3
    c96c:	e5cd7040 	strb	r7, [sp, #64]	; 0x40
    c970:	e1a0a003 	mov	sl, r3
    c974:	eaffffa5 	b	c810 <loadCFG+0xd0>
    c978:	e59f1160 	ldr	r1, [pc, #352]	; cae0 <loadCFG+0x3a0>
    c97c:	e1a00005 	mov	r0, r5
    c980:	e08f1001 	add	r1, pc, r1
    c984:	eb00136f 	bl	11748 <strcmp>
    c988:	e3500000 	cmp	r0, #0
    c98c:	035a0006 	cmpeq	sl, #6
    c990:	1affffe4 	bne	c928 <loadCFG+0x1e8>
    c994:	e28d0040 	add	r0, sp, #64	; 0x40
    c998:	eb00135b 	bl	1170c <atoi>
    c99c:	e59d3004 	ldr	r3, [sp, #4]
    c9a0:	e5830000 	str	r0, [r3]
    c9a4:	eaffffed 	b	c960 <loadCFG+0x220>
    c9a8:	e3590000 	cmp	r9, #0
    c9ac:	0a00000a 	beq	c9dc <loadCFG+0x29c>
    c9b0:	e59f310c 	ldr	r3, [pc, #268]	; cac4 <loadCFG+0x384>
    c9b4:	e7983003 	ldr	r3, [r8, r3]
    c9b8:	e5933000 	ldr	r3, [r3]
    c9bc:	e3530001 	cmp	r3, #1
    c9c0:	0a00001b 	beq	ca34 <loadCFG+0x2f4>
    c9c4:	e59f0118 	ldr	r0, [pc, #280]	; cae4 <loadCFG+0x3a4>
    c9c8:	e3a02000 	mov	r2, #0
    c9cc:	e08f0000 	add	r0, pc, r0
    c9d0:	e28000ac 	add	r0, r0, #172	; 0xac
    c9d4:	e3a01040 	mov	r1, #64	; 0x40
    c9d8:	ebfffbc6 	bl	b8f8 <message>
    c9dc:	e3a00000 	mov	r0, #0
    c9e0:	e28dd06c 	add	sp, sp, #108	; 0x6c
    c9e4:	e8bd8ff0 	pop	{r4, r5, r6, r7, r8, r9, sl, fp, pc}
    c9e8:	e28d0040 	add	r0, sp, #64	; 0x40
    c9ec:	eb001346 	bl	1170c <atoi>
    c9f0:	e59d3000 	ldr	r3, [sp]
    c9f4:	e5830000 	str	r0, [r3]
    c9f8:	eaffffd8 	b	c960 <loadCFG+0x220>
    c9fc:	e3590000 	cmp	r9, #0
    ca00:	0affffa1 	beq	c88c <loadCFG+0x14c>
    ca04:	e59f30b8 	ldr	r3, [pc, #184]	; cac4 <loadCFG+0x384>
    ca08:	e7983003 	ldr	r3, [r8, r3]
    ca0c:	e5933000 	ldr	r3, [r3]
    ca10:	e3530001 	cmp	r3, #1
    ca14:	0a00001b 	beq	ca88 <loadCFG+0x348>
    ca18:	e59f00c8 	ldr	r0, [pc, #200]	; cae8 <loadCFG+0x3a8>
    ca1c:	e3a02000 	mov	r2, #0
    ca20:	e08f0000 	add	r0, pc, r0
    ca24:	e3a01040 	mov	r1, #64	; 0x40
    ca28:	e2800028 	add	r0, r0, #40	; 0x28
    ca2c:	ebfffbb1 	bl	b8f8 <message>
    ca30:	eaffff95 	b	c88c <loadCFG+0x14c>
    ca34:	e59f2084 	ldr	r2, [pc, #132]	; cac0 <loadCFG+0x380>
    ca38:	e59f307c 	ldr	r3, [pc, #124]	; cabc <loadCFG+0x37c>
    ca3c:	e59f00a8 	ldr	r0, [pc, #168]	; caec <loadCFG+0x3ac>
    ca40:	e7982002 	ldr	r2, [r8, r2]
    ca44:	e7983003 	ldr	r3, [r8, r3]
    ca48:	e08f0000 	add	r0, pc, r0
    ca4c:	e280008c 	add	r0, r0, #140	; 0x8c
    ca50:	e5922000 	ldr	r2, [r2]
    ca54:	e5931000 	ldr	r1, [r3]
    ca58:	ebfffe3c 	bl	c350 <writes>
    ca5c:	e3a00000 	mov	r0, #0
    ca60:	eaffffde 	b	c9e0 <loadCFG+0x2a0>
    ca64:	e59d3004 	ldr	r3, [sp, #4]
    ca68:	e59f0080 	ldr	r0, [pc, #128]	; caf0 <loadCFG+0x3b0>
    ca6c:	e5932000 	ldr	r2, [r3]
    ca70:	e59d3000 	ldr	r3, [sp]
    ca74:	e08f0000 	add	r0, pc, r0
    ca78:	e2800048 	add	r0, r0, #72	; 0x48
    ca7c:	e5931000 	ldr	r1, [r3]
    ca80:	ebfffe32 	bl	c350 <writes>
    ca84:	eaffff80 	b	c88c <loadCFG+0x14c>
    ca88:	e59d3004 	ldr	r3, [sp, #4]
    ca8c:	e59f0060 	ldr	r0, [pc, #96]	; caf4 <loadCFG+0x3b4>
    ca90:	e5932000 	ldr	r2, [r3]
    ca94:	e59d3000 	ldr	r3, [sp]
    ca98:	e08f0000 	add	r0, pc, r0
    ca9c:	e2800008 	add	r0, r0, #8
    caa0:	e5931000 	ldr	r1, [r3]
    caa4:	ebfffe29 	bl	c350 <writes>
    caa8:	eaffff77 	b	c88c <loadCFG+0x14c>
    caac:	0000c684 	andeq	ip, r0, r4, lsl #13
    cab0:	0000005c 	andeq	r0, r0, ip, asr r0
    cab4:	00009d6c 	andeq	r9, r0, ip, ror #26
    cab8:	00000010 	andeq	r0, r0, r0, lsl r0
    cabc:	000000e4 	andeq	r0, r0, r4, ror #1
    cac0:	0000003c 	andeq	r0, r0, ip, lsr r0
    cac4:	00000158 	andeq	r0, r0, r8, asr r1
    cac8:	0000977c 	andeq	r9, r0, ip, ror r7
    cacc:	0000012c 	andeq	r0, r0, ip, lsr #2
    cad0:	00009bdc 	ldrdeq	r9, [r0], -ip
    cad4:	00009bc0 	andeq	r9, r0, r0, asr #23
    cad8:	00009bb8 			; <UNDEFINED> instruction: 0x00009bb8
    cadc:	00009ba4 	andeq	r9, r0, r4, lsr #23
    cae0:	00009b60 	andeq	r9, r0, r0, ror #22
    cae4:	0000962c 	andeq	r9, r0, ip, lsr #12
    cae8:	000095d8 	ldrdeq	r9, [r0], -r8
    caec:	000095b0 			; <UNDEFINED> instruction: 0x000095b0
    caf0:	00009584 	andeq	r9, r0, r4, lsl #11
    caf4:	00009560 	andeq	r9, r0, r0, ror #10

0000caf8 <catFile>:
    caf8:	e1a03000 	mov	r3, r0
    cafc:	e92d4070 	push	{r4, r5, r6, lr}
    cb00:	e59f6150 	ldr	r6, [pc, #336]	; cc58 <catFile+0x160>
    cb04:	e59f2150 	ldr	r2, [pc, #336]	; cc5c <catFile+0x164>
    cb08:	e08f6006 	add	r6, pc, r6
    cb0c:	e7961002 	ldr	r1, [r6, r2]
    cb10:	e5914000 	ldr	r4, [r1]
    cb14:	e4d35001 	ldrb	r5, [r3], #1
    cb18:	e3550000 	cmp	r5, #0
    cb1c:	1afffffc 	bne	cb14 <catFile+0x1c>
    cb20:	ebfff5c5 	bl	a23c <loadFile>
    cb24:	e59f3134 	ldr	r3, [pc, #308]	; cc60 <catFile+0x168>
    cb28:	e7963003 	ldr	r3, [r6, r3]
    cb2c:	e5933000 	ldr	r3, [r3]
    cb30:	e3530000 	cmp	r3, #0
    cb34:	1a000022 	bne	cbc4 <catFile+0xcc>
    cb38:	e3500000 	cmp	r0, #0
    cb3c:	08bd8070 	popeq	{r4, r5, r6, pc}
    cb40:	e2444001 	sub	r4, r4, #1
    cb44:	e0845000 	add	r5, r4, r0
    cb48:	ea00000e 	b	cb88 <catFile+0x90>
    cb4c:	e350000a 	cmp	r0, #10
    cb50:	0a000027 	beq	cbf4 <catFile+0xfc>
    cb54:	e3500000 	cmp	r0, #0
    cb58:	1350001a 	cmpne	r0, #26
    cb5c:	08bd8070 	popeq	{r4, r5, r6, pc}
    cb60:	e7961001 	ldr	r1, [r6, r1]
    cb64:	e7962002 	ldr	r2, [r6, r2]
    cb68:	e353005f 	cmp	r3, #95	; 0x5f
    cb6c:	83a00020 	movhi	r0, #32
    cb70:	e5911000 	ldr	r1, [r1]
    cb74:	e5922000 	ldr	r2, [r2]
    cb78:	e3a03003 	mov	r3, #3
    cb7c:	ebfffd01 	bl	bf88 <writec>
    cb80:	e1540005 	cmp	r4, r5
    cb84:	08bd8070 	popeq	{r4, r5, r6, pc}
    cb88:	e5f40001 	ldrb	r0, [r4, #1]!
    cb8c:	e59f10d0 	ldr	r1, [pc, #208]	; cc64 <catFile+0x16c>
    cb90:	e350000d 	cmp	r0, #13
    cb94:	e59f20cc 	ldr	r2, [pc, #204]	; cc68 <catFile+0x170>
    cb98:	e2403020 	sub	r3, r0, #32
    cb9c:	1affffea 	bne	cb4c <catFile+0x54>
    cba0:	e3a02000 	mov	r2, #0
    cba4:	e59f30c0 	ldr	r3, [pc, #192]	; cc6c <catFile+0x174>
    cba8:	e1a00002 	mov	r0, r2
    cbac:	e7963003 	ldr	r3, [r6, r3]
    cbb0:	e5d31000 	ldrb	r1, [r3]
    cbb4:	ebfffd70 	bl	c17c <locate>
    cbb8:	e1540005 	cmp	r4, r5
    cbbc:	1afffff1 	bne	cb88 <catFile+0x90>
    cbc0:	e8bd8070 	pop	{r4, r5, r6, pc}
    cbc4:	e59f30a4 	ldr	r3, [pc, #164]	; cc70 <catFile+0x178>
    cbc8:	e7963003 	ldr	r3, [r6, r3]
    cbcc:	e5933000 	ldr	r3, [r3]
    cbd0:	e3530001 	cmp	r3, #1
    cbd4:	0a000014 	beq	cc2c <catFile+0x134>
    cbd8:	e59f0094 	ldr	r0, [pc, #148]	; cc74 <catFile+0x17c>
    cbdc:	e1a02005 	mov	r2, r5
    cbe0:	e8bd4070 	pop	{r4, r5, r6, lr}
    cbe4:	e08f0000 	add	r0, pc, r0
    cbe8:	e28000e0 	add	r0, r0, #224	; 0xe0
    cbec:	e3a01040 	mov	r1, #64	; 0x40
    cbf0:	eafffb40 	b	b8f8 <message>
    cbf4:	e59f2070 	ldr	r2, [pc, #112]	; cc6c <catFile+0x174>
    cbf8:	e59f3078 	ldr	r3, [pc, #120]	; cc78 <catFile+0x180>
    cbfc:	e7960002 	ldr	r0, [r6, r2]
    cc00:	e3a02000 	mov	r2, #0
    cc04:	e5901000 	ldr	r1, [r0]
    cc08:	e2811001 	add	r1, r1, #1
    cc0c:	e5801000 	str	r1, [r0]
    cc10:	e7963003 	ldr	r3, [r6, r3]
    cc14:	e6ef1071 	uxtb	r1, r1
    cc18:	e5d30000 	ldrb	r0, [r3]
    cc1c:	ebfffd56 	bl	c17c <locate>
    cc20:	e1540005 	cmp	r4, r5
    cc24:	1affffd7 	bne	cb88 <catFile+0x90>
    cc28:	e8bd8070 	pop	{r4, r5, r6, pc}
    cc2c:	e59f2034 	ldr	r2, [pc, #52]	; cc68 <catFile+0x170>
    cc30:	e59f302c 	ldr	r3, [pc, #44]	; cc64 <catFile+0x16c>
    cc34:	e59f0040 	ldr	r0, [pc, #64]	; cc7c <catFile+0x184>
    cc38:	e7962002 	ldr	r2, [r6, r2]
    cc3c:	e7963003 	ldr	r3, [r6, r3]
    cc40:	e08f0000 	add	r0, pc, r0
    cc44:	e5922000 	ldr	r2, [r2]
    cc48:	e5931000 	ldr	r1, [r3]
    cc4c:	e28000c8 	add	r0, r0, #200	; 0xc8
    cc50:	e8bd4070 	pop	{r4, r5, r6, lr}
    cc54:	eafffdbd 	b	c350 <writes>
    cc58:	0000c2cc 	andeq	ip, r0, ip, asr #5
    cc5c:	0000005c 	andeq	r0, r0, ip, asr r0
    cc60:	00000010 	andeq	r0, r0, r0, lsl r0
    cc64:	000000e4 	andeq	r0, r0, r4, ror #1
    cc68:	0000003c 	andeq	r0, r0, ip, lsr r0
    cc6c:	000001b8 			; <UNDEFINED> instruction: 0x000001b8
    cc70:	00000158 	andeq	r0, r0, r8, asr r1
    cc74:	00009414 	andeq	r9, r0, r4, lsl r4
    cc78:	00000044 	andeq	r0, r0, r4, asr #32
    cc7c:	000093b8 			; <UNDEFINED> instruction: 0x000093b8

0000cc80 <waitButton>:
    cc80:	e92d4070 	push	{r4, r5, r6, lr}
    cc84:	e3a00001 	mov	r0, #1
    cc88:	ebfffa5f 	bl	b60c <VerifyTouchLcd>
    cc8c:	e59f20b0 	ldr	r2, [pc, #176]	; cd44 <waitButton+0xc4>
    cc90:	e59fc0b0 	ldr	ip, [pc, #176]	; cd48 <waitButton+0xc8>
    cc94:	e08f2002 	add	r2, pc, r2
    cc98:	e59f00ac 	ldr	r0, [pc, #172]	; cd4c <waitButton+0xcc>
    cc9c:	e59f10ac 	ldr	r1, [pc, #172]	; cd50 <waitButton+0xd0>
    cca0:	e792e00c 	ldr	lr, [r2, ip]
    cca4:	e792c000 	ldr	ip, [r2, r0]
    cca8:	e59e4000 	ldr	r4, [lr]
    ccac:	e7920001 	ldr	r0, [r2, r1]
    ccb0:	e59f109c 	ldr	r1, [pc, #156]	; cd54 <waitButton+0xd4>
    ccb4:	e3a03001 	mov	r3, #1
    ccb8:	e59cc000 	ldr	ip, [ip]
    ccbc:	e5905000 	ldr	r5, [r0]
    ccc0:	e7921001 	ldr	r1, [r2, r1]
    ccc4:	e284600a 	add	r6, r4, #10
    ccc8:	e5f12001 	ldrb	r2, [r1, #1]!
    cccc:	e2830001 	add	r0, r3, #1
    ccd0:	e3520000 	cmp	r2, #0
    ccd4:	0a000008 	beq	ccfc <waitButton+0x7c>
    ccd8:	e152000c 	cmp	r2, ip
    ccdc:	e282e020 	add	lr, r2, #32
    cce0:	8a000005 	bhi	ccfc <waitButton+0x7c>
    cce4:	e15c000e 	cmp	ip, lr
    cce8:	8a000003 	bhi	ccfc <waitButton+0x7c>
    ccec:	e1550004 	cmp	r5, r4
    ccf0:	3a000001 	bcc	ccfc <waitButton+0x7c>
    ccf4:	e1550006 	cmp	r5, r6
    ccf8:	9a000004 	bls	cd10 <waitButton+0x90>
    ccfc:	e6ef3070 	uxtb	r3, r0
    cd00:	e3530008 	cmp	r3, #8
    cd04:	1affffef 	bne	ccc8 <waitButton+0x48>
    cd08:	e3a00000 	mov	r0, #0
    cd0c:	e8bd8070 	pop	{r4, r5, r6, pc}
    cd10:	e3530001 	cmp	r3, #1
    cd14:	0a000008 	beq	cd3c <waitButton+0xbc>
    cd18:	e3a02001 	mov	r2, #1
    cd1c:	e1a00002 	mov	r0, r2
    cd20:	e2822001 	add	r2, r2, #1
    cd24:	e6ef2072 	uxtb	r2, r2
    cd28:	e1520003 	cmp	r2, r3
    cd2c:	e1a00080 	lsl	r0, r0, #1
    cd30:	e6ef0070 	uxtb	r0, r0
    cd34:	1afffff9 	bne	cd20 <waitButton+0xa0>
    cd38:	e8bd8070 	pop	{r4, r5, r6, pc}
    cd3c:	e1a00003 	mov	r0, r3
    cd40:	e8bd8070 	pop	{r4, r5, r6, pc}
    cd44:	0000c140 	andeq	ip, r0, r0, asr #2
    cd48:	00000014 	andeq	r0, r0, r4, lsl r0
    cd4c:	000001c4 	andeq	r0, r0, r4, asr #3
    cd50:	00000078 	andeq	r0, r0, r8, ror r0
    cd54:	000001d0 	ldrdeq	r0, [r0], -r0	; <UNPREDICTABLE>

0000cd58 <fillin>:
    cd58:	e92d4ff0 	push	{r4, r5, r6, r7, r8, r9, sl, fp, lr}
    cd5c:	e5d04000 	ldrb	r4, [r0]
    cd60:	e59f7320 	ldr	r7, [pc, #800]	; d088 <fillin+0x330>
    cd64:	e24dd014 	sub	sp, sp, #20
    cd68:	e3540000 	cmp	r4, #0
    cd6c:	e1a06000 	mov	r6, r0
    cd70:	e1a08001 	mov	r8, r1
    cd74:	e1a05000 	mov	r5, r0
    cd78:	e1a0a002 	mov	sl, r2
    cd7c:	e1a09003 	mov	r9, r3
    cd80:	e08f7007 	add	r7, pc, r7
    cd84:	e5ddc038 	ldrb	ip, [sp, #56]	; 0x38
    cd88:	0a000004 	beq	cda0 <fillin+0x48>
    cd8c:	e3a04000 	mov	r4, #0
    cd90:	e5f53001 	ldrb	r3, [r5, #1]!
    cd94:	e2844008 	add	r4, r4, #8
    cd98:	e3530000 	cmp	r3, #0
    cd9c:	1afffffb 	bne	cd90 <fillin+0x38>
    cda0:	e35c0001 	cmp	ip, #1
    cda4:	0a000024 	beq	ce3c <fillin+0xe4>
    cda8:	e35c0000 	cmp	ip, #0
    cdac:	1a000020 	bne	ce34 <fillin+0xdc>
    cdb0:	e1a0100a 	mov	r1, sl
    cdb4:	e58dc000 	str	ip, [sp]
    cdb8:	e3a0300a 	mov	r3, #10
    cdbc:	e1a02009 	mov	r2, r9
    cdc0:	e1a00008 	mov	r0, r8
    cdc4:	ebfff84d 	bl	af00 <DrawRect>
    cdc8:	e59f22bc 	ldr	r2, [pc, #700]	; d08c <fillin+0x334>
    cdcc:	e28a1001 	add	r1, sl, #1
    cdd0:	e58d2000 	str	r2, [sp]
    cdd4:	e3a03008 	mov	r3, #8
    cdd8:	e2492002 	sub	r2, r9, #2
    cddc:	e2880001 	add	r0, r8, #1
    cde0:	ebfff808 	bl	ae08 <FillRect>
    cde4:	e28aa002 	add	sl, sl, #2
    cde8:	e1a0100a 	mov	r1, sl
    cdec:	e2880002 	add	r0, r8, #2
    cdf0:	e2466001 	sub	r6, r6, #1
    cdf4:	ebfff7aa 	bl	aca4 <locatexy>
    cdf8:	e59f428c 	ldr	r4, [pc, #652]	; d08c <fillin+0x334>
    cdfc:	ea000009 	b	ce28 <fillin+0xd0>
    ce00:	e1a03004 	mov	r3, r4
    ce04:	e3a02000 	mov	r2, #0
    ce08:	e3a00008 	mov	r0, #8
    ce0c:	ebfff775 	bl	abe8 <writecxy>
    ce10:	e59f2278 	ldr	r2, [pc, #632]	; d090 <fillin+0x338>
    ce14:	e0883009 	add	r3, r8, r9
    ce18:	e7972002 	ldr	r2, [r7, r2]
    ce1c:	e5922000 	ldr	r2, [r2]
    ce20:	e1530002 	cmp	r3, r2
    ce24:	9a000002 	bls	ce34 <fillin+0xdc>
    ce28:	e5f61001 	ldrb	r1, [r6, #1]!
    ce2c:	e3510000 	cmp	r1, #0
    ce30:	1afffff2 	bne	ce00 <fillin+0xa8>
    ce34:	e28dd014 	add	sp, sp, #20
    ce38:	e8bd8ff0 	pop	{r4, r5, r6, r7, r8, r9, sl, fp, pc}
    ce3c:	e59f3250 	ldr	r3, [pc, #592]	; d094 <fillin+0x33c>
    ce40:	e7973003 	ldr	r3, [r7, r3]
    ce44:	e58d3008 	str	r3, [sp, #8]
    ce48:	e5d33000 	ldrb	r3, [r3]
    ce4c:	e3530000 	cmp	r3, #0
    ce50:	0a00001b 	beq	cec4 <fillin+0x16c>
    ce54:	e59f323c 	ldr	r3, [pc, #572]	; d098 <fillin+0x340>
    ce58:	e7973003 	ldr	r3, [r7, r3]
    ce5c:	e5d3b000 	ldrb	fp, [r3]
    ce60:	e35b00ff 	cmp	fp, #255	; 0xff
    ce64:	0a000074 	beq	d03c <fillin+0x2e4>
    ce68:	e24b2020 	sub	r2, fp, #32
    ce6c:	e352005f 	cmp	r2, #95	; 0x5f
    ce70:	8a00003f 	bhi	cf74 <fillin+0x21c>
    ce74:	e0880004 	add	r0, r8, r4
    ce78:	e2801008 	add	r1, r0, #8
    ce7c:	e0882009 	add	r2, r8, r9
    ce80:	e1510002 	cmp	r1, r2
    ce84:	2affffea 	bcs	ce34 <fillin+0xdc>
    ce88:	e3a04000 	mov	r4, #0
    ce8c:	e28aa002 	add	sl, sl, #2
    ce90:	e1a0100a 	mov	r1, sl
    ce94:	e5c5b000 	strb	fp, [r5]
    ce98:	e2800002 	add	r0, r0, #2
    ce9c:	e5c54001 	strb	r4, [r5, #1]
    cea0:	e58d3008 	str	r3, [sp, #8]
    cea4:	ebfff77e 	bl	aca4 <locatexy>
    cea8:	e59d3008 	ldr	r3, [sp, #8]
    ceac:	e1a02004 	mov	r2, r4
    ceb0:	e5d31000 	ldrb	r1, [r3]
    ceb4:	e3a00008 	mov	r0, #8
    ceb8:	e59f31cc 	ldr	r3, [pc, #460]	; d08c <fillin+0x334>
    cebc:	ebfff749 	bl	abe8 <writecxy>
    cec0:	eaffffc8 	b	cde8 <fillin+0x90>
    cec4:	e59f21d0 	ldr	r2, [pc, #464]	; d09c <fillin+0x344>
    cec8:	e7972002 	ldr	r2, [r7, r2]
    cecc:	e58d200c 	str	r2, [sp, #12]
    ced0:	e5922000 	ldr	r2, [r2]
    ced4:	e1520008 	cmp	r2, r8
    ced8:	3a00001d 	bcc	cf54 <fillin+0x1fc>
    cedc:	e0881009 	add	r1, r8, r9
    cee0:	e1520001 	cmp	r2, r1
    cee4:	8a00001a 	bhi	cf54 <fillin+0x1fc>
    cee8:	e59f21b0 	ldr	r2, [pc, #432]	; d0a0 <fillin+0x348>
    ceec:	e7972002 	ldr	r2, [r7, r2]
    cef0:	e5922000 	ldr	r2, [r2]
    cef4:	e152000a 	cmp	r2, sl
    cef8:	3a000015 	bcc	cf54 <fillin+0x1fc>
    cefc:	e28a100a 	add	r1, sl, #10
    cf00:	e1520001 	cmp	r2, r1
    cf04:	8a000012 	bhi	cf54 <fillin+0x1fc>
    cf08:	e59de008 	ldr	lr, [sp, #8]
    cf0c:	e28a200c 	add	r2, sl, #12
    cf10:	e58d2004 	str	r2, [sp, #4]
    cf14:	e58d8000 	str	r8, [sp]
    cf18:	e1a02003 	mov	r2, r3
    cf1c:	e1a0100c 	mov	r1, ip
    cf20:	e1a0000c 	mov	r0, ip
    cf24:	e5cec000 	strb	ip, [lr]
    cf28:	ebffee2b 	bl	87dc <funcKey>
    cf2c:	e59f3164 	ldr	r3, [pc, #356]	; d098 <fillin+0x340>
    cf30:	e7973003 	ldr	r3, [r7, r3]
    cf34:	e5d3b000 	ldrb	fp, [r3]
    cf38:	e35b00ff 	cmp	fp, #255	; 0xff
    cf3c:	1affffc9 	bne	ce68 <fillin+0x110>
    cf40:	e59d3008 	ldr	r3, [sp, #8]
    cf44:	e5d33000 	ldrb	r3, [r3]
    cf48:	e3530000 	cmp	r3, #0
    cf4c:	0affffb8 	beq	ce34 <fillin+0xdc>
    cf50:	ea00003c 	b	d048 <fillin+0x2f0>
    cf54:	e59f313c 	ldr	r3, [pc, #316]	; d098 <fillin+0x340>
    cf58:	e7973003 	ldr	r3, [r7, r3]
    cf5c:	e5d3b000 	ldrb	fp, [r3]
    cf60:	e35b00ff 	cmp	fp, #255	; 0xff
    cf64:	0affffb2 	beq	ce34 <fillin+0xdc>
    cf68:	e24b2020 	sub	r2, fp, #32
    cf6c:	e352005f 	cmp	r2, #95	; 0x5f
    cf70:	9affffbf 	bls	ce74 <fillin+0x11c>
    cf74:	e35b0008 	cmp	fp, #8
    cf78:	0a000010 	beq	cfc0 <fillin+0x268>
    cf7c:	e35b000d 	cmp	fp, #13
    cf80:	1affffab 	bne	ce34 <fillin+0xdc>
    cf84:	e59d3008 	ldr	r3, [sp, #8]
    cf88:	e5d33000 	ldrb	r3, [r3]
    cf8c:	e3530000 	cmp	r3, #0
    cf90:	0affffa7 	beq	ce34 <fillin+0xdc>
    cf94:	e3a0c000 	mov	ip, #0
    cf98:	e59de008 	ldr	lr, [sp, #8]
    cf9c:	e28aa00c 	add	sl, sl, #12
    cfa0:	e88d0500 	stm	sp, {r8, sl}
    cfa4:	e1a0300c 	mov	r3, ip
    cfa8:	e1a0200c 	mov	r2, ip
    cfac:	e3a01002 	mov	r1, #2
    cfb0:	e3a00001 	mov	r0, #1
    cfb4:	e5cec000 	strb	ip, [lr]
    cfb8:	ebffee07 	bl	87dc <funcKey>
    cfbc:	eaffff9c 	b	ce34 <fillin+0xdc>
    cfc0:	e59f30c8 	ldr	r3, [pc, #200]	; d090 <fillin+0x338>
    cfc4:	e288800a 	add	r8, r8, #10
    cfc8:	e7974003 	ldr	r4, [r7, r3]
    cfcc:	e5943000 	ldr	r3, [r4]
    cfd0:	e1580003 	cmp	r8, r3
    cfd4:	2affff96 	bcs	ce34 <fillin+0xdc>
    cfd8:	e3a08000 	mov	r8, #0
    cfdc:	e4458001 	strb	r8, [r5], #-1
    cfe0:	e1560005 	cmp	r6, r5
    cfe4:	21a05006 	movcs	r5, r6
    cfe8:	e5c58000 	strb	r8, [r5]
    cfec:	e5941000 	ldr	r1, [r4]
    cff0:	e59f20ac 	ldr	r2, [pc, #172]	; d0a4 <fillin+0x34c>
    cff4:	e2411008 	sub	r1, r1, #8
    cff8:	e59f30a8 	ldr	r3, [pc, #168]	; d0a8 <fillin+0x350>
    cffc:	e5841000 	str	r1, [r4]
    d000:	e7972002 	ldr	r2, [r7, r2]
    d004:	e7973003 	ldr	r3, [r7, r3]
    d008:	e5d21000 	ldrb	r1, [r2]
    d00c:	e5d30000 	ldrb	r0, [r3]
    d010:	e1a02008 	mov	r2, r8
    d014:	ebfffc58 	bl	c17c <locate>
    d018:	e59f306c 	ldr	r3, [pc, #108]	; d08c <fillin+0x334>
    d01c:	e1a02008 	mov	r2, r8
    d020:	e1a0100b 	mov	r1, fp
    d024:	e1a0000b 	mov	r0, fp
    d028:	ebfff6ee 	bl	abe8 <writecxy>
    d02c:	e5943000 	ldr	r3, [r4]
    d030:	e2433008 	sub	r3, r3, #8
    d034:	e5843000 	str	r3, [r4]
    d038:	eaffff7d 	b	ce34 <fillin+0xdc>
    d03c:	e59f3058 	ldr	r3, [pc, #88]	; d09c <fillin+0x344>
    d040:	e7973003 	ldr	r3, [r7, r3]
    d044:	e58d300c 	str	r3, [sp, #12]
    d048:	e59d300c 	ldr	r3, [sp, #12]
    d04c:	e5933000 	ldr	r3, [r3]
    d050:	e1530008 	cmp	r3, r8
    d054:	3affffce 	bcc	cf94 <fillin+0x23c>
    d058:	e0889009 	add	r9, r8, r9
    d05c:	e1530009 	cmp	r3, r9
    d060:	8affffcb 	bhi	cf94 <fillin+0x23c>
    d064:	e59f3034 	ldr	r3, [pc, #52]	; d0a0 <fillin+0x348>
    d068:	e7973003 	ldr	r3, [r7, r3]
    d06c:	e5933000 	ldr	r3, [r3]
    d070:	e153000a 	cmp	r3, sl
    d074:	3affffc6 	bcc	cf94 <fillin+0x23c>
    d078:	e28a200a 	add	r2, sl, #10
    d07c:	e1530002 	cmp	r3, r2
    d080:	9affff6b 	bls	ce34 <fillin+0xdc>
    d084:	eaffffc2 	b	cf94 <fillin+0x23c>
    d088:	0000c054 	andeq	ip, r0, r4, asr r0
    d08c:	0000ffff 	strdeq	pc, [r0], -pc	; <UNPREDICTABLE>
    d090:	00000164 	andeq	r0, r0, r4, ror #2
    d094:	00000050 	andeq	r0, r0, r0, asr r0
    d098:	000000b8 	strheq	r0, [r0], -r8
    d09c:	000001c4 	andeq	r0, r0, r4, asr #3
    d0a0:	00000078 	andeq	r0, r0, r8, ror r0
    d0a4:	000001b8 			; <UNDEFINED> instruction: 0x000001b8
    d0a8:	00000044 	andeq	r0, r0, r4, asr #32

0000d0ac <executeCmd>:
    d0ac:	e92d4070 	push	{r4, r5, r6, lr}
    d0b0:	e3a05000 	mov	r5, #0
    d0b4:	e24dd048 	sub	sp, sp, #72	; 0x48
    d0b8:	e59f61b8 	ldr	r6, [pc, #440]	; d278 <executeCmd+0x1cc>
    d0bc:	e59f31b8 	ldr	r3, [pc, #440]	; d27c <executeCmd+0x1d0>
    d0c0:	e28d4048 	add	r4, sp, #72	; 0x48
    d0c4:	e59f11b4 	ldr	r1, [pc, #436]	; d280 <executeCmd+0x1d4>
    d0c8:	e08f6006 	add	r6, pc, r6
    d0cc:	e5645040 	strb	r5, [r4, #-64]!	; 0xffffffc0
    d0d0:	e7960003 	ldr	r0, [r6, r3]
    d0d4:	e08f1001 	add	r1, pc, r1
    d0d8:	eb0011a6 	bl	11778 <strcpy>
    d0dc:	e3a0e00a 	mov	lr, #10
    d0e0:	e3a0c028 	mov	ip, #40	; 0x28
    d0e4:	e3a00f46 	mov	r0, #280	; 0x118
    d0e8:	e3a01032 	mov	r1, #50	; 0x32
    d0ec:	e3a02003 	mov	r2, #3
    d0f0:	e59f318c 	ldr	r3, [pc, #396]	; d284 <executeCmd+0x1d8>
    d0f4:	e7963003 	ldr	r3, [r6, r3]
    d0f8:	e583e000 	str	lr, [r3]
    d0fc:	e1c300f8 	strd	r0, [r3, #8]
    d100:	e583c004 	str	ip, [r3, #4]
    d104:	e5832010 	str	r2, [r3, #16]
    d108:	ebfffafd 	bl	bd04 <showWindow>
    d10c:	e59f3174 	ldr	r3, [pc, #372]	; d288 <executeCmd+0x1dc>
    d110:	e59f1174 	ldr	r1, [pc, #372]	; d28c <executeCmd+0x1e0>
    d114:	e7962003 	ldr	r2, [r6, r3]
    d118:	e59f3170 	ldr	r3, [pc, #368]	; d290 <executeCmd+0x1e4>
    d11c:	e5920000 	ldr	r0, [r2]
    d120:	e08f3003 	add	r3, pc, r3
    d124:	e58d0004 	str	r0, [sp, #4]
    d128:	e7960001 	ldr	r0, [r6, r1]
    d12c:	e3a02008 	mov	r2, #8
    d130:	e590c000 	ldr	ip, [r0]
    d134:	e3a01037 	mov	r1, #55	; 0x37
    d138:	e3a0000c 	mov	r0, #12
    d13c:	e58dc000 	str	ip, [sp]
    d140:	ebfff674 	bl	ab18 <writesxy>
    d144:	e58d5000 	str	r5, [sp]
    d148:	e1a00004 	mov	r0, r4
    d14c:	e3a030a0 	mov	r3, #160	; 0xa0
    d150:	e3a02037 	mov	r2, #55	; 0x37
    d154:	e3a01054 	mov	r1, #84	; 0x54
    d158:	ebfffefe 	bl	cd58 <fillin>
    d15c:	e3a05001 	mov	r5, #1
    d160:	e3a030a0 	mov	r3, #160	; 0xa0
    d164:	e3a02037 	mov	r2, #55	; 0x37
    d168:	e3a01054 	mov	r1, #84	; 0x54
    d16c:	e1a00004 	mov	r0, r4
    d170:	e58d5000 	str	r5, [sp]
    d174:	ebfffef7 	bl	cd58 <fillin>
    d178:	ebfffec0 	bl	cc80 <waitButton>
    d17c:	e2403001 	sub	r3, r0, #1
    d180:	e6ef3073 	uxtb	r3, r3
    d184:	e3530001 	cmp	r3, #1
    d188:	8afffff4 	bhi	d160 <executeCmd+0xb4>
    d18c:	e3500001 	cmp	r0, #1
    d190:	0a000001 	beq	d19c <executeCmd+0xf0>
    d194:	e28dd048 	add	sp, sp, #72	; 0x48
    d198:	e8bd8070 	pop	{r4, r5, r6, pc}
    d19c:	e59f30f0 	ldr	r3, [pc, #240]	; d294 <executeCmd+0x1e8>
    d1a0:	e1a01004 	mov	r1, r4
    d1a4:	e7965003 	ldr	r5, [r6, r3]
    d1a8:	e5950000 	ldr	r0, [r5]
    d1ac:	eb001171 	bl	11778 <strcpy>
    d1b0:	e3a02039 	mov	r2, #57	; 0x39
    d1b4:	e3a01068 	mov	r1, #104	; 0x68
    d1b8:	e3a00090 	mov	r0, #144	; 0x90
    d1bc:	ebfff87e 	bl	b3bc <MostraIcone>
    d1c0:	eb0001f1 	bl	d98c <processCmd>
    d1c4:	e59f30cc 	ldr	r3, [pc, #204]	; d298 <executeCmd+0x1ec>
    d1c8:	e7964003 	ldr	r4, [r6, r3]
    d1cc:	ea000002 	b	d1dc <executeCmd+0x130>
    d1d0:	ebfffeaa 	bl	cc80 <waitButton>
    d1d4:	e3500040 	cmp	r0, #64	; 0x40
    d1d8:	0a000007 	beq	d1fc <executeCmd+0x150>
    d1dc:	e5943000 	ldr	r3, [r4]
    d1e0:	e3530000 	cmp	r3, #0
    d1e4:	1afffff9 	bne	d1d0 <executeCmd+0x124>
    d1e8:	e3a02000 	mov	r2, #0
    d1ec:	e5953000 	ldr	r3, [r5]
    d1f0:	e5c32000 	strb	r2, [r3]
    d1f4:	e28dd048 	add	sp, sp, #72	; 0x48
    d1f8:	e8bd8070 	pop	{r4, r5, r6, pc}
    d1fc:	e5940000 	ldr	r0, [r4]
    d200:	e3500000 	cmp	r0, #0
    d204:	0afffff7 	beq	d1e8 <executeCmd+0x13c>
    d208:	e3a03000 	mov	r3, #0
    d20c:	e59f1088 	ldr	r1, [pc, #136]	; d29c <executeCmd+0x1f0>
    d210:	e59f2088 	ldr	r2, [pc, #136]	; d2a0 <executeCmd+0x1f4>
    d214:	e7961001 	ldr	r1, [r6, r1]
    d218:	e5810000 	str	r0, [r1]
    d21c:	e7961002 	ldr	r1, [r6, r2]
    d220:	e59f207c 	ldr	r2, [pc, #124]	; d2a4 <executeCmd+0x1f8>
    d224:	e591c000 	ldr	ip, [r1]
    d228:	e7960002 	ldr	r0, [r6, r2]
    d22c:	e59f2074 	ldr	r2, [pc, #116]	; d2a8 <executeCmd+0x1fc>
    d230:	e580c000 	str	ip, [r0]
    d234:	e7960002 	ldr	r0, [r6, r2]
    d238:	e59f206c 	ldr	r2, [pc, #108]	; d2ac <executeCmd+0x200>
    d23c:	e5803000 	str	r3, [r0]
    d240:	e7960002 	ldr	r0, [r6, r2]
    d244:	e59f2064 	ldr	r2, [pc, #100]	; d2b0 <executeCmd+0x204>
    d248:	e5803000 	str	r3, [r0]
    d24c:	e7960002 	ldr	r0, [r6, r2]
    d250:	e59f205c 	ldr	r2, [pc, #92]	; d2b4 <executeCmd+0x208>
    d254:	e5803000 	str	r3, [r0]
    d258:	e7962002 	ldr	r2, [r6, r2]
    d25c:	e5813000 	str	r3, [r1]
    d260:	e5823000 	str	r3, [r2]
    d264:	e3a02000 	mov	r2, #0
    d268:	e5843000 	str	r3, [r4]
    d26c:	e5953000 	ldr	r3, [r5]
    d270:	e5c32000 	strb	r2, [r3]
    d274:	eaffffde 	b	d1f4 <executeCmd+0x148>
    d278:	0000bd0c 	andeq	fp, r0, ip, lsl #26
    d27c:	000001a8 	andeq	r0, r0, r8, lsr #3
    d280:	00009424 	andeq	r9, r0, r4, lsr #8
    d284:	00000090 	muleq	r0, r0, r0
    d288:	00000074 	andeq	r0, r0, r4, ror r0
    d28c:	00000004 	andeq	r0, r0, r4
    d290:	000093e0 	andeq	r9, r0, r0, ror #7
    d294:	000001f4 	strdeq	r0, [r0], -r4
    d298:	000001ac 	andeq	r0, r0, ip, lsr #3
    d29c:	00000048 	andeq	r0, r0, r8, asr #32
    d2a0:	000001ec 	andeq	r0, r0, ip, ror #3
    d2a4:	000000bc 	strheq	r0, [r0], -ip
    d2a8:	00000044 	andeq	r0, r0, r4, asr #32
    d2ac:	000001b8 			; <UNDEFINED> instruction: 0x000001b8
    d2b0:	00000024 	andeq	r0, r0, r4, lsr #32
    d2b4:	000000cc 	andeq	r0, r0, ip, asr #1

0000d2b8 <new_menu>:
    d2b8:	e92d40f0 	push	{r4, r5, r6, r7, lr}
    d2bc:	e59f6244 	ldr	r6, [pc, #580]	; d508 <new_menu+0x250>
    d2c0:	e59f3244 	ldr	r3, [pc, #580]	; d50c <new_menu+0x254>
    d2c4:	e08f6006 	add	r6, pc, r6
    d2c8:	e7965003 	ldr	r5, [r6, r3]
    d2cc:	e24dd00c 	sub	sp, sp, #12
    d2d0:	e5953000 	ldr	r3, [r5]
    d2d4:	e2432030 	sub	r2, r3, #48	; 0x30
    d2d8:	e3520018 	cmp	r2, #24
    d2dc:	83a04050 	movhi	r4, #80	; 0x50
    d2e0:	83a05001 	movhi	r5, #1
    d2e4:	9a00000b 	bls	d318 <new_menu+0x60>
    d2e8:	e1530004 	cmp	r3, r4
    d2ec:	e2842018 	add	r2, r4, #24
    d2f0:	3a000001 	bcc	d2fc <new_menu+0x44>
    d2f4:	e1530002 	cmp	r3, r2
    d2f8:	9a00003f 	bls	d3fc <new_menu+0x144>
    d2fc:	e2855001 	add	r5, r5, #1
    d300:	e3550007 	cmp	r5, #7
    d304:	e2844020 	add	r4, r4, #32
    d308:	1afffff6 	bne	d2e8 <new_menu+0x30>
    d30c:	e3a00001 	mov	r0, #1
    d310:	e28dd00c 	add	sp, sp, #12
    d314:	e8bd80f0 	pop	{r4, r5, r6, r7, pc}
    d318:	e3a04000 	mov	r4, #0
    d31c:	e59f71ec 	ldr	r7, [pc, #492]	; d510 <new_menu+0x258>
    d320:	e3a0302a 	mov	r3, #42	; 0x2a
    d324:	e3a02080 	mov	r2, #128	; 0x80
    d328:	e3a01024 	mov	r1, #36	; 0x24
    d32c:	e1a00004 	mov	r0, r4
    d330:	e58d7000 	str	r7, [sp]
    d334:	ebfff6b3 	bl	ae08 <FillRect>
    d338:	e1a00004 	mov	r0, r4
    d33c:	e3a0302a 	mov	r3, #42	; 0x2a
    d340:	e3a02080 	mov	r2, #128	; 0x80
    d344:	e3a01024 	mov	r1, #36	; 0x24
    d348:	e58d4000 	str	r4, [sp]
    d34c:	ebfff6eb 	bl	af00 <DrawRect>
    d350:	e3a02008 	mov	r2, #8
    d354:	e59f31b8 	ldr	r3, [pc, #440]	; d514 <new_menu+0x25c>
    d358:	e1a00002 	mov	r0, r2
    d35c:	e08f3003 	add	r3, pc, r3
    d360:	e3a01026 	mov	r1, #38	; 0x26
    d364:	e88d0090 	stm	sp, {r4, r7}
    d368:	ebfff5ea 	bl	ab18 <writesxy>
    d36c:	e3a03032 	mov	r3, #50	; 0x32
    d370:	e1a00004 	mov	r0, r4
    d374:	e1a01003 	mov	r1, r3
    d378:	e3a02080 	mov	r2, #128	; 0x80
    d37c:	e58d4000 	str	r4, [sp]
    d380:	ebfff6c0 	bl	ae88 <DrawLine>
    d384:	e3a02008 	mov	r2, #8
    d388:	e59f3188 	ldr	r3, [pc, #392]	; d518 <new_menu+0x260>
    d38c:	e1a00002 	mov	r0, r2
    d390:	e08f3003 	add	r3, pc, r3
    d394:	e3a01034 	mov	r1, #52	; 0x34
    d398:	e88d0090 	stm	sp, {r4, r7}
    d39c:	ebfff5dd 	bl	ab18 <writesxy>
    d3a0:	e3a02008 	mov	r2, #8
    d3a4:	e59f3170 	ldr	r3, [pc, #368]	; d51c <new_menu+0x264>
    d3a8:	e1a00002 	mov	r0, r2
    d3ac:	e08f3003 	add	r3, pc, r3
    d3b0:	e3a01042 	mov	r1, #66	; 0x42
    d3b4:	e88d0090 	stm	sp, {r4, r7}
    d3b8:	ebfff5d6 	bl	ab18 <writesxy>
    d3bc:	e3a0304e 	mov	r3, #78	; 0x4e
    d3c0:	e3a02080 	mov	r2, #128	; 0x80
    d3c4:	e1a01003 	mov	r1, r3
    d3c8:	e1a00004 	mov	r0, r4
    d3cc:	e58d4000 	str	r4, [sp]
    d3d0:	ebfff6ac 	bl	ae88 <DrawLine>
    d3d4:	e3a00001 	mov	r0, #1
    d3d8:	ebfff88b 	bl	b60c <VerifyTouchLcd>
    d3dc:	e59f313c 	ldr	r3, [pc, #316]	; d520 <new_menu+0x268>
    d3e0:	e7963003 	ldr	r3, [r6, r3]
    d3e4:	e5933000 	ldr	r3, [r3]
    d3e8:	e2432024 	sub	r2, r3, #36	; 0x24
    d3ec:	e352002a 	cmp	r2, #42	; 0x2a
    d3f0:	9a00002d 	bls	d4ac <new_menu+0x1f4>
    d3f4:	ebfffbcf 	bl	c338 <redrawMain>
    d3f8:	eaffffc3 	b	d30c <new_menu+0x54>
    d3fc:	e3a03018 	mov	r3, #24
    d400:	e3a01004 	mov	r1, #4
    d404:	e1a02003 	mov	r2, r3
    d408:	e1a00004 	mov	r0, r4
    d40c:	ebfff779 	bl	b1f8 <InvertRect>
    d410:	e3a03018 	mov	r3, #24
    d414:	e1a00004 	mov	r0, r4
    d418:	e1a02003 	mov	r2, r3
    d41c:	e3a01004 	mov	r1, #4
    d420:	ebfff774 	bl	b1f8 <InvertRect>
    d424:	e3550004 	cmp	r5, #4
    d428:	0a00000f 	beq	d46c <new_menu+0x1b4>
    d42c:	e3550006 	cmp	r5, #6
    d430:	0a000003 	beq	d444 <new_menu+0x18c>
    d434:	e3550001 	cmp	r5, #1
    d438:	1affffed 	bne	d3f4 <new_menu+0x13c>
    d43c:	ebffff1a 	bl	d0ac <executeCmd>
    d440:	eaffffeb 	b	d3f4 <new_menu+0x13c>
    d444:	e59f00d8 	ldr	r0, [pc, #216]	; d524 <new_menu+0x26c>
    d448:	e3a02000 	mov	r2, #0
    d44c:	e08f0000 	add	r0, pc, r0
    d450:	e2800c01 	add	r0, r0, #256	; 0x100
    d454:	e3a0100c 	mov	r1, #12
    d458:	ebfff926 	bl	b8f8 <message>
    d45c:	e3500004 	cmp	r0, #4
    d460:	03a00000 	moveq	r0, #0
    d464:	0affffa9 	beq	d310 <new_menu+0x58>
    d468:	eaffffe1 	b	d3f4 <new_menu+0x13c>
    d46c:	e59f30b4 	ldr	r3, [pc, #180]	; d528 <new_menu+0x270>
    d470:	e59f10b4 	ldr	r1, [pc, #180]	; d52c <new_menu+0x274>
    d474:	e7964003 	ldr	r4, [r6, r3]
    d478:	e08f1001 	add	r1, pc, r1
    d47c:	e28110f8 	add	r1, r1, #248	; 0xf8
    d480:	e5940000 	ldr	r0, [r4]
    d484:	eb0010bb 	bl	11778 <strcpy>
    d488:	e3a02039 	mov	r2, #57	; 0x39
    d48c:	e3a01068 	mov	r1, #104	; 0x68
    d490:	e3a00090 	mov	r0, #144	; 0x90
    d494:	ebfff7c8 	bl	b3bc <MostraIcone>
    d498:	eb00013b 	bl	d98c <processCmd>
    d49c:	e3a02000 	mov	r2, #0
    d4a0:	e5943000 	ldr	r3, [r4]
    d4a4:	e5c32000 	strb	r2, [r3]
    d4a8:	eaffffd1 	b	d3f4 <new_menu+0x13c>
    d4ac:	e5952000 	ldr	r2, [r5]
    d4b0:	e3520080 	cmp	r2, #128	; 0x80
    d4b4:	8affffce 	bhi	d3f4 <new_menu+0x13c>
    d4b8:	e2432026 	sub	r2, r3, #38	; 0x26
    d4bc:	e352000c 	cmp	r2, #12
    d4c0:	9a00000a 	bls	d4f0 <new_menu+0x238>
    d4c4:	e2433034 	sub	r3, r3, #52	; 0x34
    d4c8:	e353000c 	cmp	r3, #12
    d4cc:	93a01034 	movls	r1, #52	; 0x34
    d4d0:	9a000007 	bls	d4f4 <new_menu+0x23c>
    d4d4:	e59f0054 	ldr	r0, [pc, #84]	; d530 <new_menu+0x278>
    d4d8:	e1a02004 	mov	r2, r4
    d4dc:	e08f0000 	add	r0, pc, r0
    d4e0:	e3a01040 	mov	r1, #64	; 0x40
    d4e4:	e2800e11 	add	r0, r0, #272	; 0x110
    d4e8:	ebfff902 	bl	b8f8 <message>
    d4ec:	eaffffc0 	b	d3f4 <new_menu+0x13c>
    d4f0:	e3a01026 	mov	r1, #38	; 0x26
    d4f4:	e3a0300c 	mov	r3, #12
    d4f8:	e3a02078 	mov	r2, #120	; 0x78
    d4fc:	e3a00004 	mov	r0, #4
    d500:	ebfff73c 	bl	b1f8 <InvertRect>
    d504:	eaffffba 	b	d3f4 <new_menu+0x13c>
    d508:	0000bb10 	andeq	fp, r0, r0, lsl fp
    d50c:	000001c4 	andeq	r0, r0, r4, asr #3
    d510:	0000ffff 	strdeq	pc, [r0], -pc	; <UNPREDICTABLE>
    d514:	000091b0 			; <UNDEFINED> instruction: 0x000091b0
    d518:	00009184 	andeq	r9, r0, r4, lsl #3
    d51c:	00009170 	andeq	r9, r0, r0, ror r1
    d520:	00000078 	andeq	r0, r0, r8, ror r0
    d524:	00008bac 	andeq	r8, r0, ip, lsr #23
    d528:	000001f4 	strdeq	r0, [r0], -r4
    d52c:	00008b80 	andeq	r8, r0, r0, lsl #23
    d530:	00008b1c 	andeq	r8, r0, ip, lsl fp

0000d534 <editortela>:
    d534:	e92d4070 	push	{r4, r5, r6, lr}
    d538:	e3a00001 	mov	r0, #1
    d53c:	e59f4114 	ldr	r4, [pc, #276]	; d658 <editortela+0x124>
    d540:	ebfff831 	bl	b60c <VerifyTouchLcd>
    d544:	e59f3110 	ldr	r3, [pc, #272]	; d65c <editortela+0x128>
    d548:	e08f4004 	add	r4, pc, r4
    d54c:	e7943003 	ldr	r3, [r4, r3]
    d550:	e5933000 	ldr	r3, [r3]
    d554:	e353001e 	cmp	r3, #30
    d558:	9a000038 	bls	d640 <editortela+0x10c>
    d55c:	e59f20fc 	ldr	r2, [pc, #252]	; d660 <editortela+0x12c>
    d560:	e3530087 	cmp	r3, #135	; 0x87
    d564:	e7942002 	ldr	r2, [r4, r2]
    d568:	83a01088 	movhi	r1, #136	; 0x88
    d56c:	e592e000 	ldr	lr, [r2]
    d570:	93a01068 	movls	r1, #104	; 0x68
    d574:	e24e0028 	sub	r0, lr, #40	; 0x28
    d578:	83a0c018 	movhi	ip, #24
    d57c:	93a0c010 	movls	ip, #16
    d580:	e35000e0 	cmp	r0, #224	; 0xe0
    d584:	93a02001 	movls	r2, #1
    d588:	83a02000 	movhi	r2, #0
    d58c:	e3530027 	cmp	r3, #39	; 0x27
    d590:	93a02000 	movls	r2, #0
    d594:	e3520000 	cmp	r2, #0
    d598:	1a000001 	bne	d5a4 <editortela+0x70>
    d59c:	e3a00001 	mov	r0, #1
    d5a0:	e8bd8070 	pop	{r4, r5, r6, pc}
    d5a4:	e3a030ec 	mov	r3, #236	; 0xec
    d5a8:	e3a02001 	mov	r2, #1
    d5ac:	e15e0003 	cmp	lr, r3
    d5b0:	e6ef0073 	uxtb	r0, r3
    d5b4:	e2825001 	add	r5, r2, #1
    d5b8:	e243301c 	sub	r3, r3, #28
    d5bc:	2a000021 	bcs	d648 <editortela+0x114>
    d5c0:	e3530028 	cmp	r3, #40	; 0x28
    d5c4:	e6ef2075 	uxtb	r2, r5
    d5c8:	1afffff7 	bne	d5ac <editortela+0x78>
    d5cc:	e1a00003 	mov	r0, r3
    d5d0:	e59f308c 	ldr	r3, [pc, #140]	; d664 <editortela+0x130>
    d5d4:	e08cc10c 	add	ip, ip, ip, lsl #2
    d5d8:	e7943003 	ldr	r3, [r4, r3]
    d5dc:	e1a0c08c 	lsl	ip, ip, #1
    d5e0:	e5d33000 	ldrb	r3, [r3]
    d5e4:	e2833d06 	add	r3, r3, #384	; 0x180
    d5e8:	e7d3200c 	ldrb	r2, [r3, ip]
    d5ec:	e083500c 	add	r5, r3, ip
    d5f0:	e3520000 	cmp	r2, #0
    d5f4:	0affffe8 	beq	d59c <editortela+0x68>
    d5f8:	e3a03018 	mov	r3, #24
    d5fc:	e1a02003 	mov	r2, r3
    d600:	ebfff6fc 	bl	b1f8 <InvertRect>
    d604:	e59f305c 	ldr	r3, [pc, #92]	; d668 <editortela+0x134>
    d608:	e1a01005 	mov	r1, r5
    d60c:	e7944003 	ldr	r4, [r4, r3]
    d610:	e5940000 	ldr	r0, [r4]
    d614:	eb001057 	bl	11778 <strcpy>
    d618:	e3a02039 	mov	r2, #57	; 0x39
    d61c:	e3a01068 	mov	r1, #104	; 0x68
    d620:	e3a00090 	mov	r0, #144	; 0x90
    d624:	ebfff764 	bl	b3bc <MostraIcone>
    d628:	eb0000d7 	bl	d98c <processCmd>
    d62c:	e3a02000 	mov	r2, #0
    d630:	e5943000 	ldr	r3, [r4]
    d634:	e5c32000 	strb	r2, [r3]
    d638:	ebfffb3e 	bl	c338 <redrawMain>
    d63c:	eaffffd6 	b	d59c <editortela+0x68>
    d640:	e8bd4070 	pop	{r4, r5, r6, lr}
    d644:	eaffff1b 	b	d2b8 <new_menu>
    d648:	e28cc008 	add	ip, ip, #8
    d64c:	e04cc002 	sub	ip, ip, r2
    d650:	e20cc0ff 	and	ip, ip, #255	; 0xff
    d654:	eaffffdd 	b	d5d0 <editortela+0x9c>
    d658:	0000b88c 	andeq	fp, r0, ip, lsl #17
    d65c:	00000078 	andeq	r0, r0, r8, ror r0
    d660:	000001c4 	andeq	r0, r0, r4, asr #3
    d664:	00000008 	andeq	r0, r0, r8
    d668:	000001f4 	strdeq	r0, [r0], -r4

0000d66c <startMGI>:
    d66c:	e92d4ff0 	push	{r4, r5, r6, r7, r8, r9, sl, fp, lr}
    d670:	e3e02027 	mvn	r2, #39	; 0x27
    d674:	e3a06000 	mov	r6, #0
    d678:	e3a01002 	mov	r1, #2
    d67c:	e59f42a0 	ldr	r4, [pc, #672]	; d924 <startMGI+0x2b8>
    d680:	e59f32a0 	ldr	r3, [pc, #672]	; d928 <startMGI+0x2bc>
    d684:	e08f4004 	add	r4, pc, r4
    d688:	e7945003 	ldr	r5, [r4, r3]
    d68c:	e24dd01c 	sub	sp, sp, #28
    d690:	e1a00005 	mov	r0, r5
    d694:	e5c52001 	strb	r2, [r5, #1]
    d698:	e5c56002 	strb	r6, [r5, #2]
    d69c:	e5c51000 	strb	r1, [r5]
    d6a0:	eb001ed4 	bl	151f8 <commVDG>
    d6a4:	e59f3280 	ldr	r3, [pc, #640]	; d92c <startMGI+0x2c0>
    d6a8:	e1a02006 	mov	r2, r6
    d6ac:	e7946003 	ldr	r6, [r4, r3]
    d6b0:	e5d6c000 	ldrb	ip, [r6]
    d6b4:	e28ced06 	add	lr, ip, #384	; 0x180
    d6b8:	e1a0700e 	mov	r7, lr
    d6bc:	e28c0040 	add	r0, ip, #64	; 0x40
    d6c0:	e28cc020 	add	ip, ip, #32
    d6c4:	e1a0100e 	mov	r1, lr
    d6c8:	e1a03000 	mov	r3, r0
    d6cc:	e5cc2000 	strb	r2, [ip]
    d6d0:	e280000a 	add	r0, r0, #10
    d6d4:	e28cc001 	add	ip, ip, #1
    d6d8:	e4c32001 	strb	r2, [r3], #1
    d6dc:	e1530000 	cmp	r3, r0
    d6e0:	e4c12001 	strb	r2, [r1], #1
    d6e4:	1afffffb 	bne	d6d8 <startMGI+0x6c>
    d6e8:	e1530007 	cmp	r3, r7
    d6ec:	e1a00003 	mov	r0, r3
    d6f0:	e28ee00a 	add	lr, lr, #10
    d6f4:	1afffff2 	bne	d6c4 <startMGI+0x58>
    d6f8:	e3a08002 	mov	r8, #2
    d6fc:	e3a0701f 	mov	r7, #31
    d700:	e3a0e014 	mov	lr, #20
    d704:	e3a0c050 	mov	ip, #80	; 0x50
    d708:	e3a00f46 	mov	r0, #280	; 0x118
    d70c:	e3a01064 	mov	r1, #100	; 0x64
    d710:	e59f9218 	ldr	r9, [pc, #536]	; d930 <startMGI+0x2c4>
    d714:	e59f3218 	ldr	r3, [pc, #536]	; d934 <startMGI+0x2c8>
    d718:	e7949009 	ldr	r9, [r4, r9]
    d71c:	e59fa214 	ldr	sl, [pc, #532]	; d938 <startMGI+0x2cc>
    d720:	e5c92000 	strb	r2, [r9]
    d724:	e7949003 	ldr	r9, [r4, r3]
    d728:	e59f320c 	ldr	r3, [pc, #524]	; d93c <startMGI+0x2d0>
    d72c:	e5898000 	str	r8, [r9]
    d730:	e7948003 	ldr	r8, [r4, r3]
    d734:	e59f3204 	ldr	r3, [pc, #516]	; d940 <startMGI+0x2d4>
    d738:	e588a000 	str	sl, [r8]
    d73c:	e794a003 	ldr	sl, [r4, r3]
    d740:	e59f31fc 	ldr	r3, [pc, #508]	; d944 <startMGI+0x2d8>
    d744:	e58a7000 	str	r7, [sl]
    d748:	e7947003 	ldr	r7, [r4, r3]
    d74c:	e59f31f4 	ldr	r3, [pc, #500]	; d948 <startMGI+0x2dc>
    d750:	e5c72000 	strb	r2, [r7]
    d754:	e7943003 	ldr	r3, [r4, r3]
    d758:	e28d700c 	add	r7, sp, #12
    d75c:	e583e000 	str	lr, [r3]
    d760:	e583c004 	str	ip, [r3, #4]
    d764:	e1c300f8 	strd	r0, [r3, #8]
    d768:	e5832010 	str	r2, [r3, #16]
    d76c:	ebfff964 	bl	bd04 <showWindow>
    d770:	e5983000 	ldr	r3, [r8]
    d774:	e59a2000 	ldr	r2, [sl]
    d778:	e58d3000 	str	r3, [sp]
    d77c:	e59f31c8 	ldr	r3, [pc, #456]	; d94c <startMGI+0x2e0>
    d780:	e58d2004 	str	r2, [sp, #4]
    d784:	e08f3003 	add	r3, pc, r3
    d788:	e3a02010 	mov	r2, #16
    d78c:	e3a01055 	mov	r1, #85	; 0x55
    d790:	e3a0008c 	mov	r0, #140	; 0x8c
    d794:	ebfff4df 	bl	ab18 <writesxy>
    d798:	e5983000 	ldr	r3, [r8]
    d79c:	e59a2000 	ldr	r2, [sl]
    d7a0:	e58d3000 	str	r3, [sp]
    d7a4:	e59f31a4 	ldr	r3, [pc, #420]	; d950 <startMGI+0x2e4>
    d7a8:	e58d2004 	str	r2, [sp, #4]
    d7ac:	e08f3003 	add	r3, pc, r3
    d7b0:	e3a02008 	mov	r2, #8
    d7b4:	e3a01069 	mov	r1, #105	; 0x69
    d7b8:	e3a0004a 	mov	r0, #74	; 0x4a
    d7bc:	ebfff4d5 	bl	ab18 <writesxy>
    d7c0:	e5983000 	ldr	r3, [r8]
    d7c4:	e59a2000 	ldr	r2, [sl]
    d7c8:	e58d3000 	str	r3, [sp]
    d7cc:	e59f3180 	ldr	r3, [pc, #384]	; d954 <startMGI+0x2e8>
    d7d0:	e58d2004 	str	r2, [sp, #4]
    d7d4:	e08f3003 	add	r3, pc, r3
    d7d8:	e3a02008 	mov	r2, #8
    d7dc:	e3a010a6 	mov	r1, #166	; 0xa6
    d7e0:	e3a0005e 	mov	r0, #94	; 0x5e
    d7e4:	ebfff4cb 	bl	ab18 <writesxy>
    d7e8:	e5983000 	ldr	r3, [r8]
    d7ec:	e59a2000 	ldr	r2, [sl]
    d7f0:	e58d3000 	str	r3, [sp]
    d7f4:	e59f315c 	ldr	r3, [pc, #348]	; d958 <startMGI+0x2ec>
    d7f8:	e58d2004 	str	r2, [sp, #4]
    d7fc:	e08f3003 	add	r3, pc, r3
    d800:	e3a02008 	mov	r2, #8
    d804:	e3a0109b 	mov	r1, #155	; 0x9b
    d808:	e3a00056 	mov	r0, #86	; 0x56
    d80c:	ebfff4c1 	bl	ab18 <writesxy>
    d810:	e5d6b000 	ldrb	fp, [r6]
    d814:	e59f2140 	ldr	r2, [pc, #320]	; d95c <startMGI+0x2f0>
    d818:	e59f1140 	ldr	r1, [pc, #320]	; d960 <startMGI+0x2f4>
    d81c:	e08f2002 	add	r2, pc, r2
    d820:	e08f1001 	add	r1, pc, r1
    d824:	e28bb010 	add	fp, fp, #16
    d828:	e1a00007 	mov	r0, r7
    d82c:	eb0006f3 	bl	f400 <_strcat>
    d830:	e1a0100b 	mov	r1, fp
    d834:	e1a00007 	mov	r0, r7
    d838:	ebfff27f 	bl	a23c <loadFile>
    d83c:	e5983000 	ldr	r3, [r8]
    d840:	e59a2000 	ldr	r2, [sl]
    d844:	e58d3000 	str	r3, [sp]
    d848:	e59f3114 	ldr	r3, [pc, #276]	; d964 <startMGI+0x2f8>
    d84c:	e58d2004 	str	r2, [sp, #4]
    d850:	e08f3003 	add	r3, pc, r3
    d854:	e3a02008 	mov	r2, #8
    d858:	e3a0109b 	mov	r1, #155	; 0x9b
    d85c:	e3a00056 	mov	r0, #86	; 0x56
    d860:	ebfff4ac 	bl	ab18 <writesxy>
    d864:	e5d66000 	ldrb	r6, [r6]
    d868:	e59f20f8 	ldr	r2, [pc, #248]	; d968 <startMGI+0x2fc>
    d86c:	e59f10f8 	ldr	r1, [pc, #248]	; d96c <startMGI+0x300>
    d870:	e08f2002 	add	r2, pc, r2
    d874:	e08f1001 	add	r1, pc, r1
    d878:	e1a00007 	mov	r0, r7
    d87c:	e2866e41 	add	r6, r6, #1040	; 0x410
    d880:	eb0006de 	bl	f400 <_strcat>
    d884:	e1a01006 	mov	r1, r6
    d888:	e1a00007 	mov	r0, r7
    d88c:	ebfff26a 	bl	a23c <loadFile>
    d890:	ebfffaa8 	bl	c338 <redrawMain>
    d894:	ebffff26 	bl	d534 <editortela>
    d898:	e3500000 	cmp	r0, #0
    d89c:	1afffffc 	bne	d894 <startMGI+0x228>
    d8a0:	e3a06001 	mov	r6, #1
    d8a4:	e59f30c4 	ldr	r3, [pc, #196]	; d970 <startMGI+0x304>
    d8a8:	e5896000 	str	r6, [r9]
    d8ac:	e7942003 	ldr	r2, [r4, r3]
    d8b0:	e59f30bc 	ldr	r3, [pc, #188]	; d974 <startMGI+0x308>
    d8b4:	e5820000 	str	r0, [r2]
    d8b8:	e7942003 	ldr	r2, [r4, r3]
    d8bc:	e59f30b4 	ldr	r3, [pc, #180]	; d978 <startMGI+0x30c>
    d8c0:	e5820000 	str	r0, [r2]
    d8c4:	e7942003 	ldr	r2, [r4, r3]
    d8c8:	e59f30ac 	ldr	r3, [pc, #172]	; d97c <startMGI+0x310>
    d8cc:	e5820000 	str	r0, [r2]
    d8d0:	e7942003 	ldr	r2, [r4, r3]
    d8d4:	e59f30a4 	ldr	r3, [pc, #164]	; d980 <startMGI+0x314>
    d8d8:	e5820000 	str	r0, [r2]
    d8dc:	e7942003 	ldr	r2, [r4, r3]
    d8e0:	e59f309c 	ldr	r3, [pc, #156]	; d984 <startMGI+0x318>
    d8e4:	e5820000 	str	r0, [r2]
    d8e8:	e7942003 	ldr	r2, [r4, r3]
    d8ec:	e59f3094 	ldr	r3, [pc, #148]	; d988 <startMGI+0x31c>
    d8f0:	e5820000 	str	r0, [r2]
    d8f4:	e7943003 	ldr	r3, [r4, r3]
    d8f8:	e5930000 	ldr	r0, [r3]
    d8fc:	ebfffa77 	bl	c2e0 <clearScr>
    d900:	e3a02002 	mov	r2, #2
    d904:	e3e03027 	mvn	r3, #39	; 0x27
    d908:	e1a00005 	mov	r0, r5
    d90c:	e5c56002 	strb	r6, [r5, #2]
    d910:	e5c52000 	strb	r2, [r5]
    d914:	e5c53001 	strb	r3, [r5, #1]
    d918:	eb001e36 	bl	151f8 <commVDG>
    d91c:	e28dd01c 	add	sp, sp, #28
    d920:	e8bd8ff0 	pop	{r4, r5, r6, r7, r8, r9, sl, fp, pc}
    d924:	0000b750 	andeq	fp, r0, r0, asr r7
    d928:	0000012c 	andeq	r0, r0, ip, lsr #2
    d92c:	00000008 	andeq	r0, r0, r8
    d930:	00000050 	andeq	r0, r0, r0, asr r0
    d934:	00000158 	andeq	r0, r0, r8, asr r1
    d938:	0000ffff 	strdeq	pc, [r0], -pc	; <UNPREDICTABLE>
    d93c:	00000004 	andeq	r0, r0, r4
    d940:	00000074 	andeq	r0, r0, r4, ror r0
    d944:	000001a8 	andeq	r0, r0, r8, lsr #3
    d948:	00000090 	muleq	r0, r0, r0
    d94c:	00008de0 	andeq	r8, r0, r0, ror #27
    d950:	00008d78 	andeq	r8, r0, r8, ror sp
    d954:	00008d64 	andeq	r8, r0, r4, ror #26
    d958:	00008d4c 	andeq	r8, r0, ip, asr #26
    d95c:	00008d3c 	andeq	r8, r0, ip, lsr sp
    d960:	00008d40 	andeq	r8, r0, r0, asr #26
    d964:	00008d18 	andeq	r8, r0, r8, lsl sp
    d968:	00008d08 	andeq	r8, r0, r8, lsl #26
    d96c:	00008d0c 	andeq	r8, r0, ip, lsl #26
    d970:	00000044 	andeq	r0, r0, r4, asr #32
    d974:	000001b8 			; <UNDEFINED> instruction: 0x000001b8
    d978:	00000024 	andeq	r0, r0, r4, lsr #32
    d97c:	000000cc 	andeq	r0, r0, ip, asr #1
    d980:	000001ac 	andeq	r0, r0, ip, lsr #3
    d984:	000001ec 	andeq	r0, r0, ip, ror #3
    d988:	0000003c 	andeq	r0, r0, ip, lsr r0

0000d98c <processCmd>:
    d98c:	e92d4ff0 	push	{r4, r5, r6, r7, r8, r9, sl, fp, lr}
    d990:	e3a06000 	mov	r6, #0
    d994:	e59f4ec8 	ldr	r4, [pc, #3784]	; e864 <processCmd+0xed8>
    d998:	e59f3ec8 	ldr	r3, [pc, #3784]	; e868 <processCmd+0xedc>
    d99c:	e08f4004 	add	r4, pc, r4
    d9a0:	e7943003 	ldr	r3, [r4, r3]
    d9a4:	e24ddf4d 	sub	sp, sp, #308	; 0x134
    d9a8:	e5931000 	ldr	r1, [r3]
    d9ac:	e5cd6028 	strb	r6, [sp, #40]	; 0x28
    d9b0:	e5cd6048 	strb	r6, [sp, #72]	; 0x48
    d9b4:	e5d13000 	ldrb	r3, [r1]
    d9b8:	e1530006 	cmp	r3, r6
    d9bc:	0a00003c 	beq	dab4 <processCmd+0x128>
    d9c0:	e1a02006 	mov	r2, r6
    d9c4:	e1a00006 	mov	r0, r6
    d9c8:	ea00000a 	b	d9f8 <processCmd+0x6c>
    d9cc:	e243e061 	sub	lr, r3, #97	; 0x61
    d9d0:	e35e0019 	cmp	lr, #25
    d9d4:	92433020 	subls	r3, r3, #32
    d9d8:	e28dee13 	add	lr, sp, #304	; 0x130
    d9dc:	96ef3073 	uxtbls	r3, r3
    d9e0:	e08ee002 	add	lr, lr, r2
    d9e4:	e54e30e8 	strb	r3, [lr, #-232]	; 0xffffff18
    d9e8:	e5f13001 	ldrb	r3, [r1, #1]!
    d9ec:	e2822001 	add	r2, r2, #1
    d9f0:	e3530000 	cmp	r3, #0
    d9f4:	0a000014 	beq	da4c <processCmd+0xc0>
    d9f8:	e3500000 	cmp	r0, #0
    d9fc:	1afffff2 	bne	d9cc <processCmd+0x40>
    da00:	e3530020 	cmp	r3, #32
    da04:	0a000007 	beq	da28 <processCmd+0x9c>
    da08:	e243e061 	sub	lr, r3, #97	; 0x61
    da0c:	e35e0019 	cmp	lr, #25
    da10:	92433020 	subls	r3, r3, #32
    da14:	e28dee13 	add	lr, sp, #304	; 0x130
    da18:	96ef3073 	uxtbls	r3, r3
    da1c:	e08ee002 	add	lr, lr, r2
    da20:	e54e3108 	strb	r3, [lr, #-264]	; 0xfffffef8
    da24:	eaffffef 	b	d9e8 <processCmd+0x5c>
    da28:	e28d3e13 	add	r3, sp, #304	; 0x130
    da2c:	e0833002 	add	r3, r3, r2
    da30:	e5430108 	strb	r0, [r3, #-264]	; 0xfffffef8
    da34:	e5f13001 	ldrb	r3, [r1, #1]!
    da38:	e1a06002 	mov	r6, r2
    da3c:	e3530000 	cmp	r3, #0
    da40:	e1a02000 	mov	r2, r0
    da44:	e3a00001 	mov	r0, #1
    da48:	1affffea 	bne	d9f8 <processCmd+0x6c>
    da4c:	e3500000 	cmp	r0, #0
    da50:	0a000018 	beq	dab8 <processCmd+0x12c>
    da54:	e28d1e13 	add	r1, sp, #304	; 0x130
    da58:	e0818002 	add	r8, r1, r2
    da5c:	e3520000 	cmp	r2, #0
    da60:	e54830e8 	strb	r3, [r8, #-232]	; 0xffffff18
    da64:	0a0000c1 	beq	dd70 <processCmd+0x3e4>
    da68:	e1a0c003 	mov	ip, r3
    da6c:	e1a07003 	mov	r7, r3
    da70:	e28de048 	add	lr, sp, #72	; 0x48
    da74:	e28da068 	add	sl, sp, #104	; 0x68
    da78:	e4de1001 	ldrb	r1, [lr], #1
    da7c:	e3510020 	cmp	r1, #32
    da80:	01a07000 	moveq	r7, r0
    da84:	0a000005 	beq	daa0 <processCmd+0x114>
    da88:	e28d9e13 	add	r9, sp, #304	; 0x130
    da8c:	e3570000 	cmp	r7, #0
    da90:	e089900c 	add	r9, r9, ip
    da94:	07ca1003 	strbeq	r1, [sl, r3]
    da98:	15491118 	strbne	r1, [r9, #-280]	; 0xfffffee8
    da9c:	128cc001 	addne	ip, ip, #1
    daa0:	e2833001 	add	r3, r3, #1
    daa4:	e1520003 	cmp	r2, r3
    daa8:	1afffff2 	bne	da78 <processCmd+0xec>
    daac:	e1a07002 	mov	r7, r2
    dab0:	ea000007 	b	dad4 <processCmd+0x148>
    dab4:	e1a02003 	mov	r2, r3
    dab8:	e1a07002 	mov	r7, r2
    dabc:	e28d1e13 	add	r1, sp, #304	; 0x130
    dac0:	e3a03000 	mov	r3, #0
    dac4:	e1a06007 	mov	r6, r7
    dac8:	e1a08001 	mov	r8, r1
    dacc:	e0812002 	add	r2, r1, r2
    dad0:	e5423108 	strb	r3, [r2, #-264]	; 0xfffffef8
    dad4:	e3a03000 	mov	r3, #0
    dad8:	e5dd2028 	ldrb	r2, [sp, #40]	; 0x28
    dadc:	e28d1e13 	add	r1, sp, #304	; 0x130
    dae0:	e081c00c 	add	ip, r1, ip
    dae4:	e1520003 	cmp	r2, r3
    dae8:	e54c3118 	strb	r3, [ip, #-280]	; 0xfffffee8
    daec:	e54830c8 	strb	r3, [r8, #-200]	; 0xffffff38
    daf0:	1a000001 	bne	dafc <processCmd+0x170>
    daf4:	e28ddf4d 	add	sp, sp, #308	; 0x134
    daf8:	e8bd8ff0 	pop	{r4, r5, r6, r7, r8, r9, sl, fp, pc}
    dafc:	e59f1d68 	ldr	r1, [pc, #3432]	; e86c <processCmd+0xee0>
    db00:	e28d8028 	add	r8, sp, #40	; 0x28
    db04:	e1a00008 	mov	r0, r8
    db08:	e08f1001 	add	r1, pc, r1
    db0c:	eb000f0d 	bl	11748 <strcmp>
    db10:	e2469003 	sub	r9, r6, #3
    db14:	e16f9f19 	clz	r9, r9
    db18:	e3500000 	cmp	r0, #0
    db1c:	03560003 	cmpeq	r6, #3
    db20:	e1a092a9 	lsr	r9, r9, #5
    db24:	0a000094 	beq	dd7c <processCmd+0x3f0>
    db28:	e59f1d40 	ldr	r1, [pc, #3392]	; e870 <processCmd+0xee4>
    db2c:	e1a00008 	mov	r0, r8
    db30:	e08f1001 	add	r1, pc, r1
    db34:	eb000f03 	bl	11748 <strcmp>
    db38:	e3560005 	cmp	r6, #5
    db3c:	03500000 	cmpeq	r0, #0
    db40:	0a00008d 	beq	dd7c <processCmd+0x3f0>
    db44:	e59f1d28 	ldr	r1, [pc, #3368]	; e874 <processCmd+0xee8>
    db48:	e1a00008 	mov	r0, r8
    db4c:	e08f1001 	add	r1, pc, r1
    db50:	eb000efc 	bl	11748 <strcmp>
    db54:	e3500000 	cmp	r0, #0
    db58:	1a000070 	bne	dd20 <processCmd+0x394>
    db5c:	e3560003 	cmp	r6, #3
    db60:	0a00008a 	beq	dd90 <processCmd+0x404>
    db64:	e59f1d0c 	ldr	r1, [pc, #3340]	; e878 <processCmd+0xeec>
    db68:	e1a00008 	mov	r0, r8
    db6c:	e08f1001 	add	r1, pc, r1
    db70:	eb000ef4 	bl	11748 <strcmp>
    db74:	e59f1d00 	ldr	r1, [pc, #3328]	; e87c <processCmd+0xef0>
    db78:	e1a00008 	mov	r0, r8
    db7c:	e08f1001 	add	r1, pc, r1
    db80:	eb000ef0 	bl	11748 <strcmp>
    db84:	e250a000 	subs	sl, r0, #0
    db88:	1a000087 	bne	ddac <processCmd+0x420>
    db8c:	e3560002 	cmp	r6, #2
    db90:	0a0000e1 	beq	df1c <processCmd+0x590>
    db94:	e59f1ce4 	ldr	r1, [pc, #3300]	; e880 <processCmd+0xef4>
    db98:	e1a00008 	mov	r0, r8
    db9c:	e08f1001 	add	r1, pc, r1
    dba0:	eb000ee8 	bl	11748 <strcmp>
    dba4:	e59f1cd8 	ldr	r1, [pc, #3288]	; e884 <processCmd+0xef8>
    dba8:	e1a00008 	mov	r0, r8
    dbac:	e08f1001 	add	r1, pc, r1
    dbb0:	eb000ee4 	bl	11748 <strcmp>
    dbb4:	e3500000 	cmp	r0, #0
    dbb8:	01a00009 	moveq	r0, r9
    dbbc:	13a00000 	movne	r0, #0
    dbc0:	e3500000 	cmp	r0, #0
    dbc4:	1a00023f 	bne	e4c8 <processCmd+0xb3c>
    dbc8:	e59f1cb8 	ldr	r1, [pc, #3256]	; e888 <processCmd+0xefc>
    dbcc:	e1a00008 	mov	r0, r8
    dbd0:	e08f1001 	add	r1, pc, r1
    dbd4:	eb000edb 	bl	11748 <strcmp>
    dbd8:	e3500000 	cmp	r0, #0
    dbdc:	1a0000c2 	bne	deec <processCmd+0x560>
    dbe0:	e3560002 	cmp	r6, #2
    dbe4:	0a00023c 	beq	e4dc <processCmd+0xb50>
    dbe8:	e59f1c9c 	ldr	r1, [pc, #3228]	; e88c <processCmd+0xf00>
    dbec:	e1a00008 	mov	r0, r8
    dbf0:	e08f1001 	add	r1, pc, r1
    dbf4:	eb000ed3 	bl	11748 <strcmp>
    dbf8:	e3500000 	cmp	r0, #0
    dbfc:	1a0000af 	bne	dec0 <processCmd+0x534>
    dc00:	e59f1c88 	ldr	r1, [pc, #3208]	; e890 <processCmd+0xf04>
    dc04:	e1a00008 	mov	r0, r8
    dc08:	e08f1001 	add	r1, pc, r1
    dc0c:	eb000ecd 	bl	11748 <strcmp>
    dc10:	e59f1c7c 	ldr	r1, [pc, #3196]	; e894 <processCmd+0xf08>
    dc14:	e1a00008 	mov	r0, r8
    dc18:	e08f1001 	add	r1, pc, r1
    dc1c:	eb000ec9 	bl	11748 <strcmp>
    dc20:	e59f1c70 	ldr	r1, [pc, #3184]	; e898 <processCmd+0xf0c>
    dc24:	e1a00008 	mov	r0, r8
    dc28:	e08f1001 	add	r1, pc, r1
    dc2c:	eb000ec5 	bl	11748 <strcmp>
    dc30:	e3500000 	cmp	r0, #0
    dc34:	1a000075 	bne	de10 <processCmd+0x484>
    dc38:	e3560004 	cmp	r6, #4
    dc3c:	0a00007a 	beq	de2c <processCmd+0x4a0>
    dc40:	e59f1c54 	ldr	r1, [pc, #3156]	; e89c <processCmd+0xf10>
    dc44:	e1a00008 	mov	r0, r8
    dc48:	e08f1001 	add	r1, pc, r1
    dc4c:	eb000ebd 	bl	11748 <strcmp>
    dc50:	e59f1c48 	ldr	r1, [pc, #3144]	; e8a0 <processCmd+0xf14>
    dc54:	e1a00008 	mov	r0, r8
    dc58:	e08f1001 	add	r1, pc, r1
    dc5c:	eb000eb9 	bl	11748 <strcmp>
    dc60:	e3560008 	cmp	r6, #8
    dc64:	03500000 	cmpeq	r0, #0
    dc68:	0a00006f 	beq	de2c <processCmd+0x4a0>
    dc6c:	e59f1c30 	ldr	r1, [pc, #3120]	; e8a4 <processCmd+0xf18>
    dc70:	e1a00008 	mov	r0, r8
    dc74:	e08f1001 	add	r1, pc, r1
    dc78:	eb000eb2 	bl	11748 <strcmp>
    dc7c:	e3560007 	cmp	r6, #7
    dc80:	03500000 	cmpeq	r0, #0
    dc84:	0a000294 	beq	e6dc <processCmd+0xd50>
    dc88:	e59f1c18 	ldr	r1, [pc, #3096]	; e8a8 <processCmd+0xf1c>
    dc8c:	e1a00008 	mov	r0, r8
    dc90:	e08f1001 	add	r1, pc, r1
    dc94:	eb000eab 	bl	11748 <strcmp>
    dc98:	e3500000 	cmp	r0, #0
    dc9c:	03560004 	cmpeq	r6, #4
    dca0:	0affff93 	beq	daf4 <processCmd+0x168>
    dca4:	e59f1c00 	ldr	r1, [pc, #3072]	; e8ac <processCmd+0xf20>
    dca8:	e1a00008 	mov	r0, r8
    dcac:	e08f1001 	add	r1, pc, r1
    dcb0:	eb000ea4 	bl	11748 <strcmp>
    dcb4:	e3500000 	cmp	r0, #0
    dcb8:	01a02009 	moveq	r2, r9
    dcbc:	13a02000 	movne	r2, #0
    dcc0:	e3520000 	cmp	r2, #0
    dcc4:	1a000287 	bne	e6e8 <processCmd+0xd5c>
    dcc8:	e3a03042 	mov	r3, #66	; 0x42
    dccc:	e3a0c02e 	mov	ip, #46	; 0x2e
    dcd0:	e3a00049 	mov	r0, #73	; 0x49
    dcd4:	e3a0104e 	mov	r1, #78	; 0x4e
    dcd8:	e28dee13 	add	lr, sp, #304	; 0x130
    dcdc:	e08e6006 	add	r6, lr, r6
    dce0:	e5463107 	strb	r3, [r6, #-263]	; 0xfffffef9
    dce4:	e59f3bc4 	ldr	r3, [pc, #3012]	; e8b0 <processCmd+0xf24>
    dce8:	e5462104 	strb	r2, [r6, #-260]	; 0xfffffefc
    dcec:	e546c108 	strb	ip, [r6, #-264]	; 0xfffffef8
    dcf0:	e5460106 	strb	r0, [r6, #-262]	; 0xfffffefa
    dcf4:	e5461105 	strb	r1, [r6, #-261]	; 0xfffffefb
    dcf8:	e7943003 	ldr	r3, [r4, r3]
    dcfc:	e5933000 	ldr	r3, [r3]
    dd00:	e3530001 	cmp	r3, #1
    dd04:	0a00025f 	beq	e688 <processCmd+0xcfc>
    dd08:	e59f0ba4 	ldr	r0, [pc, #2980]	; e8b4 <processCmd+0xf28>
    dd0c:	e3a01040 	mov	r1, #64	; 0x40
    dd10:	e08f0000 	add	r0, pc, r0
    dd14:	e2800e19 	add	r0, r0, #400	; 0x190
    dd18:	ebfff6f6 	bl	b8f8 <message>
    dd1c:	eaffff74 	b	daf4 <processCmd+0x168>
    dd20:	e59f1b90 	ldr	r1, [pc, #2960]	; e8b8 <processCmd+0xf2c>
    dd24:	e1a00008 	mov	r0, r8
    dd28:	e08f1001 	add	r1, pc, r1
    dd2c:	eb000e85 	bl	11748 <strcmp>
    dd30:	e3500000 	cmp	r0, #0
    dd34:	01a00009 	moveq	r0, r9
    dd38:	13a00000 	movne	r0, #0
    dd3c:	e3500000 	cmp	r0, #0
    dd40:	0affff8b 	beq	db74 <processCmd+0x1e8>
    dd44:	e59f2b70 	ldr	r2, [pc, #2928]	; e8bc <processCmd+0xf30>
    dd48:	e59f3b70 	ldr	r3, [pc, #2928]	; e8c0 <processCmd+0xf34>
    dd4c:	e59f0b70 	ldr	r0, [pc, #2928]	; e8c4 <processCmd+0xf38>
    dd50:	e7942002 	ldr	r2, [r4, r2]
    dd54:	e7943003 	ldr	r3, [r4, r3]
    dd58:	e08f0000 	add	r0, pc, r0
    dd5c:	e5922000 	ldr	r2, [r2]
    dd60:	e5931000 	ldr	r1, [r3]
    dd64:	e2800f52 	add	r0, r0, #328	; 0x148
    dd68:	ebfff978 	bl	c350 <writes>
    dd6c:	eaffff60 	b	daf4 <processCmd+0x168>
    dd70:	e1a07002 	mov	r7, r2
    dd74:	e1a0c002 	mov	ip, r2
    dd78:	eaffff55 	b	dad4 <processCmd+0x148>
    dd7c:	e59f3b38 	ldr	r3, [pc, #2872]	; e8bc <processCmd+0xf30>
    dd80:	e7943003 	ldr	r3, [r4, r3]
    dd84:	e5930000 	ldr	r0, [r3]
    dd88:	ebfff954 	bl	c2e0 <clearScr>
    dd8c:	eaffff58 	b	daf4 <processCmd+0x168>
    dd90:	e59f3b18 	ldr	r3, [pc, #2840]	; e8b0 <processCmd+0xf24>
    dd94:	e7943003 	ldr	r3, [r4, r3]
    dd98:	e5933000 	ldr	r3, [r3]
    dd9c:	e3530001 	cmp	r3, #1
    dda0:	1affff53 	bne	daf4 <processCmd+0x168>
    dda4:	ebfffe30 	bl	d66c <startMGI>
    dda8:	eaffff51 	b	daf4 <processCmd+0x168>
    ddac:	e59f1b14 	ldr	r1, [pc, #2836]	; e8c8 <processCmd+0xf3c>
    ddb0:	e1a00008 	mov	r0, r8
    ddb4:	e08f1001 	add	r1, pc, r1
    ddb8:	eb000e62 	bl	11748 <strcmp>
    ddbc:	e3560002 	cmp	r6, #2
    ddc0:	03500000 	cmpeq	r0, #0
    ddc4:	1affff76 	bne	dba4 <processCmd+0x218>
    ddc8:	e28d0048 	add	r0, sp, #72	; 0x48
    ddcc:	ebfff079 	bl	9fb8 <fsDelFile>
    ddd0:	e1a05000 	mov	r5, r0
    ddd4:	e35700ff 	cmp	r7, #255	; 0xff
    ddd8:	0affff45 	beq	daf4 <processCmd+0x168>
    dddc:	e3550000 	cmp	r5, #0
    dde0:	0a000013 	beq	de34 <processCmd+0x4a8>
    dde4:	e59f2ad0 	ldr	r2, [pc, #2768]	; e8bc <processCmd+0xf30>
    dde8:	e59f3ad0 	ldr	r3, [pc, #2768]	; e8c0 <processCmd+0xf34>
    ddec:	e59f0ad8 	ldr	r0, [pc, #2776]	; e8cc <processCmd+0xf40>
    ddf0:	e7942002 	ldr	r2, [r4, r2]
    ddf4:	e7943003 	ldr	r3, [r4, r3]
    ddf8:	e08f0000 	add	r0, pc, r0
    ddfc:	e5922000 	ldr	r2, [r2]
    de00:	e5931000 	ldr	r1, [r3]
    de04:	e2800e1b 	add	r0, r0, #432	; 0x1b0
    de08:	ebfff950 	bl	c350 <writes>
    de0c:	eaffff38 	b	daf4 <processCmd+0x168>
    de10:	e59f1ab8 	ldr	r1, [pc, #2744]	; e8d0 <processCmd+0xf44>
    de14:	e1a00008 	mov	r0, r8
    de18:	e08f1001 	add	r1, pc, r1
    de1c:	eb000e49 	bl	11748 <strcmp>
    de20:	e3500000 	cmp	r0, #0
    de24:	03560004 	cmpeq	r6, #4
    de28:	1affff88 	bne	dc50 <processCmd+0x2c4>
    de2c:	e35700ff 	cmp	r7, #255	; 0xff
    de30:	0affff2f 	beq	daf4 <processCmd+0x168>
    de34:	e59f1a98 	ldr	r1, [pc, #2712]	; e8d4 <processCmd+0xf48>
    de38:	e1a00008 	mov	r0, r8
    de3c:	e08f1001 	add	r1, pc, r1
    de40:	eb000e40 	bl	11748 <strcmp>
    de44:	e3500000 	cmp	r0, #0
    de48:	1a000176 	bne	e428 <processCmd+0xa9c>
    de4c:	e5dd3048 	ldrb	r3, [sp, #72]	; 0x48
    de50:	e353002e 	cmp	r3, #46	; 0x2e
    de54:	0a0001aa 	beq	e504 <processCmd+0xb78>
    de58:	e353002f 	cmp	r3, #47	; 0x2f
    de5c:	0a0001d1 	beq	e5a8 <processCmd+0xc1c>
    de60:	e59f3a70 	ldr	r3, [pc, #2672]	; e8d8 <processCmd+0xf4c>
    de64:	e7941003 	ldr	r1, [r4, r3]
    de68:	e5913000 	ldr	r3, [r1]
    de6c:	e5532001 	ldrb	r2, [r3, #-1]
    de70:	e352002f 	cmp	r2, #47	; 0x2f
    de74:	13a0202f 	movne	r2, #47	; 0x2f
    de78:	12830001 	addne	r0, r3, #1
    de7c:	15810000 	strne	r0, [r1]
    de80:	15c32000 	strbne	r2, [r3]
    de84:	15913000 	ldrne	r3, [r1]
    de88:	e3570000 	cmp	r7, #0
    de8c:	0a000008 	beq	deb4 <processCmd+0x528>
    de90:	e28d2048 	add	r2, sp, #72	; 0x48
    de94:	e0877002 	add	r7, r7, r2
    de98:	e4d20001 	ldrb	r0, [r2], #1
    de9c:	e283c001 	add	ip, r3, #1
    dea0:	e581c000 	str	ip, [r1]
    dea4:	e1520007 	cmp	r2, r7
    dea8:	e5c30000 	strb	r0, [r3]
    deac:	e5913000 	ldr	r3, [r1]
    deb0:	1afffff8 	bne	de98 <processCmd+0x50c>
    deb4:	e3a02000 	mov	r2, #0
    deb8:	e5c32000 	strb	r2, [r3]
    debc:	eaffff0c 	b	daf4 <processCmd+0x168>
    dec0:	e59f1a14 	ldr	r1, [pc, #2580]	; e8dc <processCmd+0xf50>
    dec4:	e1a00008 	mov	r0, r8
    dec8:	e08f1001 	add	r1, pc, r1
    decc:	eb000e1d 	bl	11748 <strcmp>
    ded0:	e3500000 	cmp	r0, #0
    ded4:	0affff4d 	beq	dc10 <processCmd+0x284>
    ded8:	e59f1a00 	ldr	r1, [pc, #2560]	; e8e0 <processCmd+0xf54>
    dedc:	e1a00008 	mov	r0, r8
    dee0:	e08f1001 	add	r1, pc, r1
    dee4:	eb000e17 	bl	11748 <strcmp>
    dee8:	eaffff4c 	b	dc20 <processCmd+0x294>
    deec:	e59f19f0 	ldr	r1, [pc, #2544]	; e8e4 <processCmd+0xf58>
    def0:	e1a00008 	mov	r0, r8
    def4:	e08f1001 	add	r1, pc, r1
    def8:	eb000e12 	bl	11748 <strcmp>
    defc:	e3500000 	cmp	r0, #0
    df00:	1a000197 	bne	e564 <processCmd+0xbd8>
    df04:	e3560002 	cmp	r6, #2
    df08:	1affff3c 	bne	dc00 <processCmd+0x274>
    df0c:	e28d0048 	add	r0, sp, #72	; 0x48
    df10:	ebfff164 	bl	a4a8 <fsMakeDir>
    df14:	e1a05000 	mov	r5, r0
    df18:	eaffffad 	b	ddd4 <processCmd+0x448>
    df1c:	e3a01008 	mov	r1, #8
    df20:	ebffec22 	bl	8fb0 <fsFindInDir>
    df24:	e3700011 	cmn	r0, #17
    df28:	8a0001b4 	bhi	e600 <processCmd+0xc74>
    df2c:	e59f198c 	ldr	r1, [pc, #2444]	; e8c0 <processCmd+0xf34>
    df30:	e59f39b0 	ldr	r3, [pc, #2480]	; e8e8 <processCmd+0xf5c>
    df34:	e7941001 	ldr	r1, [r4, r1]
    df38:	e59f097c 	ldr	r0, [pc, #2428]	; e8bc <processCmd+0xf30>
    df3c:	e59f29a8 	ldr	r2, [pc, #2472]	; e8ec <processCmd+0xf60>
    df40:	e08f3003 	add	r3, pc, r3
    df44:	e794b000 	ldr	fp, [r4, r0]
    df48:	e2833f5b 	add	r3, r3, #364	; 0x16c
    df4c:	e58d1004 	str	r1, [sp, #4]
    df50:	e7949002 	ldr	r9, [r4, r2]
    df54:	e58d300c 	str	r3, [sp, #12]
    df58:	e28d3088 	add	r3, sp, #136	; 0x88
    df5c:	e58d3000 	str	r3, [sp]
    df60:	e28d3067 	add	r3, sp, #103	; 0x67
    df64:	e28d8068 	add	r8, sp, #104	; 0x68
    df68:	e58d3010 	str	r3, [sp, #16]
    df6c:	e58d4014 	str	r4, [sp, #20]
    df70:	e5993000 	ldr	r3, [r9]
    df74:	e5d3300d 	ldrb	r3, [r3, #13]
    df78:	e3530008 	cmp	r3, #8
    df7c:	0a0000e1 	beq	e308 <processCmd+0x97c>
    df80:	e28d60b0 	add	r6, sp, #176	; 0xb0
    df84:	e3a02080 	mov	r2, #128	; 0x80
    df88:	e1a00006 	mov	r0, r6
    df8c:	e3a01000 	mov	r1, #0
    df90:	e28d40d7 	add	r4, sp, #215	; 0xd7
    df94:	eb000d3a 	bl	11484 <memset>
    df98:	e1a02004 	mov	r2, r4
    df9c:	e1a03009 	mov	r3, r9
    dfa0:	e2890028 	add	r0, r9, #40	; 0x28
    dfa4:	e4d31001 	ldrb	r1, [r3], #1
    dfa8:	e1530000 	cmp	r3, r0
    dfac:	e5e21001 	strb	r1, [r2, #1]!
    dfb0:	1afffffb 	bne	dfa4 <processCmd+0x618>
    dfb4:	e5993000 	ldr	r3, [r9]
    dfb8:	e5d3200d 	ldrb	r2, [r3, #13]
    dfbc:	e3520010 	cmp	r2, #16
    dfc0:	0a00010e 	beq	e400 <processCmd+0xa74>
    dfc4:	e5937028 	ldr	r7, [r3, #40]	; 0x28
    dfc8:	e3170103 	tst	r7, #-1073741824	; 0xc0000000
    dfcc:	0a000135 	beq	e4a8 <processCmd+0xb1c>
    dfd0:	e3a03047 	mov	r3, #71	; 0x47
    dfd4:	e1a07f27 	lsr	r7, r7, #30
    dfd8:	e2877001 	add	r7, r7, #1
    dfdc:	e3a05000 	mov	r5, #0
    dfe0:	e3a0200a 	mov	r2, #10
    dfe4:	e1a01005 	mov	r1, r5
    dfe8:	e1a00005 	mov	r0, r5
    dfec:	e58d3008 	str	r3, [sp, #8]
    dff0:	eb000d23 	bl	11484 <memset>
    dff4:	e1a01005 	mov	r1, r5
    dff8:	e3a0200a 	mov	r2, #10
    dffc:	e1a00007 	mov	r0, r7
    e000:	eb000de2 	bl	11790 <itoa>
    e004:	e59d3008 	ldr	r3, [sp, #8]
    e008:	e1a02005 	mov	r2, r5
    e00c:	e2455001 	sub	r5, r5, #1
    e010:	e5f51001 	ldrb	r1, [r5, #1]!
    e014:	e3510000 	cmp	r1, #0
    e018:	0a000176 	beq	e5f8 <processCmd+0xc6c>
    e01c:	e2822001 	add	r2, r2, #1
    e020:	e3520004 	cmp	r2, #4
    e024:	1afffff9 	bne	e010 <processCmd+0x684>
    e028:	e3a01000 	mov	r1, #0
    e02c:	e3a02000 	mov	r2, #0
    e030:	e3a0e020 	mov	lr, #32
    e034:	e261c000 	rsb	ip, r1, #0
    e038:	e1510002 	cmp	r1, r2
    e03c:	97dc0002 	ldrbls	r0, [ip, r2]
    e040:	87c6e002 	strbhi	lr, [r6, r2]
    e044:	97c60002 	strbls	r0, [r6, r2]
    e048:	e2822001 	add	r2, r2, #1
    e04c:	e3520004 	cmp	r2, #4
    e050:	1afffff8 	bne	e038 <processCmd+0x6ac>
    e054:	e5cd30b4 	strb	r3, [sp, #180]	; 0xb4
    e058:	e5993000 	ldr	r3, [r9]
    e05c:	e3a02020 	mov	r2, #32
    e060:	e3a05000 	mov	r5, #0
    e064:	e5cd20b5 	strb	r2, [sp, #181]	; 0xb5
    e068:	e593701c 	ldr	r7, [r3, #28]
    e06c:	e59d0014 	ldr	r0, [sp, #20]
    e070:	e1a032a7 	lsr	r3, r7, #5
    e074:	e203300f 	and	r3, r3, #15
    e078:	e2433001 	sub	r3, r3, #1
    e07c:	e353000b 	cmp	r3, #11
    e080:	81a03005 	movhi	r3, r5
    e084:	e59f1864 	ldr	r1, [pc, #2148]	; e8f0 <processCmd+0xf64>
    e088:	e0833083 	add	r3, r3, r3, lsl #1
    e08c:	e7901001 	ldr	r1, [r0, r1]
    e090:	e207701f 	and	r7, r7, #31
    e094:	e0810003 	add	r0, r1, r3
    e098:	e7d1c003 	ldrb	ip, [r1, r3]
    e09c:	e5d01001 	ldrb	r1, [r0, #1]
    e0a0:	e5d03002 	ldrb	r3, [r0, #2]
    e0a4:	e5cd20b9 	strb	r2, [sp, #185]	; 0xb9
    e0a8:	e1a00005 	mov	r0, r5
    e0ac:	e3a0200a 	mov	r2, #10
    e0b0:	e5cd10b7 	strb	r1, [sp, #183]	; 0xb7
    e0b4:	e1a01005 	mov	r1, r5
    e0b8:	e5cdc0b6 	strb	ip, [sp, #182]	; 0xb6
    e0bc:	e5cd30b8 	strb	r3, [sp, #184]	; 0xb8
    e0c0:	eb000cef 	bl	11484 <memset>
    e0c4:	e3a0200a 	mov	r2, #10
    e0c8:	e1a01005 	mov	r1, r5
    e0cc:	e1a00007 	mov	r0, r7
    e0d0:	eb000dae 	bl	11790 <itoa>
    e0d4:	e3570009 	cmp	r7, #9
    e0d8:	c3a05000 	movgt	r5, #0
    e0dc:	d5d53000 	ldrble	r3, [r5]
    e0e0:	c5d53001 	ldrbgt	r3, [r5, #1]
    e0e4:	d3a02030 	movle	r2, #48	; 0x30
    e0e8:	e5cd30bb 	strb	r3, [sp, #187]	; 0xbb
    e0ec:	e3a03020 	mov	r3, #32
    e0f0:	c5d52000 	ldrbgt	r2, [r5]
    e0f4:	e3a05000 	mov	r5, #0
    e0f8:	e5cd20ba 	strb	r2, [sp, #186]	; 0xba
    e0fc:	e5992000 	ldr	r2, [r9]
    e100:	e5cd30bc 	strb	r3, [sp, #188]	; 0xbc
    e104:	e592701c 	ldr	r7, [r2, #28]
    e108:	e1a01005 	mov	r1, r5
    e10c:	e1a074a7 	lsr	r7, r7, #9
    e110:	e207707f 	and	r7, r7, #127	; 0x7f
    e114:	e2877e7b 	add	r7, r7, #1968	; 0x7b0
    e118:	e3a0200a 	mov	r2, #10
    e11c:	e1a00005 	mov	r0, r5
    e120:	e287700c 	add	r7, r7, #12
    e124:	e58d3008 	str	r3, [sp, #8]
    e128:	eb000cd5 	bl	11484 <memset>
    e12c:	e1a01005 	mov	r1, r5
    e130:	e3a0200a 	mov	r2, #10
    e134:	e1a00007 	mov	r0, r7
    e138:	eb000d94 	bl	11790 <itoa>
    e13c:	e5d52003 	ldrb	r2, [r5, #3]
    e140:	e5d5c000 	ldrb	ip, [r5]
    e144:	e5d50001 	ldrb	r0, [r5, #1]
    e148:	e5d51002 	ldrb	r1, [r5, #2]
    e14c:	e59d3008 	ldr	r3, [sp, #8]
    e150:	e599e000 	ldr	lr, [r9]
    e154:	e5cd30c1 	strb	r3, [sp, #193]	; 0xc1
    e158:	e5cdc0bd 	strb	ip, [sp, #189]	; 0xbd
    e15c:	e5cd00be 	strb	r0, [sp, #190]	; 0xbe
    e160:	e5cd10bf 	strb	r1, [sp, #191]	; 0xbf
    e164:	e5cd20c0 	strb	r2, [sp, #192]	; 0xc0
    e168:	e5de2000 	ldrb	r2, [lr]
    e16c:	e31200df 	tst	r2, #223	; 0xdf
    e170:	0a0000e0 	beq	e4f8 <processCmd+0xb6c>
    e174:	e28dc0c2 	add	ip, sp, #194	; 0xc2
    e178:	e28e0001 	add	r0, lr, #1
    e17c:	e3a03012 	mov	r3, #18
    e180:	ea000000 	b	e188 <processCmd+0x7fc>
    e184:	e1a03001 	mov	r3, r1
    e188:	e4cc2001 	strb	r2, [ip], #1
    e18c:	e4d02001 	ldrb	r2, [r0], #1
    e190:	e2831001 	add	r1, r3, #1
    e194:	e20250df 	and	r5, r2, #223	; 0xdf
    e198:	e3530019 	cmp	r3, #25
    e19c:	13550000 	cmpne	r5, #0
    e1a0:	1afffff7 	bne	e184 <processCmd+0x7f8>
    e1a4:	e2833002 	add	r3, r3, #2
    e1a8:	e3a0202e 	mov	r2, #46	; 0x2e
    e1ac:	e28d0e13 	add	r0, sp, #304	; 0x130
    e1b0:	e0801001 	add	r1, r0, r1
    e1b4:	e5412080 	strb	r2, [r1, #-128]	; 0xffffff80
    e1b8:	e5de2009 	ldrb	r2, [lr, #9]
    e1bc:	e31200df 	tst	r2, #223	; 0xdf
    e1c0:	0a000093 	beq	e414 <processCmd+0xa88>
    e1c4:	e3a01000 	mov	r1, #0
    e1c8:	e0866003 	add	r6, r6, r3
    e1cc:	e28e000a 	add	r0, lr, #10
    e1d0:	e4c62001 	strb	r2, [r6], #1
    e1d4:	e4d02001 	ldrb	r2, [r0], #1
    e1d8:	e2833001 	add	r3, r3, #1
    e1dc:	e31200df 	tst	r2, #223	; 0xdf
    e1e0:	e2811001 	add	r1, r1, #1
    e1e4:	0a000001 	beq	e1f0 <processCmd+0x864>
    e1e8:	e3510003 	cmp	r1, #3
    e1ec:	1afffff7 	bne	e1d0 <processCmd+0x844>
    e1f0:	e28d2e13 	add	r2, sp, #304	; 0x130
    e1f4:	e0823003 	add	r3, r2, r3
    e1f8:	e5de200d 	ldrb	r2, [lr, #13]
    e1fc:	e543a080 	strb	sl, [r3, #-128]	; 0xffffff80
    e200:	e3520010 	cmp	r2, #16
    e204:	03a0202f 	moveq	r2, #47	; 0x2f
    e208:	05432081 	strbeq	r2, [r3, #-129]	; 0xffffff7f
    e20c:	e28d30af 	add	r3, sp, #175	; 0xaf
    e210:	e28d2087 	add	r2, sp, #135	; 0x87
    e214:	e5f31001 	ldrb	r1, [r3, #1]!
    e218:	e1530004 	cmp	r3, r4
    e21c:	e5e21001 	strb	r1, [r2, #1]!
    e220:	1afffffb 	bne	e214 <processCmd+0x888>
    e224:	e59d4004 	ldr	r4, [sp, #4]
    e228:	e59b2000 	ldr	r2, [fp]
    e22c:	e5941000 	ldr	r1, [r4]
    e230:	e59d000c 	ldr	r0, [sp, #12]
    e234:	ebfff845 	bl	c350 <writes>
    e238:	e5941000 	ldr	r1, [r4]
    e23c:	e59d0000 	ldr	r0, [sp]
    e240:	e59b2000 	ldr	r2, [fp]
    e244:	ebfff841 	bl	c350 <writes>
    e248:	e3a03000 	mov	r3, #0
    e24c:	e599c000 	ldr	ip, [r9]
    e250:	e59d0010 	ldr	r0, [sp, #16]
    e254:	e24c1001 	sub	r1, ip, #1
    e258:	e5f12001 	ldrb	r2, [r1, #1]!
    e25c:	e3520020 	cmp	r2, #32
    e260:	e5e02001 	strb	r2, [r0, #1]!
    e264:	0a000023 	beq	e2f8 <processCmd+0x96c>
    e268:	e2833001 	add	r3, r3, #1
    e26c:	e3530008 	cmp	r3, #8
    e270:	1afffff8 	bne	e258 <processCmd+0x8cc>
    e274:	e28d2f4e 	add	r2, sp, #312	; 0x138
    e278:	e542a0c8 	strb	sl, [r2, #-200]	; 0xffffff38
    e27c:	e5dc1000 	ldrb	r1, [ip]
    e280:	e351002e 	cmp	r1, #46	; 0x2e
    e284:	0a00000e 	beq	e2c4 <processCmd+0x938>
    e288:	e3a0102e 	mov	r1, #46	; 0x2e
    e28c:	e28cc009 	add	ip, ip, #9
    e290:	e54210c8 	strb	r1, [r2, #-200]	; 0xffffff38
    e294:	e2832001 	add	r2, r3, #1
    e298:	e2833004 	add	r3, r3, #4
    e29c:	e4dc1001 	ldrb	r1, [ip], #1
    e2a0:	e3510020 	cmp	r1, #32
    e2a4:	e7c81002 	strb	r1, [r8, r2]
    e2a8:	0a0000b9 	beq	e594 <processCmd+0xc08>
    e2ac:	e2822001 	add	r2, r2, #1
    e2b0:	e1530002 	cmp	r3, r2
    e2b4:	1afffff8 	bne	e29c <processCmd+0x910>
    e2b8:	e28d2e13 	add	r2, sp, #304	; 0x130
    e2bc:	e0823003 	add	r3, r2, r3
    e2c0:	e543a0c8 	strb	sl, [r3, #-200]	; 0xffffff38
    e2c4:	e3a01009 	mov	r1, #9
    e2c8:	e1a00008 	mov	r0, r8
    e2cc:	ebffeb37 	bl	8fb0 <fsFindInDir>
    e2d0:	e3700011 	cmn	r0, #17
    e2d4:	9affff25 	bls	df70 <processCmd+0x5e4>
    e2d8:	e59f0614 	ldr	r0, [pc, #1556]	; e8f4 <processCmd+0xf68>
    e2dc:	e59d3004 	ldr	r3, [sp, #4]
    e2e0:	e08f0000 	add	r0, pc, r0
    e2e4:	e59b2000 	ldr	r2, [fp]
    e2e8:	e5931000 	ldr	r1, [r3]
    e2ec:	e2800f5b 	add	r0, r0, #364	; 0x16c
    e2f0:	ebfff816 	bl	c350 <writes>
    e2f4:	eafffdfe 	b	daf4 <processCmd+0x168>
    e2f8:	e28d2e13 	add	r2, sp, #304	; 0x130
    e2fc:	e0822003 	add	r2, r2, r3
    e300:	e542a0c8 	strb	sl, [r2, #-200]	; 0xffffff38
    e304:	eaffffdb 	b	e278 <processCmd+0x8ec>
    e308:	e3a02028 	mov	r2, #40	; 0x28
    e30c:	e3a01020 	mov	r1, #32
    e310:	e3a0404e 	mov	r4, #78	; 0x4e
    e314:	e59d0000 	ldr	r0, [sp]
    e318:	eb000c59 	bl	11484 <memset>
    e31c:	e3a06044 	mov	r6, #68	; 0x44
    e320:	e3a02073 	mov	r2, #115	; 0x73
    e324:	e3a03020 	mov	r3, #32
    e328:	e3a01069 	mov	r1, #105	; 0x69
    e32c:	e3a00065 	mov	r0, #101	; 0x65
    e330:	e3a0506b 	mov	r5, #107	; 0x6b
    e334:	e3a0e061 	mov	lr, #97	; 0x61
    e338:	e3a0c06d 	mov	ip, #109	; 0x6d
    e33c:	e5cd4092 	strb	r4, [sp, #146]	; 0x92
    e340:	e5994000 	ldr	r4, [r9]
    e344:	e5cd0095 	strb	r0, [sp, #149]	; 0x95
    e348:	e5cd608d 	strb	r6, [sp, #141]	; 0x8d
    e34c:	e5cd108e 	strb	r1, [sp, #142]	; 0x8e
    e350:	e5cd1097 	strb	r1, [sp, #151]	; 0x97
    e354:	e5cd208f 	strb	r2, [sp, #143]	; 0x8f
    e358:	e5cd2098 	strb	r2, [sp, #152]	; 0x98
    e35c:	e5cd5090 	strb	r5, [sp, #144]	; 0x90
    e360:	e5cd3091 	strb	r3, [sp, #145]	; 0x91
    e364:	e5cd3096 	strb	r3, [sp, #150]	; 0x96
    e368:	e5cd3099 	strb	r3, [sp, #153]	; 0x99
    e36c:	e5cde093 	strb	lr, [sp, #147]	; 0x93
    e370:	e5cdc094 	strb	ip, [sp, #148]	; 0x94
    e374:	e5d42000 	ldrb	r2, [r4]
    e378:	e3520000 	cmp	r2, #0
    e37c:	03a00012 	moveq	r0, #18
    e380:	0a00000c 	beq	e3b8 <processCmd+0xa2c>
    e384:	e3a01012 	mov	r1, #18
    e388:	e28de09a 	add	lr, sp, #154	; 0x9a
    e38c:	e284c001 	add	ip, r4, #1
    e390:	e4ce2001 	strb	r2, [lr], #1
    e394:	e4dc2001 	ldrb	r2, [ip], #1
    e398:	e2513019 	subs	r3, r1, #25
    e39c:	13a03001 	movne	r3, #1
    e3a0:	e3520000 	cmp	r2, #0
    e3a4:	03a03000 	moveq	r3, #0
    e3a8:	e2810001 	add	r0, r1, #1
    e3ac:	e3530000 	cmp	r3, #0
    e3b0:	e1a01000 	mov	r1, r0
    e3b4:	1afffff5 	bne	e390 <processCmd+0xa04>
    e3b8:	e5d42009 	ldrb	r2, [r4, #9]
    e3bc:	e1a03000 	mov	r3, r0
    e3c0:	e3520000 	cmp	r2, #0
    e3c4:	0a000009 	beq	e3f0 <processCmd+0xa64>
    e3c8:	e59d1000 	ldr	r1, [sp]
    e3cc:	e284400a 	add	r4, r4, #10
    e3d0:	e0811000 	add	r1, r1, r0
    e3d4:	e4c12001 	strb	r2, [r1], #1
    e3d8:	e2833001 	add	r3, r3, #1
    e3dc:	e4d42001 	ldrb	r2, [r4], #1
    e3e0:	e043c000 	sub	ip, r3, r0
    e3e4:	e35c0003 	cmp	ip, #3
    e3e8:	13520000 	cmpne	r2, #0
    e3ec:	1afffff8 	bne	e3d4 <processCmd+0xa48>
    e3f0:	e28d2e13 	add	r2, sp, #304	; 0x130
    e3f4:	e0823003 	add	r3, r2, r3
    e3f8:	e543a0a8 	strb	sl, [r3, #-168]	; 0xffffff58
    e3fc:	eaffff88 	b	e224 <processCmd+0x898>
    e400:	e3a02030 	mov	r2, #48	; 0x30
    e404:	e59f14ec 	ldr	r1, [pc, #1260]	; e8f8 <processCmd+0xf6c>
    e408:	e5cd20b4 	strb	r2, [sp, #180]	; 0xb4
    e40c:	e58d10b0 	str	r1, [sp, #176]	; 0xb0
    e410:	eaffff11 	b	e05c <processCmd+0x6d0>
    e414:	e3a02020 	mov	r2, #32
    e418:	e28d1e13 	add	r1, sp, #304	; 0x130
    e41c:	e0813003 	add	r3, r1, r3
    e420:	e5432081 	strb	r2, [r3, #-129]	; 0xffffff7f
    e424:	eaffff73 	b	e1f8 <processCmd+0x86c>
    e428:	e59f14cc 	ldr	r1, [pc, #1228]	; e8fc <processCmd+0xf70>
    e42c:	e1a00008 	mov	r0, r8
    e430:	e08f1001 	add	r1, pc, r1
    e434:	eb000cc3 	bl	11748 <strcmp>
    e438:	e3500000 	cmp	r0, #0
    e43c:	1a00007a 	bne	e62c <processCmd+0xca0>
    e440:	e28d3088 	add	r3, sp, #136	; 0x88
    e444:	e58d3000 	str	r3, [sp]
    e448:	e28d2092 	add	r2, sp, #146	; 0x92
    e44c:	e4c30001 	strb	r0, [r3], #1
    e450:	e1530002 	cmp	r3, r2
    e454:	1afffffc 	bne	e44c <processCmd+0xac0>
    e458:	e59f245c 	ldr	r2, [pc, #1116]	; e8bc <processCmd+0xf30>
    e45c:	e59f345c 	ldr	r3, [pc, #1116]	; e8c0 <processCmd+0xf34>
    e460:	e5cd0092 	strb	r0, [sp, #146]	; 0x92
    e464:	e7946002 	ldr	r6, [r4, r2]
    e468:	e7945003 	ldr	r5, [r4, r3]
    e46c:	e59f448c 	ldr	r4, [pc, #1164]	; e900 <processCmd+0xf74>
    e470:	e5962000 	ldr	r2, [r6]
    e474:	e08f4004 	add	r4, pc, r4
    e478:	e5951000 	ldr	r1, [r5]
    e47c:	e2840f73 	add	r0, r4, #460	; 0x1cc
    e480:	ebfff7b2 	bl	c350 <writes>
    e484:	e59d0000 	ldr	r0, [sp]
    e488:	e5962000 	ldr	r2, [r6]
    e48c:	e5951000 	ldr	r1, [r5]
    e490:	ebfff7ae 	bl	c350 <writes>
    e494:	e5962000 	ldr	r2, [r6]
    e498:	e5951000 	ldr	r1, [r5]
    e49c:	e2840f5b 	add	r0, r4, #364	; 0x16c
    e4a0:	ebfff7aa 	bl	c350 <writes>
    e4a4:	eafffd92 	b	daf4 <processCmd+0x168>
    e4a8:	e59f3454 	ldr	r3, [pc, #1108]	; e904 <processCmd+0xf78>
    e4ac:	e0033007 	and	r3, r3, r7
    e4b0:	e3530000 	cmp	r3, #0
    e4b4:	0a000046 	beq	e5d4 <processCmd+0xc48>
    e4b8:	e1a07a47 	asr	r7, r7, #20
    e4bc:	e2877001 	add	r7, r7, #1
    e4c0:	e3a0304d 	mov	r3, #77	; 0x4d
    e4c4:	eafffec4 	b	dfdc <processCmd+0x650>
    e4c8:	e28d1018 	add	r1, sp, #24
    e4cc:	e28d0068 	add	r0, sp, #104	; 0x68
    e4d0:	ebffeebf 	bl	9fd4 <fsRenameFile>
    e4d4:	e1a05000 	mov	r5, r0
    e4d8:	eafffe3d 	b	ddd4 <processCmd+0x448>
    e4dc:	e28d0068 	add	r0, sp, #104	; 0x68
    e4e0:	ebffedfc 	bl	9cd8 <fsOpenFile>
    e4e4:	e3500000 	cmp	r0, #0
    e4e8:	0a000071 	beq	e6b4 <processCmd+0xd28>
    e4ec:	e35700ff 	cmp	r7, #255	; 0xff
    e4f0:	1afffe3b 	bne	dde4 <processCmd+0x458>
    e4f4:	eafffd7e 	b	daf4 <processCmd+0x168>
    e4f8:	e3a03013 	mov	r3, #19
    e4fc:	e3a01012 	mov	r1, #18
    e500:	eaffff28 	b	e1a8 <processCmd+0x81c>
    e504:	e5dd3049 	ldrb	r3, [sp, #73]	; 0x49
    e508:	e353002e 	cmp	r3, #46	; 0x2e
    e50c:	1afffd78 	bne	daf4 <processCmd+0x168>
    e510:	e59f33c0 	ldr	r3, [pc, #960]	; e8d8 <processCmd+0xf4c>
    e514:	e7941003 	ldr	r1, [r4, r3]
    e518:	e5913000 	ldr	r3, [r1]
    e51c:	e5d32000 	ldrb	r2, [r3]
    e520:	e352002f 	cmp	r2, #47	; 0x2f
    e524:	0a000006 	beq	e544 <processCmd+0xbb8>
    e528:	e2432001 	sub	r2, r3, #1
    e52c:	e5812000 	str	r2, [r1]
    e530:	e5c30000 	strb	r0, [r3]
    e534:	e5913000 	ldr	r3, [r1]
    e538:	e5d32000 	ldrb	r2, [r3]
    e53c:	e352002f 	cmp	r2, #47	; 0x2f
    e540:	1afffff8 	bne	e528 <processCmd+0xb9c>
    e544:	e59f23bc 	ldr	r2, [pc, #956]	; e908 <processCmd+0xf7c>
    e548:	e7942002 	ldr	r2, [r4, r2]
    e54c:	e5922000 	ldr	r2, [r2]
    e550:	e1520003 	cmp	r2, r3
    e554:	22833001 	addcs	r3, r3, #1
    e558:	25813000 	strcs	r3, [r1]
    e55c:	2afffd64 	bcs	daf4 <processCmd+0x168>
    e560:	eafffe53 	b	deb4 <processCmd+0x528>
    e564:	e59f13a0 	ldr	r1, [pc, #928]	; e90c <processCmd+0xf80>
    e568:	e1a00008 	mov	r0, r8
    e56c:	e08f1001 	add	r1, pc, r1
    e570:	eb000c74 	bl	11748 <strcmp>
    e574:	e3500000 	cmp	r0, #0
    e578:	1a0000ae 	bne	e838 <processCmd+0xeac>
    e57c:	e3560002 	cmp	r6, #2
    e580:	1afffda2 	bne	dc10 <processCmd+0x284>
    e584:	e28d0048 	add	r0, sp, #72	; 0x48
    e588:	ebffefd5 	bl	a4e4 <fsChangeDir>
    e58c:	e1a05000 	mov	r5, r0
    e590:	eafffe0f 	b	ddd4 <processCmd+0x448>
    e594:	e28d3e13 	add	r3, sp, #304	; 0x130
    e598:	e0833002 	add	r3, r3, r2
    e59c:	e543a0c8 	strb	sl, [r3, #-200]	; 0xffffff38
    e5a0:	e1a03002 	mov	r3, r2
    e5a4:	eaffff43 	b	e2b8 <processCmd+0x92c>
    e5a8:	e59f1358 	ldr	r1, [pc, #856]	; e908 <processCmd+0xf7c>
    e5ac:	e59f2324 	ldr	r2, [pc, #804]	; e8d8 <processCmd+0xf4c>
    e5b0:	e7941001 	ldr	r1, [r4, r1]
    e5b4:	e7942002 	ldr	r2, [r4, r2]
    e5b8:	e5911000 	ldr	r1, [r1]
    e5bc:	e281c001 	add	ip, r1, #1
    e5c0:	e582c000 	str	ip, [r2]
    e5c4:	e5c13000 	strb	r3, [r1]
    e5c8:	e5923000 	ldr	r3, [r2]
    e5cc:	e5c30000 	strb	r0, [r3]
    e5d0:	eafffd47 	b	daf4 <processCmd+0x168>
    e5d4:	e59f3334 	ldr	r3, [pc, #820]	; e910 <processCmd+0xf84>
    e5d8:	e0033007 	and	r3, r3, r7
    e5dc:	e3530000 	cmp	r3, #0
    e5e0:	159f232c 	ldrne	r2, [pc, #812]	; e914 <processCmd+0xf88>
    e5e4:	13a0304b 	movne	r3, #75	; 0x4b
    e5e8:	10027547 	andne	r7, r2, r7, asr #10
    e5ec:	12877001 	addne	r7, r7, #1
    e5f0:	03a03020 	moveq	r3, #32
    e5f4:	eafffe78 	b	dfdc <processCmd+0x650>
    e5f8:	e2621004 	rsb	r1, r2, #4
    e5fc:	eafffe8a 	b	e02c <processCmd+0x6a0>
    e600:	e59f22b4 	ldr	r2, [pc, #692]	; e8bc <processCmd+0xf30>
    e604:	e59f32b4 	ldr	r3, [pc, #692]	; e8c0 <processCmd+0xf34>
    e608:	e59f0308 	ldr	r0, [pc, #776]	; e918 <processCmd+0xf8c>
    e60c:	e7942002 	ldr	r2, [r4, r2]
    e610:	e7943003 	ldr	r3, [r4, r3]
    e614:	e08f0000 	add	r0, pc, r0
    e618:	e5922000 	ldr	r2, [r2]
    e61c:	e5931000 	ldr	r1, [r3]
    e620:	e2800f56 	add	r0, r0, #344	; 0x158
    e624:	ebfff749 	bl	c350 <writes>
    e628:	eafffd31 	b	daf4 <processCmd+0x168>
    e62c:	e59f12e8 	ldr	r1, [pc, #744]	; e91c <processCmd+0xf90>
    e630:	e1a00008 	mov	r0, r8
    e634:	e08f1001 	add	r1, pc, r1
    e638:	eb000c42 	bl	11748 <strcmp>
    e63c:	e3500000 	cmp	r0, #0
    e640:	1a00002b 	bne	e6f4 <processCmd+0xd68>
    e644:	e59f2270 	ldr	r2, [pc, #624]	; e8bc <processCmd+0xf30>
    e648:	e59f3270 	ldr	r3, [pc, #624]	; e8c0 <processCmd+0xf34>
    e64c:	e58d0088 	str	r0, [sp, #136]	; 0x88
    e650:	e58d008c 	str	r0, [sp, #140]	; 0x8c
    e654:	e5cd0090 	strb	r0, [sp, #144]	; 0x90
    e658:	e7946002 	ldr	r6, [r4, r2]
    e65c:	e7945003 	ldr	r5, [r4, r3]
    e660:	e59f42b8 	ldr	r4, [pc, #696]	; e920 <processCmd+0xf94>
    e664:	e5962000 	ldr	r2, [r6]
    e668:	e08f4004 	add	r4, pc, r4
    e66c:	e5951000 	ldr	r1, [r5]
    e670:	e2840f76 	add	r0, r4, #472	; 0x1d8
    e674:	ebfff735 	bl	c350 <writes>
    e678:	e5962000 	ldr	r2, [r6]
    e67c:	e5951000 	ldr	r1, [r5]
    e680:	e28d0088 	add	r0, sp, #136	; 0x88
    e684:	eaffff81 	b	e490 <processCmd+0xb04>
    e688:	e59f222c 	ldr	r2, [pc, #556]	; e8bc <processCmd+0xf30>
    e68c:	e59f322c 	ldr	r3, [pc, #556]	; e8c0 <processCmd+0xf34>
    e690:	e59f028c 	ldr	r0, [pc, #652]	; e924 <processCmd+0xf98>
    e694:	e7942002 	ldr	r2, [r4, r2]
    e698:	e7943003 	ldr	r3, [r4, r3]
    e69c:	e08f0000 	add	r0, pc, r0
    e6a0:	e5922000 	ldr	r2, [r2]
    e6a4:	e5931000 	ldr	r1, [r3]
    e6a8:	e2800e17 	add	r0, r0, #368	; 0x170
    e6ac:	ebfff727 	bl	c350 <writes>
    e6b0:	eafffd0f 	b	daf4 <processCmd+0x168>
    e6b4:	e28d6018 	add	r6, sp, #24
    e6b8:	e1a00006 	mov	r0, r6
    e6bc:	ebffed85 	bl	9cd8 <fsOpenFile>
    e6c0:	e3500000 	cmp	r0, #0
    e6c4:	0afffdc2 	beq	ddd4 <processCmd+0x448>
    e6c8:	e1a00006 	mov	r0, r6
    e6cc:	ebffed72 	bl	9c9c <fsCreateFile>
    e6d0:	e3500000 	cmp	r0, #0
    e6d4:	1affff84 	bne	e4ec <processCmd+0xb60>
    e6d8:	eafffdbd 	b	ddd4 <processCmd+0x448>
    e6dc:	e3a00001 	mov	r0, #1
    e6e0:	ebfff816 	bl	c740 <loadCFG>
    e6e4:	eafffd02 	b	daf4 <processCmd+0x168>
    e6e8:	e28d0048 	add	r0, sp, #72	; 0x48
    e6ec:	ebfff901 	bl	caf8 <catFile>
    e6f0:	eafffcff 	b	daf4 <processCmd+0x168>
    e6f4:	e59f122c 	ldr	r1, [pc, #556]	; e928 <processCmd+0xf9c>
    e6f8:	e1a00008 	mov	r0, r8
    e6fc:	e08f1001 	add	r1, pc, r1
    e700:	eb000c10 	bl	11748 <strcmp>
    e704:	e3500000 	cmp	r0, #0
    e708:	1afffcf9 	bne	daf4 <processCmd+0x168>
    e70c:	e59f3218 	ldr	r3, [pc, #536]	; e92c <processCmd+0xfa0>
    e710:	e59f11a4 	ldr	r1, [pc, #420]	; e8bc <processCmd+0xf30>
    e714:	e59f21a4 	ldr	r2, [pc, #420]	; e8c0 <processCmd+0xf34>
    e718:	e59f9210 	ldr	r9, [pc, #528]	; e930 <processCmd+0xfa4>
    e71c:	e08f3003 	add	r3, pc, r3
    e720:	e794b001 	ldr	fp, [r4, r1]
    e724:	e7942002 	ldr	r2, [r4, r2]
    e728:	e08f9009 	add	r9, pc, r9
    e72c:	e2834f5b 	add	r4, r3, #364	; 0x16c
    e730:	e28d3088 	add	r3, sp, #136	; 0x88
    e734:	e58d3000 	str	r3, [sp]
    e738:	e1a03009 	mov	r3, r9
    e73c:	e59f51f0 	ldr	r5, [pc, #496]	; e934 <processCmd+0xfa8>
    e740:	e28da096 	add	sl, sp, #150	; 0x96
    e744:	e08f5005 	add	r5, pc, r5
    e748:	e2855f85 	add	r5, r5, #532	; 0x214
    e74c:	e1a09005 	mov	r9, r5
    e750:	e3a07001 	mov	r7, #1
    e754:	e1a05004 	mov	r5, r4
    e758:	e1a0400a 	mov	r4, sl
    e75c:	e1a0a003 	mov	sl, r3
    e760:	e59f61d0 	ldr	r6, [pc, #464]	; e938 <processCmd+0xfac>
    e764:	e58d2004 	str	r2, [sp, #4]
    e768:	e08f6006 	add	r6, pc, r6
    e76c:	e2866f89 	add	r6, r6, #548	; 0x224
    e770:	e28d8087 	add	r8, sp, #135	; 0x87
    e774:	e59d3004 	ldr	r3, [sp, #4]
    e778:	e2470002 	sub	r0, r7, #2
    e77c:	e5931000 	ldr	r1, [r3]
    e780:	e59b2000 	ldr	r2, [fp]
    e784:	e3500003 	cmp	r0, #3
    e788:	908ff100 	addls	pc, pc, r0, lsl #2
    e78c:	ea000021 	b	e818 <processCmd+0xe8c>
    e790:	ea00001b 	b	e804 <processCmd+0xe78>
    e794:	ea000017 	b	e7f8 <processCmd+0xe6c>
    e798:	ea000000 	b	e7a0 <processCmd+0xe14>
    e79c:	ea000022 	b	e82c <processCmd+0xea0>
    e7a0:	e1a00009 	mov	r0, r9
    e7a4:	ebfff6e9 	bl	c350 <writes>
    e7a8:	e1a02008 	mov	r2, r8
    e7ac:	e3a0c000 	mov	ip, #0
    e7b0:	e5e2c001 	strb	ip, [r2, #1]!
    e7b4:	e1520004 	cmp	r2, r4
    e7b8:	1afffffc 	bne	e7b0 <processCmd+0xe24>
    e7bc:	e59d3004 	ldr	r3, [sp, #4]
    e7c0:	e59b2000 	ldr	r2, [fp]
    e7c4:	e5931000 	ldr	r1, [r3]
    e7c8:	e59d0000 	ldr	r0, [sp]
    e7cc:	e5cdc097 	strb	ip, [sp, #151]	; 0x97
    e7d0:	ebfff6de 	bl	c350 <writes>
    e7d4:	e59d3004 	ldr	r3, [sp, #4]
    e7d8:	e2877001 	add	r7, r7, #1
    e7dc:	e59b2000 	ldr	r2, [fp]
    e7e0:	e5931000 	ldr	r1, [r3]
    e7e4:	e1a00005 	mov	r0, r5
    e7e8:	ebfff6d8 	bl	c350 <writes>
    e7ec:	e3570006 	cmp	r7, #6
    e7f0:	1affffdf 	bne	e774 <processCmd+0xde8>
    e7f4:	eafffcbe 	b	daf4 <processCmd+0x168>
    e7f8:	e28a0f81 	add	r0, sl, #516	; 0x204
    e7fc:	ebfff6d3 	bl	c350 <writes>
    e800:	eaffffe8 	b	e7a8 <processCmd+0xe1c>
    e804:	e59f0130 	ldr	r0, [pc, #304]	; e93c <processCmd+0xfb0>
    e808:	e08f0000 	add	r0, pc, r0
    e80c:	e2800f7d 	add	r0, r0, #500	; 0x1f4
    e810:	ebfff6ce 	bl	c350 <writes>
    e814:	eaffffe3 	b	e7a8 <processCmd+0xe1c>
    e818:	e59f0120 	ldr	r0, [pc, #288]	; e940 <processCmd+0xfb4>
    e81c:	e08f0000 	add	r0, pc, r0
    e820:	e2800f79 	add	r0, r0, #484	; 0x1e4
    e824:	ebfff6c9 	bl	c350 <writes>
    e828:	eaffffde 	b	e7a8 <processCmd+0xe1c>
    e82c:	e1a00006 	mov	r0, r6
    e830:	ebfff6c6 	bl	c350 <writes>
    e834:	eaffffdb 	b	e7a8 <processCmd+0xe1c>
    e838:	e59f1104 	ldr	r1, [pc, #260]	; e944 <processCmd+0xfb8>
    e83c:	e1a00008 	mov	r0, r8
    e840:	e08f1001 	add	r1, pc, r1
    e844:	eb000bbf 	bl	11748 <strcmp>
    e848:	e3500000 	cmp	r0, #0
    e84c:	03560002 	cmpeq	r6, #2
    e850:	1afffcf2 	bne	dc20 <processCmd+0x294>
    e854:	e28d0048 	add	r0, sp, #72	; 0x48
    e858:	ebffef36 	bl	a538 <fsRemoveDir>
    e85c:	e1a05000 	mov	r5, r0
    e860:	eafffd5b 	b	ddd4 <processCmd+0x448>
    e864:	0000b438 	andeq	fp, r0, r8, lsr r4
    e868:	000001f4 	strdeq	r0, [r0], -r4
    e86c:	00008a84 	andeq	r8, r0, r4, lsl #21
    e870:	00008a60 	andeq	r8, r0, r0, ror #20
    e874:	00008a18 	andeq	r8, r0, r8, lsl sl
    e878:	00008a2c 	andeq	r8, r0, ip, lsr #20
    e87c:	00008a20 	andeq	r8, r0, r0, lsr #20
    e880:	00008a04 	andeq	r8, r0, r4, lsl #20
    e884:	000089f8 	strdeq	r8, [r0], -r8	; <UNPREDICTABLE>
    e888:	000089d8 	ldrdeq	r8, [r0], -r8	; <UNPREDICTABLE>
    e88c:	000089bc 			; <UNDEFINED> instruction: 0x000089bc
    e890:	000089a8 	andeq	r8, r0, r8, lsr #19
    e894:	0000899c 	muleq	r0, ip, r9
    e898:	00008990 	muleq	r0, r0, r9
    e89c:	00008978 	andeq	r8, r0, r8, ror r9
    e8a0:	00008970 	andeq	r8, r0, r0, ror r9
    e8a4:	00008960 	andeq	r8, r0, r0, ror #18
    e8a8:	0000894c 	andeq	r8, r0, ip, asr #18
    e8ac:	00008938 	andeq	r8, r0, r8, lsr r9
    e8b0:	00000158 	andeq	r0, r0, r8, asr r1
    e8b4:	000082e8 	andeq	r8, r0, r8, ror #5
    e8b8:	00008870 	andeq	r8, r0, r0, ror r8
    e8bc:	0000003c 	andeq	r0, r0, ip, lsr r0
    e8c0:	000000e4 	andeq	r0, r0, r4, ror #1
    e8c4:	000082a0 	andeq	r8, r0, r0, lsr #5
    e8c8:	000087ec 	andeq	r8, r0, ip, ror #15
    e8cc:	00008200 	andeq	r8, r0, r0, lsl #4
    e8d0:	000087a8 	andeq	r8, r0, r8, lsr #15
    e8d4:	00008774 	andeq	r8, r0, r4, ror r7
    e8d8:	000001bc 			; <UNDEFINED> instruction: 0x000001bc
    e8dc:	000086e8 	andeq	r8, r0, r8, ror #13
    e8e0:	000086d4 	ldrdeq	r8, [r0], -r4
    e8e4:	000086b8 			; <UNDEFINED> instruction: 0x000086b8
    e8e8:	000080b8 	strheq	r8, [r0], -r8	; <UNPREDICTABLE>
    e8ec:	00000068 	andeq	r0, r0, r8, rrx
    e8f0:	0000018c 	andeq	r0, r0, ip, lsl #3
    e8f4:	00007d18 	andeq	r7, r0, r8, lsl sp
    e8f8:	20202020 	eorcs	r2, r0, r0, lsr #32
    e8fc:	00008188 	andeq	r8, r0, r8, lsl #3
    e900:	00007b84 	andeq	r7, r0, r4, lsl #23
    e904:	3ff00000 	svccc	0x00f00000	; IMB
    e908:	000001d4 	ldrdeq	r0, [r0], -r4
    e90c:	00008044 	andeq	r8, r0, r4, asr #32
    e910:	000ffc00 	andeq	pc, pc, r0, lsl #24
    e914:	000003ff 	strdeq	r0, [r0], -pc	; <UNPREDICTABLE>
    e918:	000079e4 	andeq	r7, r0, r4, ror #19
    e91c:	00007f8c 	andeq	r7, r0, ip, lsl #31
    e920:	00007990 	muleq	r0, r0, r9
    e924:	0000795c 	andeq	r7, r0, ip, asr r9
    e928:	00007ecc 	andeq	r7, r0, ip, asr #29
    e92c:	000078dc 	ldrdeq	r7, [r0], -ip
    e930:	000078d0 	ldrdeq	r7, [r0], -r0
    e934:	000078b4 			; <UNDEFINED> instruction: 0x000078b4
    e938:	00007890 	muleq	r0, r0, r8
    e93c:	000077f0 	strdeq	r7, [r0], -r0
    e940:	000077dc 	ldrdeq	r7, [r0], -ip
    e944:	00007d74 	andeq	r7, r0, r4, ror sp

0000e948 <mmsjos_main>:
    e948:	e92d4ff0 	push	{r4, r5, r6, r7, r8, r9, sl, fp, lr}
    e94c:	e1a04002 	mov	r4, r2
    e950:	e24dd034 	sub	sp, sp, #52	; 0x34
    e954:	eb000fd3 	bl	128a8 <bcm2835_init>
    e958:	e1a00004 	mov	r0, r4
    e95c:	ebffe6ba 	bl	844c <mem_init>
    e960:	ebffe5f8 	bl	8148 <interrupts_init>
    e964:	eb001c5f 	bl	15ae8 <spi_man_init>
    e968:	eb001404 	bl	13980 <TFT_Init>
    e96c:	eb001042 	bl	12a7c <Touch_Init>
    e970:	e3a03000 	mov	r3, #0
    e974:	e3a01001 	mov	r1, #1
    e978:	e59f9670 	ldr	r9, [pc, #1648]	; eff0 <mmsjos_main+0x6a8>
    e97c:	e59f0670 	ldr	r0, [pc, #1648]	; eff4 <mmsjos_main+0x6ac>
    e980:	e59f2670 	ldr	r2, [pc, #1648]	; eff8 <mmsjos_main+0x6b0>
    e984:	e08f9009 	add	r9, pc, r9
    e988:	e799c000 	ldr	ip, [r9, r0]
    e98c:	e799e002 	ldr	lr, [r9, r2]
    e990:	e59f0664 	ldr	r0, [pc, #1636]	; effc <mmsjos_main+0x6b4>
    e994:	e59f2664 	ldr	r2, [pc, #1636]	; f000 <mmsjos_main+0x6b8>
    e998:	e58ce000 	str	lr, [ip]
    e99c:	e799e000 	ldr	lr, [r9, r0]
    e9a0:	e7994002 	ldr	r4, [r9, r2]
    e9a4:	e59fc658 	ldr	ip, [pc, #1624]	; f004 <mmsjos_main+0x6bc>
    e9a8:	e59f2658 	ldr	r2, [pc, #1624]	; f008 <mmsjos_main+0x6c0>
    e9ac:	e58e4000 	str	r4, [lr]
    e9b0:	e799b00c 	ldr	fp, [r9, ip]
    e9b4:	e7994002 	ldr	r4, [r9, r2]
    e9b8:	e59fe64c 	ldr	lr, [pc, #1612]	; f00c <mmsjos_main+0x6c4>
    e9bc:	e59f264c 	ldr	r2, [pc, #1612]	; f010 <mmsjos_main+0x6c8>
    e9c0:	e58b4000 	str	r4, [fp]
    e9c4:	e799400e 	ldr	r4, [r9, lr]
    e9c8:	e7995002 	ldr	r5, [r9, r2]
    e9cc:	e59fe640 	ldr	lr, [pc, #1600]	; f014 <mmsjos_main+0x6cc>
    e9d0:	e5845000 	str	r5, [r4]
    e9d4:	e799400e 	ldr	r4, [r9, lr]
    e9d8:	e59f2638 	ldr	r2, [pc, #1592]	; f018 <mmsjos_main+0x6d0>
    e9dc:	e58d4008 	str	r4, [sp, #8]
    e9e0:	e7995002 	ldr	r5, [r9, r2]
    e9e4:	e59fe630 	ldr	lr, [pc, #1584]	; f01c <mmsjos_main+0x6d4>
    e9e8:	e59f2630 	ldr	r2, [pc, #1584]	; f020 <mmsjos_main+0x6d8>
    e9ec:	e58d5024 	str	r5, [sp, #36]	; 0x24
    e9f0:	e5845000 	str	r5, [r4]
    e9f4:	e7994002 	ldr	r4, [r9, r2]
    e9f8:	e799e00e 	ldr	lr, [r9, lr]
    e9fc:	e59f2620 	ldr	r2, [pc, #1568]	; f024 <mmsjos_main+0x6dc>
    ea00:	e58e4000 	str	r4, [lr]
    ea04:	e5c53000 	strb	r3, [r5]
    ea08:	e799e002 	ldr	lr, [r9, r2]
    ea0c:	e59f2614 	ldr	r2, [pc, #1556]	; f028 <mmsjos_main+0x6e0>
    ea10:	e58e1000 	str	r1, [lr]
    ea14:	e799e002 	ldr	lr, [r9, r2]
    ea18:	e59f260c 	ldr	r2, [pc, #1548]	; f02c <mmsjos_main+0x6e4>
    ea1c:	e58e3000 	str	r3, [lr]
    ea20:	e799e002 	ldr	lr, [r9, r2]
    ea24:	e59f2604 	ldr	r2, [pc, #1540]	; f030 <mmsjos_main+0x6e8>
    ea28:	e58e3000 	str	r3, [lr]
    ea2c:	e799e002 	ldr	lr, [r9, r2]
    ea30:	e59f25fc 	ldr	r2, [pc, #1532]	; f034 <mmsjos_main+0x6ec>
    ea34:	e58e3000 	str	r3, [lr]
    ea38:	e799e002 	ldr	lr, [r9, r2]
    ea3c:	e59f25f4 	ldr	r2, [pc, #1524]	; f038 <mmsjos_main+0x6f0>
    ea40:	e58e3000 	str	r3, [lr]
    ea44:	e7993002 	ldr	r3, [r9, r2]
    ea48:	e3a00c02 	mov	r0, #512	; 0x200
    ea4c:	e1a02003 	mov	r2, r3
    ea50:	e3e0c010 	mvn	ip, #16
    ea54:	e58d3028 	str	r3, [sp, #40]	; 0x28
    ea58:	e59f35dc 	ldr	r3, [pc, #1500]	; f03c <mmsjos_main+0x6f4>
    ea5c:	e5820000 	str	r0, [r2]
    ea60:	e7994003 	ldr	r4, [r9, r3]
    ea64:	e59f85d4 	ldr	r8, [pc, #1492]	; f040 <mmsjos_main+0x6f8>
    ea68:	e1a00004 	mov	r0, r4
    ea6c:	e5c41000 	strb	r1, [r4]
    ea70:	e5c4c001 	strb	ip, [r4, #1]
    ea74:	eb0019df 	bl	151f8 <commVDG>
    ea78:	e1d420b1 	ldrh	r2, [r4, #1]
    ea7c:	e1d430b3 	ldrh	r3, [r4, #3]
    ea80:	e59f05bc 	ldr	r0, [pc, #1468]	; f044 <mmsjos_main+0x6fc>
    ea84:	e6bf2fb2 	rev16	r2, r2
    ea88:	e6bf3fb3 	rev16	r3, r3
    ea8c:	e6ff3073 	uxth	r3, r3
    ea90:	e6ff2072 	uxth	r2, r2
    ea94:	e1520000 	cmp	r2, r0
    ea98:	035300ef 	cmpeq	r3, #239	; 0xef
    ea9c:	e59fc5a4 	ldr	ip, [pc, #1444]	; f048 <mmsjos_main+0x700>
    eaa0:	e59f15a4 	ldr	r1, [pc, #1444]	; f04c <mmsjos_main+0x704>
    eaa4:	e799700c 	ldr	r7, [r9, ip]
    eaa8:	e3a0c027 	mov	ip, #39	; 0x27
    eaac:	e5872000 	str	r2, [r7]
    eab0:	e7992001 	ldr	r2, [r9, r1]
    eab4:	e5d41000 	ldrb	r1, [r4]
    eab8:	e5823000 	str	r3, [r2]
    eabc:	13a030ef 	movne	r3, #239	; 0xef
    eac0:	e58d101c 	str	r1, [sp, #28]
    eac4:	e59f1584 	ldr	r1, [pc, #1412]	; f050 <mmsjos_main+0x708>
    eac8:	15870000 	strne	r0, [r7]
    eacc:	15823000 	strne	r3, [r2]
    ead0:	e58d202c 	str	r2, [sp, #44]	; 0x2c
    ead4:	e7991001 	ldr	r1, [r9, r1]
    ead8:	e59f2574 	ldr	r2, [pc, #1396]	; f054 <mmsjos_main+0x70c>
    eadc:	e1a0e001 	mov	lr, r1
    eae0:	e58ec000 	str	ip, [lr]
    eae4:	e58de014 	str	lr, [sp, #20]
    eae8:	e7992002 	ldr	r2, [r9, r2]
    eaec:	e3a00017 	mov	r0, #23
    eaf0:	e1a0c002 	mov	ip, r2
    eaf4:	e3a03000 	mov	r3, #0
    eaf8:	e59f1558 	ldr	r1, [pc, #1368]	; f058 <mmsjos_main+0x710>
    eafc:	e58dc020 	str	ip, [sp, #32]
    eb00:	e58c0000 	str	r0, [ip]
    eb04:	e7990001 	ldr	r0, [r9, r1]
    eb08:	e59f254c 	ldr	r2, [pc, #1356]	; f05c <mmsjos_main+0x714>
    eb0c:	e5803000 	str	r3, [r0]
    eb10:	e58d0018 	str	r0, [sp, #24]
    eb14:	e799a002 	ldr	sl, [r9, r2]
    eb18:	e59f1540 	ldr	r1, [pc, #1344]	; f060 <mmsjos_main+0x718>
    eb1c:	e58a3000 	str	r3, [sl]
    eb20:	e7991001 	ldr	r1, [r9, r1]
    eb24:	e59f2538 	ldr	r2, [pc, #1336]	; f064 <mmsjos_main+0x71c>
    eb28:	e5c13000 	strb	r3, [r1]
    eb2c:	e7996002 	ldr	r6, [r9, r2]
    eb30:	e59f2530 	ldr	r2, [pc, #1328]	; f068 <mmsjos_main+0x720>
    eb34:	e5868000 	str	r8, [r6]
    eb38:	e7992002 	ldr	r2, [r9, r2]
    eb3c:	e1a01003 	mov	r1, r3
    eb40:	e1a05002 	mov	r5, r2
    eb44:	e1a00003 	mov	r0, r3
    eb48:	e1a02003 	mov	r2, r3
    eb4c:	e5853000 	str	r3, [r5]
    eb50:	ebfff589 	bl	c17c <locate>
    eb54:	e5952000 	ldr	r2, [r5]
    eb58:	e5961000 	ldr	r1, [r6]
    eb5c:	e3a03004 	mov	r3, #4
    eb60:	e3a00008 	mov	r0, #8
    eb64:	e58d500c 	str	r5, [sp, #12]
    eb68:	e58d6010 	str	r6, [sp, #16]
    eb6c:	ebfff505 	bl	bf88 <writec>
    eb70:	e3a01002 	mov	r1, #2
    eb74:	e3a03001 	mov	r3, #1
    eb78:	e3e02027 	mvn	r2, #39	; 0x27
    eb7c:	e3a06000 	mov	r6, #0
    eb80:	e1a00004 	mov	r0, r4
    eb84:	e5c41000 	strb	r1, [r4]
    eb88:	e5c43002 	strb	r3, [r4, #2]
    eb8c:	e5c42001 	strb	r2, [r4, #1]
    eb90:	eb001998 	bl	151f8 <commVDG>
    eb94:	e59d200c 	ldr	r2, [sp, #12]
    eb98:	e59f54cc 	ldr	r5, [pc, #1228]	; f06c <mmsjos_main+0x724>
    eb9c:	e5920000 	ldr	r0, [r2]
    eba0:	ebfff5ce 	bl	c2e0 <clearScr>
    eba4:	e59d3010 	ldr	r3, [sp, #16]
    eba8:	e59d200c 	ldr	r2, [sp, #12]
    ebac:	e08f5005 	add	r5, pc, r5
    ebb0:	e5931000 	ldr	r1, [r3]
    ebb4:	e2850f8d 	add	r0, r5, #564	; 0x234
    ebb8:	e5922000 	ldr	r2, [r2]
    ebbc:	ebfff5e3 	bl	c350 <writes>
    ebc0:	e59d3010 	ldr	r3, [sp, #16]
    ebc4:	e59d200c 	ldr	r2, [sp, #12]
    ebc8:	e5931000 	ldr	r1, [r3]
    ebcc:	e2850f95 	add	r0, r5, #596	; 0x254
    ebd0:	e5922000 	ldr	r2, [r2]
    ebd4:	ebfff5dd 	bl	c350 <writes>
    ebd8:	e59d3010 	ldr	r3, [sp, #16]
    ebdc:	e59d200c 	ldr	r2, [sp, #12]
    ebe0:	e5931000 	ldr	r1, [r3]
    ebe4:	e2850f9f 	add	r0, r5, #636	; 0x27c
    ebe8:	e5922000 	ldr	r2, [r2]
    ebec:	ebfff5d7 	bl	c350 <writes>
    ebf0:	e59d0028 	ldr	r0, [sp, #40]	; 0x28
    ebf4:	e1a01006 	mov	r1, r6
    ebf8:	e3a0200a 	mov	r2, #10
    ebfc:	e5900000 	ldr	r0, [r0]
    ec00:	eb000ae2 	bl	11790 <itoa>
    ec04:	e59d3010 	ldr	r3, [sp, #16]
    ec08:	e59d200c 	ldr	r2, [sp, #12]
    ec0c:	e5931000 	ldr	r1, [r3]
    ec10:	e1a00006 	mov	r0, r6
    ec14:	e5922000 	ldr	r2, [r2]
    ec18:	ebfff5cc 	bl	c350 <writes>
    ec1c:	e59d3010 	ldr	r3, [sp, #16]
    ec20:	e59d200c 	ldr	r2, [sp, #12]
    ec24:	e5931000 	ldr	r1, [r3]
    ec28:	e2850fa5 	add	r0, r5, #660	; 0x294
    ec2c:	e5922000 	ldr	r2, [r2]
    ec30:	ebfff5c6 	bl	c350 <writes>
    ec34:	e59d3010 	ldr	r3, [sp, #16]
    ec38:	e59d200c 	ldr	r2, [sp, #12]
    ec3c:	e5931000 	ldr	r1, [r3]
    ec40:	e2850fa7 	add	r0, r5, #668	; 0x29c
    ec44:	e5922000 	ldr	r2, [r2]
    ec48:	ebfff5c0 	bl	c350 <writes>
    ec4c:	e59d3010 	ldr	r3, [sp, #16]
    ec50:	e59d200c 	ldr	r2, [sp, #12]
    ec54:	e5931000 	ldr	r1, [r3]
    ec58:	e2850fad 	add	r0, r5, #692	; 0x2b4
    ec5c:	e5922000 	ldr	r2, [r2]
    ec60:	ebfff5ba 	bl	c350 <writes>
    ec64:	e5970000 	ldr	r0, [r7]
    ec68:	e1a01006 	mov	r1, r6
    ec6c:	e3a0200a 	mov	r2, #10
    ec70:	e2800001 	add	r0, r0, #1
    ec74:	eb000ac5 	bl	11790 <itoa>
    ec78:	e59d3010 	ldr	r3, [sp, #16]
    ec7c:	e59d200c 	ldr	r2, [sp, #12]
    ec80:	e5931000 	ldr	r1, [r3]
    ec84:	e1a00006 	mov	r0, r6
    ec88:	e5922000 	ldr	r2, [r2]
    ec8c:	ebfff5af 	bl	c350 <writes>
    ec90:	e59d3010 	ldr	r3, [sp, #16]
    ec94:	e59d200c 	ldr	r2, [sp, #12]
    ec98:	e2857d0b 	add	r7, r5, #704	; 0x2c0
    ec9c:	e5931000 	ldr	r1, [r3]
    eca0:	e1a00007 	mov	r0, r7
    eca4:	e5922000 	ldr	r2, [r2]
    eca8:	ebfff5a8 	bl	c350 <writes>
    ecac:	e59d002c 	ldr	r0, [sp, #44]	; 0x2c
    ecb0:	e1a01006 	mov	r1, r6
    ecb4:	e5900000 	ldr	r0, [r0]
    ecb8:	e3a0200a 	mov	r2, #10
    ecbc:	e2800001 	add	r0, r0, #1
    ecc0:	eb000ab2 	bl	11790 <itoa>
    ecc4:	e59d300c 	ldr	r3, [sp, #12]
    ecc8:	e1a00006 	mov	r0, r6
    eccc:	e5932000 	ldr	r2, [r3]
    ecd0:	e59d3010 	ldr	r3, [sp, #16]
    ecd4:	e5931000 	ldr	r1, [r3]
    ecd8:	ebfff59c 	bl	c350 <writes>
    ecdc:	e59d300c 	ldr	r3, [sp, #12]
    ece0:	e2850fb1 	add	r0, r5, #708	; 0x2c4
    ece4:	e5932000 	ldr	r2, [r3]
    ece8:	e59d3010 	ldr	r3, [sp, #16]
    ecec:	e5931000 	ldr	r1, [r3]
    ecf0:	ebfff596 	bl	c350 <writes>
    ecf4:	e59d1014 	ldr	r1, [sp, #20]
    ecf8:	e3a0200a 	mov	r2, #10
    ecfc:	e5910000 	ldr	r0, [r1]
    ed00:	e1a01006 	mov	r1, r6
    ed04:	e2800001 	add	r0, r0, #1
    ed08:	eb000aa0 	bl	11790 <itoa>
    ed0c:	e59d300c 	ldr	r3, [sp, #12]
    ed10:	e1a00006 	mov	r0, r6
    ed14:	e5932000 	ldr	r2, [r3]
    ed18:	e59d3010 	ldr	r3, [sp, #16]
    ed1c:	e5931000 	ldr	r1, [r3]
    ed20:	ebfff58a 	bl	c350 <writes>
    ed24:	e59d3010 	ldr	r3, [sp, #16]
    ed28:	e1a00007 	mov	r0, r7
    ed2c:	e59d700c 	ldr	r7, [sp, #12]
    ed30:	e5931000 	ldr	r1, [r3]
    ed34:	e5972000 	ldr	r2, [r7]
    ed38:	ebfff584 	bl	c350 <writes>
    ed3c:	e59d2020 	ldr	r2, [sp, #32]
    ed40:	e1a01006 	mov	r1, r6
    ed44:	e5920000 	ldr	r0, [r2]
    ed48:	e3a0200a 	mov	r2, #10
    ed4c:	e2800001 	add	r0, r0, #1
    ed50:	eb000a8e 	bl	11790 <itoa>
    ed54:	e1a00006 	mov	r0, r6
    ed58:	e1a06007 	mov	r6, r7
    ed5c:	e5972000 	ldr	r2, [r7]
    ed60:	e59d7010 	ldr	r7, [sp, #16]
    ed64:	e5971000 	ldr	r1, [r7]
    ed68:	ebfff578 	bl	c350 <writes>
    ed6c:	e5962000 	ldr	r2, [r6]
    ed70:	e5971000 	ldr	r1, [r7]
    ed74:	e2850e2d 	add	r0, r5, #720	; 0x2d0
    ed78:	ebfff574 	bl	c350 <writes>
    ed7c:	e59d301c 	ldr	r3, [sp, #28]
    ed80:	e3130002 	tst	r3, #2
    ed84:	12850fb6 	addne	r0, r5, #728	; 0x2d8
    ed88:	15962000 	ldrne	r2, [r6]
    ed8c:	15971000 	ldrne	r1, [r7]
    ed90:	01a02008 	moveq	r2, r8
    ed94:	02850fbd 	addeq	r0, r5, #756	; 0x2f4
    ed98:	03a01b3e 	moveq	r1, #63488	; 0xf800
    ed9c:	ebfff56b 	bl	c350 <writes>
    eda0:	e3a0102f 	mov	r1, #47	; 0x2f
    eda4:	e3a03000 	mov	r3, #0
    eda8:	e59b2000 	ldr	r2, [fp]
    edac:	e1a00003 	mov	r0, r3
    edb0:	e282c001 	add	ip, r2, #1
    edb4:	e58bc000 	str	ip, [fp]
    edb8:	e5c21000 	strb	r1, [r2]
    edbc:	e59b2000 	ldr	r2, [fp]
    edc0:	e58d301c 	str	r3, [sp, #28]
    edc4:	e5c23000 	strb	r3, [r2]
    edc8:	ebfff62c 	bl	c680 <putPrompt>
    edcc:	e3a0b001 	mov	fp, #1
    edd0:	e3a01002 	mov	r1, #2
    edd4:	e3e02027 	mvn	r2, #39	; 0x27
    edd8:	e1a00004 	mov	r0, r4
    eddc:	e5c41000 	strb	r1, [r4]
    ede0:	e5c42001 	strb	r2, [r4, #1]
    ede4:	e5c4b002 	strb	fp, [r4, #2]
    ede8:	eb001902 	bl	151f8 <commVDG>
    edec:	e3a0c032 	mov	ip, #50	; 0x32
    edf0:	e1a0600b 	mov	r6, fp
    edf4:	e3e0800f 	mvn	r8, #15
    edf8:	e3e07023 	mvn	r7, #35	; 0x23
    edfc:	e59d301c 	ldr	r3, [sp, #28]
    ee00:	e1a0200b 	mov	r2, fp
    ee04:	e58d3004 	str	r3, [sp, #4]
    ee08:	e1a00003 	mov	r0, r3
    ee0c:	e1a0100b 	mov	r1, fp
    ee10:	e58dc000 	str	ip, [sp]
    ee14:	e59d5024 	ldr	r5, [sp, #36]	; 0x24
    ee18:	ebffe66f 	bl	87dc <funcKey>
    ee1c:	e59f324c 	ldr	r3, [pc, #588]	; f070 <mmsjos_main+0x728>
    ee20:	e7993003 	ldr	r3, [r9, r3]
    ee24:	e58d301c 	str	r3, [sp, #28]
    ee28:	e1a00004 	mov	r0, r4
    ee2c:	e5c46000 	strb	r6, [r4]
    ee30:	e5c48001 	strb	r8, [r4, #1]
    ee34:	eb0018ef 	bl	151f8 <commVDG>
    ee38:	e1a00004 	mov	r0, r4
    ee3c:	e5c46000 	strb	r6, [r4]
    ee40:	e5c47001 	strb	r7, [r4, #1]
    ee44:	eb0018eb 	bl	151f8 <commVDG>
    ee48:	e5d49000 	ldrb	r9, [r4]
    ee4c:	e3590000 	cmp	r9, #0
    ee50:	e2493020 	sub	r3, r9, #32
    ee54:	0afffff3 	beq	ee28 <mmsjos_main+0x4e0>
    ee58:	e353005f 	cmp	r3, #95	; 0x5f
    ee5c:	8a000012 	bhi	eeac <mmsjos_main+0x564>
    ee60:	e59d3008 	ldr	r3, [sp, #8]
    ee64:	e4c59001 	strb	r9, [r5], #1
    ee68:	e5932000 	ldr	r2, [r3]
    ee6c:	e59a1000 	ldr	r1, [sl]
    ee70:	e282301f 	add	r3, r2, #31
    ee74:	e59d2014 	ldr	r2, [sp, #20]
    ee78:	e1550003 	cmp	r5, r3
    ee7c:	e5922000 	ldr	r2, [r2]
    ee80:	21a05003 	movcs	r5, r3
    ee84:	e1510002 	cmp	r1, r2
    ee88:	8a00004f 	bhi	efcc <mmsjos_main+0x684>
    ee8c:	e59d200c 	ldr	r2, [sp, #12]
    ee90:	e59d1010 	ldr	r1, [sp, #16]
    ee94:	e1a00009 	mov	r0, r9
    ee98:	e3a03003 	mov	r3, #3
    ee9c:	e5922000 	ldr	r2, [r2]
    eea0:	e5911000 	ldr	r1, [r1]
    eea4:	ebfff437 	bl	bf88 <writec>
    eea8:	eaffffde 	b	ee28 <mmsjos_main+0x4e0>
    eeac:	e3590008 	cmp	r9, #8
    eeb0:	0a000021 	beq	ef3c <mmsjos_main+0x5f4>
    eeb4:	e359000d 	cmp	r9, #13
    eeb8:	1affffda 	bne	ee28 <mmsjos_main+0x4e0>
    eebc:	e3a02000 	mov	r2, #0
    eec0:	e3a0b032 	mov	fp, #50	; 0x32
    eec4:	e1a09002 	mov	r9, r2
    eec8:	e59dc018 	ldr	ip, [sp, #24]
    eecc:	e1a00002 	mov	r0, r2
    eed0:	e59c3000 	ldr	r3, [ip]
    eed4:	e2833001 	add	r3, r3, #1
    eed8:	e6ef1073 	uxtb	r1, r3
    eedc:	e58c3000 	str	r3, [ip]
    eee0:	ebfff4a5 	bl	c17c <locate>
    eee4:	e5c59000 	strb	r9, [r5]
    eee8:	e1a03009 	mov	r3, r9
    eeec:	e1a02009 	mov	r2, r9
    eef0:	e1a00009 	mov	r0, r9
    eef4:	e3a01002 	mov	r1, #2
    eef8:	e58d9004 	str	r9, [sp, #4]
    eefc:	e58db000 	str	fp, [sp]
    ef00:	ebffe635 	bl	87dc <funcKey>
    ef04:	ebfffaa0 	bl	d98c <processCmd>
    ef08:	e1a00009 	mov	r0, r9
    ef0c:	ebfff5db 	bl	c680 <putPrompt>
    ef10:	e3a02001 	mov	r2, #1
    ef14:	e59d3008 	ldr	r3, [sp, #8]
    ef18:	e1a00009 	mov	r0, r9
    ef1c:	e5935000 	ldr	r5, [r3]
    ef20:	e1a01002 	mov	r1, r2
    ef24:	e5c59000 	strb	r9, [r5]
    ef28:	e1a03009 	mov	r3, r9
    ef2c:	e58db000 	str	fp, [sp]
    ef30:	e58d9004 	str	r9, [sp, #4]
    ef34:	ebffe628 	bl	87dc <funcKey>
    ef38:	eaffffba 	b	ee28 <mmsjos_main+0x4e0>
    ef3c:	e59d301c 	ldr	r3, [sp, #28]
    ef40:	e5d32000 	ldrb	r2, [r3]
    ef44:	e59a3000 	ldr	r3, [sl]
    ef48:	e1520003 	cmp	r2, r3
    ef4c:	2affffb5 	bcs	ee28 <mmsjos_main+0x4e0>
    ef50:	e3a0b000 	mov	fp, #0
    ef54:	e59d3008 	ldr	r3, [sp, #8]
    ef58:	e445b001 	strb	fp, [r5], #-1
    ef5c:	e5933000 	ldr	r3, [r3]
    ef60:	e59d1018 	ldr	r1, [sp, #24]
    ef64:	e1550003 	cmp	r5, r3
    ef68:	31a05003 	movcc	r5, r3
    ef6c:	e5c5b000 	strb	fp, [r5]
    ef70:	e59a3000 	ldr	r3, [sl]
    ef74:	e1a0200b 	mov	r2, fp
    ef78:	e2433001 	sub	r3, r3, #1
    ef7c:	e6ef0073 	uxtb	r0, r3
    ef80:	e5d11000 	ldrb	r1, [r1]
    ef84:	e58a3000 	str	r3, [sl]
    ef88:	ebfff47b 	bl	c17c <locate>
    ef8c:	e59d200c 	ldr	r2, [sp, #12]
    ef90:	e59dc010 	ldr	ip, [sp, #16]
    ef94:	e1a00009 	mov	r0, r9
    ef98:	e59c1000 	ldr	r1, [ip]
    ef9c:	e3a03003 	mov	r3, #3
    efa0:	e5922000 	ldr	r2, [r2]
    efa4:	ebfff3f7 	bl	bf88 <writec>
    efa8:	e59a3000 	ldr	r3, [sl]
    efac:	e59d1018 	ldr	r1, [sp, #24]
    efb0:	e2433001 	sub	r3, r3, #1
    efb4:	e1a0200b 	mov	r2, fp
    efb8:	e6ef0073 	uxtb	r0, r3
    efbc:	e5d11000 	ldrb	r1, [r1]
    efc0:	e58a3000 	str	r3, [sl]
    efc4:	ebfff46c 	bl	c17c <locate>
    efc8:	eaffff96 	b	ee28 <mmsjos_main+0x4e0>
    efcc:	e3a02000 	mov	r2, #0
    efd0:	e59dc018 	ldr	ip, [sp, #24]
    efd4:	e1a00002 	mov	r0, r2
    efd8:	e59c3000 	ldr	r3, [ip]
    efdc:	e2833001 	add	r3, r3, #1
    efe0:	e6ef1073 	uxtb	r1, r3
    efe4:	e58c3000 	str	r3, [ip]
    efe8:	ebfff463 	bl	c17c <locate>
    efec:	eaffffa6 	b	ee8c <mmsjos_main+0x544>
    eff0:	0000a450 	andeq	sl, r0, r0, asr r4
    eff4:	00000030 	andeq	r0, r0, r0, lsr r0
    eff8:	00000100 	andeq	r0, r0, r0, lsl #2
    effc:	000001d4 	ldrdeq	r0, [r0], -r4
    f000:	000000ec 	andeq	r0, r0, ip, ror #1
    f004:	000001bc 			; <UNDEFINED> instruction: 0x000001bc
    f008:	000000c0 	andeq	r0, r0, r0, asr #1
    f00c:	0000008c 	andeq	r0, r0, ip, lsl #1
    f010:	0000015c 	andeq	r0, r0, ip, asr r1
    f014:	000001f4 	strdeq	r0, [r0], -r4
    f018:	00000020 	andeq	r0, r0, r0, lsr #32
    f01c:	0000005c 	andeq	r0, r0, ip, asr r0
    f020:	00000070 	andeq	r0, r0, r0, ror r0
    f024:	00000158 	andeq	r0, r0, r8, asr r1
    f028:	00000024 	andeq	r0, r0, r4, lsr #32
    f02c:	000000cc 	andeq	r0, r0, ip, asr #1
    f030:	000001ac 	andeq	r0, r0, ip, lsr #3
    f034:	000001ec 	andeq	r0, r0, ip, ror #3
    f038:	00000104 	andeq	r0, r0, r4, lsl #2
    f03c:	0000012c 	andeq	r0, r0, ip, lsr #2
    f040:	0000ffff 	strdeq	pc, [r0], -pc	; <UNPREDICTABLE>
    f044:	0000013f 	andeq	r0, r0, pc, lsr r1
    f048:	0000016c 	andeq	r0, r0, ip, ror #2
    f04c:	000000f8 	strdeq	r0, [r0], -r8
    f050:	00000048 	andeq	r0, r0, r8, asr #32
    f054:	000000bc 	strheq	r0, [r0], -ip
    f058:	000001b8 			; <UNDEFINED> instruction: 0x000001b8
    f05c:	00000044 	andeq	r0, r0, r4, asr #32
    f060:	00000018 	andeq	r0, r0, r8, lsl r0
    f064:	000000e4 	andeq	r0, r0, r4, ror #1
    f068:	0000003c 	andeq	r0, r0, ip, lsr r0
    f06c:	0000744c 	andeq	r7, r0, ip, asr #8
    f070:	000001a4 	andeq	r0, r0, r4, lsr #3

0000f074 <radioset>:
    f074:	e92d4ff0 	push	{r4, r5, r6, r7, r8, r9, sl, fp, lr}
    f078:	e24dd014 	sub	sp, sp, #20
    f07c:	e5dd8038 	ldrb	r8, [sp, #56]	; 0x38
    f080:	e59f7184 	ldr	r7, [pc, #388]	; f20c <radioset+0x198>
    f084:	e3580001 	cmp	r8, #1
    f088:	e3a0c000 	mov	ip, #0
    f08c:	e08f7007 	add	r7, pc, r7
    f090:	1a000021 	bne	f11c <radioset+0xa8>
    f094:	e3a0a00a 	mov	sl, #10
    f098:	e1a0500c 	mov	r5, ip
    f09c:	e1a0600c 	mov	r6, ip
    f0a0:	e2829008 	add	r9, r2, #8
    f0a4:	ea000002 	b	f0b4 <radioset+0x40>
    f0a8:	e35e0000 	cmp	lr, #0
    f0ac:	0a000019 	beq	f118 <radioset+0xa4>
    f0b0:	e28cc001 	add	ip, ip, #1
    f0b4:	e6ef407c 	uxtb	r4, ip
    f0b8:	e7d0e004 	ldrb	lr, [r0, r4]
    f0bc:	e35e002c 	cmp	lr, #44	; 0x2c
    f0c0:	1afffff8 	bne	f0a8 <radioset+0x34>
    f0c4:	e59fe144 	ldr	lr, [pc, #324]	; f210 <radioset+0x19c>
    f0c8:	e3540000 	cmp	r4, #0
    f0cc:	e797e00e 	ldr	lr, [r7, lr]
    f0d0:	12866001 	addne	r6, r6, #1
    f0d4:	e59ee000 	ldr	lr, [lr]
    f0d8:	16ef6076 	uxtbne	r6, r6
    f0dc:	e15e0002 	cmp	lr, r2
    f0e0:	3afffff2 	bcc	f0b0 <radioset+0x3c>
    f0e4:	e15e0009 	cmp	lr, r9
    f0e8:	e59f4124 	ldr	r4, [pc, #292]	; f214 <radioset+0x1a0>
    f0ec:	8affffef 	bhi	f0b0 <radioset+0x3c>
    f0f0:	e10e368a 	smlabb	lr, sl, r6, r3
    f0f4:	e7974004 	ldr	r4, [r7, r4]
    f0f8:	e28eb008 	add	fp, lr, #8
    f0fc:	e5944000 	ldr	r4, [r4]
    f100:	e15e0004 	cmp	lr, r4
    f104:	8affffe9 	bhi	f0b0 <radioset+0x3c>
    f108:	e154000b 	cmp	r4, fp
    f10c:	95c16000 	strbls	r6, [r1]
    f110:	93a05001 	movls	r5, #1
    f114:	eaffffe5 	b	f0b0 <radioset+0x3c>
    f118:	e1a0c005 	mov	ip, r5
    f11c:	e3580000 	cmp	r8, #0
    f120:	03a0c001 	moveq	ip, #1
    f124:	e35c0000 	cmp	ip, #0
    f128:	0a00000c 	beq	f160 <radioset+0xec>
    f12c:	e3a04000 	mov	r4, #0
    f130:	e1a07002 	mov	r7, r2
    f134:	e1a05000 	mov	r5, r0
    f138:	e1a08004 	mov	r8, r4
    f13c:	e1a0b004 	mov	fp, r4
    f140:	e58d300c 	str	r3, [sp, #12]
    f144:	e58d1008 	str	r1, [sp, #8]
    f148:	e6efc074 	uxtb	ip, r4
    f14c:	e7d5100c 	ldrb	r1, [r5, ip]
    f150:	e351002c 	cmp	r1, #44	; 0x2c
    f154:	0a000003 	beq	f168 <radioset+0xf4>
    f158:	e3510000 	cmp	r1, #0
    f15c:	1a000025 	bne	f1f8 <radioset+0x184>
    f160:	e28dd014 	add	sp, sp, #20
    f164:	e8bd8ff0 	pop	{r4, r5, r6, r7, r8, r9, sl, fp, pc}
    f168:	e3a0600a 	mov	r6, #10
    f16c:	e3a03008 	mov	r3, #8
    f170:	e35c0000 	cmp	ip, #0
    f174:	12888001 	addne	r8, r8, #1
    f178:	e59d100c 	ldr	r1, [sp, #12]
    f17c:	16ef8078 	uxtbne	r8, r8
    f180:	e1061886 	smlabb	r6, r6, r8, r1
    f184:	e59f108c 	ldr	r1, [pc, #140]	; f218 <radioset+0x1a4>
    f188:	e1a02003 	mov	r2, r3
    f18c:	e2879004 	add	r9, r7, #4
    f190:	e1a00007 	mov	r0, r7
    f194:	e58d1000 	str	r1, [sp]
    f198:	e286a002 	add	sl, r6, #2
    f19c:	e1a01006 	mov	r1, r6
    f1a0:	ebffef18 	bl	ae08 <FillRect>
    f1a4:	e1a0100a 	mov	r1, sl
    f1a8:	e3a03000 	mov	r3, #0
    f1ac:	e3a02004 	mov	r2, #4
    f1b0:	e1a00009 	mov	r0, r9
    f1b4:	e58db000 	str	fp, [sp]
    f1b8:	ebffeff2 	bl	b188 <DrawCircle>
    f1bc:	e59d3008 	ldr	r3, [sp, #8]
    f1c0:	e1a0100a 	mov	r1, sl
    f1c4:	e5d33000 	ldrb	r3, [r3]
    f1c8:	e1a00009 	mov	r0, r9
    f1cc:	e1530008 	cmp	r3, r8
    f1d0:	e58db000 	str	fp, [sp]
    f1d4:	03a03001 	moveq	r3, #1
    f1d8:	13a03000 	movne	r3, #0
    f1dc:	e3a02003 	mov	r2, #3
    f1e0:	ebffefe8 	bl	b188 <DrawCircle>
    f1e4:	e1a01006 	mov	r1, r6
    f1e8:	e287000a 	add	r0, r7, #10
    f1ec:	ebffeeac 	bl	aca4 <locatexy>
    f1f0:	e2844001 	add	r4, r4, #1
    f1f4:	eaffffd3 	b	f148 <radioset+0xd4>
    f1f8:	e59f3018 	ldr	r3, [pc, #24]	; f218 <radioset+0x1a4>
    f1fc:	e3a02000 	mov	r2, #0
    f200:	e3a00008 	mov	r0, #8
    f204:	ebffee77 	bl	abe8 <writecxy>
    f208:	eafffff8 	b	f1f0 <radioset+0x17c>
    f20c:	00009d48 	andeq	r9, r0, r8, asr #26
    f210:	000001c4 	andeq	r0, r0, r4, asr #3
    f214:	00000078 	andeq	r0, r0, r8, ror r0
    f218:	0000ffff 	strdeq	pc, [r0], -pc	; <UNPREDICTABLE>

0000f21c <togglebox>:
    f21c:	e92d47f0 	push	{r4, r5, r6, r7, r8, r9, sl, lr}
    f220:	e24dd008 	sub	sp, sp, #8
    f224:	e5dd4028 	ldrb	r4, [sp, #40]	; 0x28
    f228:	e1a06003 	mov	r6, r3
    f22c:	e59f31b8 	ldr	r3, [pc, #440]	; f3ec <togglebox+0x1d0>
    f230:	e3540001 	cmp	r4, #1
    f234:	e1a09001 	mov	r9, r1
    f238:	e1a05002 	mov	r5, r2
    f23c:	e08f3003 	add	r3, pc, r3
    f240:	0a000033 	beq	f314 <togglebox+0xf8>
    f244:	e3540000 	cmp	r4, #0
    f248:	1a00002f 	bne	f30c <togglebox+0xf0>
    f24c:	e3a03004 	mov	r3, #4
    f250:	e59f1198 	ldr	r1, [pc, #408]	; f3f0 <togglebox+0x1d4>
    f254:	e2868002 	add	r8, r6, #2
    f258:	e1a02003 	mov	r2, r3
    f25c:	e58d1000 	str	r1, [sp]
    f260:	e1a07000 	mov	r7, r0
    f264:	e1a01008 	mov	r1, r8
    f268:	e1a00005 	mov	r0, r5
    f26c:	ebffeee5 	bl	ae08 <FillRect>
    f270:	e3a03004 	mov	r3, #4
    f274:	e58d4000 	str	r4, [sp]
    f278:	e1a02003 	mov	r2, r3
    f27c:	e1a01008 	mov	r1, r8
    f280:	e1a00005 	mov	r0, r5
    f284:	ebffef1d 	bl	af00 <DrawRect>
    f288:	e5d93000 	ldrb	r3, [r9]
    f28c:	e3530000 	cmp	r3, #0
    f290:	0a00000d 	beq	f2cc <togglebox+0xb0>
    f294:	e285a004 	add	sl, r5, #4
    f298:	e2869006 	add	r9, r6, #6
    f29c:	e1a0200a 	mov	r2, sl
    f2a0:	e1a03009 	mov	r3, r9
    f2a4:	e1a01008 	mov	r1, r8
    f2a8:	e1a00005 	mov	r0, r5
    f2ac:	e58d4000 	str	r4, [sp]
    f2b0:	ebffeef4 	bl	ae88 <DrawLine>
    f2b4:	e1a0200a 	mov	r2, sl
    f2b8:	e1a01009 	mov	r1, r9
    f2bc:	e58d4000 	str	r4, [sp]
    f2c0:	e1a03008 	mov	r3, r8
    f2c4:	e1a00005 	mov	r0, r5
    f2c8:	ebffeeee 	bl	ae88 <DrawLine>
    f2cc:	e1a01006 	mov	r1, r6
    f2d0:	e2850006 	add	r0, r5, #6
    f2d4:	ebffee72 	bl	aca4 <locatexy>
    f2d8:	e5d71000 	ldrb	r1, [r7]
    f2dc:	e3510000 	cmp	r1, #0
    f2e0:	0a000009 	beq	f30c <togglebox+0xf0>
    f2e4:	e59f5104 	ldr	r5, [pc, #260]	; f3f0 <togglebox+0x1d4>
    f2e8:	e2844001 	add	r4, r4, #1
    f2ec:	e6ef4074 	uxtb	r4, r4
    f2f0:	e1a03005 	mov	r3, r5
    f2f4:	e3a02000 	mov	r2, #0
    f2f8:	e3a00008 	mov	r0, #8
    f2fc:	ebffee39 	bl	abe8 <writecxy>
    f300:	e7d71004 	ldrb	r1, [r7, r4]
    f304:	e3510000 	cmp	r1, #0
    f308:	1afffff6 	bne	f2e8 <togglebox+0xcc>
    f30c:	e28dd008 	add	sp, sp, #8
    f310:	e8bd87f0 	pop	{r4, r5, r6, r7, r8, r9, sl, pc}
    f314:	e59f20d8 	ldr	r2, [pc, #216]	; f3f4 <togglebox+0x1d8>
    f318:	e7932002 	ldr	r2, [r3, r2]
    f31c:	e5922000 	ldr	r2, [r2]
    f320:	e1520005 	cmp	r2, r5
    f324:	3afffff8 	bcc	f30c <togglebox+0xf0>
    f328:	e2857004 	add	r7, r5, #4
    f32c:	e1520007 	cmp	r2, r7
    f330:	8afffff5 	bhi	f30c <togglebox+0xf0>
    f334:	e59f20bc 	ldr	r2, [pc, #188]	; f3f8 <togglebox+0x1dc>
    f338:	e7933002 	ldr	r3, [r3, r2]
    f33c:	e5933000 	ldr	r3, [r3]
    f340:	e1530006 	cmp	r3, r6
    f344:	3afffff0 	bcc	f30c <togglebox+0xf0>
    f348:	e2862004 	add	r2, r6, #4
    f34c:	e1530002 	cmp	r3, r2
    f350:	8affffed 	bhi	f30c <togglebox+0xf0>
    f354:	e5d13000 	ldrb	r3, [r1]
    f358:	e1a00005 	mov	r0, r5
    f35c:	e3530000 	cmp	r3, #0
    f360:	13a03000 	movne	r3, #0
    f364:	15c13000 	strbne	r3, [r1]
    f368:	e3a03004 	mov	r3, #4
    f36c:	05c14000 	strbeq	r4, [r1]
    f370:	e59f1078 	ldr	r1, [pc, #120]	; f3f0 <togglebox+0x1d4>
    f374:	e2864002 	add	r4, r6, #2
    f378:	e1a02003 	mov	r2, r3
    f37c:	e58d1000 	str	r1, [sp]
    f380:	e1a01004 	mov	r1, r4
    f384:	ebffee9f 	bl	ae08 <FillRect>
    f388:	e3a08000 	mov	r8, #0
    f38c:	e3a03004 	mov	r3, #4
    f390:	e1a01004 	mov	r1, r4
    f394:	e1a02003 	mov	r2, r3
    f398:	e58d8000 	str	r8, [sp]
    f39c:	e1a00005 	mov	r0, r5
    f3a0:	ebffeed6 	bl	af00 <DrawRect>
    f3a4:	e5d93000 	ldrb	r3, [r9]
    f3a8:	e1530008 	cmp	r3, r8
    f3ac:	0affffd6 	beq	f30c <togglebox+0xf0>
    f3b0:	e2866006 	add	r6, r6, #6
    f3b4:	e1a03006 	mov	r3, r6
    f3b8:	e1a02007 	mov	r2, r7
    f3bc:	e1a01004 	mov	r1, r4
    f3c0:	e1a00005 	mov	r0, r5
    f3c4:	e58d8000 	str	r8, [sp]
    f3c8:	ebffeeae 	bl	ae88 <DrawLine>
    f3cc:	e1a01006 	mov	r1, r6
    f3d0:	e1a03004 	mov	r3, r4
    f3d4:	e1a02007 	mov	r2, r7
    f3d8:	e1a00005 	mov	r0, r5
    f3dc:	e58d8028 	str	r8, [sp, #40]	; 0x28
    f3e0:	e28dd008 	add	sp, sp, #8
    f3e4:	e8bd47f0 	pop	{r4, r5, r6, r7, r8, r9, sl, lr}
    f3e8:	eaffeea6 	b	ae88 <DrawLine>
    f3ec:	00009b98 	muleq	r0, r8, fp
    f3f0:	0000ffff 	strdeq	pc, [r0], -pc	; <UNPREDICTABLE>
    f3f4:	000001c4 	andeq	r0, r0, r4, asr #3
    f3f8:	00000078 	andeq	r0, r0, r8, ror r0

0000f3fc <runCmd>:
    f3fc:	e12fff1e 	bx	lr

0000f400 <_strcat>:
    f400:	e5d13000 	ldrb	r3, [r1]
    f404:	e3530000 	cmp	r3, #0
    f408:	0a000003 	beq	f41c <_strcat+0x1c>
    f40c:	e4c03001 	strb	r3, [r0], #1
    f410:	e5f13001 	ldrb	r3, [r1, #1]!
    f414:	e3530000 	cmp	r3, #0
    f418:	1afffffb 	bne	f40c <_strcat+0xc>
    f41c:	e5d23000 	ldrb	r3, [r2]
    f420:	e3530000 	cmp	r3, #0
    f424:	0a000003 	beq	f438 <_strcat+0x38>
    f428:	e4c03001 	strb	r3, [r0], #1
    f42c:	e5f23001 	ldrb	r3, [r2, #1]!
    f430:	e3530000 	cmp	r3, #0
    f434:	1afffffb 	bne	f428 <_strcat+0x28>
    f438:	e3a03000 	mov	r3, #0
    f43c:	e4c03001 	strb	r3, [r0], #1
    f440:	e12fff1e 	bx	lr

0000f444 <bcd2dec>:
    f444:	e2503000 	subs	r3, r0, #0
    f448:	0a000008 	beq	f470 <bcd2dec+0x2c>
    f44c:	e3a02001 	mov	r2, #1
    f450:	e3a00000 	mov	r0, #0
    f454:	e203c00f 	and	ip, r3, #15
    f458:	e0821102 	add	r1, r2, r2, lsl #2
    f45c:	e1b03223 	lsrs	r3, r3, #4
    f460:	e0200c92 	mla	r0, r2, ip, r0
    f464:	e1a02081 	lsl	r2, r1, #1
    f468:	1afffff9 	bne	f454 <bcd2dec+0x10>
    f46c:	e12fff1e 	bx	lr
    f470:	e1a00003 	mov	r0, r3
    f474:	e12fff1e 	bx	lr

0000f478 <datetimetodir>:
    f478:	e3530001 	cmp	r3, #1
    f47c:	e1a01281 	lsl	r1, r1, #5
    f480:	0a000006 	beq	f4a0 <datetimetodir+0x28>
    f484:	e1a03580 	lsl	r3, r0, #11
    f488:	e2011e7e 	and	r1, r1, #2016	; 0x7e0
    f48c:	e1a00d02 	lsl	r0, r2, #26
    f490:	e1810da0 	orr	r0, r1, r0, lsr #27
    f494:	e6ff2073 	uxth	r2, r3
    f498:	e1800002 	orr	r0, r0, r2
    f49c:	e12fff1e 	bx	lr
    f4a0:	e2422e7b 	sub	r2, r2, #1968	; 0x7b0
    f4a4:	e242200c 	sub	r2, r2, #12
    f4a8:	e2011e1e 	and	r1, r1, #480	; 0x1e0
    f4ac:	e1a02482 	lsl	r2, r2, #9
    f4b0:	e200001f 	and	r0, r0, #31
    f4b4:	e6ff2072 	uxth	r2, r2
    f4b8:	e1810000 	orr	r0, r1, r0
    f4bc:	e1800002 	orr	r0, r0, r2
    f4c0:	e12fff1e 	bx	lr
    f4c4:	00000000 	andeq	r0, r0, r0

0000f4c8 <sputchar>:
    f4c8:	e59f301c 	ldr	r3, [pc, #28]	; f4ec <sputchar+0x24>
    f4cc:	e59f201c 	ldr	r2, [pc, #28]	; f4f0 <sputchar+0x28>
    f4d0:	e08f3003 	add	r3, pc, r3
    f4d4:	e7932002 	ldr	r2, [r3, r2]
    f4d8:	e5923000 	ldr	r3, [r2]
    f4dc:	e2831001 	add	r1, r3, #1
    f4e0:	e5821000 	str	r1, [r2]
    f4e4:	e5c30000 	strb	r0, [r3]
    f4e8:	e12fff1e 	bx	lr
    f4ec:	00009904 	andeq	r9, r0, r4, lsl #18
    f4f0:	00000170 	andeq	r0, r0, r0, ror r1

0000f4f4 <u2str>:
    f4f4:	e92d4070 	push	{r4, r5, r6, lr}
    f4f8:	e1a06002 	mov	r6, r2
    f4fc:	e3a04000 	mov	r4, #0
    f500:	e2405001 	sub	r5, r0, #1
    f504:	e1a00001 	mov	r0, r1
    f508:	e1a01006 	mov	r1, r6
    f50c:	eb0007b2 	bl	113dc <__aeabi_uidivmod>
    f510:	e2813030 	add	r3, r1, #48	; 0x30
    f514:	e3530039 	cmp	r3, #57	; 0x39
    f518:	c2813037 	addgt	r3, r1, #55	; 0x37
    f51c:	e3500000 	cmp	r0, #0
    f520:	e2844001 	add	r4, r4, #1
    f524:	e5e53001 	strb	r3, [r5, #1]!
    f528:	e1a01000 	mov	r1, r0
    f52c:	1afffff4 	bne	f504 <u2str+0x10>
    f530:	e1a00004 	mov	r0, r4
    f534:	e8bd8070 	pop	{r4, r5, r6, pc}

0000f538 <matoi>:
    f538:	e52de004 	push	{lr}		; (str lr, [sp, #-4]!)
    f53c:	e5d03000 	ldrb	r3, [r0]
    f540:	e2432030 	sub	r2, r3, #48	; 0x30
    f544:	e3520009 	cmp	r2, #9
    f548:	83a01000 	movhi	r1, #0
    f54c:	8a000001 	bhi	f558 <matoi+0x20>
    f550:	ea000013 	b	f5a4 <matoi+0x6c>
    f554:	e1a0000c 	mov	r0, ip
    f558:	e353002d 	cmp	r3, #45	; 0x2d
    f55c:	03811001 	orreq	r1, r1, #1
    f560:	e5d03001 	ldrb	r3, [r0, #1]
    f564:	e280c001 	add	ip, r0, #1
    f568:	e2432030 	sub	r2, r3, #48	; 0x30
    f56c:	e3520009 	cmp	r2, #9
    f570:	8afffff7 	bhi	f554 <matoi+0x1c>
    f574:	e2802002 	add	r2, r0, #2
    f578:	e3a00000 	mov	r0, #0
    f57c:	e0800100 	add	r0, r0, r0, lsl #2
    f580:	e083c080 	add	ip, r3, r0, lsl #1
    f584:	e4d23001 	ldrb	r3, [r2], #1
    f588:	e24c0030 	sub	r0, ip, #48	; 0x30
    f58c:	e243e030 	sub	lr, r3, #48	; 0x30
    f590:	e35e0009 	cmp	lr, #9
    f594:	9afffff8 	bls	f57c <matoi+0x44>
    f598:	e3510000 	cmp	r1, #0
    f59c:	126c0030 	rsbne	r0, ip, #48	; 0x30
    f5a0:	e49df004 	pop	{pc}		; (ldr pc, [sp], #4)
    f5a4:	e2802001 	add	r2, r0, #1
    f5a8:	e3a01000 	mov	r1, #0
    f5ac:	eafffff1 	b	f578 <matoi+0x40>

0000f5b0 <atod>:
    f5b0:	e5d03000 	ldrb	r3, [r0]
    f5b4:	e3530020 	cmp	r3, #32
    f5b8:	1a000002 	bne	f5c8 <atod+0x18>
    f5bc:	e5f03001 	ldrb	r3, [r0, #1]!
    f5c0:	e3530020 	cmp	r3, #32
    f5c4:	0afffffc 	beq	f5bc <atod+0xc>
    f5c8:	e353002d 	cmp	r3, #45	; 0x2d
    f5cc:	03a0c001 	moveq	ip, #1
    f5d0:	13a0c000 	movne	ip, #0
    f5d4:	ed9f5b55 	vldr	d5, [pc, #340]	; f730 <atod+0x180>
    f5d8:	ed9f6b56 	vldr	d6, [pc, #344]	; f738 <atod+0x188>
    f5dc:	ed9f4b57 	vldr	d4, [pc, #348]	; f740 <atod+0x190>
    f5e0:	ed9f3b58 	vldr	d3, [pc, #352]	; f748 <atod+0x198>
    f5e4:	02800001 	addeq	r0, r0, #1
    f5e8:	e5d03000 	ldrb	r3, [r0]
    f5ec:	e353002e 	cmp	r3, #46	; 0x2e
    f5f0:	e2432030 	sub	r2, r3, #48	; 0x30
    f5f4:	0a00000d 	beq	f630 <atod+0x80>
    f5f8:	e3520009 	cmp	r2, #9
    f5fc:	e2800001 	add	r0, r0, #1
    f600:	8a000016 	bhi	f660 <atod+0xb0>
    f604:	ee073a90 	vmov	s15, r3
    f608:	eeb87be7 	vcvt.f64.s32	d7, s15
    f60c:	ee067b04 	vmla.f64	d7, d6, d4
    f610:	e31c0002 	tst	ip, #2
    f614:	ee376b43 	vsub.f64	d6, d7, d3
    f618:	0afffff2 	beq	f5e8 <atod+0x38>
    f61c:	ee255b04 	vmul.f64	d5, d5, d4
    f620:	e5d03000 	ldrb	r3, [r0]
    f624:	e353002e 	cmp	r3, #46	; 0x2e
    f628:	e2432030 	sub	r2, r3, #48	; 0x30
    f62c:	1afffff1 	bne	f5f8 <atod+0x48>
    f630:	e5d03001 	ldrb	r3, [r0, #1]
    f634:	e38cc002 	orr	ip, ip, #2
    f638:	e2432030 	sub	r2, r3, #48	; 0x30
    f63c:	e3520009 	cmp	r2, #9
    f640:	e2800002 	add	r0, r0, #2
    f644:	8a000005 	bhi	f660 <atod+0xb0>
    f648:	ee073a90 	vmov	s15, r3
    f64c:	eeb87be7 	vcvt.f64.s32	d7, s15
    f650:	ee067b04 	vmla.f64	d7, d6, d4
    f654:	ee255b04 	vmul.f64	d5, d5, d4
    f658:	ee376b43 	vsub.f64	d6, d7, d3
    f65c:	eaffffef 	b	f620 <atod+0x70>
    f660:	e3c33020 	bic	r3, r3, #32
    f664:	e3530045 	cmp	r3, #69	; 0x45
    f668:	1a000023 	bne	f6fc <atod+0x14c>
    f66c:	e92d4010 	push	{r4, lr}
    f670:	e5d01000 	ldrb	r1, [r0]
    f674:	e351002d 	cmp	r1, #45	; 0x2d
    f678:	05d01001 	ldrbeq	r1, [r0, #1]
    f67c:	038cc004 	orreq	ip, ip, #4
    f680:	02800001 	addeq	r0, r0, #1
    f684:	03a04004 	moveq	r4, #4
    f688:	13a04000 	movne	r4, #0
    f68c:	e351002b 	cmp	r1, #43	; 0x2b
    f690:	05d01001 	ldrbeq	r1, [r0, #1]
    f694:	02800001 	addeq	r0, r0, #1
    f698:	e2413030 	sub	r3, r1, #48	; 0x30
    f69c:	e3530009 	cmp	r3, #9
    f6a0:	8a000011 	bhi	f6ec <atod+0x13c>
    f6a4:	e3a03000 	mov	r3, #0
    f6a8:	e0833103 	add	r3, r3, r3, lsl #2
    f6ac:	e0812083 	add	r2, r1, r3, lsl #1
    f6b0:	e5f01001 	ldrb	r1, [r0, #1]!
    f6b4:	e2423030 	sub	r3, r2, #48	; 0x30
    f6b8:	e241e030 	sub	lr, r1, #48	; 0x30
    f6bc:	e35e0009 	cmp	lr, #9
    f6c0:	9afffff8 	bls	f6a8 <atod+0xf8>
    f6c4:	e3540000 	cmp	r4, #0
    f6c8:	1a00000f 	bne	f70c <atod+0x15c>
    f6cc:	e3530000 	cmp	r3, #0
    f6d0:	e2423031 	sub	r3, r2, #49	; 0x31
    f6d4:	0a000004 	beq	f6ec <atod+0x13c>
    f6d8:	ed9f7b18 	vldr	d7, [pc, #96]	; f740 <atod+0x190>
    f6dc:	e2433001 	sub	r3, r3, #1
    f6e0:	e3730001 	cmn	r3, #1
    f6e4:	ee266b07 	vmul.f64	d6, d6, d7
    f6e8:	1afffffb 	bne	f6dc <atod+0x12c>
    f6ec:	e31c0001 	tst	ip, #1
    f6f0:	1eb16b46 	vnegne.f64	d6, d6
    f6f4:	ee860b05 	vdiv.f64	d0, d6, d5
    f6f8:	e8bd8010 	pop	{r4, pc}
    f6fc:	e31c0001 	tst	ip, #1
    f700:	1eb16b46 	vnegne.f64	d6, d6
    f704:	ee860b05 	vdiv.f64	d0, d6, d5
    f708:	e12fff1e 	bx	lr
    f70c:	e3530000 	cmp	r3, #0
    f710:	e2423031 	sub	r3, r2, #49	; 0x31
    f714:	0afffff4 	beq	f6ec <atod+0x13c>
    f718:	ed9f7b08 	vldr	d7, [pc, #32]	; f740 <atod+0x190>
    f71c:	e2433001 	sub	r3, r3, #1
    f720:	e3730001 	cmn	r3, #1
    f724:	ee255b07 	vmul.f64	d5, d5, d7
    f728:	1afffffb 	bne	f71c <atod+0x16c>
    f72c:	eaffffee 	b	f6ec <atod+0x13c>
    f730:	00000000 	andeq	r0, r0, r0
    f734:	3ff00000 	svccc	0x00f00000	; IMB
	...
    f744:	40240000 	eormi	r0, r4, r0
    f748:	00000000 	andeq	r0, r0, r0
    f74c:	40480000 	submi	r0, r8, r0

0000f750 <dprint>:
    f750:	eeb50bc0 	vcmpe.f64	d0, #0.0
    f754:	eef1fa10 	vmrs	APSR_nzcv, fpscr
    f758:	e92d47f0 	push	{r4, r5, r6, r7, r8, r9, sl, lr}
    f75c:	4eb10b40 	vnegmi.f64	d0, d0
    f760:	42400001 	submi	r0, r0, #1
    f764:	43a09001 	movmi	r9, #1
    f768:	53a09000 	movpl	r9, #0
    f76c:	e3510000 	cmp	r1, #0
    f770:	ed2d8b04 	vpush	{d8-d9}
    f774:	e1a07002 	mov	r7, r2
    f778:	ed9f8b40 	vldr	d8, [pc, #256]	; f880 <dprint+0x130>
    f77c:	da000005 	ble	f798 <dprint+0x48>
    f780:	e3a03000 	mov	r3, #0
    f784:	ed9f6b3f 	vldr	d6, [pc, #252]	; f888 <dprint+0x138>
    f788:	e2833001 	add	r3, r3, #1
    f78c:	e1510003 	cmp	r1, r3
    f790:	ee888b06 	vdiv.f64	d8, d8, d6
    f794:	1afffffb 	bne	f788 <dprint+0x38>
    f798:	ee308b08 	vadd.f64	d8, d0, d8
    f79c:	ed9f7b3b 	vldr	d7, [pc, #236]	; f890 <dprint+0x140>
    f7a0:	eeb48bc7 	vcmpe.f64	d8, d7
    f7a4:	eef1fa10 	vmrs	APSR_nzcv, fpscr
    f7a8:	e2816001 	add	r6, r1, #1
    f7ac:	e0400006 	sub	r0, r0, r6
    f7b0:	ba00002c 	blt	f868 <dprint+0x118>
    f7b4:	e3a04000 	mov	r4, #0
    f7b8:	ed9f6b32 	vldr	d6, [pc, #200]	; f888 <dprint+0x138>
    f7bc:	ee888b06 	vdiv.f64	d8, d8, d6
    f7c0:	eeb48bc7 	vcmpe.f64	d8, d7
    f7c4:	eef1fa10 	vmrs	APSR_nzcv, fpscr
    f7c8:	e2844001 	add	r4, r4, #1
    f7cc:	e0408004 	sub	r8, r0, r4
    f7d0:	aafffff9 	bge	f7bc <dprint+0x6c>
    f7d4:	e0816004 	add	r6, r1, r4
    f7d8:	e3580000 	cmp	r8, #0
    f7dc:	e2485001 	sub	r5, r8, #1
    f7e0:	d3a08001 	movle	r8, #1
    f7e4:	da000005 	ble	f800 <dprint+0xb0>
    f7e8:	e2455001 	sub	r5, r5, #1
    f7ec:	e3a00020 	mov	r0, #32
    f7f0:	e12fff37 	blx	r7
    f7f4:	e3750001 	cmn	r5, #1
    f7f8:	1afffffa 	bne	f7e8 <dprint+0x98>
    f7fc:	e2888001 	add	r8, r8, #1
    f800:	e3590000 	cmp	r9, #0
    f804:	0a000002 	beq	f814 <dprint+0xc4>
    f808:	e3a0002d 	mov	r0, #45	; 0x2d
    f80c:	e12fff37 	blx	r7
    f810:	e2888001 	add	r8, r8, #1
    f814:	ed9f9b1b 	vldr	d9, [pc, #108]	; f888 <dprint+0x138>
    f818:	e0868008 	add	r8, r6, r8
    f81c:	e2566001 	subs	r6, r6, #1
    f820:	3a00000d 	bcc	f85c <dprint+0x10c>
    f824:	ee288b09 	vmul.f64	d8, d8, d9
    f828:	eefd7bc8 	vcvt.s32.f64	s15, d8
    f82c:	ee173a90 	vmov	r3, s15
    f830:	eeb80be7 	vcvt.f64.s32	d0, s15
    f834:	e2830030 	add	r0, r3, #48	; 0x30
    f838:	ee388b40 	vsub.f64	d8, d8, d0
    f83c:	e12fff37 	blx	r7
    f840:	e2544001 	subs	r4, r4, #1
    f844:	1afffff4 	bne	f81c <dprint+0xcc>
    f848:	e3a0002e 	mov	r0, #46	; 0x2e
    f84c:	e12fff37 	blx	r7
    f850:	e2566001 	subs	r6, r6, #1
    f854:	e3a04e32 	mov	r4, #800	; 0x320
    f858:	2afffff1 	bcs	f824 <dprint+0xd4>
    f85c:	ecbd8b04 	vpop	{d8-d9}
    f860:	e1a00008 	mov	r0, r8
    f864:	e8bd87f0 	pop	{r4, r5, r6, r7, r8, r9, sl, pc}
    f868:	ed9f7b06 	vldr	d7, [pc, #24]	; f888 <dprint+0x138>
    f86c:	e3a04001 	mov	r4, #1
    f870:	ee888b07 	vdiv.f64	d8, d8, d7
    f874:	e2408001 	sub	r8, r0, #1
    f878:	eaffffd6 	b	f7d8 <dprint+0x88>
    f87c:	e320f000 	nop	{0}
    f880:	00000000 	andeq	r0, r0, r0
    f884:	3fe00000 	svccc	0x00e00000
    f888:	00000000 	andeq	r0, r0, r0
    f88c:	40240000 	eormi	r0, r4, r0
    f890:	00000000 	andeq	r0, r0, r0
    f894:	3ff00000 	svccc	0x00f00000	; IMB

0000f898 <va_printf>:
    f898:	e92d4ff0 	push	{r4, r5, r6, r7, r8, r9, sl, fp, lr}
    f89c:	e3a06000 	mov	r6, #0
    f8a0:	ed2d8b04 	vpush	{d8-d9}
    f8a4:	e1a0a006 	mov	sl, r6
    f8a8:	e1a05001 	mov	r5, r1
    f8ac:	e1a07000 	mov	r7, r0
    f8b0:	ed9f8bf8 	vldr	d8, [pc, #992]	; fc98 <va_printf+0x400>
    f8b4:	ed9f9bf9 	vldr	d9, [pc, #996]	; fca0 <va_printf+0x408>
    f8b8:	e1a06002 	mov	r6, r2
    f8bc:	e24dd024 	sub	sp, sp, #36	; 0x24
    f8c0:	e2814001 	add	r4, r1, #1
    f8c4:	e5d50000 	ldrb	r0, [r5]
    f8c8:	e3500000 	cmp	r0, #0
    f8cc:	0a000008 	beq	f8f4 <va_printf+0x5c>
    f8d0:	e3500025 	cmp	r0, #37	; 0x25
    f8d4:	0a00000a 	beq	f904 <va_printf+0x6c>
    f8d8:	e1a05004 	mov	r5, r4
    f8dc:	e12fff37 	blx	r7
    f8e0:	e5d50000 	ldrb	r0, [r5]
    f8e4:	e28aa001 	add	sl, sl, #1
    f8e8:	e3500000 	cmp	r0, #0
    f8ec:	e2844001 	add	r4, r4, #1
    f8f0:	1afffff6 	bne	f8d0 <va_printf+0x38>
    f8f4:	e1a0000a 	mov	r0, sl
    f8f8:	e28dd024 	add	sp, sp, #36	; 0x24
    f8fc:	ecbd8b04 	vpop	{d8-d9}
    f900:	e8bd8ff0 	pop	{r4, r5, r6, r7, r8, r9, sl, fp, pc}
    f904:	e5d52001 	ldrb	r2, [r5, #1]
    f908:	e2851002 	add	r1, r5, #2
    f90c:	e3520030 	cmp	r2, #48	; 0x30
    f910:	0a00012a 	beq	fdc0 <va_printf+0x528>
    f914:	e352002d 	cmp	r2, #45	; 0x2d
    f918:	1a00007a 	bne	fb08 <va_printf+0x270>
    f91c:	e3a03000 	mov	r3, #0
    f920:	e58d3000 	str	r3, [sp]
    f924:	e3a03020 	mov	r3, #32
    f928:	e5d52002 	ldrb	r2, [r5, #2]
    f92c:	e58d3004 	str	r3, [sp, #4]
    f930:	e2855003 	add	r5, r5, #3
    f934:	e2421030 	sub	r1, r2, #48	; 0x30
    f938:	e3510009 	cmp	r1, #9
    f93c:	8a000133 	bhi	fe10 <va_printf+0x578>
    f940:	e3a08000 	mov	r8, #0
    f944:	e0888108 	add	r8, r8, r8, lsl #2
    f948:	e0828088 	add	r8, r2, r8, lsl #1
    f94c:	e4d52001 	ldrb	r2, [r5], #1
    f950:	e2488030 	sub	r8, r8, #48	; 0x30
    f954:	e2423030 	sub	r3, r2, #48	; 0x30
    f958:	e3530009 	cmp	r3, #9
    f95c:	9afffff8 	bls	f944 <va_printf+0xac>
    f960:	e352002e 	cmp	r2, #46	; 0x2e
    f964:	e2854001 	add	r4, r5, #1
    f968:	13a01000 	movne	r1, #0
    f96c:	0a000118 	beq	fdd4 <va_printf+0x53c>
    f970:	e3c20020 	bic	r0, r2, #32
    f974:	e3520068 	cmp	r2, #104	; 0x68
    f978:	1350004c 	cmpne	r0, #76	; 0x4c
    f97c:	1a000006 	bne	f99c <va_printf+0x104>
    f980:	e5542001 	ldrb	r2, [r4, #-1]
    f984:	e1a05004 	mov	r5, r4
    f988:	e20230df 	and	r3, r2, #223	; 0xdf
    f98c:	e3520068 	cmp	r2, #104	; 0x68
    f990:	1353004c 	cmpne	r3, #76	; 0x4c
    f994:	e2844001 	add	r4, r4, #1
    f998:	0afffff8 	beq	f980 <va_printf+0xe8>
    f99c:	e2420041 	sub	r0, r2, #65	; 0x41
    f9a0:	e3500019 	cmp	r0, #25
    f9a4:	92222020 	eorls	r2, r2, #32
    f9a8:	e2420025 	sub	r0, r2, #37	; 0x25
    f9ac:	e3500053 	cmp	r0, #83	; 0x53
    f9b0:	908ff100 	addls	pc, pc, r0, lsl #2
    f9b4:	ea000082 	b	fbc4 <va_printf+0x32c>
    f9b8:	ea0000f2 	b	fd88 <va_printf+0x4f0>
    f9bc:	ea000080 	b	fbc4 <va_printf+0x32c>
    f9c0:	ea00007f 	b	fbc4 <va_printf+0x32c>
    f9c4:	ea00007e 	b	fbc4 <va_printf+0x32c>
    f9c8:	ea00007d 	b	fbc4 <va_printf+0x32c>
    f9cc:	ea00007c 	b	fbc4 <va_printf+0x32c>
    f9d0:	ea00007b 	b	fbc4 <va_printf+0x32c>
    f9d4:	ea00007a 	b	fbc4 <va_printf+0x32c>
    f9d8:	ea000079 	b	fbc4 <va_printf+0x32c>
    f9dc:	ea000078 	b	fbc4 <va_printf+0x32c>
    f9e0:	ea000077 	b	fbc4 <va_printf+0x32c>
    f9e4:	ea000076 	b	fbc4 <va_printf+0x32c>
    f9e8:	ea000075 	b	fbc4 <va_printf+0x32c>
    f9ec:	ea000074 	b	fbc4 <va_printf+0x32c>
    f9f0:	ea000073 	b	fbc4 <va_printf+0x32c>
    f9f4:	ea000072 	b	fbc4 <va_printf+0x32c>
    f9f8:	ea000071 	b	fbc4 <va_printf+0x32c>
    f9fc:	ea000070 	b	fbc4 <va_printf+0x32c>
    fa00:	ea00006f 	b	fbc4 <va_printf+0x32c>
    fa04:	ea00006e 	b	fbc4 <va_printf+0x32c>
    fa08:	ea00006d 	b	fbc4 <va_printf+0x32c>
    fa0c:	ea00006c 	b	fbc4 <va_printf+0x32c>
    fa10:	ea00006b 	b	fbc4 <va_printf+0x32c>
    fa14:	ea00006a 	b	fbc4 <va_printf+0x32c>
    fa18:	ea000069 	b	fbc4 <va_printf+0x32c>
    fa1c:	ea000068 	b	fbc4 <va_printf+0x32c>
    fa20:	ea000067 	b	fbc4 <va_printf+0x32c>
    fa24:	ea000066 	b	fbc4 <va_printf+0x32c>
    fa28:	ea000065 	b	fbc4 <va_printf+0x32c>
    fa2c:	ea000064 	b	fbc4 <va_printf+0x32c>
    fa30:	ea000063 	b	fbc4 <va_printf+0x32c>
    fa34:	ea000062 	b	fbc4 <va_printf+0x32c>
    fa38:	ea000061 	b	fbc4 <va_printf+0x32c>
    fa3c:	ea000060 	b	fbc4 <va_printf+0x32c>
    fa40:	ea00005f 	b	fbc4 <va_printf+0x32c>
    fa44:	ea00005e 	b	fbc4 <va_printf+0x32c>
    fa48:	ea00005d 	b	fbc4 <va_printf+0x32c>
    fa4c:	ea00005c 	b	fbc4 <va_printf+0x32c>
    fa50:	ea00005b 	b	fbc4 <va_printf+0x32c>
    fa54:	ea00005a 	b	fbc4 <va_printf+0x32c>
    fa58:	ea000059 	b	fbc4 <va_printf+0x32c>
    fa5c:	ea000058 	b	fbc4 <va_printf+0x32c>
    fa60:	ea000057 	b	fbc4 <va_printf+0x32c>
    fa64:	ea000056 	b	fbc4 <va_printf+0x32c>
    fa68:	ea000055 	b	fbc4 <va_printf+0x32c>
    fa6c:	ea000054 	b	fbc4 <va_printf+0x32c>
    fa70:	ea000053 	b	fbc4 <va_printf+0x32c>
    fa74:	ea000052 	b	fbc4 <va_printf+0x32c>
    fa78:	ea000051 	b	fbc4 <va_printf+0x32c>
    fa7c:	ea000050 	b	fbc4 <va_printf+0x32c>
    fa80:	ea00004f 	b	fbc4 <va_printf+0x32c>
    fa84:	ea00004e 	b	fbc4 <va_printf+0x32c>
    fa88:	ea00004d 	b	fbc4 <va_printf+0x32c>
    fa8c:	ea00004c 	b	fbc4 <va_printf+0x32c>
    fa90:	ea00004b 	b	fbc4 <va_printf+0x32c>
    fa94:	ea00004a 	b	fbc4 <va_printf+0x32c>
    fa98:	ea000049 	b	fbc4 <va_printf+0x32c>
    fa9c:	ea000048 	b	fbc4 <va_printf+0x32c>
    faa0:	ea000047 	b	fbc4 <va_printf+0x32c>
    faa4:	ea000046 	b	fbc4 <va_printf+0x32c>
    faa8:	ea000045 	b	fbc4 <va_printf+0x32c>
    faac:	ea000044 	b	fbc4 <va_printf+0x32c>
    fab0:	ea0000b8 	b	fd98 <va_printf+0x500>
    fab4:	ea000096 	b	fd14 <va_printf+0x47c>
    fab8:	ea00004f 	b	fbfc <va_printf+0x364>
    fabc:	ea00004e 	b	fbfc <va_printf+0x364>
    fac0:	ea00004d 	b	fbfc <va_printf+0x364>
    fac4:	ea00003e 	b	fbc4 <va_printf+0x32c>
    fac8:	ea000091 	b	fd14 <va_printf+0x47c>
    facc:	ea00003c 	b	fbc4 <va_printf+0x32c>
    fad0:	ea00003b 	b	fbc4 <va_printf+0x32c>
    fad4:	ea00003a 	b	fbc4 <va_printf+0x32c>
    fad8:	ea000039 	b	fbc4 <va_printf+0x32c>
    fadc:	ea000038 	b	fbc4 <va_printf+0x32c>
    fae0:	ea00000d 	b	fb1c <va_printf+0x284>
    fae4:	ea000036 	b	fbc4 <va_printf+0x32c>
    fae8:	ea00000b 	b	fb1c <va_printf+0x284>
    faec:	ea000034 	b	fbc4 <va_printf+0x32c>
    faf0:	ea00006e 	b	fcb0 <va_printf+0x418>
    faf4:	ea000032 	b	fbc4 <va_printf+0x32c>
    faf8:	ea000063 	b	fc8c <va_printf+0x3f4>
    fafc:	ea000030 	b	fbc4 <va_printf+0x32c>
    fb00:	ea00002f 	b	fbc4 <va_printf+0x32c>
    fb04:	ea000080 	b	fd0c <va_printf+0x474>
    fb08:	e1a05001 	mov	r5, r1
    fb0c:	e3a00c01 	mov	r0, #256	; 0x100
    fb10:	e3a01e12 	mov	r1, #288	; 0x120
    fb14:	e1cd00f0 	strd	r0, [sp]
    fb18:	eaffff85 	b	f934 <va_printf+0x9c>
    fb1c:	e3a02008 	mov	r2, #8
    fb20:	e28db010 	add	fp, sp, #16
    fb24:	e5961000 	ldr	r1, [r6]
    fb28:	e1a0000b 	mov	r0, fp
    fb2c:	ebfffe70 	bl	f4f4 <u2str>
    fb30:	e59d1000 	ldr	r1, [sp]
    fb34:	e0482000 	sub	r2, r8, r0
    fb38:	e08a3000 	add	r3, sl, r0
    fb3c:	e1c28fc2 	bic	r8, r2, r2, asr #31
    fb40:	e3510000 	cmp	r1, #0
    fb44:	e1a09000 	mov	r9, r0
    fb48:	e2866004 	add	r6, r6, #4
    fb4c:	e083a008 	add	sl, r3, r8
    fb50:	0a000014 	beq	fba8 <va_printf+0x310>
    fb54:	e3520000 	cmp	r2, #0
    fb58:	e2488001 	sub	r8, r8, #1
    fb5c:	d3a08000 	movle	r8, #0
    fb60:	da000010 	ble	fba8 <va_printf+0x310>
    fb64:	e3a03000 	mov	r3, #0
    fb68:	e58d400c 	str	r4, [sp, #12]
    fb6c:	e1a04008 	mov	r4, r8
    fb70:	e59d8004 	ldr	r8, [sp, #4]
    fb74:	e58d3008 	str	r3, [sp, #8]
    fb78:	e2444001 	sub	r4, r4, #1
    fb7c:	e1a00008 	mov	r0, r8
    fb80:	e12fff37 	blx	r7
    fb84:	e3740001 	cmn	r4, #1
    fb88:	1afffffa 	bne	fb78 <va_printf+0x2e0>
    fb8c:	e3a08000 	mov	r8, #0
    fb90:	e59d400c 	ldr	r4, [sp, #12]
    fb94:	e59d3008 	ldr	r3, [sp, #8]
    fb98:	e3530000 	cmp	r3, #0
    fb9c:	0a000001 	beq	fba8 <va_printf+0x310>
    fba0:	e3a0002d 	mov	r0, #45	; 0x2d
    fba4:	e12fff37 	blx	r7
    fba8:	e3590000 	cmp	r9, #0
    fbac:	108b9009 	addne	r9, fp, r9
    fbb0:	0a000003 	beq	fbc4 <va_printf+0x32c>
    fbb4:	e5790001 	ldrb	r0, [r9, #-1]!
    fbb8:	e12fff37 	blx	r7
    fbbc:	e15b0009 	cmp	fp, r9
    fbc0:	1afffffb 	bne	fbb4 <va_printf+0x31c>
    fbc4:	e59d3000 	ldr	r3, [sp]
    fbc8:	e08aa008 	add	sl, sl, r8
    fbcc:	e3530000 	cmp	r3, #0
    fbd0:	1affff3b 	bne	f8c4 <va_printf+0x2c>
    fbd4:	e3580000 	cmp	r8, #0
    fbd8:	e2488001 	sub	r8, r8, #1
    fbdc:	0affff38 	beq	f8c4 <va_printf+0x2c>
    fbe0:	e59d9004 	ldr	r9, [sp, #4]
    fbe4:	e2488001 	sub	r8, r8, #1
    fbe8:	e1a00009 	mov	r0, r9
    fbec:	e12fff37 	blx	r7
    fbf0:	e3780001 	cmn	r8, #1
    fbf4:	1afffffa 	bne	fbe4 <va_printf+0x34c>
    fbf8:	eaffff31 	b	f8c4 <va_printf+0x2c>
    fbfc:	e2866007 	add	r6, r6, #7
    fc00:	e3c66007 	bic	r6, r6, #7
    fc04:	ed960b00 	vldr	d0, [r6]
    fc08:	eeb50bc0 	vcmpe.f64	d0, #0.0
    fc0c:	eef1fa10 	vmrs	APSR_nzcv, fpscr
    fc10:	e2866008 	add	r6, r6, #8
    fc14:	4eb17b40 	vnegmi.f64	d7, d0
    fc18:	43a00001 	movmi	r0, #1
    fc1c:	5eb07b40 	vmovpl.f64	d7, d0
    fc20:	53a00000 	movpl	r0, #0
    fc24:	eeb47bc8 	vcmpe.f64	d7, d8
    fc28:	eef1fa10 	vmrs	APSR_nzcv, fpscr
    fc2c:	e3a09000 	mov	r9, #0
    fc30:	da000004 	ble	fc48 <va_printf+0x3b0>
    fc34:	ee877b09 	vdiv.f64	d7, d7, d9
    fc38:	eeb47bc8 	vcmpe.f64	d7, d8
    fc3c:	eef1fa10 	vmrs	APSR_nzcv, fpscr
    fc40:	e2899001 	add	r9, r9, #1
    fc44:	cafffffa 	bgt	fc34 <va_printf+0x39c>
    fc48:	eeb57b40 	vcmp.f64	d7, #0.0
    fc4c:	eef1fa10 	vmrs	APSR_nzcv, fpscr
    fc50:	1a0000a1 	bne	fedc <va_printf+0x644>
    fc54:	e3520065 	cmp	r2, #101	; 0x65
    fc58:	0a000075 	beq	fe34 <va_printf+0x59c>
    fc5c:	e3520067 	cmp	r2, #103	; 0x67
    fc60:	0a00006c 	beq	fe18 <va_printf+0x580>
    fc64:	e59d3000 	ldr	r3, [sp]
    fc68:	e1a02007 	mov	r2, r7
    fc6c:	e3530000 	cmp	r3, #0
    fc70:	11a00008 	movne	r0, r8
    fc74:	03a00000 	moveq	r0, #0
    fc78:	ebfffeb4 	bl	f750 <dprint>
    fc7c:	e0488000 	sub	r8, r8, r0
    fc80:	e1c88fc8 	bic	r8, r8, r8, asr #31
    fc84:	e08aa000 	add	sl, sl, r0
    fc88:	eaffffcd 	b	fbc4 <va_printf+0x32c>
    fc8c:	e3a0200a 	mov	r2, #10
    fc90:	eaffffa2 	b	fb20 <va_printf+0x288>
    fc94:	e320f000 	nop	{0}
    fc98:	00000000 	andeq	r0, r0, r0
    fc9c:	3ff00000 	svccc	0x00f00000	; IMB
    fca0:	00000000 	andeq	r0, r0, r0
    fca4:	40240000 	eormi	r0, r4, r0
    fca8:	51eb851f 	mvnpl	r8, pc, lsl r5
    fcac:	cccccccd 	stclgt	12, cr12, [ip], {205}	; 0xcd
    fcb0:	e5969000 	ldr	r9, [r6]
    fcb4:	e2866004 	add	r6, r6, #4
    fcb8:	e5d90000 	ldrb	r0, [r9]
    fcbc:	e3500000 	cmp	r0, #0
    fcc0:	0a000099 	beq	ff2c <va_printf+0x694>
    fcc4:	e1a01009 	mov	r1, r9
    fcc8:	e3a02000 	mov	r2, #0
    fccc:	e5f1c001 	ldrb	ip, [r1, #1]!
    fcd0:	e2822001 	add	r2, r2, #1
    fcd4:	e35c0000 	cmp	ip, #0
    fcd8:	1afffffb 	bne	fccc <va_printf+0x434>
    fcdc:	e0481002 	sub	r1, r8, r2
    fce0:	e08a3002 	add	r3, sl, r2
    fce4:	e59d2000 	ldr	r2, [sp]
    fce8:	e1c18fc1 	bic	r8, r1, r1, asr #31
    fcec:	e3520000 	cmp	r2, #0
    fcf0:	e083a008 	add	sl, r3, r8
    fcf4:	1a0000a5 	bne	ff90 <va_printf+0x6f8>
    fcf8:	e12fff37 	blx	r7
    fcfc:	e5f90001 	ldrb	r0, [r9, #1]!
    fd00:	e3500000 	cmp	r0, #0
    fd04:	1afffffb 	bne	fcf8 <va_printf+0x460>
    fd08:	eaffffad 	b	fbc4 <va_printf+0x32c>
    fd0c:	e3a02010 	mov	r2, #16
    fd10:	eaffff82 	b	fb20 <va_printf+0x288>
    fd14:	e5961000 	ldr	r1, [r6]
    fd18:	e28db010 	add	fp, sp, #16
    fd1c:	e3510000 	cmp	r1, #0
    fd20:	b3a03001 	movlt	r3, #1
    fd24:	a3a03000 	movge	r3, #0
    fd28:	b2611000 	rsblt	r1, r1, #0
    fd2c:	e3a0200a 	mov	r2, #10
    fd30:	e1a0000b 	mov	r0, fp
    fd34:	e58d3008 	str	r3, [sp, #8]
    fd38:	ebfffded 	bl	f4f4 <u2str>
    fd3c:	e59d3008 	ldr	r3, [sp, #8]
    fd40:	e59d1000 	ldr	r1, [sp]
    fd44:	e0832000 	add	r2, r3, r0
    fd48:	e0482002 	sub	r2, r8, r2
    fd4c:	e08a3000 	add	r3, sl, r0
    fd50:	e1c28fc2 	bic	r8, r2, r2, asr #31
    fd54:	e3510000 	cmp	r1, #0
    fd58:	e2866004 	add	r6, r6, #4
    fd5c:	e1a09000 	mov	r9, r0
    fd60:	e083a008 	add	sl, r3, r8
    fd64:	0affff8a 	beq	fb94 <va_printf+0x2fc>
    fd68:	e3520000 	cmp	r2, #0
    fd6c:	e2488001 	sub	r8, r8, #1
    fd70:	c58d400c 	strgt	r4, [sp, #12]
    fd74:	c1a04008 	movgt	r4, r8
    fd78:	c59d8004 	ldrgt	r8, [sp, #4]
    fd7c:	caffff7d 	bgt	fb78 <va_printf+0x2e0>
    fd80:	e3a08000 	mov	r8, #0
    fd84:	eaffff82 	b	fb94 <va_printf+0x2fc>
    fd88:	e3a00025 	mov	r0, #37	; 0x25
    fd8c:	e12fff37 	blx	r7
    fd90:	e28aa001 	add	sl, sl, #1
    fd94:	eaffff8a 	b	fbc4 <va_printf+0x32c>
    fd98:	e59d3000 	ldr	r3, [sp]
    fd9c:	e08aa008 	add	sl, sl, r8
    fda0:	e3530000 	cmp	r3, #0
    fda4:	1a000055 	bne	ff00 <va_printf+0x668>
    fda8:	e5960000 	ldr	r0, [r6]
    fdac:	e286b004 	add	fp, r6, #4
    fdb0:	e28aa001 	add	sl, sl, #1
    fdb4:	e12fff37 	blx	r7
    fdb8:	e1a0600b 	mov	r6, fp
    fdbc:	eaffff80 	b	fbc4 <va_printf+0x32c>
    fdc0:	e3a08c01 	mov	r8, #256	; 0x100
    fdc4:	e3a09e13 	mov	r9, #304	; 0x130
    fdc8:	e1a05001 	mov	r5, r1
    fdcc:	e1cd80f0 	strd	r8, [sp]
    fdd0:	eafffeda 	b	f940 <va_printf+0xa8>
    fdd4:	e5d52000 	ldrb	r2, [r5]
    fdd8:	e1a05004 	mov	r5, r4
    fddc:	e2421030 	sub	r1, r2, #48	; 0x30
    fde0:	e3510009 	cmp	r1, #9
    fde4:	e3a01000 	mov	r1, #0
    fde8:	8a000006 	bhi	fe08 <va_printf+0x570>
    fdec:	e0811101 	add	r1, r1, r1, lsl #2
    fdf0:	e0821081 	add	r1, r2, r1, lsl #1
    fdf4:	e4d52001 	ldrb	r2, [r5], #1
    fdf8:	e2411030 	sub	r1, r1, #48	; 0x30
    fdfc:	e2423030 	sub	r3, r2, #48	; 0x30
    fe00:	e3530009 	cmp	r3, #9
    fe04:	9afffff8 	bls	fdec <va_printf+0x554>
    fe08:	e2854001 	add	r4, r5, #1
    fe0c:	eafffed7 	b	f970 <va_printf+0xd8>
    fe10:	e3a08000 	mov	r8, #0
    fe14:	eafffed1 	b	f960 <va_printf+0xc8>
    fe18:	e3590009 	cmp	r9, #9
    fe1c:	ca000004 	bgt	fe34 <va_printf+0x59c>
    fe20:	e2692000 	rsb	r2, r9, #0
    fe24:	e1520001 	cmp	r2, r1
    fe28:	baffff8d 	blt	fc64 <va_printf+0x3cc>
    fe2c:	e3510000 	cmp	r1, #0
    fe30:	0affff8b 	beq	fc64 <va_printf+0x3cc>
    fe34:	e3500000 	cmp	r0, #0
    fe38:	e59d3000 	ldr	r3, [sp]
    fe3c:	1eb17b47 	vnegne.f64	d7, d7
    fe40:	e3510002 	cmp	r1, #2
    fe44:	b3a01002 	movlt	r1, #2
    fe48:	e3530000 	cmp	r3, #0
    fe4c:	e2488004 	sub	r8, r8, #4
    fe50:	0a000047 	beq	ff74 <va_printf+0x6dc>
    fe54:	e1a00008 	mov	r0, r8
    fe58:	eeb00b47 	vmov.f64	d0, d7
    fe5c:	e1a02007 	mov	r2, r7
    fe60:	ebfffe3a 	bl	f750 <dprint>
    fe64:	e0488000 	sub	r8, r8, r0
    fe68:	e08aa000 	add	sl, sl, r0
    fe6c:	e3a00045 	mov	r0, #69	; 0x45
    fe70:	e12fff37 	blx	r7
    fe74:	e3590000 	cmp	r9, #0
    fe78:	b3a0002d 	movlt	r0, #45	; 0x2d
    fe7c:	b2699000 	rsblt	r9, r9, #0
    fe80:	a3a0002b 	movge	r0, #43	; 0x2b
    fe84:	e12fff37 	blx	r7
    fe88:	e3590063 	cmp	r9, #99	; 0x63
    fe8c:	da000007 	ble	feb0 <va_printf+0x618>
    fe90:	e51f31f0 	ldr	r3, [pc, #-496]	; fca8 <va_printf+0x410>
    fe94:	e0810399 	umull	r0, r1, r9, r3
    fe98:	e1a0b2a1 	lsr	fp, r1, #5
    fe9c:	e28b0030 	add	r0, fp, #48	; 0x30
    fea0:	e12fff37 	blx	r7
    fea4:	e08bb10b 	add	fp, fp, fp, lsl #2
    fea8:	e08bb10b 	add	fp, fp, fp, lsl #2
    feac:	e049910b 	sub	r9, r9, fp, lsl #2
    feb0:	e51f320c 	ldr	r3, [pc, #-524]	; fcac <va_printf+0x414>
    feb4:	e1c88fc8 	bic	r8, r8, r8, asr #31
    feb8:	e0810399 	umull	r0, r1, r9, r3
    febc:	e1a0b1a1 	lsr	fp, r1, #3
    fec0:	e28b0030 	add	r0, fp, #48	; 0x30
    fec4:	e08bb10b 	add	fp, fp, fp, lsl #2
    fec8:	e12fff37 	blx	r7
    fecc:	e049008b 	sub	r0, r9, fp, lsl #1
    fed0:	e2800030 	add	r0, r0, #48	; 0x30
    fed4:	e12fff37 	blx	r7
    fed8:	eaffff39 	b	fbc4 <va_printf+0x32c>
    fedc:	eeb47bc8 	vcmpe.f64	d7, d8
    fee0:	eef1fa10 	vmrs	APSR_nzcv, fpscr
    fee4:	5affff5a 	bpl	fc54 <va_printf+0x3bc>
    fee8:	ee277b09 	vmul.f64	d7, d7, d9
    feec:	eeb47bc8 	vcmpe.f64	d7, d8
    fef0:	eef1fa10 	vmrs	APSR_nzcv, fpscr
    fef4:	e2499001 	sub	r9, r9, #1
    fef8:	4afffffa 	bmi	fee8 <va_printf+0x650>
    fefc:	eaffff54 	b	fc54 <va_printf+0x3bc>
    ff00:	e3580000 	cmp	r8, #0
    ff04:	159d9004 	ldrne	r9, [sp, #4]
    ff08:	e2488001 	sub	r8, r8, #1
    ff0c:	0a000004 	beq	ff24 <va_printf+0x68c>
    ff10:	e2488001 	sub	r8, r8, #1
    ff14:	e1a00009 	mov	r0, r9
    ff18:	e12fff37 	blx	r7
    ff1c:	e3780001 	cmn	r8, #1
    ff20:	1afffffa 	bne	ff10 <va_printf+0x678>
    ff24:	e3a08000 	mov	r8, #0
    ff28:	eaffff9e 	b	fda8 <va_printf+0x510>
    ff2c:	e59d3000 	ldr	r3, [sp]
    ff30:	e08aa008 	add	sl, sl, r8
    ff34:	e3530000 	cmp	r3, #0
    ff38:	0affff21 	beq	fbc4 <va_printf+0x32c>
    ff3c:	e3580000 	cmp	r8, #0
    ff40:	e2488001 	sub	r8, r8, #1
    ff44:	0afffe5e 	beq	f8c4 <va_printf+0x2c>
    ff48:	e59db004 	ldr	fp, [sp, #4]
    ff4c:	e2488001 	sub	r8, r8, #1
    ff50:	e1a0000b 	mov	r0, fp
    ff54:	e12fff37 	blx	r7
    ff58:	e3780001 	cmn	r8, #1
    ff5c:	1afffffa 	bne	ff4c <va_printf+0x6b4>
    ff60:	e5d90000 	ldrb	r0, [r9]
    ff64:	e3500000 	cmp	r0, #0
    ff68:	0afffe55 	beq	f8c4 <va_printf+0x2c>
    ff6c:	e3a08000 	mov	r8, #0
    ff70:	eaffff60 	b	fcf8 <va_printf+0x460>
    ff74:	eeb00b47 	vmov.f64	d0, d7
    ff78:	e1a02007 	mov	r2, r7
    ff7c:	e59d0000 	ldr	r0, [sp]
    ff80:	ebfffdf2 	bl	f750 <dprint>
    ff84:	e0488000 	sub	r8, r8, r0
    ff88:	e08aa000 	add	sl, sl, r0
    ff8c:	eaffffb6 	b	fe6c <va_printf+0x5d4>
    ff90:	e3510000 	cmp	r1, #0
    ff94:	e2488001 	sub	r8, r8, #1
    ff98:	caffffea 	bgt	ff48 <va_printf+0x6b0>
    ff9c:	eafffff2 	b	ff6c <va_printf+0x6d4>

0000ffa0 <mprintf>:
    ffa0:	e92d000e 	push	{r1, r2, r3}
    ffa4:	e52de004 	push	{lr}		; (str lr, [sp, #-4]!)
    ffa8:	e24dd008 	sub	sp, sp, #8
    ffac:	e28d3010 	add	r3, sp, #16
    ffb0:	e1a02003 	mov	r2, r3
    ffb4:	e59d100c 	ldr	r1, [sp, #12]
    ffb8:	e58d3004 	str	r3, [sp, #4]
    ffbc:	ebfffe35 	bl	f898 <va_printf>
    ffc0:	e28dd008 	add	sp, sp, #8
    ffc4:	e49de004 	pop	{lr}		; (ldr lr, [sp], #4)
    ffc8:	e28dd00c 	add	sp, sp, #12
    ffcc:	e12fff1e 	bx	lr

0000ffd0 <msprintf>:
    ffd0:	e92d000e 	push	{r1, r2, r3}
    ffd4:	e92d4010 	push	{r4, lr}
    ffd8:	e59f3044 	ldr	r3, [pc, #68]	; 10024 <msprintf+0x54>
    ffdc:	e24dd00c 	sub	sp, sp, #12
    ffe0:	e28d2018 	add	r2, sp, #24
    ffe4:	e59f103c 	ldr	r1, [pc, #60]	; 10028 <msprintf+0x58>
    ffe8:	e08f3003 	add	r3, pc, r3
    ffec:	e58d2004 	str	r2, [sp, #4]
    fff0:	e7934001 	ldr	r4, [r3, r1]
    fff4:	e59f1030 	ldr	r1, [pc, #48]	; 1002c <msprintf+0x5c>
    fff8:	e5840000 	str	r0, [r4]
    fffc:	e7930001 	ldr	r0, [r3, r1]
   10000:	e59d1014 	ldr	r1, [sp, #20]
   10004:	ebfffe23 	bl	f898 <va_printf>
   10008:	e3a02000 	mov	r2, #0
   1000c:	e5943000 	ldr	r3, [r4]
   10010:	e5c32000 	strb	r2, [r3]
   10014:	e28dd00c 	add	sp, sp, #12
   10018:	e8bd4010 	pop	{r4, lr}
   1001c:	e28dd00c 	add	sp, sp, #12
   10020:	e12fff1e 	bx	lr
   10024:	00008dec 	andeq	r8, r0, ip, ror #27
   10028:	00000170 	andeq	r0, r0, r0, ror r1
   1002c:	0000017c 	andeq	r0, r0, ip, ror r1

00010030 <kvprintf>:
   10030:	e3510000 	cmp	r1, #0
   10034:	e92d4ff0 	push	{r4, r5, r6, r7, r8, r9, sl, fp, lr}
   10038:	e1a07002 	mov	r7, r2
   1003c:	13a02000 	movne	r2, #0
   10040:	e24dd06c 	sub	sp, sp, #108	; 0x6c
   10044:	e58d3004 	str	r3, [sp, #4]
   10048:	e59f3ff0 	ldr	r3, [pc, #4080]	; 11040 <kvprintf+0x1010>
   1004c:	e58d2000 	str	r2, [sp]
   10050:	e59d2090 	ldr	r2, [sp, #144]	; 0x90
   10054:	e2504000 	subs	r4, r0, #0
   10058:	e08f3003 	add	r3, pc, r3
   1005c:	e58d300c 	str	r3, [sp, #12]
   10060:	e58d2008 	str	r2, [sp, #8]
   10064:	e1a08001 	mov	r8, r1
   10068:	0a000090 	beq	102b0 <kvprintf+0x280>
   1006c:	e3a0b000 	mov	fp, #0
   10070:	e59d3004 	ldr	r3, [sp, #4]
   10074:	e1a0a00b 	mov	sl, fp
   10078:	e2432002 	sub	r2, r3, #2
   1007c:	e3520023 	cmp	r2, #35	; 0x23
   10080:	23a0300a 	movcs	r3, #10
   10084:	e1a09004 	mov	r9, r4
   10088:	e58d3004 	str	r3, [sp, #4]
   1008c:	e1a01009 	mov	r1, r9
   10090:	e04bb009 	sub	fp, fp, r9
   10094:	e59d6000 	ldr	r6, [sp]
   10098:	ea000006 	b	100b8 <kvprintf+0x88>
   1009c:	e3500000 	cmp	r0, #0
   100a0:	0a00007c 	beq	10298 <kvprintf+0x268>
   100a4:	e3580000 	cmp	r8, #0
   100a8:	0a00007d 	beq	102a4 <kvprintf+0x274>
   100ac:	e1a01007 	mov	r1, r7
   100b0:	e12fff38 	blx	r8
   100b4:	e1a01004 	mov	r1, r4
   100b8:	e2814001 	add	r4, r1, #1
   100bc:	e5540001 	ldrb	r0, [r4, #-1]
   100c0:	e081300b 	add	r3, r1, fp
   100c4:	e3500025 	cmp	r0, #37	; 0x25
   100c8:	e1a0c004 	mov	ip, r4
   100cc:	e1a02003 	mov	r2, r3
   100d0:	e1a05001 	mov	r5, r1
   100d4:	1afffff0 	bne	1009c <kvprintf+0x6c>
   100d8:	e35a0000 	cmp	sl, #0
   100dc:	1afffff0 	bne	100a4 <kvprintf+0x74>
   100e0:	e3a00020 	mov	r0, #32
   100e4:	e58d6000 	str	r6, [sp]
   100e8:	e1a0b00a 	mov	fp, sl
   100ec:	e1a0600a 	mov	r6, sl
   100f0:	e5d1e001 	ldrb	lr, [r1, #1]
   100f4:	e58da030 	str	sl, [sp, #48]	; 0x30
   100f8:	e58da038 	str	sl, [sp, #56]	; 0x38
   100fc:	e58da03c 	str	sl, [sp, #60]	; 0x3c
   10100:	e58da014 	str	sl, [sp, #20]
   10104:	e58da028 	str	sl, [sp, #40]	; 0x28
   10108:	e58da034 	str	sl, [sp, #52]	; 0x34
   1010c:	e58da024 	str	sl, [sp, #36]	; 0x24
   10110:	e58da018 	str	sl, [sp, #24]
   10114:	e58da010 	str	sl, [sp, #16]
   10118:	e58da01c 	str	sl, [sp, #28]
   1011c:	e58da02c 	str	sl, [sp, #44]	; 0x2c
   10120:	e58d0020 	str	r0, [sp, #32]
   10124:	e24e0023 	sub	r0, lr, #35	; 0x23
   10128:	e28c9001 	add	r9, ip, #1
   1012c:	e3500057 	cmp	r0, #87	; 0x57
   10130:	908ff100 	addls	pc, pc, r0, lsl #2
   10134:	ea000241 	b	10a40 <kvprintf+0xa10>
   10138:	ea000064 	b	102d0 <kvprintf+0x2a0>
   1013c:	ea00023f 	b	10a40 <kvprintf+0xa10>
   10140:	ea000067 	b	102e4 <kvprintf+0x2b4>
   10144:	ea00023d 	b	10a40 <kvprintf+0xa10>
   10148:	ea00023c 	b	10a40 <kvprintf+0xa10>
   1014c:	ea00023b 	b	10a40 <kvprintf+0xa10>
   10150:	ea00023a 	b	10a40 <kvprintf+0xa10>
   10154:	ea00006b 	b	10308 <kvprintf+0x2d8>
   10158:	ea000155 	b	106b4 <kvprintf+0x684>
   1015c:	ea000237 	b	10a40 <kvprintf+0xa10>
   10160:	ea000091 	b	103ac <kvprintf+0x37c>
   10164:	ea000156 	b	106c4 <kvprintf+0x694>
   10168:	ea000234 	b	10a40 <kvprintf+0xa10>
   1016c:	ea000071 	b	10338 <kvprintf+0x308>
   10170:	ea000076 	b	10350 <kvprintf+0x320>
   10174:	ea000075 	b	10350 <kvprintf+0x320>
   10178:	ea000074 	b	10350 <kvprintf+0x320>
   1017c:	ea000073 	b	10350 <kvprintf+0x320>
   10180:	ea000072 	b	10350 <kvprintf+0x320>
   10184:	ea000071 	b	10350 <kvprintf+0x320>
   10188:	ea000070 	b	10350 <kvprintf+0x320>
   1018c:	ea00006f 	b	10350 <kvprintf+0x320>
   10190:	ea00006e 	b	10350 <kvprintf+0x320>
   10194:	ea000229 	b	10a40 <kvprintf+0xa10>
   10198:	ea000228 	b	10a40 <kvprintf+0xa10>
   1019c:	ea000227 	b	10a40 <kvprintf+0xa10>
   101a0:	ea000226 	b	10a40 <kvprintf+0xa10>
   101a4:	ea000225 	b	10a40 <kvprintf+0xa10>
   101a8:	ea000224 	b	10a40 <kvprintf+0xa10>
   101ac:	ea000223 	b	10a40 <kvprintf+0xa10>
   101b0:	ea000222 	b	10a40 <kvprintf+0xa10>
   101b4:	ea000221 	b	10a40 <kvprintf+0xa10>
   101b8:	ea000220 	b	10a40 <kvprintf+0xa10>
   101bc:	ea00007f 	b	103c0 <kvprintf+0x390>
   101c0:	ea00021e 	b	10a40 <kvprintf+0xa10>
   101c4:	ea00021d 	b	10a40 <kvprintf+0xa10>
   101c8:	ea00021c 	b	10a40 <kvprintf+0xa10>
   101cc:	ea00021b 	b	10a40 <kvprintf+0xa10>
   101d0:	ea00021a 	b	10a40 <kvprintf+0xa10>
   101d4:	ea000219 	b	10a40 <kvprintf+0xa10>
   101d8:	ea000218 	b	10a40 <kvprintf+0xa10>
   101dc:	ea000217 	b	10a40 <kvprintf+0xa10>
   101e0:	ea000216 	b	10a40 <kvprintf+0xa10>
   101e4:	ea000215 	b	10a40 <kvprintf+0xa10>
   101e8:	ea000214 	b	10a40 <kvprintf+0xa10>
   101ec:	ea000213 	b	10a40 <kvprintf+0xa10>
   101f0:	ea000212 	b	10a40 <kvprintf+0xa10>
   101f4:	ea000211 	b	10a40 <kvprintf+0xa10>
   101f8:	ea000210 	b	10a40 <kvprintf+0xa10>
   101fc:	ea00020f 	b	10a40 <kvprintf+0xa10>
   10200:	ea00020e 	b	10a40 <kvprintf+0xa10>
   10204:	ea00020d 	b	10a40 <kvprintf+0xa10>
   10208:	ea00020c 	b	10a40 <kvprintf+0xa10>
   1020c:	ea00009f 	b	10490 <kvprintf+0x460>
   10210:	ea00020a 	b	10a40 <kvprintf+0xa10>
   10214:	ea000209 	b	10a40 <kvprintf+0xa10>
   10218:	ea000208 	b	10a40 <kvprintf+0xa10>
   1021c:	ea000207 	b	10a40 <kvprintf+0xa10>
   10220:	ea000206 	b	10a40 <kvprintf+0xa10>
   10224:	ea000205 	b	10a40 <kvprintf+0xa10>
   10228:	ea000204 	b	10a40 <kvprintf+0xa10>
   1022c:	ea000203 	b	10a40 <kvprintf+0xa10>
   10230:	ea000202 	b	10a40 <kvprintf+0xa10>
   10234:	ea000126 	b	106d4 <kvprintf+0x6a4>
   10238:	ea000158 	b	107a0 <kvprintf+0x770>
   1023c:	ea000163 	b	107d0 <kvprintf+0x7a0>
   10240:	ea0001fe 	b	10a40 <kvprintf+0xa10>
   10244:	ea0001fd 	b	10a40 <kvprintf+0xa10>
   10248:	ea0001fc 	b	10a40 <kvprintf+0xa10>
   1024c:	ea000173 	b	10820 <kvprintf+0x7f0>
   10250:	ea00015e 	b	107d0 <kvprintf+0x7a0>
   10254:	ea0001db 	b	109c8 <kvprintf+0x998>
   10258:	ea0001f8 	b	10a40 <kvprintf+0xa10>
   1025c:	ea0001de 	b	109dc <kvprintf+0x9ac>
   10260:	ea0001f6 	b	10a40 <kvprintf+0xa10>
   10264:	ea0001e8 	b	10a0c <kvprintf+0x9dc>
   10268:	ea0001f0 	b	10a30 <kvprintf+0xa00>
   1026c:	ea000177 	b	10850 <kvprintf+0x820>
   10270:	ea000184 	b	10888 <kvprintf+0x858>
   10274:	ea000188 	b	1089c <kvprintf+0x86c>
   10278:	ea00018f 	b	108bc <kvprintf+0x88c>
   1027c:	ea0001c1 	b	10988 <kvprintf+0x958>
   10280:	ea0001c5 	b	1099c <kvprintf+0x96c>
   10284:	ea0001ed 	b	10a40 <kvprintf+0xa10>
   10288:	ea0001ec 	b	10a40 <kvprintf+0xa10>
   1028c:	ea0001c6 	b	109ac <kvprintf+0x97c>
   10290:	ea0001c9 	b	109bc <kvprintf+0x98c>
   10294:	ea000008 	b	102bc <kvprintf+0x28c>
   10298:	e1a00003 	mov	r0, r3
   1029c:	e28dd06c 	add	sp, sp, #108	; 0x6c
   102a0:	e8bd8ff0 	pop	{r4, r5, r6, r7, r8, r9, sl, fp, pc}
   102a4:	e5c60000 	strb	r0, [r6]
   102a8:	e2866001 	add	r6, r6, #1
   102ac:	eaffff80 	b	100b4 <kvprintf+0x84>
   102b0:	e59f4d8c 	ldr	r4, [pc, #3468]	; 11044 <kvprintf+0x1014>
   102b4:	e08f4004 	add	r4, pc, r4
   102b8:	eaffff6b 	b	1006c <kvprintf+0x3c>
   102bc:	e3a00001 	mov	r0, #1
   102c0:	e5dce001 	ldrb	lr, [ip, #1]
   102c4:	e58d0038 	str	r0, [sp, #56]	; 0x38
   102c8:	e1a0c009 	mov	ip, r9
   102cc:	eaffff94 	b	10124 <kvprintf+0xf4>
   102d0:	e3a00001 	mov	r0, #1
   102d4:	e5dce001 	ldrb	lr, [ip, #1]
   102d8:	e58d0024 	str	r0, [sp, #36]	; 0x24
   102dc:	e1a0c009 	mov	ip, r9
   102e0:	eaffff8f 	b	10124 <kvprintf+0xf4>
   102e4:	e3580000 	cmp	r8, #0
   102e8:	0a0003c0 	beq	111f0 <kvprintf+0x11c0>
   102ec:	e1a01007 	mov	r1, r7
   102f0:	e3a00025 	mov	r0, #37	; 0x25
   102f4:	e58d3010 	str	r3, [sp, #16]
   102f8:	e12fff38 	blx	r8
   102fc:	e59d3010 	ldr	r3, [sp, #16]
   10300:	e283b001 	add	fp, r3, #1
   10304:	eaffff60 	b	1008c <kvprintf+0x5c>
   10308:	e59de008 	ldr	lr, [sp, #8]
   1030c:	e3560000 	cmp	r6, #0
   10310:	e28e0004 	add	r0, lr, #4
   10314:	1a0002a0 	bne	10d9c <kvprintf+0xd6c>
   10318:	e59ee000 	ldr	lr, [lr]
   1031c:	e35e0000 	cmp	lr, #0
   10320:	e58de010 	str	lr, [sp, #16]
   10324:	ba00037d 	blt	11120 <kvprintf+0x10f0>
   10328:	e5dce001 	ldrb	lr, [ip, #1]
   1032c:	e58d0008 	str	r0, [sp, #8]
   10330:	e1a0c009 	mov	ip, r9
   10334:	eaffff7a 	b	10124 <kvprintf+0xf4>
   10338:	e3560000 	cmp	r6, #0
   1033c:	1a0001b9 	bne	10a28 <kvprintf+0x9f8>
   10340:	e58de020 	str	lr, [sp, #32]
   10344:	e5dce001 	ldrb	lr, [ip, #1]
   10348:	e1a0c009 	mov	ip, r9
   1034c:	eaffff74 	b	10124 <kvprintf+0xf4>
   10350:	e24e0030 	sub	r0, lr, #48	; 0x30
   10354:	e5dce001 	ldrb	lr, [ip, #1]
   10358:	e24ec030 	sub	ip, lr, #48	; 0x30
   1035c:	e35c0009 	cmp	ip, #9
   10360:	e1a0c00e 	mov	ip, lr
   10364:	8a000007 	bhi	10388 <kvprintf+0x358>
   10368:	e0800100 	add	r0, r0, r0, lsl #2
   1036c:	e08c0080 	add	r0, ip, r0, lsl #1
   10370:	e5f9c001 	ldrb	ip, [r9, #1]!
   10374:	e2400030 	sub	r0, r0, #48	; 0x30
   10378:	e24ce030 	sub	lr, ip, #48	; 0x30
   1037c:	e35e0009 	cmp	lr, #9
   10380:	e1a0e00c 	mov	lr, ip
   10384:	9afffff7 	bls	10368 <kvprintf+0x338>
   10388:	e3560000 	cmp	r6, #0
   1038c:	e59dc030 	ldr	ip, [sp, #48]	; 0x30
   10390:	11a0c000 	movne	ip, r0
   10394:	e58dc030 	str	ip, [sp, #48]	; 0x30
   10398:	e59dc010 	ldr	ip, [sp, #16]
   1039c:	01a0c000 	moveq	ip, r0
   103a0:	e58dc010 	str	ip, [sp, #16]
   103a4:	e1a0c009 	mov	ip, r9
   103a8:	eaffff5d 	b	10124 <kvprintf+0xf4>
   103ac:	e3a00001 	mov	r0, #1
   103b0:	e5dce001 	ldrb	lr, [ip, #1]
   103b4:	e58d0018 	str	r0, [sp, #24]
   103b8:	e1a0c009 	mov	ip, r9
   103bc:	eaffff58 	b	10124 <kvprintf+0xf4>
   103c0:	e59d2008 	ldr	r2, [sp, #8]
   103c4:	e59d0010 	ldr	r0, [sp, #16]
   103c8:	e1a01002 	mov	r1, r2
   103cc:	e3500000 	cmp	r0, #0
   103d0:	03a00010 	moveq	r0, #16
   103d4:	e1a0b003 	mov	fp, r3
   103d8:	e4914008 	ldr	r4, [r1], #8
   103dc:	e58da014 	str	sl, [sp, #20]
   103e0:	e2443001 	sub	r3, r4, #1
   103e4:	e0833000 	add	r3, r3, r0
   103e8:	e58d3008 	str	r3, [sp, #8]
   103ec:	e0843000 	add	r3, r4, r0
   103f0:	e58d9018 	str	r9, [sp, #24]
   103f4:	e1a0a00b 	mov	sl, fp
   103f8:	e1a09003 	mov	r9, r3
   103fc:	e5925004 	ldr	r5, [r2, #4]
   10400:	e59d6000 	ldr	r6, [sp]
   10404:	e58d1010 	str	r1, [sp, #16]
   10408:	e1590004 	cmp	r9, r4
   1040c:	0a000229 	beq	10cb8 <kvprintf+0xc88>
   10410:	e59f2c30 	ldr	r2, [pc, #3120]	; 11048 <kvprintf+0x1018>
   10414:	e59d300c 	ldr	r3, [sp, #12]
   10418:	e5d41000 	ldrb	r1, [r4]
   1041c:	e793b002 	ldr	fp, [r3, r2]
   10420:	e3580000 	cmp	r8, #0
   10424:	e7db0221 	ldrb	r0, [fp, r1, lsr #4]
   10428:	0a0002be 	beq	10f28 <kvprintf+0xef8>
   1042c:	e1a01007 	mov	r1, r7
   10430:	e12fff38 	blx	r8
   10434:	e5d40000 	ldrb	r0, [r4]
   10438:	e1a01007 	mov	r1, r7
   1043c:	e200000f 	and	r0, r0, #15
   10440:	e7db0000 	ldrb	r0, [fp, r0]
   10444:	e12fff38 	blx	r8
   10448:	e59d3008 	ldr	r3, [sp, #8]
   1044c:	e28aa002 	add	sl, sl, #2
   10450:	e1540003 	cmp	r4, r3
   10454:	0a000217 	beq	10cb8 <kvprintf+0xc88>
   10458:	e5d50000 	ldrb	r0, [r5]
   1045c:	e3500000 	cmp	r0, #0
   10460:	0a000008 	beq	10488 <kvprintf+0x458>
   10464:	e1a0b005 	mov	fp, r5
   10468:	e3580000 	cmp	r8, #0
   1046c:	0a0001be 	beq	10b6c <kvprintf+0xb3c>
   10470:	e1a01007 	mov	r1, r7
   10474:	e12fff38 	blx	r8
   10478:	e5fb0001 	ldrb	r0, [fp, #1]!
   1047c:	e28aa001 	add	sl, sl, #1
   10480:	e3500000 	cmp	r0, #0
   10484:	1afffff7 	bne	10468 <kvprintf+0x438>
   10488:	e2844001 	add	r4, r4, #1
   1048c:	eaffffdd 	b	10408 <kvprintf+0x3d8>
   10490:	e3a06010 	mov	r6, #16
   10494:	e3a0b001 	mov	fp, #1
   10498:	e58d6030 	str	r6, [sp, #48]	; 0x30
   1049c:	e59d1014 	ldr	r1, [sp, #20]
   104a0:	e3510000 	cmp	r1, #0
   104a4:	0a0001a5 	beq	10b40 <kvprintf+0xb10>
   104a8:	e59d1008 	ldr	r1, [sp, #8]
   104ac:	e5910000 	ldr	r0, [r1]
   104b0:	e2811004 	add	r1, r1, #4
   104b4:	e58d001c 	str	r0, [sp, #28]
   104b8:	e3a00000 	mov	r0, #0
   104bc:	e58d1008 	str	r1, [sp, #8]
   104c0:	e58d0014 	str	r0, [sp, #20]
   104c4:	e3a00000 	mov	r0, #0
   104c8:	e28d1068 	add	r1, sp, #104	; 0x68
   104cc:	e5610024 	strb	r0, [r1, #-36]!	; 0xffffffdc
   104d0:	e58d1028 	str	r1, [sp, #40]	; 0x28
   104d4:	e1a04001 	mov	r4, r1
   104d8:	e59dc00c 	ldr	ip, [sp, #12]
   104dc:	e59f1b64 	ldr	r1, [pc, #2916]	; 11048 <kvprintf+0x1018>
   104e0:	e59d001c 	ldr	r0, [sp, #28]
   104e4:	e79c5001 	ldr	r5, [ip, r1]
   104e8:	e58d302c 	str	r3, [sp, #44]	; 0x2c
   104ec:	e58d2034 	str	r2, [sp, #52]	; 0x34
   104f0:	e1a01006 	mov	r1, r6
   104f4:	eb0003b8 	bl	113dc <__aeabi_uidivmod>
   104f8:	e35b0000 	cmp	fp, #0
   104fc:	e7d52001 	ldrb	r2, [r5, r1]
   10500:	0a000003 	beq	10514 <kvprintf+0x4e4>
   10504:	e2421061 	sub	r1, r2, #97	; 0x61
   10508:	e3510019 	cmp	r1, #25
   1050c:	92422020 	subls	r2, r2, #32
   10510:	96ef2072 	uxtbls	r2, r2
   10514:	e3500000 	cmp	r0, #0
   10518:	e5e42001 	strb	r2, [r4, #1]!
   1051c:	1afffff3 	bne	104f0 <kvprintf+0x4c0>
   10520:	e59d001c 	ldr	r0, [sp, #28]
   10524:	e59d1024 	ldr	r1, [sp, #36]	; 0x24
   10528:	e3500000 	cmp	r0, #0
   1052c:	03a01000 	moveq	r1, #0
   10530:	e58d1024 	str	r1, [sp, #36]	; 0x24
   10534:	e3510000 	cmp	r1, #0
   10538:	e59d1028 	ldr	r1, [sp, #40]	; 0x28
   1053c:	e59d302c 	ldr	r3, [sp, #44]	; 0x2c
   10540:	e0441001 	sub	r1, r4, r1
   10544:	e59d2034 	ldr	r2, [sp, #52]	; 0x34
   10548:	e58d101c 	str	r1, [sp, #28]
   1054c:	0a000007 	beq	10570 <kvprintf+0x540>
   10550:	e59d1030 	ldr	r1, [sp, #48]	; 0x30
   10554:	e3510008 	cmp	r1, #8
   10558:	0a0001a7 	beq	10bfc <kvprintf+0xbcc>
   1055c:	e59d1030 	ldr	r1, [sp, #48]	; 0x30
   10560:	e3510010 	cmp	r1, #16
   10564:	059d101c 	ldreq	r1, [sp, #28]
   10568:	02811002 	addeq	r1, r1, #2
   1056c:	058d101c 	streq	r1, [sp, #28]
   10570:	e59d1018 	ldr	r1, [sp, #24]
   10574:	e59d0014 	ldr	r0, [sp, #20]
   10578:	e2216001 	eor	r6, r1, #1
   1057c:	e59d1020 	ldr	r1, [sp, #32]
   10580:	e2066001 	and	r6, r6, #1
   10584:	e3510030 	cmp	r1, #48	; 0x30
   10588:	03a01000 	moveq	r1, #0
   1058c:	12061001 	andne	r1, r6, #1
   10590:	e3500000 	cmp	r0, #0
   10594:	0a00013d 	beq	10a90 <kvprintf+0xa60>
   10598:	e3510000 	cmp	r1, #0
   1059c:	e59d101c 	ldr	r1, [sp, #28]
   105a0:	e2811001 	add	r1, r1, #1
   105a4:	e58d101c 	str	r1, [sp, #28]
   105a8:	1a000352 	bne	112f8 <kvprintf+0x12c8>
   105ac:	e3580000 	cmp	r8, #0
   105b0:	0a0002c8 	beq	110d8 <kvprintf+0x10a8>
   105b4:	e1a01007 	mov	r1, r7
   105b8:	e3a0002d 	mov	r0, #45	; 0x2d
   105bc:	e58d2014 	str	r2, [sp, #20]
   105c0:	e12fff38 	blx	r8
   105c4:	e59d2014 	ldr	r2, [sp, #20]
   105c8:	e59d3010 	ldr	r3, [sp, #16]
   105cc:	e282b001 	add	fp, r2, #1
   105d0:	e2935000 	adds	r5, r3, #0
   105d4:	13a05001 	movne	r5, #1
   105d8:	e0063005 	and	r3, r6, r5
   105dc:	e58d3028 	str	r3, [sp, #40]	; 0x28
   105e0:	e59d3024 	ldr	r3, [sp, #36]	; 0x24
   105e4:	e3530000 	cmp	r3, #0
   105e8:	0a000005 	beq	10604 <kvprintf+0x5d4>
   105ec:	e59d3030 	ldr	r3, [sp, #48]	; 0x30
   105f0:	e3530008 	cmp	r3, #8
   105f4:	0a000179 	beq	10be0 <kvprintf+0xbb0>
   105f8:	e59d3030 	ldr	r3, [sp, #48]	; 0x30
   105fc:	e3530010 	cmp	r3, #16
   10600:	0a0001b1 	beq	10ccc <kvprintf+0xc9c>
   10604:	e59d3028 	ldr	r3, [sp, #40]	; 0x28
   10608:	e3530000 	cmp	r3, #0
   1060c:	0a000007 	beq	10630 <kvprintf+0x600>
   10610:	e59d3010 	ldr	r3, [sp, #16]
   10614:	e59d201c 	ldr	r2, [sp, #28]
   10618:	e0433002 	sub	r3, r3, r2
   1061c:	e3530000 	cmp	r3, #0
   10620:	e58d3010 	str	r3, [sp, #16]
   10624:	ca00015b 	bgt	10b98 <kvprintf+0xb68>
   10628:	13a05001 	movne	r5, #1
   1062c:	03a05000 	moveq	r5, #0
   10630:	e5d40000 	ldrb	r0, [r4]
   10634:	e3500000 	cmp	r0, #0
   10638:	0a000007 	beq	1065c <kvprintf+0x62c>
   1063c:	e3580000 	cmp	r8, #0
   10640:	0a000139 	beq	10b2c <kvprintf+0xafc>
   10644:	e1a01007 	mov	r1, r7
   10648:	e12fff38 	blx	r8
   1064c:	e5740001 	ldrb	r0, [r4, #-1]!
   10650:	e28bb001 	add	fp, fp, #1
   10654:	e3500000 	cmp	r0, #0
   10658:	1afffff7 	bne	1063c <kvprintf+0x60c>
   1065c:	e59d3018 	ldr	r3, [sp, #24]
   10660:	e2033001 	and	r3, r3, #1
   10664:	e1150003 	tst	r5, r3
   10668:	0afffe87 	beq	1008c <kvprintf+0x5c>
   1066c:	e59d3010 	ldr	r3, [sp, #16]
   10670:	e59d201c 	ldr	r2, [sp, #28]
   10674:	e0434002 	sub	r4, r3, r2
   10678:	e3540000 	cmp	r4, #0
   1067c:	dafffe82 	ble	1008c <kvprintf+0x5c>
   10680:	e2444001 	sub	r4, r4, #1
   10684:	e1a05004 	mov	r5, r4
   10688:	e59d6020 	ldr	r6, [sp, #32]
   1068c:	e3580000 	cmp	r8, #0
   10690:	0a00019c 	beq	10d08 <kvprintf+0xcd8>
   10694:	e1a01007 	mov	r1, r7
   10698:	e1a00006 	mov	r0, r6
   1069c:	e12fff38 	blx	r8
   106a0:	e2555001 	subs	r5, r5, #1
   106a4:	2afffff8 	bcs	1068c <kvprintf+0x65c>
   106a8:	e28b3001 	add	r3, fp, #1
   106ac:	e083b004 	add	fp, r3, r4
   106b0:	eafffe75 	b	1008c <kvprintf+0x5c>
   106b4:	e5dce001 	ldrb	lr, [ip, #1]
   106b8:	e3a0b001 	mov	fp, #1
   106bc:	e1a0c009 	mov	ip, r9
   106c0:	eafffe97 	b	10124 <kvprintf+0xf4>
   106c4:	e5dce001 	ldrb	lr, [ip, #1]
   106c8:	e3a06001 	mov	r6, #1
   106cc:	e1a0c009 	mov	ip, r9
   106d0:	eafffe93 	b	10124 <kvprintf+0xf4>
   106d4:	e59d2008 	ldr	r2, [sp, #8]
   106d8:	e28db068 	add	fp, sp, #104	; 0x68
   106dc:	e1a01002 	mov	r1, r2
   106e0:	e4910008 	ldr	r0, [r1], #8
   106e4:	e5924004 	ldr	r4, [r2, #4]
   106e8:	e58d1010 	str	r1, [sp, #16]
   106ec:	e3a01000 	mov	r1, #0
   106f0:	e59f2950 	ldr	r2, [pc, #2384]	; 11048 <kvprintf+0x1018>
   106f4:	e56b1024 	strb	r1, [fp, #-36]!	; 0xffffffdc
   106f8:	e59d100c 	ldr	r1, [sp, #12]
   106fc:	e58d0008 	str	r0, [sp, #8]
   10700:	e7915002 	ldr	r5, [r1, r2]
   10704:	e58d3014 	str	r3, [sp, #20]
   10708:	e1a03007 	mov	r3, r7
   1070c:	e5d46000 	ldrb	r6, [r4]
   10710:	e1a07004 	mov	r7, r4
   10714:	e1a0400b 	mov	r4, fp
   10718:	e1a0b003 	mov	fp, r3
   1071c:	e1a01006 	mov	r1, r6
   10720:	eb00032d 	bl	113dc <__aeabi_uidivmod>
   10724:	e7d52001 	ldrb	r2, [r5, r1]
   10728:	e3500000 	cmp	r0, #0
   1072c:	e5e42001 	strb	r2, [r4, #1]!
   10730:	1afffff9 	bne	1071c <kvprintf+0x6ec>
   10734:	e1a0100b 	mov	r1, fp
   10738:	e59d3014 	ldr	r3, [sp, #20]
   1073c:	e3520000 	cmp	r2, #0
   10740:	e1a0b004 	mov	fp, r4
   10744:	e1a04007 	mov	r4, r7
   10748:	01a0b003 	moveq	fp, r3
   1074c:	e1a07001 	mov	r7, r1
   10750:	0a00000c 	beq	10788 <kvprintf+0x758>
   10754:	e1a0500b 	mov	r5, fp
   10758:	e1a00002 	mov	r0, r2
   1075c:	e1a0b003 	mov	fp, r3
   10760:	e59d6000 	ldr	r6, [sp]
   10764:	e3580000 	cmp	r8, #0
   10768:	0a0001e8 	beq	10f10 <kvprintf+0xee0>
   1076c:	e1a01007 	mov	r1, r7
   10770:	e12fff38 	blx	r8
   10774:	e5750001 	ldrb	r0, [r5, #-1]!
   10778:	e28bb001 	add	fp, fp, #1
   1077c:	e3500000 	cmp	r0, #0
   10780:	1afffff7 	bne	10764 <kvprintf+0x734>
   10784:	e58d6000 	str	r6, [sp]
   10788:	e59d3008 	ldr	r3, [sp, #8]
   1078c:	e3530000 	cmp	r3, #0
   10790:	1a00018f 	bne	10dd4 <kvprintf+0xda4>
   10794:	e59d3010 	ldr	r3, [sp, #16]
   10798:	e58d3008 	str	r3, [sp, #8]
   1079c:	eafffe3a 	b	1008c <kvprintf+0x5c>
   107a0:	e59d2008 	ldr	r2, [sp, #8]
   107a4:	e3580000 	cmp	r8, #0
   107a8:	e2824004 	add	r4, r2, #4
   107ac:	e5920000 	ldr	r0, [r2]
   107b0:	0a0002b4 	beq	11288 <kvprintf+0x1258>
   107b4:	e1a01007 	mov	r1, r7
   107b8:	e58d3008 	str	r3, [sp, #8]
   107bc:	e12fff38 	blx	r8
   107c0:	e59d3008 	ldr	r3, [sp, #8]
   107c4:	e283b001 	add	fp, r3, #1
   107c8:	e58d4008 	str	r4, [sp, #8]
   107cc:	eafffe2e 	b	1008c <kvprintf+0x5c>
   107d0:	e3a0600a 	mov	r6, #10
   107d4:	e58d6030 	str	r6, [sp, #48]	; 0x30
   107d8:	e59d1014 	ldr	r1, [sp, #20]
   107dc:	e3510000 	cmp	r1, #0
   107e0:	0a000109 	beq	10c0c <kvprintf+0xbdc>
   107e4:	e59d1008 	ldr	r1, [sp, #8]
   107e8:	e5910000 	ldr	r0, [r1]
   107ec:	e2811004 	add	r1, r1, #4
   107f0:	e58d001c 	str	r0, [sp, #28]
   107f4:	e58d1008 	str	r1, [sp, #8]
   107f8:	e59d101c 	ldr	r1, [sp, #28]
   107fc:	e3510000 	cmp	r1, #0
   10800:	b2611000 	rsblt	r1, r1, #0
   10804:	b58d101c 	strlt	r1, [sp, #28]
   10808:	a3a0b000 	movge	fp, #0
   1080c:	b3a01001 	movlt	r1, #1
   10810:	b3a0b000 	movlt	fp, #0
   10814:	b58d1014 	strlt	r1, [sp, #20]
   10818:	a58db014 	strge	fp, [sp, #20]
   1081c:	eaffff28 	b	104c4 <kvprintf+0x494>
   10820:	e59d0028 	ldr	r0, [sp, #40]	; 0x28
   10824:	e5dce001 	ldrb	lr, [ip, #1]
   10828:	e3500000 	cmp	r0, #0
   1082c:	159d0028 	ldrne	r0, [sp, #40]	; 0x28
   10830:	03a00001 	moveq	r0, #1
   10834:	158d0034 	strne	r0, [sp, #52]	; 0x34
   10838:	13a00000 	movne	r0, #0
   1083c:	058d0028 	streq	r0, [sp, #40]	; 0x28
   10840:	01a0c009 	moveq	ip, r9
   10844:	11a0c009 	movne	ip, r9
   10848:	158d0028 	strne	r0, [sp, #40]	; 0x28
   1084c:	eafffe34 	b	10124 <kvprintf+0xf4>
   10850:	e59d1010 	ldr	r1, [sp, #16]
   10854:	e3a0b000 	mov	fp, #0
   10858:	e16f1f11 	clz	r1, r1
   1085c:	e3a06010 	mov	r6, #16
   10860:	e1a012a1 	lsr	r1, r1, #5
   10864:	e58d1024 	str	r1, [sp, #36]	; 0x24
   10868:	e59d1008 	ldr	r1, [sp, #8]
   1086c:	e58db014 	str	fp, [sp, #20]
   10870:	e5910000 	ldr	r0, [r1]
   10874:	e2811004 	add	r1, r1, #4
   10878:	e58d6030 	str	r6, [sp, #48]	; 0x30
   1087c:	e58d001c 	str	r0, [sp, #28]
   10880:	e58d1008 	str	r1, [sp, #8]
   10884:	eaffff0e 	b	104c4 <kvprintf+0x494>
   10888:	e3a00001 	mov	r0, #1
   1088c:	e5dce001 	ldrb	lr, [ip, #1]
   10890:	e58d001c 	str	r0, [sp, #28]
   10894:	e1a0c009 	mov	ip, r9
   10898:	eafffe21 	b	10124 <kvprintf+0xf4>
   1089c:	e59d1004 	ldr	r1, [sp, #4]
   108a0:	e35b0000 	cmp	fp, #0
   108a4:	e1a06001 	mov	r6, r1
   108a8:	058d1030 	streq	r1, [sp, #48]	; 0x30
   108ac:	0afffefa 	beq	1049c <kvprintf+0x46c>
   108b0:	e59d1004 	ldr	r1, [sp, #4]
   108b4:	e58d1030 	str	r1, [sp, #48]	; 0x30
   108b8:	eaffffc6 	b	107d8 <kvprintf+0x7a8>
   108bc:	e59d1008 	ldr	r1, [sp, #8]
   108c0:	e5914000 	ldr	r4, [r1]
   108c4:	e2811004 	add	r1, r1, #4
   108c8:	e3540000 	cmp	r4, #0
   108cc:	e58d1014 	str	r1, [sp, #20]
   108d0:	0a0001f6 	beq	110b0 <kvprintf+0x1080>
   108d4:	e3560000 	cmp	r6, #0
   108d8:	0a00017d 	beq	10ed4 <kvprintf+0xea4>
   108dc:	e59d1030 	ldr	r1, [sp, #48]	; 0x30
   108e0:	e3510000 	cmp	r1, #0
   108e4:	da000281 	ble	112f0 <kvprintf+0x12c0>
   108e8:	e5d46000 	ldrb	r6, [r4]
   108ec:	e3560000 	cmp	r6, #0
   108f0:	1a00019f 	bne	10f74 <kvprintf+0xf44>
   108f4:	e3e01000 	mvn	r1, #0
   108f8:	e58d1008 	str	r1, [sp, #8]
   108fc:	e59d1010 	ldr	r1, [sp, #16]
   10900:	e59d0018 	ldr	r0, [sp, #24]
   10904:	e3510000 	cmp	r1, #0
   10908:	d3a01000 	movle	r1, #0
   1090c:	c3a01001 	movgt	r1, #1
   10910:	e2200001 	eor	r0, r0, #1
   10914:	e1100001 	tst	r0, r1
   10918:	1a0001ac 	bne	10fd0 <kvprintf+0xfa0>
   1091c:	e3560000 	cmp	r6, #0
   10920:	e59d6018 	ldr	r6, [sp, #24]
   10924:	01a0b003 	moveq	fp, r3
   10928:	e0066001 	and	r6, r6, r1
   1092c:	0a000010 	beq	10974 <kvprintf+0x944>
   10930:	e59d3008 	ldr	r3, [sp, #8]
   10934:	e2835001 	add	r5, r3, #1
   10938:	e1a0b008 	mov	fp, r8
   1093c:	e1a08002 	mov	r8, r2
   10940:	e0845005 	add	r5, r4, r5
   10944:	e35b0000 	cmp	fp, #0
   10948:	e4d40001 	ldrb	r0, [r4], #1
   1094c:	0a00011b 	beq	10dc0 <kvprintf+0xd90>
   10950:	e1a01007 	mov	r1, r7
   10954:	e12fff3b 	blx	fp
   10958:	e1540005 	cmp	r4, r5
   1095c:	1afffff8 	bne	10944 <kvprintf+0x914>
   10960:	e1a02008 	mov	r2, r8
   10964:	e2823001 	add	r3, r2, #1
   10968:	e59d2008 	ldr	r2, [sp, #8]
   1096c:	e1a0800b 	mov	r8, fp
   10970:	e083b002 	add	fp, r3, r2
   10974:	e3560000 	cmp	r6, #0
   10978:	1a0001b6 	bne	11058 <kvprintf+0x1028>
   1097c:	e59d3014 	ldr	r3, [sp, #20]
   10980:	e58d3008 	str	r3, [sp, #8]
   10984:	eafffdc0 	b	1008c <kvprintf+0x5c>
   10988:	e3a00001 	mov	r0, #1
   1098c:	e5dce001 	ldrb	lr, [ip, #1]
   10990:	e58d003c 	str	r0, [sp, #60]	; 0x3c
   10994:	e1a0c009 	mov	ip, r9
   10998:	eafffde1 	b	10124 <kvprintf+0xf4>
   1099c:	e3a0600a 	mov	r6, #10
   109a0:	e3a0b000 	mov	fp, #0
   109a4:	e58d6030 	str	r6, [sp, #48]	; 0x30
   109a8:	eafffebb 	b	1049c <kvprintf+0x46c>
   109ac:	e3a06010 	mov	r6, #16
   109b0:	e3a0b000 	mov	fp, #0
   109b4:	e58d6030 	str	r6, [sp, #48]	; 0x30
   109b8:	eafffeb7 	b	1049c <kvprintf+0x46c>
   109bc:	e3a06010 	mov	r6, #16
   109c0:	e58d6030 	str	r6, [sp, #48]	; 0x30
   109c4:	eaffff83 	b	107d8 <kvprintf+0x7a8>
   109c8:	e3a00001 	mov	r0, #1
   109cc:	e5dce001 	ldrb	lr, [ip, #1]
   109d0:	e58d0014 	str	r0, [sp, #20]
   109d4:	e1a0c009 	mov	ip, r9
   109d8:	eafffdd1 	b	10124 <kvprintf+0xf4>
   109dc:	e59d002c 	ldr	r0, [sp, #44]	; 0x2c
   109e0:	e5dce001 	ldrb	lr, [ip, #1]
   109e4:	e3500000 	cmp	r0, #0
   109e8:	159d002c 	ldrne	r0, [sp, #44]	; 0x2c
   109ec:	03a00001 	moveq	r0, #1
   109f0:	158d001c 	strne	r0, [sp, #28]
   109f4:	13a00000 	movne	r0, #0
   109f8:	058d002c 	streq	r0, [sp, #44]	; 0x2c
   109fc:	01a0c009 	moveq	ip, r9
   10a00:	11a0c009 	movne	ip, r9
   10a04:	158d002c 	strne	r0, [sp, #44]	; 0x2c
   10a08:	eafffdc5 	b	10124 <kvprintf+0xf4>
   10a0c:	e59d2014 	ldr	r2, [sp, #20]
   10a10:	e59d1008 	ldr	r1, [sp, #8]
   10a14:	e3520000 	cmp	r2, #0
   10a18:	e4912004 	ldr	r2, [r1], #4
   10a1c:	e58d1008 	str	r1, [sp, #8]
   10a20:	0a0000d4 	beq	10d78 <kvprintf+0xd48>
   10a24:	e5823000 	str	r3, [r2]
   10a28:	e1a0b003 	mov	fp, r3
   10a2c:	eafffd96 	b	1008c <kvprintf+0x5c>
   10a30:	e3a06008 	mov	r6, #8
   10a34:	e3a0b000 	mov	fp, #0
   10a38:	e58d6030 	str	r6, [sp, #48]	; 0x30
   10a3c:	eafffe96 	b	1049c <kvprintf+0x46c>
   10a40:	e1510009 	cmp	r1, r9
   10a44:	2a0001c3 	bcs	11158 <kvprintf+0x1128>
   10a48:	e2496001 	sub	r6, r9, #1
   10a4c:	e3a00025 	mov	r0, #37	; 0x25
   10a50:	e59da000 	ldr	sl, [sp]
   10a54:	e1a0b003 	mov	fp, r3
   10a58:	ea000000 	b	10a60 <kvprintf+0xa30>
   10a5c:	e5f50001 	ldrb	r0, [r5, #1]!
   10a60:	e3580000 	cmp	r8, #0
   10a64:	0a00012c 	beq	10f1c <kvprintf+0xeec>
   10a68:	e1a01007 	mov	r1, r7
   10a6c:	e12fff38 	blx	r8
   10a70:	e1560005 	cmp	r6, r5
   10a74:	1afffff8 	bne	10a5c <kvprintf+0xa2c>
   10a78:	e28b3001 	add	r3, fp, #1
   10a7c:	e0433004 	sub	r3, r3, r4
   10a80:	e58da000 	str	sl, [sp]
   10a84:	e089b003 	add	fp, r9, r3
   10a88:	e3a0a001 	mov	sl, #1
   10a8c:	eafffd7e 	b	1008c <kvprintf+0x5c>
   10a90:	e3510000 	cmp	r1, #0
   10a94:	e59d2010 	ldr	r2, [sp, #16]
   10a98:	0a000220 	beq	11320 <kvprintf+0x12f0>
   10a9c:	e3520000 	cmp	r2, #0
   10aa0:	0a000034 	beq	10b78 <kvprintf+0xb48>
   10aa4:	e59d2010 	ldr	r2, [sp, #16]
   10aa8:	e59d101c 	ldr	r1, [sp, #28]
   10aac:	e0422001 	sub	r2, r2, r1
   10ab0:	e3520000 	cmp	r2, #0
   10ab4:	e58d2010 	str	r2, [sp, #16]
   10ab8:	da000071 	ble	10c84 <kvprintf+0xc54>
   10abc:	e58d3010 	str	r3, [sp, #16]
   10ac0:	e1a03008 	mov	r3, r8
   10ac4:	e242b001 	sub	fp, r2, #1
   10ac8:	e1a08004 	mov	r8, r4
   10acc:	e1a05003 	mov	r5, r3
   10ad0:	e1a0400b 	mov	r4, fp
   10ad4:	e3550000 	cmp	r5, #0
   10ad8:	0a00011a 	beq	10f48 <kvprintf+0xf18>
   10adc:	e1a01007 	mov	r1, r7
   10ae0:	e3a00020 	mov	r0, #32
   10ae4:	e12fff35 	blx	r5
   10ae8:	e2544001 	subs	r4, r4, #1
   10aec:	2afffff8 	bcs	10ad4 <kvprintf+0xaa4>
   10af0:	e1a02005 	mov	r2, r5
   10af4:	e1a05004 	mov	r5, r4
   10af8:	e59d3010 	ldr	r3, [sp, #16]
   10afc:	e1a04008 	mov	r4, r8
   10b00:	e58d5010 	str	r5, [sp, #16]
   10b04:	e1a08002 	mov	r8, r2
   10b08:	e3a05001 	mov	r5, #1
   10b0c:	e2833001 	add	r3, r3, #1
   10b10:	e083b00b 	add	fp, r3, fp
   10b14:	e58d6028 	str	r6, [sp, #40]	; 0x28
   10b18:	e59d3014 	ldr	r3, [sp, #20]
   10b1c:	e3530000 	cmp	r3, #0
   10b20:	0afffeae 	beq	105e0 <kvprintf+0x5b0>
   10b24:	e1a0200b 	mov	r2, fp
   10b28:	eafffe9f 	b	105ac <kvprintf+0x57c>
   10b2c:	e59d3000 	ldr	r3, [sp]
   10b30:	e5c30000 	strb	r0, [r3]
   10b34:	e2833001 	add	r3, r3, #1
   10b38:	e58d3000 	str	r3, [sp]
   10b3c:	eafffec2 	b	1064c <kvprintf+0x61c>
   10b40:	e59d101c 	ldr	r1, [sp, #28]
   10b44:	e3510000 	cmp	r1, #0
   10b48:	0a00003a 	beq	10c38 <kvprintf+0xc08>
   10b4c:	e59d1008 	ldr	r1, [sp, #8]
   10b50:	e2811007 	add	r1, r1, #7
   10b54:	e3c11007 	bic	r1, r1, #7
   10b58:	e2810008 	add	r0, r1, #8
   10b5c:	e5911000 	ldr	r1, [r1]
   10b60:	e58d0008 	str	r0, [sp, #8]
   10b64:	e58d101c 	str	r1, [sp, #28]
   10b68:	eafffe55 	b	104c4 <kvprintf+0x494>
   10b6c:	e5c60000 	strb	r0, [r6]
   10b70:	e2866001 	add	r6, r6, #1
   10b74:	eafffe3f 	b	10478 <kvprintf+0x448>
   10b78:	e59d2024 	ldr	r2, [sp, #36]	; 0x24
   10b7c:	e3520000 	cmp	r2, #0
   10b80:	0a000045 	beq	10c9c <kvprintf+0xc6c>
   10b84:	e1a0b003 	mov	fp, r3
   10b88:	e59d3010 	ldr	r3, [sp, #16]
   10b8c:	e1a05003 	mov	r5, r3
   10b90:	e58d3028 	str	r3, [sp, #40]	; 0x28
   10b94:	eafffe94 	b	105ec <kvprintf+0x5bc>
   10b98:	e59d3010 	ldr	r3, [sp, #16]
   10b9c:	e59d5020 	ldr	r5, [sp, #32]
   10ba0:	e2433001 	sub	r3, r3, #1
   10ba4:	e1a06003 	mov	r6, r3
   10ba8:	e58d3014 	str	r3, [sp, #20]
   10bac:	e3580000 	cmp	r8, #0
   10bb0:	0a00004f 	beq	10cf4 <kvprintf+0xcc4>
   10bb4:	e1a01007 	mov	r1, r7
   10bb8:	e1a00005 	mov	r0, r5
   10bbc:	e12fff38 	blx	r8
   10bc0:	e2566001 	subs	r6, r6, #1
   10bc4:	2afffff8 	bcs	10bac <kvprintf+0xb7c>
   10bc8:	e59d2014 	ldr	r2, [sp, #20]
   10bcc:	e28b3001 	add	r3, fp, #1
   10bd0:	e59d5028 	ldr	r5, [sp, #40]	; 0x28
   10bd4:	e58d6010 	str	r6, [sp, #16]
   10bd8:	e082b003 	add	fp, r2, r3
   10bdc:	eafffe93 	b	10630 <kvprintf+0x600>
   10be0:	e3580000 	cmp	r8, #0
   10be4:	0a000173 	beq	111b8 <kvprintf+0x1188>
   10be8:	e1a01007 	mov	r1, r7
   10bec:	e3a00030 	mov	r0, #48	; 0x30
   10bf0:	e12fff38 	blx	r8
   10bf4:	e28bb001 	add	fp, fp, #1
   10bf8:	eafffe81 	b	10604 <kvprintf+0x5d4>
   10bfc:	e59d101c 	ldr	r1, [sp, #28]
   10c00:	e2811001 	add	r1, r1, #1
   10c04:	e58d101c 	str	r1, [sp, #28]
   10c08:	eafffe58 	b	10570 <kvprintf+0x540>
   10c0c:	e59d101c 	ldr	r1, [sp, #28]
   10c10:	e3510000 	cmp	r1, #0
   10c14:	0a000040 	beq	10d1c <kvprintf+0xcec>
   10c18:	e59d1008 	ldr	r1, [sp, #8]
   10c1c:	e2811007 	add	r1, r1, #7
   10c20:	e3c11007 	bic	r1, r1, #7
   10c24:	e2810008 	add	r0, r1, #8
   10c28:	e5911000 	ldr	r1, [r1]
   10c2c:	e58d0008 	str	r0, [sp, #8]
   10c30:	e58d101c 	str	r1, [sp, #28]
   10c34:	eafffeef 	b	107f8 <kvprintf+0x7c8>
   10c38:	e59d103c 	ldr	r1, [sp, #60]	; 0x3c
   10c3c:	e59d0008 	ldr	r0, [sp, #8]
   10c40:	e3510000 	cmp	r1, #0
   10c44:	e2801004 	add	r1, r0, #4
   10c48:	1a000046 	bne	10d68 <kvprintf+0xd38>
   10c4c:	e59d002c 	ldr	r0, [sp, #44]	; 0x2c
   10c50:	e3500000 	cmp	r0, #0
   10c54:	1a000054 	bne	10dac <kvprintf+0xd7c>
   10c58:	e59d0038 	ldr	r0, [sp, #56]	; 0x38
   10c5c:	e3500000 	cmp	r0, #0
   10c60:	1a000051 	bne	10dac <kvprintf+0xd7c>
   10c64:	e59d0028 	ldr	r0, [sp, #40]	; 0x28
   10c68:	e3500000 	cmp	r0, #0
   10c6c:	0a000165 	beq	11208 <kvprintf+0x11d8>
   10c70:	e59d0008 	ldr	r0, [sp, #8]
   10c74:	e58d1008 	str	r1, [sp, #8]
   10c78:	e1d000b0 	ldrh	r0, [r0]
   10c7c:	e58d001c 	str	r0, [sp, #28]
   10c80:	eafffe0f 	b	104c4 <kvprintf+0x494>
   10c84:	13a05001 	movne	r5, #1
   10c88:	03a05000 	moveq	r5, #0
   10c8c:	e1a0b003 	mov	fp, r3
   10c90:	e0063005 	and	r3, r6, r5
   10c94:	e58d3028 	str	r3, [sp, #40]	; 0x28
   10c98:	eaffff9e 	b	10b18 <kvprintf+0xae8>
   10c9c:	e5d40000 	ldrb	r0, [r4]
   10ca0:	e1a0b003 	mov	fp, r3
   10ca4:	e3500000 	cmp	r0, #0
   10ca8:	059da024 	ldreq	sl, [sp, #36]	; 0x24
   10cac:	0afffcf6 	beq	1008c <kvprintf+0x5c>
   10cb0:	e59d5010 	ldr	r5, [sp, #16]
   10cb4:	eafffe60 	b	1063c <kvprintf+0x60c>
   10cb8:	e1a0b00a 	mov	fp, sl
   10cbc:	e58d6000 	str	r6, [sp]
   10cc0:	e59da014 	ldr	sl, [sp, #20]
   10cc4:	e59d9018 	ldr	r9, [sp, #24]
   10cc8:	eafffeb1 	b	10794 <kvprintf+0x764>
   10ccc:	e3580000 	cmp	r8, #0
   10cd0:	0a000160 	beq	11258 <kvprintf+0x1228>
   10cd4:	e1a01007 	mov	r1, r7
   10cd8:	e3a00030 	mov	r0, #48	; 0x30
   10cdc:	e12fff38 	blx	r8
   10ce0:	e1a01007 	mov	r1, r7
   10ce4:	e3a00078 	mov	r0, #120	; 0x78
   10ce8:	e12fff38 	blx	r8
   10cec:	e28bb002 	add	fp, fp, #2
   10cf0:	eafffe43 	b	10604 <kvprintf+0x5d4>
   10cf4:	e59d3000 	ldr	r3, [sp]
   10cf8:	e5c35000 	strb	r5, [r3]
   10cfc:	e2833001 	add	r3, r3, #1
   10d00:	e58d3000 	str	r3, [sp]
   10d04:	eaffffad 	b	10bc0 <kvprintf+0xb90>
   10d08:	e59d3000 	ldr	r3, [sp]
   10d0c:	e5c36000 	strb	r6, [r3]
   10d10:	e2833001 	add	r3, r3, #1
   10d14:	e58d3000 	str	r3, [sp]
   10d18:	eafffe60 	b	106a0 <kvprintf+0x670>
   10d1c:	e59d103c 	ldr	r1, [sp, #60]	; 0x3c
   10d20:	e59d0008 	ldr	r0, [sp, #8]
   10d24:	e3510000 	cmp	r1, #0
   10d28:	e2801004 	add	r1, r0, #4
   10d2c:	1a0000e5 	bne	110c8 <kvprintf+0x1098>
   10d30:	e59d002c 	ldr	r0, [sp, #44]	; 0x2c
   10d34:	e3500000 	cmp	r0, #0
   10d38:	1a0000f3 	bne	1110c <kvprintf+0x10dc>
   10d3c:	e59d0038 	ldr	r0, [sp, #56]	; 0x38
   10d40:	e3500000 	cmp	r0, #0
   10d44:	1a0000f0 	bne	1110c <kvprintf+0x10dc>
   10d48:	e59d0028 	ldr	r0, [sp, #40]	; 0x28
   10d4c:	e3500000 	cmp	r0, #0
   10d50:	0a00011e 	beq	111d0 <kvprintf+0x11a0>
   10d54:	e59d0008 	ldr	r0, [sp, #8]
   10d58:	e58d1008 	str	r1, [sp, #8]
   10d5c:	e1d000f0 	ldrsh	r0, [r0]
   10d60:	e58d001c 	str	r0, [sp, #28]
   10d64:	eafffea3 	b	107f8 <kvprintf+0x7c8>
   10d68:	e5900000 	ldr	r0, [r0]
   10d6c:	e58d1008 	str	r1, [sp, #8]
   10d70:	e58d001c 	str	r0, [sp, #28]
   10d74:	eafffdd2 	b	104c4 <kvprintf+0x494>
   10d78:	e59d101c 	ldr	r1, [sp, #28]
   10d7c:	e3510000 	cmp	r1, #0
   10d80:	0a0000da 	beq	110f0 <kvprintf+0x10c0>
   10d84:	e1a00003 	mov	r0, r3
   10d88:	e1a01fc3 	asr	r1, r3, #31
   10d8c:	e59da014 	ldr	sl, [sp, #20]
   10d90:	e1c200f0 	strd	r0, [r2]
   10d94:	e1a0b003 	mov	fp, r3
   10d98:	eafffcbb 	b	1008c <kvprintf+0x5c>
   10d9c:	e59de008 	ldr	lr, [sp, #8]
   10da0:	e59ee000 	ldr	lr, [lr]
   10da4:	e58de030 	str	lr, [sp, #48]	; 0x30
   10da8:	eafffd5e 	b	10328 <kvprintf+0x2f8>
   10dac:	e59d0008 	ldr	r0, [sp, #8]
   10db0:	e5900000 	ldr	r0, [r0]
   10db4:	e58d1008 	str	r1, [sp, #8]
   10db8:	e58d001c 	str	r0, [sp, #28]
   10dbc:	eafffdc0 	b	104c4 <kvprintf+0x494>
   10dc0:	e59d3000 	ldr	r3, [sp]
   10dc4:	e5c30000 	strb	r0, [r3]
   10dc8:	e2833001 	add	r3, r3, #1
   10dcc:	e58d3000 	str	r3, [sp]
   10dd0:	eafffee0 	b	10958 <kvprintf+0x928>
   10dd4:	e3a03000 	mov	r3, #0
   10dd8:	e3a06001 	mov	r6, #1
   10ddc:	e5d40001 	ldrb	r0, [r4, #1]
   10de0:	e2845001 	add	r5, r4, #1
   10de4:	e3500000 	cmp	r0, #0
   10de8:	0a00000a 	beq	10e18 <kvprintf+0xde8>
   10dec:	e59d2008 	ldr	r2, [sp, #8]
   10df0:	e2400001 	sub	r0, r0, #1
   10df4:	e0122016 	ands	r2, r2, r6, lsl r0
   10df8:	e2854001 	add	r4, r5, #1
   10dfc:	1a000015 	bne	10e58 <kvprintf+0xe28>
   10e00:	e5d50001 	ldrb	r0, [r5, #1]
   10e04:	e3500020 	cmp	r0, #32
   10e08:	8a00000d 	bhi	10e44 <kvprintf+0xe14>
   10e0c:	e3500000 	cmp	r0, #0
   10e10:	e1a05004 	mov	r5, r4
   10e14:	1afffff4 	bne	10dec <kvprintf+0xdbc>
   10e18:	e3530000 	cmp	r3, #0
   10e1c:	0a0000c9 	beq	11148 <kvprintf+0x1118>
   10e20:	e3580000 	cmp	r8, #0
   10e24:	0a000137 	beq	11308 <kvprintf+0x12d8>
   10e28:	e1a01007 	mov	r1, r7
   10e2c:	e3a0003e 	mov	r0, #62	; 0x3e
   10e30:	e12fff38 	blx	r8
   10e34:	e59d3010 	ldr	r3, [sp, #16]
   10e38:	e28bb001 	add	fp, fp, #1
   10e3c:	e58d3008 	str	r3, [sp, #8]
   10e40:	eafffc91 	b	1008c <kvprintf+0x5c>
   10e44:	e5d40001 	ldrb	r0, [r4, #1]
   10e48:	e2844001 	add	r4, r4, #1
   10e4c:	e3500020 	cmp	r0, #32
   10e50:	9affffed 	bls	10e0c <kvprintf+0xddc>
   10e54:	eafffffa 	b	10e44 <kvprintf+0xe14>
   10e58:	e3530000 	cmp	r3, #0
   10e5c:	03a0003c 	moveq	r0, #60	; 0x3c
   10e60:	13a0002c 	movne	r0, #44	; 0x2c
   10e64:	e3580000 	cmp	r8, #0
   10e68:	0a0000ee 	beq	11228 <kvprintf+0x11f8>
   10e6c:	e1a01007 	mov	r1, r7
   10e70:	e12fff38 	blx	r8
   10e74:	e5d50001 	ldrb	r0, [r5, #1]
   10e78:	e28bb001 	add	fp, fp, #1
   10e7c:	e3500020 	cmp	r0, #32
   10e80:	da0000be 	ble	11180 <kvprintf+0x1150>
   10e84:	e04b5005 	sub	r5, fp, r5
   10e88:	e1a0b008 	mov	fp, r8
   10e8c:	e59d8000 	ldr	r8, [sp]
   10e90:	e35b0000 	cmp	fp, #0
   10e94:	0a00000b 	beq	10ec8 <kvprintf+0xe98>
   10e98:	e1a01007 	mov	r1, r7
   10e9c:	e12fff3b 	blx	fp
   10ea0:	e0843005 	add	r3, r4, r5
   10ea4:	e5f40001 	ldrb	r0, [r4, #1]!
   10ea8:	e3500020 	cmp	r0, #32
   10eac:	cafffff7 	bgt	10e90 <kvprintf+0xe60>
   10eb0:	e58d8000 	str	r8, [sp]
   10eb4:	e1a05004 	mov	r5, r4
   10eb8:	e1a0800b 	mov	r8, fp
   10ebc:	e1a0b003 	mov	fp, r3
   10ec0:	e3a03001 	mov	r3, #1
   10ec4:	eaffffc6 	b	10de4 <kvprintf+0xdb4>
   10ec8:	e5c80000 	strb	r0, [r8]
   10ecc:	e2888001 	add	r8, r8, #1
   10ed0:	eafffff2 	b	10ea0 <kvprintf+0xe70>
   10ed4:	e5d40000 	ldrb	r0, [r4]
   10ed8:	e2841001 	add	r1, r4, #1
   10edc:	e3500000 	cmp	r0, #0
   10ee0:	0afffe83 	beq	108f4 <kvprintf+0x8c4>
   10ee4:	e3a06000 	mov	r6, #0
   10ee8:	e4d10001 	ldrb	r0, [r1], #1
   10eec:	e2866001 	add	r6, r6, #1
   10ef0:	e3500000 	cmp	r0, #0
   10ef4:	1afffffb 	bne	10ee8 <kvprintf+0xeb8>
   10ef8:	e59d1010 	ldr	r1, [sp, #16]
   10efc:	e0411006 	sub	r1, r1, r6
   10f00:	e58d1010 	str	r1, [sp, #16]
   10f04:	e2461001 	sub	r1, r6, #1
   10f08:	e58d1008 	str	r1, [sp, #8]
   10f0c:	eafffe7a 	b	108fc <kvprintf+0x8cc>
   10f10:	e5c60000 	strb	r0, [r6]
   10f14:	e2866001 	add	r6, r6, #1
   10f18:	eafffe15 	b	10774 <kvprintf+0x744>
   10f1c:	e5ca0000 	strb	r0, [sl]
   10f20:	e28aa001 	add	sl, sl, #1
   10f24:	eafffed1 	b	10a70 <kvprintf+0xa40>
   10f28:	e1a01006 	mov	r1, r6
   10f2c:	e4c10002 	strb	r0, [r1], #2
   10f30:	e5d40000 	ldrb	r0, [r4]
   10f34:	e200000f 	and	r0, r0, #15
   10f38:	e7db2000 	ldrb	r2, [fp, r0]
   10f3c:	e5c62001 	strb	r2, [r6, #1]
   10f40:	e1a06001 	mov	r6, r1
   10f44:	eafffd3f 	b	10448 <kvprintf+0x418>
   10f48:	e59d3000 	ldr	r3, [sp]
   10f4c:	e59d2020 	ldr	r2, [sp, #32]
   10f50:	e2833001 	add	r3, r3, #1
   10f54:	e5432001 	strb	r2, [r3, #-1]
   10f58:	e58d3000 	str	r3, [sp]
   10f5c:	eafffee1 	b	10ae8 <kvprintf+0xab8>
   10f60:	e59d1030 	ldr	r1, [sp, #48]	; 0x30
   10f64:	e3510000 	cmp	r1, #0
   10f68:	da0000f2 	ble	11338 <kvprintf+0x1308>
   10f6c:	e59f40d8 	ldr	r4, [pc, #216]	; 1104c <kvprintf+0x101c>
   10f70:	e08f4004 	add	r4, pc, r4
   10f74:	e1a01004 	mov	r1, r4
   10f78:	e3a00000 	mov	r0, #0
   10f7c:	e59dc030 	ldr	ip, [sp, #48]	; 0x30
   10f80:	e2806001 	add	r6, r0, #1
   10f84:	e15c0006 	cmp	ip, r6
   10f88:	e1a05006 	mov	r5, r6
   10f8c:	0a0000d2 	beq	112dc <kvprintf+0x12ac>
   10f90:	e5f1c001 	ldrb	ip, [r1, #1]!
   10f94:	e35c0000 	cmp	ip, #0
   10f98:	1a0000c4 	bne	112b0 <kvprintf+0x1280>
   10f9c:	e59d1010 	ldr	r1, [sp, #16]
   10fa0:	e58d0008 	str	r0, [sp, #8]
   10fa4:	e0411006 	sub	r1, r1, r6
   10fa8:	e3510000 	cmp	r1, #0
   10fac:	e58d1010 	str	r1, [sp, #16]
   10fb0:	d3a01000 	movle	r1, #0
   10fb4:	c3a01001 	movgt	r1, #1
   10fb8:	e59d0018 	ldr	r0, [sp, #24]
   10fbc:	e2200001 	eor	r0, r0, #1
   10fc0:	e1100001 	tst	r0, r1
   10fc4:	059d6018 	ldreq	r6, [sp, #24]
   10fc8:	00066001 	andeq	r6, r6, r1
   10fcc:	0afffe59 	beq	10938 <kvprintf+0x908>
   10fd0:	e59d2010 	ldr	r2, [sp, #16]
   10fd4:	e1a0b009 	mov	fp, r9
   10fd8:	e2425001 	sub	r5, r2, #1
   10fdc:	e58d4010 	str	r4, [sp, #16]
   10fe0:	e1a09005 	mov	r9, r5
   10fe4:	e1a04005 	mov	r4, r5
   10fe8:	e1a05008 	mov	r5, r8
   10fec:	e1a08003 	mov	r8, r3
   10ff0:	e3550000 	cmp	r5, #0
   10ff4:	0a000064 	beq	1118c <kvprintf+0x115c>
   10ff8:	e1a01007 	mov	r1, r7
   10ffc:	e59d0020 	ldr	r0, [sp, #32]
   11000:	e12fff35 	blx	r5
   11004:	e2544001 	subs	r4, r4, #1
   11008:	2afffff8 	bcs	10ff0 <kvprintf+0xfc0>
   1100c:	e1a03008 	mov	r3, r8
   11010:	e1a08005 	mov	r8, r5
   11014:	e1a05009 	mov	r5, r9
   11018:	e2833001 	add	r3, r3, #1
   1101c:	e3560000 	cmp	r6, #0
   11020:	e1a0900b 	mov	r9, fp
   11024:	e0832005 	add	r2, r3, r5
   11028:	e1a0b004 	mov	fp, r4
   1102c:	e59d4010 	ldr	r4, [sp, #16]
   11030:	0a000099 	beq	1129c <kvprintf+0x126c>
   11034:	e58db010 	str	fp, [sp, #16]
   11038:	e3a06000 	mov	r6, #0
   1103c:	eafffe3b 	b	10930 <kvprintf+0x900>
   11040:	00008d7c 	andeq	r8, r0, ip, ror sp
   11044:	00006334 	andeq	r6, r0, r4, lsr r3
   11048:	00000148 	andeq	r0, r0, r8, asr #2
   1104c:	00005684 	andeq	r5, r0, r4, lsl #13
   11050:	00005538 	andeq	r5, r0, r8, lsr r5
   11054:	000052ac 	andeq	r5, r0, ip, lsr #5
   11058:	e59d3010 	ldr	r3, [sp, #16]
   1105c:	e3530000 	cmp	r3, #0
   11060:	e2434001 	sub	r4, r3, #1
   11064:	0a000083 	beq	11278 <kvprintf+0x1248>
   11068:	e1a03008 	mov	r3, r8
   1106c:	e1a05004 	mov	r5, r4
   11070:	e1a08004 	mov	r8, r4
   11074:	e1a04003 	mov	r4, r3
   11078:	e59d6020 	ldr	r6, [sp, #32]
   1107c:	e3540000 	cmp	r4, #0
   11080:	0a000047 	beq	111a4 <kvprintf+0x1174>
   11084:	e1a01007 	mov	r1, r7
   11088:	e1a00006 	mov	r0, r6
   1108c:	e12fff34 	blx	r4
   11090:	e2555001 	subs	r5, r5, #1
   11094:	2afffff8 	bcs	1107c <kvprintf+0x104c>
   11098:	e1a03004 	mov	r3, r4
   1109c:	e1a04008 	mov	r4, r8
   110a0:	e1a08003 	mov	r8, r3
   110a4:	e28b3001 	add	r3, fp, #1
   110a8:	e083b004 	add	fp, r3, r4
   110ac:	eafffe32 	b	1097c <kvprintf+0x94c>
   110b0:	e3560000 	cmp	r6, #0
   110b4:	1affffa9 	bne	10f60 <kvprintf+0xf30>
   110b8:	e51f4070 	ldr	r4, [pc, #-112]	; 11050 <kvprintf+0x1020>
   110bc:	e08f4004 	add	r4, pc, r4
   110c0:	e2841001 	add	r1, r4, #1
   110c4:	eaffff86 	b	10ee4 <kvprintf+0xeb4>
   110c8:	e5900000 	ldr	r0, [r0]
   110cc:	e58d1008 	str	r1, [sp, #8]
   110d0:	e58d001c 	str	r0, [sp, #28]
   110d4:	eafffdc7 	b	107f8 <kvprintf+0x7c8>
   110d8:	e3a0302d 	mov	r3, #45	; 0x2d
   110dc:	e59d1000 	ldr	r1, [sp]
   110e0:	e5c13000 	strb	r3, [r1]
   110e4:	e2813001 	add	r3, r1, #1
   110e8:	e58d3000 	str	r3, [sp]
   110ec:	eafffd35 	b	105c8 <kvprintf+0x598>
   110f0:	e59d102c 	ldr	r1, [sp, #44]	; 0x2c
   110f4:	e3510000 	cmp	r1, #0
   110f8:	0a000019 	beq	11164 <kvprintf+0x1134>
   110fc:	e5823000 	str	r3, [r2]
   11100:	e1a0b003 	mov	fp, r3
   11104:	e59da01c 	ldr	sl, [sp, #28]
   11108:	eafffbdf 	b	1008c <kvprintf+0x5c>
   1110c:	e59d0008 	ldr	r0, [sp, #8]
   11110:	e5900000 	ldr	r0, [r0]
   11114:	e58d1008 	str	r1, [sp, #8]
   11118:	e58d001c 	str	r0, [sp, #28]
   1111c:	eafffdb5 	b	107f8 <kvprintf+0x7c8>
   11120:	e5dce001 	ldrb	lr, [ip, #1]
   11124:	e59dc018 	ldr	ip, [sp, #24]
   11128:	e58d0008 	str	r0, [sp, #8]
   1112c:	e22cc001 	eor	ip, ip, #1
   11130:	e58dc018 	str	ip, [sp, #24]
   11134:	e59dc010 	ldr	ip, [sp, #16]
   11138:	e26cc000 	rsb	ip, ip, #0
   1113c:	e58dc010 	str	ip, [sp, #16]
   11140:	e1a0c009 	mov	ip, r9
   11144:	eafffbf6 	b	10124 <kvprintf+0xf4>
   11148:	e59d2010 	ldr	r2, [sp, #16]
   1114c:	e1a0a003 	mov	sl, r3
   11150:	e58d2008 	str	r2, [sp, #8]
   11154:	eafffbcc 	b	1008c <kvprintf+0x5c>
   11158:	e1a0b003 	mov	fp, r3
   1115c:	e3a0a001 	mov	sl, #1
   11160:	eafffbc9 	b	1008c <kvprintf+0x5c>
   11164:	e59d1038 	ldr	r1, [sp, #56]	; 0x38
   11168:	e3510000 	cmp	r1, #0
   1116c:	0a000032 	beq	1123c <kvprintf+0x120c>
   11170:	e5823000 	str	r3, [r2]
   11174:	e1a0b003 	mov	fp, r3
   11178:	e59da02c 	ldr	sl, [sp, #44]	; 0x2c
   1117c:	eafffbc2 	b	1008c <kvprintf+0x5c>
   11180:	e1a05004 	mov	r5, r4
   11184:	e3a03001 	mov	r3, #1
   11188:	eaffff15 	b	10de4 <kvprintf+0xdb4>
   1118c:	e59d3000 	ldr	r3, [sp]
   11190:	e59d2020 	ldr	r2, [sp, #32]
   11194:	e2833001 	add	r3, r3, #1
   11198:	e5432001 	strb	r2, [r3, #-1]
   1119c:	e58d3000 	str	r3, [sp]
   111a0:	eaffff97 	b	11004 <kvprintf+0xfd4>
   111a4:	e59d3000 	ldr	r3, [sp]
   111a8:	e5c36000 	strb	r6, [r3]
   111ac:	e2833001 	add	r3, r3, #1
   111b0:	e58d3000 	str	r3, [sp]
   111b4:	eaffffb5 	b	11090 <kvprintf+0x1060>
   111b8:	e3a03030 	mov	r3, #48	; 0x30
   111bc:	e59d2000 	ldr	r2, [sp]
   111c0:	e5c23000 	strb	r3, [r2]
   111c4:	e2823001 	add	r3, r2, #1
   111c8:	e58d3000 	str	r3, [sp]
   111cc:	eafffe88 	b	10bf4 <kvprintf+0xbc4>
   111d0:	e59d0034 	ldr	r0, [sp, #52]	; 0x34
   111d4:	e3500000 	cmp	r0, #0
   111d8:	e59d0008 	ldr	r0, [sp, #8]
   111dc:	0affffb9 	beq	110c8 <kvprintf+0x1098>
   111e0:	e5d00000 	ldrb	r0, [r0]
   111e4:	e58d1008 	str	r1, [sp, #8]
   111e8:	e58d001c 	str	r0, [sp, #28]
   111ec:	eafffd81 	b	107f8 <kvprintf+0x7c8>
   111f0:	e3a02025 	mov	r2, #37	; 0x25
   111f4:	e59d1000 	ldr	r1, [sp]
   111f8:	e5c12000 	strb	r2, [r1]
   111fc:	e2812001 	add	r2, r1, #1
   11200:	e58d2000 	str	r2, [sp]
   11204:	eafffc3d 	b	10300 <kvprintf+0x2d0>
   11208:	e59d0034 	ldr	r0, [sp, #52]	; 0x34
   1120c:	e3500000 	cmp	r0, #0
   11210:	e59d0008 	ldr	r0, [sp, #8]
   11214:	0afffed3 	beq	10d68 <kvprintf+0xd38>
   11218:	e5d00000 	ldrb	r0, [r0]
   1121c:	e58d1008 	str	r1, [sp, #8]
   11220:	e58d001c 	str	r0, [sp, #28]
   11224:	eafffca6 	b	104c4 <kvprintf+0x494>
   11228:	e59d3000 	ldr	r3, [sp]
   1122c:	e5c30000 	strb	r0, [r3]
   11230:	e2833001 	add	r3, r3, #1
   11234:	e58d3000 	str	r3, [sp]
   11238:	eaffff0d 	b	10e74 <kvprintf+0xe44>
   1123c:	e59d1028 	ldr	r1, [sp, #40]	; 0x28
   11240:	e3510000 	cmp	r1, #0
   11244:	0a00001b 	beq	112b8 <kvprintf+0x1288>
   11248:	e1c230b0 	strh	r3, [r2]
   1124c:	e1a0b003 	mov	fp, r3
   11250:	e59da038 	ldr	sl, [sp, #56]	; 0x38
   11254:	eafffb8c 	b	1008c <kvprintf+0x5c>
   11258:	e59d0000 	ldr	r0, [sp]
   1125c:	e3a01030 	mov	r1, #48	; 0x30
   11260:	e1a03000 	mov	r3, r0
   11264:	e3a02078 	mov	r2, #120	; 0x78
   11268:	e4c31002 	strb	r1, [r3], #2
   1126c:	e58d3000 	str	r3, [sp]
   11270:	e5c02001 	strb	r2, [r0, #1]
   11274:	eafffe9c 	b	10cec <kvprintf+0xcbc>
   11278:	e59d3014 	ldr	r3, [sp, #20]
   1127c:	e59da010 	ldr	sl, [sp, #16]
   11280:	e58d3008 	str	r3, [sp, #8]
   11284:	eafffb80 	b	1008c <kvprintf+0x5c>
   11288:	e59d2000 	ldr	r2, [sp]
   1128c:	e5c20000 	strb	r0, [r2]
   11290:	e2822001 	add	r2, r2, #1
   11294:	e58d2000 	str	r2, [sp]
   11298:	eafffd49 	b	107c4 <kvprintf+0x794>
   1129c:	e59d3014 	ldr	r3, [sp, #20]
   112a0:	e1a0b002 	mov	fp, r2
   112a4:	e58d3008 	str	r3, [sp, #8]
   112a8:	e1a0a006 	mov	sl, r6
   112ac:	eafffb76 	b	1008c <kvprintf+0x5c>
   112b0:	e1a00005 	mov	r0, r5
   112b4:	eaffff30 	b	10f7c <kvprintf+0xf4c>
   112b8:	e59d1034 	ldr	r1, [sp, #52]	; 0x34
   112bc:	e3510000 	cmp	r1, #0
   112c0:	15c23000 	strbne	r3, [r2]
   112c4:	11a0b003 	movne	fp, r3
   112c8:	159da028 	ldrne	sl, [sp, #40]	; 0x28
   112cc:	05823000 	streq	r3, [r2]
   112d0:	01a0b003 	moveq	fp, r3
   112d4:	059da034 	ldreq	sl, [sp, #52]	; 0x34
   112d8:	eafffb6b 	b	1008c <kvprintf+0x5c>
   112dc:	e59d1010 	ldr	r1, [sp, #16]
   112e0:	e58d0008 	str	r0, [sp, #8]
   112e4:	e0411006 	sub	r1, r1, r6
   112e8:	e58d1010 	str	r1, [sp, #16]
   112ec:	eafffd82 	b	108fc <kvprintf+0x8cc>
   112f0:	e3a06000 	mov	r6, #0
   112f4:	eafffd7e 	b	108f4 <kvprintf+0x8c4>
   112f8:	e59d1010 	ldr	r1, [sp, #16]
   112fc:	e3510000 	cmp	r1, #0
   11300:	1afffde7 	bne	10aa4 <kvprintf+0xa74>
   11304:	eafffca8 	b	105ac <kvprintf+0x57c>
   11308:	e3a0303e 	mov	r3, #62	; 0x3e
   1130c:	e59d2000 	ldr	r2, [sp]
   11310:	e5c23000 	strb	r3, [r2]
   11314:	e2823001 	add	r3, r2, #1
   11318:	e58d3000 	str	r3, [sp]
   1131c:	eafffec4 	b	10e34 <kvprintf+0xe04>
   11320:	e2925000 	adds	r5, r2, #0
   11324:	13a05001 	movne	r5, #1
   11328:	e1a0b003 	mov	fp, r3
   1132c:	e0063005 	and	r3, r6, r5
   11330:	e58d3028 	str	r3, [sp, #40]	; 0x28
   11334:	eafffca9 	b	105e0 <kvprintf+0x5b0>
   11338:	e3e01000 	mvn	r1, #0
   1133c:	e1a06004 	mov	r6, r4
   11340:	e51f42f4 	ldr	r4, [pc, #-756]	; 11054 <kvprintf+0x1024>
   11344:	e58d1008 	str	r1, [sp, #8]
   11348:	e08f4004 	add	r4, pc, r4
   1134c:	eafffd6a 	b	108fc <kvprintf+0x8cc>

00011350 <printf>:
   11350:	e92d000f 	push	{r0, r1, r2, r3}
   11354:	e52de004 	push	{lr}		; (str lr, [sp, #-4]!)
   11358:	e59f2038 	ldr	r2, [pc, #56]	; 11398 <printf+0x48>
   1135c:	e24dd014 	sub	sp, sp, #20
   11360:	e28d001c 	add	r0, sp, #28
   11364:	e59f3030 	ldr	r3, [pc, #48]	; 1139c <printf+0x4c>
   11368:	e58d000c 	str	r0, [sp, #12]
   1136c:	e08f2002 	add	r2, pc, r2
   11370:	e7921003 	ldr	r1, [r2, r3]
   11374:	e58d0000 	str	r0, [sp]
   11378:	e3a0300a 	mov	r3, #10
   1137c:	e3a02001 	mov	r2, #1
   11380:	e59d0018 	ldr	r0, [sp, #24]
   11384:	ebfffb29 	bl	10030 <kvprintf>
   11388:	e28dd014 	add	sp, sp, #20
   1138c:	e49de004 	pop	{lr}		; (ldr lr, [sp], #4)
   11390:	e28dd010 	add	sp, sp, #16
   11394:	e12fff1e 	bx	lr
   11398:	00007a68 	andeq	r7, r0, r8, ror #20
   1139c:	000000b4 	strheq	r0, [r0], -r4

000113a0 <sprintf>:
   113a0:	e92d000e 	push	{r1, r2, r3}
   113a4:	e52de004 	push	{lr}		; (str lr, [sp, #-4]!)
   113a8:	e24dd010 	sub	sp, sp, #16
   113ac:	e28dc018 	add	ip, sp, #24
   113b0:	e1a02000 	mov	r2, r0
   113b4:	e58dc000 	str	ip, [sp]
   113b8:	e3a0300a 	mov	r3, #10
   113bc:	e3a01000 	mov	r1, #0
   113c0:	e59d0014 	ldr	r0, [sp, #20]
   113c4:	e58dc00c 	str	ip, [sp, #12]
   113c8:	ebfffb18 	bl	10030 <kvprintf>
   113cc:	e28dd010 	add	sp, sp, #16
   113d0:	e49de004 	pop	{lr}		; (ldr lr, [sp], #4)
   113d4:	e28dd00c 	add	sp, sp, #12
   113d8:	e12fff1e 	bx	lr

000113dc <__aeabi_uidivmod>:
   113dc:	e3a00000 	mov	r0, #0
   113e0:	e12fff1e 	bx	lr

000113e4 <__aeabi_idivmod>:
   113e4:	e3a00000 	mov	r0, #0
   113e8:	e12fff1e 	bx	lr

000113ec <div>:
   113ec:	e1510000 	cmp	r1, r0
   113f0:	e1a02000 	mov	r2, r0
   113f4:	8a000014 	bhi	1144c <div+0x60>
   113f8:	13a03001 	movne	r3, #1
   113fc:	1a000003 	bne	11410 <div+0x24>
   11400:	e3a00001 	mov	r0, #1
   11404:	e12fff1e 	bx	lr
   11408:	e1a0300c 	mov	r3, ip
   1140c:	e1a01000 	mov	r1, r0
   11410:	e1a00081 	lsl	r0, r1, #1
   11414:	e1520000 	cmp	r2, r0
   11418:	e1a0c083 	lsl	ip, r3, #1
   1141c:	2afffff9 	bcs	11408 <div+0x1c>
   11420:	e3d33102 	bics	r3, r3, #-2147483648	; 0x80000000
   11424:	e3c11102 	bic	r1, r1, #-2147483648	; 0x80000000
   11428:	0a000007 	beq	1144c <div+0x60>
   1142c:	e3a00000 	mov	r0, #0
   11430:	e1510002 	cmp	r1, r2
   11434:	90422001 	subls	r2, r2, r1
   11438:	91800003 	orrls	r0, r0, r3
   1143c:	e1b030a3 	lsrs	r3, r3, #1
   11440:	e1a010a1 	lsr	r1, r1, #1
   11444:	1afffff9 	bne	11430 <div+0x44>
   11448:	e12fff1e 	bx	lr
   1144c:	e3a00000 	mov	r0, #0
   11450:	e12fff1e 	bx	lr

00011454 <divmod>:
   11454:	e92d4070 	push	{r4, r5, r6, lr}
   11458:	e1a04001 	mov	r4, r1
   1145c:	e1a06000 	mov	r6, r0
   11460:	e1a01002 	mov	r1, r2
   11464:	e1a00004 	mov	r0, r4
   11468:	e1a05002 	mov	r5, r2
   1146c:	ebffffde 	bl	113ec <div>
   11470:	e0050095 	mul	r5, r5, r0
   11474:	e0444005 	sub	r4, r4, r5
   11478:	e8860011 	stm	r6, {r0, r4}
   1147c:	e1a00006 	mov	r0, r6
   11480:	e8bd8070 	pop	{r4, r5, r6, pc}

00011484 <memset>:
   11484:	e3520000 	cmp	r2, #0
   11488:	d12fff1e 	bxle	lr
   1148c:	e1a03000 	mov	r3, r0
   11490:	e6ef1071 	uxtb	r1, r1
   11494:	e0802002 	add	r2, r0, r2
   11498:	e4c31001 	strb	r1, [r3], #1
   1149c:	e1520003 	cmp	r2, r3
   114a0:	1afffffc 	bne	11498 <memset+0x14>
   114a4:	e12fff1e 	bx	lr

000114a8 <memcpy>:
   114a8:	e3520000 	cmp	r2, #0
   114ac:	012fff1e 	bxeq	lr
   114b0:	e2400001 	sub	r0, r0, #1
   114b4:	e0812002 	add	r2, r1, r2
   114b8:	e4d13001 	ldrb	r3, [r1], #1
   114bc:	e1510002 	cmp	r1, r2
   114c0:	e5e03001 	strb	r3, [r0, #1]!
   114c4:	1afffffb 	bne	114b8 <memcpy+0x10>
   114c8:	e12fff1e 	bx	lr

000114cc <bzero>:
   114cc:	e3510000 	cmp	r1, #0
   114d0:	012fff1e 	bxeq	lr
   114d4:	e3a03000 	mov	r3, #0
   114d8:	e0801001 	add	r1, r0, r1
   114dc:	e4c03001 	strb	r3, [r0], #1
   114e0:	e1510000 	cmp	r1, r0
   114e4:	1afffffc 	bne	114dc <bzero+0x10>
   114e8:	e12fff1e 	bx	lr

000114ec <strtol>:
   114ec:	e92d40f0 	push	{r4, r5, r6, r7, lr}
   114f0:	e2423002 	sub	r3, r2, #2
   114f4:	e2516000 	subs	r6, r1, #0
   114f8:	15860000 	strne	r0, [r6]
   114fc:	e3520000 	cmp	r2, #0
   11500:	13530022 	cmpne	r3, #34	; 0x22
   11504:	e24dd00c 	sub	sp, sp, #12
   11508:	9a000001 	bls	11514 <strtol+0x28>
   1150c:	ea00005a 	b	1167c <strtol+0x190>
   11510:	e1a00005 	mov	r0, r5
   11514:	e1a05000 	mov	r5, r0
   11518:	e4d54001 	ldrb	r4, [r5], #1
   1151c:	e3540020 	cmp	r4, #32
   11520:	0afffffa 	beq	11510 <strtol+0x24>
   11524:	e354002d 	cmp	r4, #45	; 0x2d
   11528:	0a000056 	beq	11688 <strtol+0x19c>
   1152c:	e3a07000 	mov	r7, #0
   11530:	e354002b 	cmp	r4, #43	; 0x2b
   11534:	05d04001 	ldrbeq	r4, [r0, #1]
   11538:	02805002 	addeq	r5, r0, #2
   1153c:	e3d21010 	bics	r1, r2, #16
   11540:	0a000011 	beq	1158c <strtol+0xa0>
   11544:	e353000e 	cmp	r3, #14
   11548:	908ff103 	addls	pc, pc, r3, lsl #2
   1154c:	ea000062 	b	116dc <strtol+0x1f0>
   11550:	ea00005f 	b	116d4 <strtol+0x1e8>
   11554:	ea000060 	b	116dc <strtol+0x1f0>
   11558:	ea00005f 	b	116dc <strtol+0x1f0>
   1155c:	ea00005e 	b	116dc <strtol+0x1f0>
   11560:	ea00005d 	b	116dc <strtol+0x1f0>
   11564:	ea00005c 	b	116dc <strtol+0x1f0>
   11568:	ea000057 	b	116cc <strtol+0x1e0>
   1156c:	ea00005a 	b	116dc <strtol+0x1f0>
   11570:	ea00000a 	b	115a0 <strtol+0xb4>
   11574:	ea000058 	b	116dc <strtol+0x1f0>
   11578:	ea000057 	b	116dc <strtol+0x1f0>
   1157c:	ea000056 	b	116dc <strtol+0x1f0>
   11580:	ea000055 	b	116dc <strtol+0x1f0>
   11584:	ea000054 	b	116dc <strtol+0x1f0>
   11588:	ea000059 	b	116f4 <strtol+0x208>
   1158c:	e3540030 	cmp	r4, #48	; 0x30
   11590:	0a000040 	beq	11698 <strtol+0x1ac>
   11594:	e3520000 	cmp	r2, #0
   11598:	03a0200a 	moveq	r2, #10
   1159c:	1affffe8 	bne	11544 <strtol+0x58>
   115a0:	e59f0154 	ldr	r0, [pc, #340]	; 116fc <strtol+0x210>
   115a4:	e3a0c000 	mov	ip, #0
   115a8:	e1a0100c 	mov	r1, ip
   115ac:	ea000009 	b	115d8 <strtol+0xec>
   115b0:	e35c0000 	cmp	ip, #0
   115b4:	ba000006 	blt	115d4 <strtol+0xe8>
   115b8:	e1510000 	cmp	r1, r0
   115bc:	83e0c000 	mvnhi	ip, #0
   115c0:	8a000003 	bhi	115d4 <strtol+0xe8>
   115c4:	e0213291 	mla	r1, r1, r2, r3
   115c8:	e3510102 	cmp	r1, #-2147483648	; 0x80000000
   115cc:	93a0c001 	movls	ip, #1
   115d0:	83e0c000 	mvnhi	ip, #0
   115d4:	e4d54001 	ldrb	r4, [r5], #1
   115d8:	e2443030 	sub	r3, r4, #48	; 0x30
   115dc:	e6ef3073 	uxtb	r3, r3
   115e0:	e3530009 	cmp	r3, #9
   115e4:	9a000009 	bls	11610 <strtol+0x124>
   115e8:	e2443041 	sub	r3, r4, #65	; 0x41
   115ec:	e3530019 	cmp	r3, #25
   115f0:	92443037 	subls	r3, r4, #55	; 0x37
   115f4:	96ef3073 	uxtbls	r3, r3
   115f8:	9a000004 	bls	11610 <strtol+0x124>
   115fc:	e2443061 	sub	r3, r4, #97	; 0x61
   11600:	e3530019 	cmp	r3, #25
   11604:	8a000003 	bhi	11618 <strtol+0x12c>
   11608:	e2443057 	sub	r3, r4, #87	; 0x57
   1160c:	e6ef3073 	uxtb	r3, r3
   11610:	e1530002 	cmp	r3, r2
   11614:	baffffe5 	blt	115b0 <strtol+0xc4>
   11618:	e3560000 	cmp	r6, #0
   1161c:	e2073001 	and	r3, r7, #1
   11620:	0a00000d 	beq	1165c <strtol+0x170>
   11624:	e35c0000 	cmp	ip, #0
   11628:	12455001 	subne	r5, r5, #1
   1162c:	15865000 	strne	r5, [r6]
   11630:	1a000009 	bne	1165c <strtol+0x170>
   11634:	e3170002 	tst	r7, #2
   11638:	12455002 	subne	r5, r5, #2
   1163c:	15865000 	strne	r5, [r6]
   11640:	e3530000 	cmp	r3, #0
   11644:	12610000 	rsbne	r0, r1, #0
   11648:	1a000001 	bne	11654 <strtol+0x168>
   1164c:	e2510000 	subs	r0, r1, #0
   11650:	ba000006 	blt	11670 <strtol+0x184>
   11654:	e28dd00c 	add	sp, sp, #12
   11658:	e8bd80f0 	pop	{r4, r5, r6, r7, pc}
   1165c:	e35c0000 	cmp	ip, #0
   11660:	aafffff6 	bge	11640 <strtol+0x154>
   11664:	e3530000 	cmp	r3, #0
   11668:	13a00102 	movne	r0, #-2147483648	; 0x80000000
   1166c:	1afffff8 	bne	11654 <strtol+0x168>
   11670:	e3e00102 	mvn	r0, #-2147483648	; 0x80000000
   11674:	e28dd00c 	add	sp, sp, #12
   11678:	e8bd80f0 	pop	{r4, r5, r6, r7, pc}
   1167c:	e3a00000 	mov	r0, #0
   11680:	e28dd00c 	add	sp, sp, #12
   11684:	e8bd80f0 	pop	{r4, r5, r6, r7, pc}
   11688:	e2805002 	add	r5, r0, #2
   1168c:	e5d04001 	ldrb	r4, [r0, #1]
   11690:	e3a07001 	mov	r7, #1
   11694:	eaffffa8 	b	1153c <strtol+0x50>
   11698:	e5d51000 	ldrb	r1, [r5]
   1169c:	e20110df 	and	r1, r1, #223	; 0xdf
   116a0:	e3510058 	cmp	r1, #88	; 0x58
   116a4:	1a000005 	bne	116c0 <strtol+0x1d4>
   116a8:	e5d54001 	ldrb	r4, [r5, #1]
   116ac:	e3877002 	orr	r7, r7, #2
   116b0:	e3a02010 	mov	r2, #16
   116b4:	e2855002 	add	r5, r5, #2
   116b8:	e3a00302 	mov	r0, #134217728	; 0x8000000
   116bc:	eaffffb8 	b	115a4 <strtol+0xb8>
   116c0:	e3520000 	cmp	r2, #0
   116c4:	03a02008 	moveq	r2, #8
   116c8:	1affff9d 	bne	11544 <strtol+0x58>
   116cc:	e3a00201 	mov	r0, #268435456	; 0x10000000
   116d0:	eaffffb3 	b	115a4 <strtol+0xb8>
   116d4:	e3a00101 	mov	r0, #1073741824	; 0x40000000
   116d8:	eaffffb1 	b	115a4 <strtol+0xb8>
   116dc:	e1a01002 	mov	r1, r2
   116e0:	e3a00102 	mov	r0, #-2147483648	; 0x80000000
   116e4:	e58d2004 	str	r2, [sp, #4]
   116e8:	eb000092 	bl	11938 <__aeabi_uidiv>
   116ec:	e59d2004 	ldr	r2, [sp, #4]
   116f0:	eaffffab 	b	115a4 <strtol+0xb8>
   116f4:	e3a00302 	mov	r0, #134217728	; 0x8000000
   116f8:	eaffffa9 	b	115a4 <strtol+0xb8>
   116fc:	0ccccccc 	stcleq	12, cr12, [ip], {204}	; 0xcc

00011700 <atol>:
   11700:	e3a0200a 	mov	r2, #10
   11704:	e3a01000 	mov	r1, #0
   11708:	eaffff77 	b	114ec <strtol>

0001170c <atoi>:
   1170c:	eafffffb 	b	11700 <atol>

00011710 <abs>:
   11710:	e3500000 	cmp	r0, #0
   11714:	b2600000 	rsblt	r0, r0, #0
   11718:	e12fff1e 	bx	lr

0001171c <strlen>:
   1171c:	e5d03000 	ldrb	r3, [r0]
   11720:	e1a02000 	mov	r2, r0
   11724:	e3530000 	cmp	r3, #0
   11728:	0a000004 	beq	11740 <strlen+0x24>
   1172c:	e5f03001 	ldrb	r3, [r0, #1]!
   11730:	e3530000 	cmp	r3, #0
   11734:	1afffffc 	bne	1172c <strlen+0x10>
   11738:	e0400002 	sub	r0, r0, r2
   1173c:	e12fff1e 	bx	lr
   11740:	e1a00003 	mov	r0, r3
   11744:	e12fff1e 	bx	lr

00011748 <strcmp>:
   11748:	e2402001 	sub	r2, r0, #1
   1174c:	ea000001 	b	11758 <strcmp+0x10>
   11750:	e3500000 	cmp	r0, #0
   11754:	012fff1e 	bxeq	lr
   11758:	e5f20001 	ldrb	r0, [r2, #1]!
   1175c:	e4d13001 	ldrb	r3, [r1], #1
   11760:	e0403003 	sub	r3, r0, r3
   11764:	e6af3073 	sxtb	r3, r3
   11768:	e3530000 	cmp	r3, #0
   1176c:	0afffff7 	beq	11750 <strcmp+0x8>
   11770:	e1a00003 	mov	r0, r3
   11774:	e12fff1e 	bx	lr

00011778 <strcpy>:
   11778:	e2402001 	sub	r2, r0, #1
   1177c:	e4d13001 	ldrb	r3, [r1], #1
   11780:	e3530000 	cmp	r3, #0
   11784:	e5e23001 	strb	r3, [r2, #1]!
   11788:	1afffffb 	bne	1177c <strcpy+0x4>
   1178c:	e12fff1e 	bx	lr

00011790 <itoa>:
   11790:	e92d47f0 	push	{r4, r5, r6, r7, r8, r9, sl, lr}
   11794:	e3500000 	cmp	r0, #0
   11798:	e24dd008 	sub	sp, sp, #8
   1179c:	e1a07001 	mov	r7, r1
   117a0:	0a000040 	beq	118a8 <itoa+0x118>
   117a4:	e1a09fa0 	lsr	r9, r0, #31
   117a8:	e352000a 	cmp	r2, #10
   117ac:	13a09000 	movne	r9, #0
   117b0:	02099001 	andeq	r9, r9, #1
   117b4:	e3590000 	cmp	r9, #0
   117b8:	e2414001 	sub	r4, r1, #1
   117bc:	12600000 	rsbne	r0, r0, #0
   117c0:	e1a06002 	mov	r6, r2
   117c4:	13a09001 	movne	r9, #1
   117c8:	e1a01000 	mov	r1, r0
   117cc:	e1a05004 	mov	r5, r4
   117d0:	e3a0a000 	mov	sl, #0
   117d4:	e1a0800d 	mov	r8, sp
   117d8:	ea000000 	b	117e0 <itoa+0x50>
   117dc:	e1a0a000 	mov	sl, r0
   117e0:	e1a02006 	mov	r2, r6
   117e4:	e1a00008 	mov	r0, r8
   117e8:	ebffff19 	bl	11454 <divmod>
   117ec:	e59d3004 	ldr	r3, [sp, #4]
   117f0:	e59d1000 	ldr	r1, [sp]
   117f4:	e3530009 	cmp	r3, #9
   117f8:	e2832030 	add	r2, r3, #48	; 0x30
   117fc:	82833057 	addhi	r3, r3, #87	; 0x57
   11800:	96ef3072 	uxtbls	r3, r2
   11804:	86ef3073 	uxtbhi	r3, r3
   11808:	e3510000 	cmp	r1, #0
   1180c:	e5e53001 	strb	r3, [r5, #1]!
   11810:	e28a0001 	add	r0, sl, #1
   11814:	1afffff0 	bne	117dc <itoa+0x4c>
   11818:	e3590000 	cmp	r9, #0
   1181c:	13a0202d 	movne	r2, #45	; 0x2d
   11820:	e0873000 	add	r3, r7, r0
   11824:	128a0002 	addne	r0, sl, #2
   11828:	15c32000 	strbne	r2, [r3]
   1182c:	10873000 	addne	r3, r7, r0
   11830:	e3560010 	cmp	r6, #16
   11834:	03a0c078 	moveq	ip, #120	; 0x78
   11838:	0a000004 	beq	11850 <itoa+0xc0>
   1183c:	e3560008 	cmp	r6, #8
   11840:	0a00001e 	beq	118c0 <itoa+0x130>
   11844:	e3560002 	cmp	r6, #2
   11848:	1a000006 	bne	11868 <itoa+0xd8>
   1184c:	e3a0c062 	mov	ip, #98	; 0x62
   11850:	e3a02030 	mov	r2, #48	; 0x30
   11854:	e5c3c000 	strb	ip, [r3]
   11858:	e2803001 	add	r3, r0, #1
   1185c:	e2800002 	add	r0, r0, #2
   11860:	e7c72003 	strb	r2, [r7, r3]
   11864:	e0873000 	add	r3, r7, r0
   11868:	e3a02000 	mov	r2, #0
   1186c:	e3500001 	cmp	r0, #1
   11870:	e5c32000 	strb	r2, [r3]
   11874:	0a000008 	beq	1189c <itoa+0x10c>
   11878:	e2811001 	add	r1, r1, #1
   1187c:	e1e02001 	mvn	r2, r1
   11880:	e5f4c001 	ldrb	ip, [r4, #1]!
   11884:	e573e001 	ldrb	lr, [r3, #-1]!
   11888:	e0822000 	add	r2, r2, r0
   1188c:	e1510002 	cmp	r1, r2
   11890:	e5c4e000 	strb	lr, [r4]
   11894:	e5c3c000 	strb	ip, [r3]
   11898:	3afffff6 	bcc	11878 <itoa+0xe8>
   1189c:	e1a00007 	mov	r0, r7
   118a0:	e28dd008 	add	sp, sp, #8
   118a4:	e8bd87f0 	pop	{r4, r5, r6, r7, r8, r9, sl, pc}
   118a8:	e3a03030 	mov	r3, #48	; 0x30
   118ac:	e5c10001 	strb	r0, [r1, #1]
   118b0:	e1a00007 	mov	r0, r7
   118b4:	e5c13000 	strb	r3, [r1]
   118b8:	e28dd008 	add	sp, sp, #8
   118bc:	e8bd87f0 	pop	{r4, r5, r6, r7, r8, r9, sl, pc}
   118c0:	e3a02030 	mov	r2, #48	; 0x30
   118c4:	e2800001 	add	r0, r0, #1
   118c8:	e5c32000 	strb	r2, [r3]
   118cc:	e0873000 	add	r3, r7, r0
   118d0:	eaffffe4 	b	11868 <itoa+0xd8>

000118d4 <nanosleep>:
   118d4:	e92d4070 	push	{r4, r5, r6, lr}
   118d8:	e2505000 	subs	r5, r0, #0
   118dc:	da000005 	ble	118f8 <nanosleep+0x24>
   118e0:	e3a04000 	mov	r4, #0
   118e4:	e1a00004 	mov	r0, r4
   118e8:	e2844001 	add	r4, r4, #1
   118ec:	ebffd9d4 	bl	8044 <dummy>
   118f0:	e1550004 	cmp	r5, r4
   118f4:	1afffffa 	bne	118e4 <nanosleep+0x10>
   118f8:	e3a00001 	mov	r0, #1
   118fc:	e8bd8070 	pop	{r4, r5, r6, pc}

00011900 <Delays>:
   11900:	e0603280 	rsb	r3, r0, r0, lsl #5
   11904:	e0633303 	rsb	r3, r3, r3, lsl #6
   11908:	e0800183 	add	r0, r0, r3, lsl #3
   1190c:	e0800100 	add	r0, r0, r0, lsl #2
   11910:	e1a00300 	lsl	r0, r0, #6
   11914:	eaffffee 	b	118d4 <nanosleep>

00011918 <Delayms>:
   11918:	e0603280 	rsb	r3, r0, r0, lsl #5
   1191c:	e0800103 	add	r0, r0, r3, lsl #2
   11920:	e0800100 	add	r0, r0, r0, lsl #2
   11924:	e1a00180 	lsl	r0, r0, #3
   11928:	eaffffe9 	b	118d4 <nanosleep>

0001192c <Delayus>:
   1192c:	e0800100 	add	r0, r0, r0, lsl #2
   11930:	eaffffe7 	b	118d4 <nanosleep>

00011934 <Delayns>:
   11934:	eaffffe6 	b	118d4 <nanosleep>

00011938 <__aeabi_uidiv>:
   11938:	e3a00000 	mov	r0, #0
   1193c:	e12fff1e 	bx	lr

00011940 <__aeabi_ldiv>:
   11940:	e3a00000 	mov	r0, #0
   11944:	e3a01000 	mov	r1, #0
   11948:	e12fff1e 	bx	lr

0001194c <bcm2835_regbase>:
   1194c:	e59f30d0 	ldr	r3, [pc, #208]	; 11a24 <bcm2835_regbase+0xd8>
   11950:	e2400001 	sub	r0, r0, #1
   11954:	e08f3003 	add	r3, pc, r3
   11958:	e3500009 	cmp	r0, #9
   1195c:	908ff100 	addls	pc, pc, r0, lsl #2
   11960:	ea00002d 	b	11a1c <bcm2835_regbase+0xd0>
   11964:	ea000008 	b	1198c <bcm2835_regbase+0x40>
   11968:	ea00000b 	b	1199c <bcm2835_regbase+0x50>
   1196c:	ea00000e 	b	119ac <bcm2835_regbase+0x60>
   11970:	ea000011 	b	119bc <bcm2835_regbase+0x70>
   11974:	ea000014 	b	119cc <bcm2835_regbase+0x80>
   11978:	ea000017 	b	119dc <bcm2835_regbase+0x90>
   1197c:	ea00001a 	b	119ec <bcm2835_regbase+0xa0>
   11980:	ea000001 	b	1198c <bcm2835_regbase+0x40>
   11984:	ea000020 	b	11a0c <bcm2835_regbase+0xc0>
   11988:	ea00001b 	b	119fc <bcm2835_regbase+0xb0>
   1198c:	e59f2094 	ldr	r2, [pc, #148]	; 11a28 <bcm2835_regbase+0xdc>
   11990:	e7933002 	ldr	r3, [r3, r2]
   11994:	e5930000 	ldr	r0, [r3]
   11998:	e12fff1e 	bx	lr
   1199c:	e59f2088 	ldr	r2, [pc, #136]	; 11a2c <bcm2835_regbase+0xe0>
   119a0:	e7933002 	ldr	r3, [r3, r2]
   119a4:	e5930000 	ldr	r0, [r3]
   119a8:	e12fff1e 	bx	lr
   119ac:	e59f207c 	ldr	r2, [pc, #124]	; 11a30 <bcm2835_regbase+0xe4>
   119b0:	e7933002 	ldr	r3, [r3, r2]
   119b4:	e5930000 	ldr	r0, [r3]
   119b8:	e12fff1e 	bx	lr
   119bc:	e59f2070 	ldr	r2, [pc, #112]	; 11a34 <bcm2835_regbase+0xe8>
   119c0:	e7933002 	ldr	r3, [r3, r2]
   119c4:	e5930000 	ldr	r0, [r3]
   119c8:	e12fff1e 	bx	lr
   119cc:	e59f2064 	ldr	r2, [pc, #100]	; 11a38 <bcm2835_regbase+0xec>
   119d0:	e7933002 	ldr	r3, [r3, r2]
   119d4:	e5930000 	ldr	r0, [r3]
   119d8:	e12fff1e 	bx	lr
   119dc:	e59f2058 	ldr	r2, [pc, #88]	; 11a3c <bcm2835_regbase+0xf0>
   119e0:	e7933002 	ldr	r3, [r3, r2]
   119e4:	e5930000 	ldr	r0, [r3]
   119e8:	e12fff1e 	bx	lr
   119ec:	e59f204c 	ldr	r2, [pc, #76]	; 11a40 <bcm2835_regbase+0xf4>
   119f0:	e7933002 	ldr	r3, [r3, r2]
   119f4:	e5930000 	ldr	r0, [r3]
   119f8:	e12fff1e 	bx	lr
   119fc:	e59f2040 	ldr	r2, [pc, #64]	; 11a44 <bcm2835_regbase+0xf8>
   11a00:	e7933002 	ldr	r3, [r3, r2]
   11a04:	e5930000 	ldr	r0, [r3]
   11a08:	e12fff1e 	bx	lr
   11a0c:	e59f2034 	ldr	r2, [pc, #52]	; 11a48 <bcm2835_regbase+0xfc>
   11a10:	e7933002 	ldr	r3, [r3, r2]
   11a14:	e5930000 	ldr	r0, [r3]
   11a18:	e12fff1e 	bx	lr
   11a1c:	e3a00000 	mov	r0, #0
   11a20:	e12fff1e 	bx	lr
   11a24:	00007480 	andeq	r7, r0, r0, lsl #9
   11a28:	000001c0 	andeq	r0, r0, r0, asr #3
   11a2c:	00000114 	andeq	r0, r0, r4, lsl r1
   11a30:	0000014c 	andeq	r0, r0, ip, asr #2
   11a34:	0000006c 	andeq	r0, r0, ip, rrx
   11a38:	00000128 	andeq	r0, r0, r8, lsr #2
   11a3c:	000001e4 	andeq	r0, r0, r4, ror #3
   11a40:	00000124 	andeq	r0, r0, r4, lsr #2
   11a44:	000000ac 	andeq	r0, r0, ip, lsr #1
   11a48:	0000010c 	andeq	r0, r0, ip, lsl #2

00011a4c <bcm2835_peri_write>:
   11a4c:	ee070fba 	mcr	15, 0, r0, cr7, cr10, {5}
   11a50:	e5801000 	str	r1, [r0]
   11a54:	ee070fba 	mcr	15, 0, r0, cr7, cr10, {5}
   11a58:	e12fff1e 	bx	lr

00011a5c <bcm2835_gpio_set_eds>:
   11a5c:	e52de004 	push	{lr}		; (str lr, [sp, #-4]!)
   11a60:	e3a0e001 	mov	lr, #1
   11a64:	e59f3028 	ldr	r3, [pc, #40]	; 11a94 <bcm2835_gpio_set_eds+0x38>
   11a68:	e59fc028 	ldr	ip, [pc, #40]	; 11a98 <bcm2835_gpio_set_eds+0x3c>
   11a6c:	e08f3003 	add	r3, pc, r3
   11a70:	e793100c 	ldr	r1, [r3, ip]
   11a74:	e1a022a0 	lsr	r2, r0, #5
   11a78:	e591c000 	ldr	ip, [r1]
   11a7c:	e2822010 	add	r2, r2, #16
   11a80:	e200101f 	and	r1, r0, #31
   11a84:	e1a0111e 	lsl	r1, lr, r1
   11a88:	e08c0102 	add	r0, ip, r2, lsl #2
   11a8c:	e49de004 	pop	{lr}		; (ldr lr, [sp], #4)
   11a90:	eaffffed 	b	11a4c <bcm2835_peri_write>
   11a94:	00007368 	andeq	r7, r0, r8, ror #6
   11a98:	00000114 	andeq	r0, r0, r4, lsl r1

00011a9c <bcm2835_gpio_set>:
   11a9c:	e52de004 	push	{lr}		; (str lr, [sp, #-4]!)
   11aa0:	e3a0e001 	mov	lr, #1
   11aa4:	e59f3028 	ldr	r3, [pc, #40]	; 11ad4 <bcm2835_gpio_set+0x38>
   11aa8:	e59fc028 	ldr	ip, [pc, #40]	; 11ad8 <bcm2835_gpio_set+0x3c>
   11aac:	e08f3003 	add	r3, pc, r3
   11ab0:	e793100c 	ldr	r1, [r3, ip]
   11ab4:	e1a022a0 	lsr	r2, r0, #5
   11ab8:	e591c000 	ldr	ip, [r1]
   11abc:	e2822007 	add	r2, r2, #7
   11ac0:	e200101f 	and	r1, r0, #31
   11ac4:	e1a0111e 	lsl	r1, lr, r1
   11ac8:	e08c0102 	add	r0, ip, r2, lsl #2
   11acc:	e49de004 	pop	{lr}		; (ldr lr, [sp], #4)
   11ad0:	eaffffdd 	b	11a4c <bcm2835_peri_write>
   11ad4:	00007328 	andeq	r7, r0, r8, lsr #6
   11ad8:	00000114 	andeq	r0, r0, r4, lsl r1

00011adc <bcm2835_gpio_clr>:
   11adc:	e52de004 	push	{lr}		; (str lr, [sp, #-4]!)
   11ae0:	e3a0e001 	mov	lr, #1
   11ae4:	e59f3028 	ldr	r3, [pc, #40]	; 11b14 <bcm2835_gpio_clr+0x38>
   11ae8:	e59fc028 	ldr	ip, [pc, #40]	; 11b18 <bcm2835_gpio_clr+0x3c>
   11aec:	e08f3003 	add	r3, pc, r3
   11af0:	e793100c 	ldr	r1, [r3, ip]
   11af4:	e1a022a0 	lsr	r2, r0, #5
   11af8:	e591c000 	ldr	ip, [r1]
   11afc:	e282200a 	add	r2, r2, #10
   11b00:	e200101f 	and	r1, r0, #31
   11b04:	e1a0111e 	lsl	r1, lr, r1
   11b08:	e08c0102 	add	r0, ip, r2, lsl #2
   11b0c:	e49de004 	pop	{lr}		; (ldr lr, [sp], #4)
   11b10:	eaffffcd 	b	11a4c <bcm2835_peri_write>
   11b14:	000072e8 	andeq	r7, r0, r8, ror #5
   11b18:	00000114 	andeq	r0, r0, r4, lsl r1

00011b1c <bcm2835_gpio_write>:
   11b1c:	e3510000 	cmp	r1, #0
   11b20:	1a000000 	bne	11b28 <bcm2835_gpio_write+0xc>
   11b24:	eaffffec 	b	11adc <bcm2835_gpio_clr>
   11b28:	eaffffdb 	b	11a9c <bcm2835_gpio_set>

00011b2c <bcm2835_peri_write_nb>:
   11b2c:	e5801000 	str	r1, [r0]
   11b30:	e12fff1e 	bx	lr

00011b34 <bcm2835_peri_read>:
   11b34:	ee070fba 	mcr	15, 0, r0, cr7, cr10, {5}
   11b38:	e5900000 	ldr	r0, [r0]
   11b3c:	ee070fba 	mcr	15, 0, r0, cr7, cr10, {5}
   11b40:	e12fff1e 	bx	lr

00011b44 <bcm2835_gpio_lev>:
   11b44:	e92d4010 	push	{r4, lr}
   11b48:	e59f3038 	ldr	r3, [pc, #56]	; 11b88 <bcm2835_gpio_lev+0x44>
   11b4c:	e59f1038 	ldr	r1, [pc, #56]	; 11b8c <bcm2835_gpio_lev+0x48>
   11b50:	e08f3003 	add	r3, pc, r3
   11b54:	e7931001 	ldr	r1, [r3, r1]
   11b58:	e1a04000 	mov	r4, r0
   11b5c:	e1a022a0 	lsr	r2, r0, #5
   11b60:	e5910000 	ldr	r0, [r1]
   11b64:	e282200d 	add	r2, r2, #13
   11b68:	e0800102 	add	r0, r0, r2, lsl #2
   11b6c:	ebfffff0 	bl	11b34 <bcm2835_peri_read>
   11b70:	e3a03001 	mov	r3, #1
   11b74:	e204401f 	and	r4, r4, #31
   11b78:	e0103413 	ands	r3, r0, r3, lsl r4
   11b7c:	13a00001 	movne	r0, #1
   11b80:	03a00000 	moveq	r0, #0
   11b84:	e8bd8010 	pop	{r4, pc}
   11b88:	00007284 	andeq	r7, r0, r4, lsl #5
   11b8c:	00000114 	andeq	r0, r0, r4, lsl r1

00011b90 <bcm2835_gpio_eds>:
   11b90:	e92d4010 	push	{r4, lr}
   11b94:	e59f3038 	ldr	r3, [pc, #56]	; 11bd4 <bcm2835_gpio_eds+0x44>
   11b98:	e59f1038 	ldr	r1, [pc, #56]	; 11bd8 <bcm2835_gpio_eds+0x48>
   11b9c:	e08f3003 	add	r3, pc, r3
   11ba0:	e7931001 	ldr	r1, [r3, r1]
   11ba4:	e1a04000 	mov	r4, r0
   11ba8:	e1a022a0 	lsr	r2, r0, #5
   11bac:	e5910000 	ldr	r0, [r1]
   11bb0:	e2822010 	add	r2, r2, #16
   11bb4:	e0800102 	add	r0, r0, r2, lsl #2
   11bb8:	ebffffdd 	bl	11b34 <bcm2835_peri_read>
   11bbc:	e3a03001 	mov	r3, #1
   11bc0:	e204401f 	and	r4, r4, #31
   11bc4:	e0103413 	ands	r3, r0, r3, lsl r4
   11bc8:	13a00001 	movne	r0, #1
   11bcc:	03a00000 	moveq	r0, #0
   11bd0:	e8bd8010 	pop	{r4, pc}
   11bd4:	00007238 	andeq	r7, r0, r8, lsr r2
   11bd8:	00000114 	andeq	r0, r0, r4, lsl r1

00011bdc <bcm2835_peri_read_nb>:
   11bdc:	e5900000 	ldr	r0, [r0]
   11be0:	e12fff1e 	bx	lr

00011be4 <bcm2835_peri_set_bits>:
   11be4:	e92d4070 	push	{r4, r5, r6, lr}
   11be8:	e1a04001 	mov	r4, r1
   11bec:	e1a06002 	mov	r6, r2
   11bf0:	e1a05000 	mov	r5, r0
   11bf4:	ebffffce 	bl	11b34 <bcm2835_peri_read>
   11bf8:	e0244000 	eor	r4, r4, r0
   11bfc:	e0041006 	and	r1, r4, r6
   11c00:	e0211000 	eor	r1, r1, r0
   11c04:	e1a00005 	mov	r0, r5
   11c08:	e8bd4070 	pop	{r4, r5, r6, lr}
   11c0c:	eaffff8e 	b	11a4c <bcm2835_peri_write>

00011c10 <bcm2835_gpio_len>:
   11c10:	e3a02001 	mov	r2, #1
   11c14:	e59f3028 	ldr	r3, [pc, #40]	; 11c44 <bcm2835_gpio_len+0x34>
   11c18:	e59f1028 	ldr	r1, [pc, #40]	; 11c48 <bcm2835_gpio_len+0x38>
   11c1c:	e08f3003 	add	r3, pc, r3
   11c20:	e7931001 	ldr	r1, [r3, r1]
   11c24:	e200c01f 	and	ip, r0, #31
   11c28:	e5911000 	ldr	r1, [r1]
   11c2c:	e1a002a0 	lsr	r0, r0, #5
   11c30:	e280001c 	add	r0, r0, #28
   11c34:	e1a02c12 	lsl	r2, r2, ip
   11c38:	e0810100 	add	r0, r1, r0, lsl #2
   11c3c:	e1a01002 	mov	r1, r2
   11c40:	eaffffe7 	b	11be4 <bcm2835_peri_set_bits>
   11c44:	000071b8 			; <UNDEFINED> instruction: 0x000071b8
   11c48:	00000114 	andeq	r0, r0, r4, lsl r1

00011c4c <bcm2835_gpio_clr_len>:
   11c4c:	e52de004 	push	{lr}		; (str lr, [sp, #-4]!)
   11c50:	e3a0e001 	mov	lr, #1
   11c54:	e59f302c 	ldr	r3, [pc, #44]	; 11c88 <bcm2835_gpio_clr_len+0x3c>
   11c58:	e59fc02c 	ldr	ip, [pc, #44]	; 11c8c <bcm2835_gpio_clr_len+0x40>
   11c5c:	e08f3003 	add	r3, pc, r3
   11c60:	e793200c 	ldr	r2, [r3, ip]
   11c64:	e1a012a0 	lsr	r1, r0, #5
   11c68:	e592c000 	ldr	ip, [r2]
   11c6c:	e281101c 	add	r1, r1, #28
   11c70:	e200201f 	and	r2, r0, #31
   11c74:	e1a0221e 	lsl	r2, lr, r2
   11c78:	e08c0101 	add	r0, ip, r1, lsl #2
   11c7c:	e49de004 	pop	{lr}		; (ldr lr, [sp], #4)
   11c80:	e3a01000 	mov	r1, #0
   11c84:	eaffffd6 	b	11be4 <bcm2835_peri_set_bits>
   11c88:	00007178 	andeq	r7, r0, r8, ror r1
   11c8c:	00000114 	andeq	r0, r0, r4, lsl r1

00011c90 <bcm2835_gpio_afen>:
   11c90:	e3a02001 	mov	r2, #1
   11c94:	e59f3028 	ldr	r3, [pc, #40]	; 11cc4 <bcm2835_gpio_afen+0x34>
   11c98:	e59f1028 	ldr	r1, [pc, #40]	; 11cc8 <bcm2835_gpio_afen+0x38>
   11c9c:	e08f3003 	add	r3, pc, r3
   11ca0:	e7931001 	ldr	r1, [r3, r1]
   11ca4:	e200c01f 	and	ip, r0, #31
   11ca8:	e5911000 	ldr	r1, [r1]
   11cac:	e1a002a0 	lsr	r0, r0, #5
   11cb0:	e2800022 	add	r0, r0, #34	; 0x22
   11cb4:	e1a02c12 	lsl	r2, r2, ip
   11cb8:	e0810100 	add	r0, r1, r0, lsl #2
   11cbc:	e1a01002 	mov	r1, r2
   11cc0:	eaffffc7 	b	11be4 <bcm2835_peri_set_bits>
   11cc4:	00007138 	andeq	r7, r0, r8, lsr r1
   11cc8:	00000114 	andeq	r0, r0, r4, lsl r1

00011ccc <bcm2835_gpio_clr_afen>:
   11ccc:	e52de004 	push	{lr}		; (str lr, [sp, #-4]!)
   11cd0:	e3a0e001 	mov	lr, #1
   11cd4:	e59f302c 	ldr	r3, [pc, #44]	; 11d08 <bcm2835_gpio_clr_afen+0x3c>
   11cd8:	e59fc02c 	ldr	ip, [pc, #44]	; 11d0c <bcm2835_gpio_clr_afen+0x40>
   11cdc:	e08f3003 	add	r3, pc, r3
   11ce0:	e793200c 	ldr	r2, [r3, ip]
   11ce4:	e1a012a0 	lsr	r1, r0, #5
   11ce8:	e592c000 	ldr	ip, [r2]
   11cec:	e2811022 	add	r1, r1, #34	; 0x22
   11cf0:	e200201f 	and	r2, r0, #31
   11cf4:	e1a0221e 	lsl	r2, lr, r2
   11cf8:	e08c0101 	add	r0, ip, r1, lsl #2
   11cfc:	e49de004 	pop	{lr}		; (ldr lr, [sp], #4)
   11d00:	e3a01000 	mov	r1, #0
   11d04:	eaffffb6 	b	11be4 <bcm2835_peri_set_bits>
   11d08:	000070f8 	strdeq	r7, [r0], -r8
   11d0c:	00000114 	andeq	r0, r0, r4, lsl r1

00011d10 <bcm2835_gpio_fen>:
   11d10:	e3a02001 	mov	r2, #1
   11d14:	e59f3028 	ldr	r3, [pc, #40]	; 11d44 <bcm2835_gpio_fen+0x34>
   11d18:	e59f1028 	ldr	r1, [pc, #40]	; 11d48 <bcm2835_gpio_fen+0x38>
   11d1c:	e08f3003 	add	r3, pc, r3
   11d20:	e7931001 	ldr	r1, [r3, r1]
   11d24:	e200c01f 	and	ip, r0, #31
   11d28:	e5911000 	ldr	r1, [r1]
   11d2c:	e1a002a0 	lsr	r0, r0, #5
   11d30:	e2800016 	add	r0, r0, #22
   11d34:	e1a02c12 	lsl	r2, r2, ip
   11d38:	e0810100 	add	r0, r1, r0, lsl #2
   11d3c:	e1a01002 	mov	r1, r2
   11d40:	eaffffa7 	b	11be4 <bcm2835_peri_set_bits>
   11d44:	000070b8 	strheq	r7, [r0], -r8
   11d48:	00000114 	andeq	r0, r0, r4, lsl r1

00011d4c <bcm2835_gpio_clr_fen>:
   11d4c:	e52de004 	push	{lr}		; (str lr, [sp, #-4]!)
   11d50:	e3a0e001 	mov	lr, #1
   11d54:	e59f302c 	ldr	r3, [pc, #44]	; 11d88 <bcm2835_gpio_clr_fen+0x3c>
   11d58:	e59fc02c 	ldr	ip, [pc, #44]	; 11d8c <bcm2835_gpio_clr_fen+0x40>
   11d5c:	e08f3003 	add	r3, pc, r3
   11d60:	e793200c 	ldr	r2, [r3, ip]
   11d64:	e1a012a0 	lsr	r1, r0, #5
   11d68:	e592c000 	ldr	ip, [r2]
   11d6c:	e2811016 	add	r1, r1, #22
   11d70:	e200201f 	and	r2, r0, #31
   11d74:	e1a0221e 	lsl	r2, lr, r2
   11d78:	e08c0101 	add	r0, ip, r1, lsl #2
   11d7c:	e49de004 	pop	{lr}		; (ldr lr, [sp], #4)
   11d80:	e3a01000 	mov	r1, #0
   11d84:	eaffff96 	b	11be4 <bcm2835_peri_set_bits>
   11d88:	00007078 	andeq	r7, r0, r8, ror r0
   11d8c:	00000114 	andeq	r0, r0, r4, lsl r1

00011d90 <bcm2835_gpio_fsel>:
   11d90:	e3a02007 	mov	r2, #7
   11d94:	e92d4030 	push	{r4, r5, lr}
   11d98:	e59f4040 	ldr	r4, [pc, #64]	; 11de0 <bcm2835_gpio_fsel+0x50>
   11d9c:	e59fe040 	ldr	lr, [pc, #64]	; 11de4 <bcm2835_gpio_fsel+0x54>
   11da0:	e0854490 	umull	r4, r5, r0, r4
   11da4:	e59f403c 	ldr	r4, [pc, #60]	; 11de8 <bcm2835_gpio_fsel+0x58>
   11da8:	e1a0c1a5 	lsr	ip, r5, #3
   11dac:	e08fe00e 	add	lr, pc, lr
   11db0:	e08c310c 	add	r3, ip, ip, lsl #2
   11db4:	e79ee004 	ldr	lr, [lr, r4]
   11db8:	e0403083 	sub	r3, r0, r3, lsl #1
   11dbc:	e0833083 	add	r3, r3, r3, lsl #1
   11dc0:	e59e0000 	ldr	r0, [lr]
   11dc4:	e6ef3073 	uxtb	r3, r3
   11dc8:	e6efc07c 	uxtb	ip, ip
   11dcc:	e1a01311 	lsl	r1, r1, r3
   11dd0:	e1a02312 	lsl	r2, r2, r3
   11dd4:	e080010c 	add	r0, r0, ip, lsl #2
   11dd8:	e8bd4030 	pop	{r4, r5, lr}
   11ddc:	eaffff80 	b	11be4 <bcm2835_peri_set_bits>
   11de0:	cccccccd 	stclgt	12, cr12, [ip], {205}	; 0xcd
   11de4:	00007028 	andeq	r7, r0, r8, lsr #32
   11de8:	00000114 	andeq	r0, r0, r4, lsl r1

00011dec <bcm2835_spi_begin>:
   11dec:	e92d4010 	push	{r4, lr}
   11df0:	e59f3074 	ldr	r3, [pc, #116]	; 11e6c <bcm2835_spi_begin+0x80>
   11df4:	e59f2074 	ldr	r2, [pc, #116]	; 11e70 <bcm2835_spi_begin+0x84>
   11df8:	e08f3003 	add	r3, pc, r3
   11dfc:	e7934002 	ldr	r4, [r3, r2]
   11e00:	e5940000 	ldr	r0, [r4]
   11e04:	e3500000 	cmp	r0, #0
   11e08:	08bd8010 	popeq	{r4, pc}
   11e0c:	e3a01004 	mov	r1, #4
   11e10:	e3a00007 	mov	r0, #7
   11e14:	ebffffdd 	bl	11d90 <bcm2835_gpio_fsel>
   11e18:	e3a01004 	mov	r1, #4
   11e1c:	e3a00008 	mov	r0, #8
   11e20:	ebffffda 	bl	11d90 <bcm2835_gpio_fsel>
   11e24:	e3a01004 	mov	r1, #4
   11e28:	e3a00009 	mov	r0, #9
   11e2c:	ebffffd7 	bl	11d90 <bcm2835_gpio_fsel>
   11e30:	e3a01004 	mov	r1, #4
   11e34:	e3a0000a 	mov	r0, #10
   11e38:	ebffffd4 	bl	11d90 <bcm2835_gpio_fsel>
   11e3c:	e3a01004 	mov	r1, #4
   11e40:	e3a0000b 	mov	r0, #11
   11e44:	ebffffd1 	bl	11d90 <bcm2835_gpio_fsel>
   11e48:	e5944000 	ldr	r4, [r4]
   11e4c:	e3a01000 	mov	r1, #0
   11e50:	e1a00004 	mov	r0, r4
   11e54:	ebfffefc 	bl	11a4c <bcm2835_peri_write>
   11e58:	e1a00004 	mov	r0, r4
   11e5c:	e3a01030 	mov	r1, #48	; 0x30
   11e60:	ebffff31 	bl	11b2c <bcm2835_peri_write_nb>
   11e64:	e3a00001 	mov	r0, #1
   11e68:	e8bd8010 	pop	{r4, pc}
   11e6c:	00006fdc 	ldrdeq	r6, [r0], -ip
   11e70:	000001e4 	andeq	r0, r0, r4, ror #3

00011e74 <bcm2835_spi_end>:
   11e74:	e92d4010 	push	{r4, lr}
   11e78:	e3a01000 	mov	r1, #0
   11e7c:	e3a00007 	mov	r0, #7
   11e80:	ebffffc2 	bl	11d90 <bcm2835_gpio_fsel>
   11e84:	e3a01000 	mov	r1, #0
   11e88:	e3a00008 	mov	r0, #8
   11e8c:	ebffffbf 	bl	11d90 <bcm2835_gpio_fsel>
   11e90:	e3a01000 	mov	r1, #0
   11e94:	e3a00009 	mov	r0, #9
   11e98:	ebffffbc 	bl	11d90 <bcm2835_gpio_fsel>
   11e9c:	e3a01000 	mov	r1, #0
   11ea0:	e3a0000a 	mov	r0, #10
   11ea4:	ebffffb9 	bl	11d90 <bcm2835_gpio_fsel>
   11ea8:	e8bd4010 	pop	{r4, lr}
   11eac:	e3a01000 	mov	r1, #0
   11eb0:	e3a0000b 	mov	r0, #11
   11eb4:	eaffffb5 	b	11d90 <bcm2835_gpio_fsel>

00011eb8 <bcm2835_spi_setBitOrder>:
   11eb8:	e59f3008 	ldr	r3, [pc, #8]	; 11ec8 <bcm2835_spi_setBitOrder+0x10>
   11ebc:	e08f3003 	add	r3, pc, r3
   11ec0:	e5c30000 	strb	r0, [r3]
   11ec4:	e12fff1e 	bx	lr
   11ec8:	0000519c 	muleq	r0, ip, r1

00011ecc <bcm2835_spi_setClockDivider>:
   11ecc:	e59f3018 	ldr	r3, [pc, #24]	; 11eec <bcm2835_spi_setClockDivider+0x20>
   11ed0:	e59f2018 	ldr	r2, [pc, #24]	; 11ef0 <bcm2835_spi_setClockDivider+0x24>
   11ed4:	e08f3003 	add	r3, pc, r3
   11ed8:	e7933002 	ldr	r3, [r3, r2]
   11edc:	e1a01000 	mov	r1, r0
   11ee0:	e5930000 	ldr	r0, [r3]
   11ee4:	e2800008 	add	r0, r0, #8
   11ee8:	eafffed7 	b	11a4c <bcm2835_peri_write>
   11eec:	00006f00 	andeq	r6, r0, r0, lsl #30
   11ef0:	000001e4 	andeq	r0, r0, r4, ror #3

00011ef4 <bcm2835_spi_set_speed_hz>:
   11ef4:	e92d4010 	push	{r4, lr}
   11ef8:	e1a01000 	mov	r1, r0
   11efc:	e59f0014 	ldr	r0, [pc, #20]	; 11f18 <bcm2835_spi_set_speed_hz+0x24>
   11f00:	ebfffe8c 	bl	11938 <__aeabi_uidiv>
   11f04:	e8bd4010 	pop	{r4, lr}
   11f08:	e3c00001 	bic	r0, r0, #1
   11f0c:	e1a00800 	lsl	r0, r0, #16
   11f10:	e1a00820 	lsr	r0, r0, #16
   11f14:	eaffffec 	b	11ecc <bcm2835_spi_setClockDivider>
   11f18:	0ee6b280 	cdpeq	2, 14, cr11, cr6, cr0, {4}

00011f1c <bcm2835_spi_setDataMode>:
   11f1c:	e59f3018 	ldr	r3, [pc, #24]	; 11f3c <bcm2835_spi_setDataMode+0x20>
   11f20:	e59f2018 	ldr	r2, [pc, #24]	; 11f40 <bcm2835_spi_setDataMode+0x24>
   11f24:	e08f3003 	add	r3, pc, r3
   11f28:	e1a01100 	lsl	r1, r0, #2
   11f2c:	e7930002 	ldr	r0, [r3, r2]
   11f30:	e3a0200c 	mov	r2, #12
   11f34:	e5900000 	ldr	r0, [r0]
   11f38:	eaffff29 	b	11be4 <bcm2835_peri_set_bits>
   11f3c:	00006eb0 			; <UNDEFINED> instruction: 0x00006eb0
   11f40:	000001e4 	andeq	r0, r0, r4, ror #3

00011f44 <bcm2835_spi_transfer>:
   11f44:	e3a02030 	mov	r2, #48	; 0x30
   11f48:	e92d4070 	push	{r4, r5, r6, lr}
   11f4c:	e59f30bc 	ldr	r3, [pc, #188]	; 12010 <bcm2835_spi_transfer+0xcc>
   11f50:	e59f10bc 	ldr	r1, [pc, #188]	; 12014 <bcm2835_spi_transfer+0xd0>
   11f54:	e08f3003 	add	r3, pc, r3
   11f58:	e7933001 	ldr	r3, [r3, r1]
   11f5c:	e1a06000 	mov	r6, r0
   11f60:	e5934000 	ldr	r4, [r3]
   11f64:	e1a01002 	mov	r1, r2
   11f68:	e1a00004 	mov	r0, r4
   11f6c:	ebffff1c 	bl	11be4 <bcm2835_peri_set_bits>
   11f70:	e3a02080 	mov	r2, #128	; 0x80
   11f74:	e1a00004 	mov	r0, r4
   11f78:	e1a01002 	mov	r1, r2
   11f7c:	e2845004 	add	r5, r4, #4
   11f80:	ebffff17 	bl	11be4 <bcm2835_peri_set_bits>
   11f84:	e1a00004 	mov	r0, r4
   11f88:	ebfffee9 	bl	11b34 <bcm2835_peri_read>
   11f8c:	e3100701 	tst	r0, #262144	; 0x40000
   11f90:	0afffffb 	beq	11f84 <bcm2835_spi_transfer+0x40>
   11f94:	e59f307c 	ldr	r3, [pc, #124]	; 12018 <bcm2835_spi_transfer+0xd4>
   11f98:	e08f3003 	add	r3, pc, r3
   11f9c:	e5d33000 	ldrb	r3, [r3]
   11fa0:	e3530000 	cmp	r3, #0
   11fa4:	059f3070 	ldreq	r3, [pc, #112]	; 1201c <bcm2835_spi_transfer+0xd8>
   11fa8:	008f3003 	addeq	r3, pc, r3
   11fac:	07d36006 	ldrbeq	r6, [r3, r6]
   11fb0:	e1a01006 	mov	r1, r6
   11fb4:	e1a00005 	mov	r0, r5
   11fb8:	ebfffedb 	bl	11b2c <bcm2835_peri_write_nb>
   11fbc:	e1a00004 	mov	r0, r4
   11fc0:	ebffff05 	bl	11bdc <bcm2835_peri_read_nb>
   11fc4:	e3100801 	tst	r0, #65536	; 0x10000
   11fc8:	0afffffb 	beq	11fbc <bcm2835_spi_transfer+0x78>
   11fcc:	e1a00005 	mov	r0, r5
   11fd0:	ebffff01 	bl	11bdc <bcm2835_peri_read_nb>
   11fd4:	e59f3044 	ldr	r3, [pc, #68]	; 12020 <bcm2835_spi_transfer+0xdc>
   11fd8:	e08f3003 	add	r3, pc, r3
   11fdc:	e5d33000 	ldrb	r3, [r3]
   11fe0:	e3530000 	cmp	r3, #0
   11fe4:	16ef5070 	uxtbne	r5, r0
   11fe8:	059f3034 	ldreq	r3, [pc, #52]	; 12024 <bcm2835_spi_transfer+0xe0>
   11fec:	06ef0070 	uxtbeq	r0, r0
   11ff0:	008f3003 	addeq	r3, pc, r3
   11ff4:	07d35000 	ldrbeq	r5, [r3, r0]
   11ff8:	e1a00004 	mov	r0, r4
   11ffc:	e3a02080 	mov	r2, #128	; 0x80
   12000:	e3a01000 	mov	r1, #0
   12004:	ebfffef6 	bl	11be4 <bcm2835_peri_set_bits>
   12008:	e1a00005 	mov	r0, r5
   1200c:	e8bd8070 	pop	{r4, r5, r6, pc}
   12010:	00006e80 	andeq	r6, r0, r0, lsl #29
   12014:	000001e4 	andeq	r0, r0, r4, ror #3
   12018:	000050c0 	andeq	r5, r0, r0, asr #1
   1201c:	0000438c 	andeq	r4, r0, ip, lsl #7
   12020:	00005080 	andeq	r5, r0, r0, lsl #1
   12024:	00004344 	andeq	r4, r0, r4, asr #6

00012028 <bcm2835_spi_transfernb>:
   12028:	e92d4ff0 	push	{r4, r5, r6, r7, r8, r9, sl, fp, lr}
   1202c:	e1a06002 	mov	r6, r2
   12030:	e3a02030 	mov	r2, #48	; 0x30
   12034:	e3a04000 	mov	r4, #0
   12038:	e59f3144 	ldr	r3, [pc, #324]	; 12184 <bcm2835_spi_transfernb+0x15c>
   1203c:	e24dd014 	sub	sp, sp, #20
   12040:	e59fc140 	ldr	ip, [pc, #320]	; 12188 <bcm2835_spi_transfernb+0x160>
   12044:	e58d0008 	str	r0, [sp, #8]
   12048:	e08f3003 	add	r3, pc, r3
   1204c:	e793300c 	ldr	r3, [r3, ip]
   12050:	e58d100c 	str	r1, [sp, #12]
   12054:	e5937000 	ldr	r7, [r3]
   12058:	e1a01002 	mov	r1, r2
   1205c:	e1a00007 	mov	r0, r7
   12060:	ebfffedf 	bl	11be4 <bcm2835_peri_set_bits>
   12064:	e3a02080 	mov	r2, #128	; 0x80
   12068:	e1a05004 	mov	r5, r4
   1206c:	e1a00007 	mov	r0, r7
   12070:	e1a01002 	mov	r1, r2
   12074:	ebfffeda 	bl	11be4 <bcm2835_peri_set_bits>
   12078:	e1540006 	cmp	r4, r6
   1207c:	21550006 	cmpcs	r5, r6
   12080:	e59f3104 	ldr	r3, [pc, #260]	; 1218c <bcm2835_spi_transfernb+0x164>
   12084:	e59fb104 	ldr	fp, [pc, #260]	; 12190 <bcm2835_spi_transfernb+0x168>
   12088:	e08f3003 	add	r3, pc, r3
   1208c:	e58d3000 	str	r3, [sp]
   12090:	e59f30fc 	ldr	r3, [pc, #252]	; 12194 <bcm2835_spi_transfernb+0x16c>
   12094:	e59fa0fc 	ldr	sl, [pc, #252]	; 12198 <bcm2835_spi_transfernb+0x170>
   12098:	e08f3003 	add	r3, pc, r3
   1209c:	e2879004 	add	r9, r7, #4
   120a0:	e08fb00b 	add	fp, pc, fp
   120a4:	e08fa00a 	add	sl, pc, sl
   120a8:	e58d3004 	str	r3, [sp, #4]
   120ac:	2a00002a 	bcs	1215c <bcm2835_spi_transfernb+0x134>
   120b0:	e59d3008 	ldr	r3, [sp, #8]
   120b4:	e2458001 	sub	r8, r5, #1
   120b8:	e0838008 	add	r8, r3, r8
   120bc:	ea000007 	b	120e0 <bcm2835_spi_transfernb+0xb8>
   120c0:	e5db3000 	ldrb	r3, [fp]
   120c4:	e5f81001 	ldrb	r1, [r8, #1]!
   120c8:	e3530000 	cmp	r3, #0
   120cc:	059d3000 	ldreq	r3, [sp]
   120d0:	e1a00009 	mov	r0, r9
   120d4:	07d31001 	ldrbeq	r1, [r3, r1]
   120d8:	ebfffe93 	bl	11b2c <bcm2835_peri_write_nb>
   120dc:	e2855001 	add	r5, r5, #1
   120e0:	e1a00007 	mov	r0, r7
   120e4:	ebfffe92 	bl	11b34 <bcm2835_peri_read>
   120e8:	e1550006 	cmp	r5, r6
   120ec:	23a03000 	movcs	r3, #0
   120f0:	33a03001 	movcc	r3, #1
   120f4:	e0133920 	ands	r3, r3, r0, lsr #18
   120f8:	1afffff0 	bne	120c0 <bcm2835_spi_transfernb+0x98>
   120fc:	e59d300c 	ldr	r3, [sp, #12]
   12100:	e2448001 	sub	r8, r4, #1
   12104:	e0838008 	add	r8, r3, r8
   12108:	ea000009 	b	12134 <bcm2835_spi_transfernb+0x10c>
   1210c:	e1a00009 	mov	r0, r9
   12110:	ebfffeb1 	bl	11bdc <bcm2835_peri_read_nb>
   12114:	e5da2000 	ldrb	r2, [sl]
   12118:	e6ef3070 	uxtb	r3, r0
   1211c:	e3520000 	cmp	r2, #0
   12120:	01a00003 	moveq	r0, r3
   12124:	059d3004 	ldreq	r3, [sp, #4]
   12128:	e2844001 	add	r4, r4, #1
   1212c:	07d33000 	ldrbeq	r3, [r3, r0]
   12130:	e5e83001 	strb	r3, [r8, #1]!
   12134:	e1a00007 	mov	r0, r7
   12138:	ebfffe7d 	bl	11b34 <bcm2835_peri_read>
   1213c:	e1540006 	cmp	r4, r6
   12140:	23a03000 	movcs	r3, #0
   12144:	33a03001 	movcc	r3, #1
   12148:	e01338a0 	ands	r3, r3, r0, lsr #17
   1214c:	1affffee 	bne	1210c <bcm2835_spi_transfernb+0xe4>
   12150:	e1540006 	cmp	r4, r6
   12154:	21550006 	cmpcs	r5, r6
   12158:	3affffd4 	bcc	120b0 <bcm2835_spi_transfernb+0x88>
   1215c:	e1a00007 	mov	r0, r7
   12160:	ebfffe9d 	bl	11bdc <bcm2835_peri_read_nb>
   12164:	e3100801 	tst	r0, #65536	; 0x10000
   12168:	0afffffb 	beq	1215c <bcm2835_spi_transfernb+0x134>
   1216c:	e1a00007 	mov	r0, r7
   12170:	e3a02080 	mov	r2, #128	; 0x80
   12174:	e3a01000 	mov	r1, #0
   12178:	e28dd014 	add	sp, sp, #20
   1217c:	e8bd4ff0 	pop	{r4, r5, r6, r7, r8, r9, sl, fp, lr}
   12180:	eafffe97 	b	11be4 <bcm2835_peri_set_bits>
   12184:	00006d8c 	andeq	r6, r0, ip, lsl #27
   12188:	000001e4 	andeq	r0, r0, r4, ror #3
   1218c:	000042ac 	andeq	r4, r0, ip, lsr #5
   12190:	00004fb8 			; <UNDEFINED> instruction: 0x00004fb8
   12194:	0000429c 	muleq	r0, ip, r2
   12198:	00004fb4 			; <UNDEFINED> instruction: 0x00004fb4

0001219c <bcm2835_spi_writenb>:
   1219c:	e3a02030 	mov	r2, #48	; 0x30
   121a0:	e92d47f0 	push	{r4, r5, r6, r7, r8, r9, sl, lr}
   121a4:	e59f30e4 	ldr	r3, [pc, #228]	; 12290 <bcm2835_spi_writenb+0xf4>
   121a8:	e59fc0e4 	ldr	ip, [pc, #228]	; 12294 <bcm2835_spi_writenb+0xf8>
   121ac:	e08f3003 	add	r3, pc, r3
   121b0:	e793300c 	ldr	r3, [r3, ip]
   121b4:	e1a07001 	mov	r7, r1
   121b8:	e5934000 	ldr	r4, [r3]
   121bc:	e1a01002 	mov	r1, r2
   121c0:	e1a06000 	mov	r6, r0
   121c4:	e1a00004 	mov	r0, r4
   121c8:	ebfffe85 	bl	11be4 <bcm2835_peri_set_bits>
   121cc:	e3a02080 	mov	r2, #128	; 0x80
   121d0:	e1a00004 	mov	r0, r4
   121d4:	e1a01002 	mov	r1, r2
   121d8:	ebfffe81 	bl	11be4 <bcm2835_peri_set_bits>
   121dc:	e3570000 	cmp	r7, #0
   121e0:	e2845004 	add	r5, r4, #4
   121e4:	0a000019 	beq	12250 <bcm2835_spi_writenb+0xb4>
   121e8:	e59f80a8 	ldr	r8, [pc, #168]	; 12298 <bcm2835_spi_writenb+0xfc>
   121ec:	e59f90a8 	ldr	r9, [pc, #168]	; 1229c <bcm2835_spi_writenb+0x100>
   121f0:	e0867007 	add	r7, r6, r7
   121f4:	e08f8008 	add	r8, pc, r8
   121f8:	e08f9009 	add	r9, pc, r9
   121fc:	e2477001 	sub	r7, r7, #1
   12200:	e2466001 	sub	r6, r6, #1
   12204:	e1a00004 	mov	r0, r4
   12208:	ebfffe49 	bl	11b34 <bcm2835_peri_read>
   1220c:	e3100701 	tst	r0, #262144	; 0x40000
   12210:	0afffffb 	beq	12204 <bcm2835_spi_writenb+0x68>
   12214:	e5d83000 	ldrb	r3, [r8]
   12218:	e5f61001 	ldrb	r1, [r6, #1]!
   1221c:	e3530000 	cmp	r3, #0
   12220:	07d91001 	ldrbeq	r1, [r9, r1]
   12224:	e1a00005 	mov	r0, r5
   12228:	ebfffe3f 	bl	11b2c <bcm2835_peri_write_nb>
   1222c:	ea000001 	b	12238 <bcm2835_spi_writenb+0x9c>
   12230:	e1a00005 	mov	r0, r5
   12234:	ebfffe68 	bl	11bdc <bcm2835_peri_read_nb>
   12238:	e1a00004 	mov	r0, r4
   1223c:	ebfffe3c 	bl	11b34 <bcm2835_peri_read>
   12240:	e3100802 	tst	r0, #131072	; 0x20000
   12244:	1afffff9 	bne	12230 <bcm2835_spi_writenb+0x94>
   12248:	e1560007 	cmp	r6, r7
   1224c:	1affffec 	bne	12204 <bcm2835_spi_writenb+0x68>
   12250:	e1a00004 	mov	r0, r4
   12254:	ebfffe60 	bl	11bdc <bcm2835_peri_read_nb>
   12258:	e3100801 	tst	r0, #65536	; 0x10000
   1225c:	1a000006 	bne	1227c <bcm2835_spi_writenb+0xe0>
   12260:	e1a00004 	mov	r0, r4
   12264:	ebfffe32 	bl	11b34 <bcm2835_peri_read>
   12268:	e3100802 	tst	r0, #131072	; 0x20000
   1226c:	0afffff7 	beq	12250 <bcm2835_spi_writenb+0xb4>
   12270:	e1a00005 	mov	r0, r5
   12274:	ebfffe58 	bl	11bdc <bcm2835_peri_read_nb>
   12278:	eafffff8 	b	12260 <bcm2835_spi_writenb+0xc4>
   1227c:	e1a00004 	mov	r0, r4
   12280:	e8bd47f0 	pop	{r4, r5, r6, r7, r8, r9, sl, lr}
   12284:	e3a02080 	mov	r2, #128	; 0x80
   12288:	e3a01000 	mov	r1, #0
   1228c:	eafffe54 	b	11be4 <bcm2835_peri_set_bits>
   12290:	00006c28 	andeq	r6, r0, r8, lsr #24
   12294:	000001e4 	andeq	r0, r0, r4, ror #3
   12298:	00004e64 	andeq	r4, r0, r4, ror #28
   1229c:	0000413c 	andeq	r4, r0, ip, lsr r1

000122a0 <bcm2835_spi_transfern>:
   122a0:	e1a02001 	mov	r2, r1
   122a4:	e1a01000 	mov	r1, r0
   122a8:	eaffff5e 	b	12028 <bcm2835_spi_transfernb>

000122ac <bcm2835_spi_chipSelect>:
   122ac:	e59f3018 	ldr	r3, [pc, #24]	; 122cc <bcm2835_spi_chipSelect+0x20>
   122b0:	e59f2018 	ldr	r2, [pc, #24]	; 122d0 <bcm2835_spi_chipSelect+0x24>
   122b4:	e08f3003 	add	r3, pc, r3
   122b8:	e7933002 	ldr	r3, [r3, r2]
   122bc:	e1a01000 	mov	r1, r0
   122c0:	e3a02003 	mov	r2, #3
   122c4:	e5930000 	ldr	r0, [r3]
   122c8:	eafffe45 	b	11be4 <bcm2835_peri_set_bits>
   122cc:	00006b20 	andeq	r6, r0, r0, lsr #22
   122d0:	000001e4 	andeq	r0, r0, r4, ror #3

000122d4 <bcm2835_spi_setChipSelectPolarity>:
   122d4:	e3a02001 	mov	r2, #1
   122d8:	e59f3020 	ldr	r3, [pc, #32]	; 12300 <bcm2835_spi_setChipSelectPolarity+0x2c>
   122dc:	e59fc020 	ldr	ip, [pc, #32]	; 12304 <bcm2835_spi_setChipSelectPolarity+0x30>
   122e0:	e08f3003 	add	r3, pc, r3
   122e4:	e793c00c 	ldr	ip, [r3, ip]
   122e8:	e2800015 	add	r0, r0, #21
   122ec:	e6ef0070 	uxtb	r0, r0
   122f0:	e1a01011 	lsl	r1, r1, r0
   122f4:	e1a02012 	lsl	r2, r2, r0
   122f8:	e59c0000 	ldr	r0, [ip]
   122fc:	eafffe38 	b	11be4 <bcm2835_peri_set_bits>
   12300:	00006af4 	strdeq	r6, [r0], -r4
   12304:	000001e4 	andeq	r0, r0, r4, ror #3

00012308 <bcm2835_spi_write>:
   12308:	e3a02030 	mov	r2, #48	; 0x30
   1230c:	e92d4070 	push	{r4, r5, r6, lr}
   12310:	e59f307c 	ldr	r3, [pc, #124]	; 12394 <bcm2835_spi_write+0x8c>
   12314:	e59f107c 	ldr	r1, [pc, #124]	; 12398 <bcm2835_spi_write+0x90>
   12318:	e08f3003 	add	r3, pc, r3
   1231c:	e7933001 	ldr	r3, [r3, r1]
   12320:	e1a06000 	mov	r6, r0
   12324:	e5934000 	ldr	r4, [r3]
   12328:	e1a01002 	mov	r1, r2
   1232c:	e1a00004 	mov	r0, r4
   12330:	ebfffe2b 	bl	11be4 <bcm2835_peri_set_bits>
   12334:	e3a02080 	mov	r2, #128	; 0x80
   12338:	e1a00004 	mov	r0, r4
   1233c:	e1a01002 	mov	r1, r2
   12340:	e2845004 	add	r5, r4, #4
   12344:	ebfffe26 	bl	11be4 <bcm2835_peri_set_bits>
   12348:	e1a00004 	mov	r0, r4
   1234c:	ebfffdf8 	bl	11b34 <bcm2835_peri_read>
   12350:	e3100701 	tst	r0, #262144	; 0x40000
   12354:	0afffffb 	beq	12348 <bcm2835_spi_write+0x40>
   12358:	e1a01426 	lsr	r1, r6, #8
   1235c:	e1a00005 	mov	r0, r5
   12360:	ebfffdf1 	bl	11b2c <bcm2835_peri_write_nb>
   12364:	e6ef1076 	uxtb	r1, r6
   12368:	e1a00005 	mov	r0, r5
   1236c:	ebfffdee 	bl	11b2c <bcm2835_peri_write_nb>
   12370:	e1a00004 	mov	r0, r4
   12374:	ebfffe18 	bl	11bdc <bcm2835_peri_read_nb>
   12378:	e3100801 	tst	r0, #65536	; 0x10000
   1237c:	0afffffb 	beq	12370 <bcm2835_spi_write+0x68>
   12380:	e1a00004 	mov	r0, r4
   12384:	e8bd4070 	pop	{r4, r5, r6, lr}
   12388:	e3a02080 	mov	r2, #128	; 0x80
   1238c:	e3a01000 	mov	r1, #0
   12390:	eafffe13 	b	11be4 <bcm2835_peri_set_bits>
   12394:	00006abc 			; <UNDEFINED> instruction: 0x00006abc
   12398:	000001e4 	andeq	r0, r0, r4, ror #3

0001239c <bcm2835_aux_spi_end>:
   1239c:	e92d4010 	push	{r4, lr}
   123a0:	e3a01000 	mov	r1, #0
   123a4:	e3a00010 	mov	r0, #16
   123a8:	ebfffe78 	bl	11d90 <bcm2835_gpio_fsel>
   123ac:	e3a01000 	mov	r1, #0
   123b0:	e3a00013 	mov	r0, #19
   123b4:	ebfffe75 	bl	11d90 <bcm2835_gpio_fsel>
   123b8:	e3a01000 	mov	r1, #0
   123bc:	e3a00014 	mov	r0, #20
   123c0:	ebfffe72 	bl	11d90 <bcm2835_gpio_fsel>
   123c4:	e8bd4010 	pop	{r4, lr}
   123c8:	e3a01000 	mov	r1, #0
   123cc:	e3a00015 	mov	r0, #21
   123d0:	eafffe6e 	b	11d90 <bcm2835_gpio_fsel>

000123d4 <bcm2835_aux_spi_CalcClockDivider>:
   123d4:	e59f3054 	ldr	r3, [pc, #84]	; 12430 <bcm2835_aux_spi_CalcClockDivider+0x5c>
   123d8:	e1500003 	cmp	r0, r3
   123dc:	9a000004 	bls	123f4 <bcm2835_aux_spi_CalcClockDivider+0x20>
   123e0:	e59f304c 	ldr	r3, [pc, #76]	; 12434 <bcm2835_aux_spi_CalcClockDivider+0x60>
   123e4:	e1500003 	cmp	r0, r3
   123e8:	9a000003 	bls	123fc <bcm2835_aux_spi_CalcClockDivider+0x28>
   123ec:	e3a00000 	mov	r0, #0
   123f0:	e12fff1e 	bx	lr
   123f4:	e59f003c 	ldr	r0, [pc, #60]	; 12438 <bcm2835_aux_spi_CalcClockDivider+0x64>
   123f8:	e12fff1e 	bx	lr
   123fc:	e0800003 	add	r0, r0, r3
   12400:	e59f1034 	ldr	r1, [pc, #52]	; 1243c <bcm2835_aux_spi_CalcClockDivider+0x68>
   12404:	e1a00080 	lsl	r0, r0, #1
   12408:	e0801001 	add	r1, r0, r1
   1240c:	e92d4010 	push	{r4, lr}
   12410:	e2400001 	sub	r0, r0, #1
   12414:	ebfffd47 	bl	11938 <__aeabi_uidiv>
   12418:	e59f3018 	ldr	r3, [pc, #24]	; 12438 <bcm2835_aux_spi_CalcClockDivider+0x64>
   1241c:	e2400001 	sub	r0, r0, #1
   12420:	e6ff0070 	uxth	r0, r0
   12424:	e1500003 	cmp	r0, r3
   12428:	21a00003 	movcs	r0, r3
   1242c:	e8bd8010 	pop	{r4, pc}
   12430:	00007723 	andeq	r7, r0, r3, lsr #14
   12434:	07735940 	ldrbeq	r5, [r3, -r0, asr #18]!
   12438:	00000fff 	strdeq	r0, [r0], -pc	; <UNPREDICTABLE>
   1243c:	f1194d80 			; <UNDEFINED> instruction: 0xf1194d80

00012440 <bcm2835_aux_spi_setClockDivider>:
   12440:	e59f3008 	ldr	r3, [pc, #8]	; 12450 <bcm2835_aux_spi_setClockDivider+0x10>
   12444:	e08f3003 	add	r3, pc, r3
   12448:	e5830000 	str	r0, [r3]
   1244c:	e12fff1e 	bx	lr
   12450:	00006e04 	andeq	r6, r0, r4, lsl #28

00012454 <bcm2835_aux_spi_begin>:
   12454:	e92d4070 	push	{r4, r5, r6, lr}
   12458:	e59f2090 	ldr	r2, [pc, #144]	; 124f0 <bcm2835_aux_spi_begin+0x9c>
   1245c:	e59f3090 	ldr	r3, [pc, #144]	; 124f4 <bcm2835_aux_spi_begin+0xa0>
   12460:	e08f2002 	add	r2, pc, r2
   12464:	e7923003 	ldr	r3, [r2, r3]
   12468:	e5934000 	ldr	r4, [r3]
   1246c:	e3540000 	cmp	r4, #0
   12470:	0a00001c 	beq	124e8 <bcm2835_aux_spi_begin+0x94>
   12474:	e59f307c 	ldr	r3, [pc, #124]	; 124f8 <bcm2835_aux_spi_begin+0xa4>
   12478:	e3a01003 	mov	r1, #3
   1247c:	e7923003 	ldr	r3, [r2, r3]
   12480:	e3a00010 	mov	r0, #16
   12484:	e5935000 	ldr	r5, [r3]
   12488:	ebfffe40 	bl	11d90 <bcm2835_gpio_fsel>
   1248c:	e3a01003 	mov	r1, #3
   12490:	e3a00013 	mov	r0, #19
   12494:	ebfffe3d 	bl	11d90 <bcm2835_gpio_fsel>
   12498:	e3a01003 	mov	r1, #3
   1249c:	e3a00014 	mov	r0, #20
   124a0:	ebfffe3a 	bl	11d90 <bcm2835_gpio_fsel>
   124a4:	e3a01003 	mov	r1, #3
   124a8:	e3a00015 	mov	r0, #21
   124ac:	ebfffe37 	bl	11d90 <bcm2835_gpio_fsel>
   124b0:	e59f0044 	ldr	r0, [pc, #68]	; 124fc <bcm2835_aux_spi_begin+0xa8>
   124b4:	ebffffc6 	bl	123d4 <bcm2835_aux_spi_CalcClockDivider>
   124b8:	ebffffe0 	bl	12440 <bcm2835_aux_spi_setClockDivider>
   124bc:	e2850004 	add	r0, r5, #4
   124c0:	e3a01002 	mov	r1, #2
   124c4:	ebfffd60 	bl	11a4c <bcm2835_peri_write>
   124c8:	e2840004 	add	r0, r4, #4
   124cc:	e3a01000 	mov	r1, #0
   124d0:	ebfffd5d 	bl	11a4c <bcm2835_peri_write>
   124d4:	e1a00004 	mov	r0, r4
   124d8:	e3a01c02 	mov	r1, #512	; 0x200
   124dc:	ebfffd5a 	bl	11a4c <bcm2835_peri_write>
   124e0:	e3a00001 	mov	r0, #1
   124e4:	e8bd8070 	pop	{r4, r5, r6, pc}
   124e8:	e1a00004 	mov	r0, r4
   124ec:	e8bd8070 	pop	{r4, r5, r6, pc}
   124f0:	00006974 	andeq	r6, r0, r4, ror r9
   124f4:	000000ac 	andeq	r0, r0, ip, lsr #1
   124f8:	0000010c 	andeq	r0, r0, ip, lsl #2
   124fc:	000f4240 	andeq	r4, pc, r0, asr #4

00012500 <bcm2835_aux_spi_write>:
   12500:	e92d4070 	push	{r4, r5, r6, lr}
   12504:	e59f3060 	ldr	r3, [pc, #96]	; 1256c <bcm2835_aux_spi_write+0x6c>
   12508:	e59f1060 	ldr	r1, [pc, #96]	; 12570 <bcm2835_aux_spi_write+0x70>
   1250c:	e08f3003 	add	r3, pc, r3
   12510:	e59f205c 	ldr	r2, [pc, #92]	; 12574 <bcm2835_aux_spi_write+0x74>
   12514:	e793c001 	ldr	ip, [r3, r1]
   12518:	e08f2002 	add	r2, pc, r2
   1251c:	e59c5000 	ldr	r5, [ip]
   12520:	e5921000 	ldr	r1, [r2]
   12524:	e59f204c 	ldr	r2, [pc, #76]	; 12578 <bcm2835_aux_spi_write+0x78>
   12528:	e1a06000 	mov	r6, r0
   1252c:	e1a00005 	mov	r0, r5
   12530:	e1821a01 	orr	r1, r2, r1, lsl #20
   12534:	ebfffd44 	bl	11a4c <bcm2835_peri_write>
   12538:	e2850004 	add	r0, r5, #4
   1253c:	e3a01002 	mov	r1, #2
   12540:	e2854008 	add	r4, r5, #8
   12544:	e2855020 	add	r5, r5, #32
   12548:	ebfffd3f 	bl	11a4c <bcm2835_peri_write>
   1254c:	e1a00004 	mov	r0, r4
   12550:	ebfffd77 	bl	11b34 <bcm2835_peri_read>
   12554:	e3100b01 	tst	r0, #1024	; 0x400
   12558:	1afffffb 	bne	1254c <bcm2835_aux_spi_write+0x4c>
   1255c:	e1a01806 	lsl	r1, r6, #16
   12560:	e1a00005 	mov	r0, r5
   12564:	e8bd4070 	pop	{r4, r5, r6, lr}
   12568:	eafffd37 	b	11a4c <bcm2835_peri_write>
   1256c:	000068c8 	andeq	r6, r0, r8, asr #17
   12570:	000000ac 	andeq	r0, r0, ip, lsr #1
   12574:	00006d30 	andeq	r6, r0, r0, lsr sp
   12578:	00060850 	andeq	r0, r6, r0, asr r8

0001257c <bcm2835_aux_spi_writenb>:
   1257c:	e92d41f0 	push	{r4, r5, r6, r7, r8, lr}
   12580:	e1a06001 	mov	r6, r1
   12584:	e59f30e0 	ldr	r3, [pc, #224]	; 1266c <bcm2835_aux_spi_writenb+0xf0>
   12588:	e59f10e0 	ldr	r1, [pc, #224]	; 12670 <bcm2835_aux_spi_writenb+0xf4>
   1258c:	e08f3003 	add	r3, pc, r3
   12590:	e59f20dc 	ldr	r2, [pc, #220]	; 12674 <bcm2835_aux_spi_writenb+0xf8>
   12594:	e793c001 	ldr	ip, [r3, r1]
   12598:	e08f2002 	add	r2, pc, r2
   1259c:	e59c7000 	ldr	r7, [ip]
   125a0:	e5921000 	ldr	r1, [r2]
   125a4:	e59f20cc 	ldr	r2, [pc, #204]	; 12678 <bcm2835_aux_spi_writenb+0xfc>
   125a8:	e1a05000 	mov	r5, r0
   125ac:	e1a00007 	mov	r0, r7
   125b0:	e1821a01 	orr	r1, r2, r1, lsl #20
   125b4:	ebfffd24 	bl	11a4c <bcm2835_peri_write>
   125b8:	e2870004 	add	r0, r7, #4
   125bc:	e3a01002 	mov	r1, #2
   125c0:	ebfffd21 	bl	11a4c <bcm2835_peri_write>
   125c4:	e3560000 	cmp	r6, #0
   125c8:	e2874008 	add	r4, r7, #8
   125cc:	e2878030 	add	r8, r7, #48	; 0x30
   125d0:	e2877020 	add	r7, r7, #32
   125d4:	08bd81f0 	popeq	{r4, r5, r6, r7, r8, pc}
   125d8:	e1a00004 	mov	r0, r4
   125dc:	ebfffd54 	bl	11b34 <bcm2835_peri_read>
   125e0:	e2100b01 	ands	r0, r0, #1024	; 0x400
   125e4:	1afffffb 	bne	125d8 <bcm2835_aux_spi_writenb+0x5c>
   125e8:	e3560003 	cmp	r6, #3
   125ec:	31a01006 	movcc	r1, r6
   125f0:	23a01003 	movcs	r1, #3
   125f4:	e3a03010 	mov	r3, #16
   125f8:	e0612e81 	rsb	r2, r1, r1, lsl #29
   125fc:	e1a02182 	lsl	r2, r2, #3
   12600:	e0822003 	add	r2, r2, r3
   12604:	e3550000 	cmp	r5, #0
   12608:	0a000013 	beq	1265c <bcm2835_aux_spi_writenb+0xe0>
   1260c:	e5d5c000 	ldrb	ip, [r5]
   12610:	e2855001 	add	r5, r5, #1
   12614:	e180031c 	orr	r0, r0, ip, lsl r3
   12618:	e2433008 	sub	r3, r3, #8
   1261c:	e1520003 	cmp	r2, r3
   12620:	1afffff7 	bne	12604 <bcm2835_aux_spi_writenb+0x88>
   12624:	e0566001 	subs	r6, r6, r1
   12628:	e1801d81 	orr	r1, r0, r1, lsl #27
   1262c:	11a00008 	movne	r0, r8
   12630:	01a00007 	moveq	r0, r7
   12634:	ebfffd04 	bl	11a4c <bcm2835_peri_write>
   12638:	e1a00004 	mov	r0, r4
   1263c:	ebfffd3c 	bl	11b34 <bcm2835_peri_read>
   12640:	e3100040 	tst	r0, #64	; 0x40
   12644:	1afffffb 	bne	12638 <bcm2835_aux_spi_writenb+0xbc>
   12648:	e1a00007 	mov	r0, r7
   1264c:	ebfffd38 	bl	11b34 <bcm2835_peri_read>
   12650:	e3560000 	cmp	r6, #0
   12654:	1affffdf 	bne	125d8 <bcm2835_aux_spi_writenb+0x5c>
   12658:	e8bd81f0 	pop	{r4, r5, r6, r7, r8, pc}
   1265c:	e2433008 	sub	r3, r3, #8
   12660:	e1530002 	cmp	r3, r2
   12664:	1affffeb 	bne	12618 <bcm2835_aux_spi_writenb+0x9c>
   12668:	eaffffed 	b	12624 <bcm2835_aux_spi_writenb+0xa8>
   1266c:	00006848 	andeq	r6, r0, r8, asr #16
   12670:	000000ac 	andeq	r0, r0, ip, lsr #1
   12674:	00006cb0 			; <UNDEFINED> instruction: 0x00006cb0
   12678:	00064840 	andeq	r4, r6, r0, asr #16

0001267c <bcm2835_aux_spi_transfernb>:
   1267c:	e92d4ff0 	push	{r4, r5, r6, r7, r8, r9, sl, fp, lr}
   12680:	e1a0a001 	mov	sl, r1
   12684:	e1a06002 	mov	r6, r2
   12688:	e1a0700a 	mov	r7, sl
   1268c:	e1a04006 	mov	r4, r6
   12690:	e59f31f4 	ldr	r3, [pc, #500]	; 1288c <bcm2835_aux_spi_transfernb+0x210>
   12694:	e59f11f4 	ldr	r1, [pc, #500]	; 12890 <bcm2835_aux_spi_transfernb+0x214>
   12698:	e08f3003 	add	r3, pc, r3
   1269c:	e59f21f0 	ldr	r2, [pc, #496]	; 12894 <bcm2835_aux_spi_transfernb+0x218>
   126a0:	e793c001 	ldr	ip, [r3, r1]
   126a4:	e08f2002 	add	r2, pc, r2
   126a8:	e59c9000 	ldr	r9, [ip]
   126ac:	e5921000 	ldr	r1, [r2]
   126b0:	e59f21e0 	ldr	r2, [pc, #480]	; 12898 <bcm2835_aux_spi_transfernb+0x21c>
   126b4:	e24dd00c 	sub	sp, sp, #12
   126b8:	e1821a01 	orr	r1, r2, r1, lsl #20
   126bc:	e1a05000 	mov	r5, r0
   126c0:	e1a00009 	mov	r0, r9
   126c4:	ebfffce0 	bl	11a4c <bcm2835_peri_write>
   126c8:	e2890004 	add	r0, r9, #4
   126cc:	e3a01002 	mov	r1, #2
   126d0:	ebfffcdd 	bl	11a4c <bcm2835_peri_write>
   126d4:	e2893030 	add	r3, r9, #48	; 0x30
   126d8:	e2898008 	add	r8, r9, #8
   126dc:	e58d3004 	str	r3, [sp, #4]
   126e0:	e2899020 	add	r9, r9, #32
   126e4:	e1963004 	orrs	r3, r6, r4
   126e8:	0a000065 	beq	12884 <bcm2835_aux_spi_transfernb+0x208>
   126ec:	e1a00008 	mov	r0, r8
   126f0:	ebfffd0f 	bl	11b34 <bcm2835_peri_read>
   126f4:	e2100b01 	ands	r0, r0, #1024	; 0x400
   126f8:	1a00001e 	bne	12778 <bcm2835_aux_spi_transfernb+0xfc>
   126fc:	e3560000 	cmp	r6, #0
   12700:	0a00001c 	beq	12778 <bcm2835_aux_spi_transfernb+0xfc>
   12704:	e3560003 	cmp	r6, #3
   12708:	31a01006 	movcc	r1, r6
   1270c:	23a01003 	movcs	r1, #3
   12710:	e3a03010 	mov	r3, #16
   12714:	e0612e81 	rsb	r2, r1, r1, lsl #29
   12718:	e1a02182 	lsl	r2, r2, #3
   1271c:	e0822003 	add	r2, r2, r3
   12720:	e3550000 	cmp	r5, #0
   12724:	0a00004b 	beq	12858 <bcm2835_aux_spi_transfernb+0x1dc>
   12728:	e5d5c000 	ldrb	ip, [r5]
   1272c:	e2855001 	add	r5, r5, #1
   12730:	e180031c 	orr	r0, r0, ip, lsl r3
   12734:	e2433008 	sub	r3, r3, #8
   12738:	e1530002 	cmp	r3, r2
   1273c:	1afffff7 	bne	12720 <bcm2835_aux_spi_transfernb+0xa4>
   12740:	e0566001 	subs	r6, r6, r1
   12744:	e1801d81 	orr	r1, r0, r1, lsl #27
   12748:	0a000048 	beq	12870 <bcm2835_aux_spi_transfernb+0x1f4>
   1274c:	e59d0004 	ldr	r0, [sp, #4]
   12750:	ebfffcbd 	bl	11a4c <bcm2835_peri_write>
   12754:	eaffffe4 	b	126ec <bcm2835_aux_spi_transfernb+0x70>
   12758:	e1a0c007 	mov	ip, r7
   1275c:	e4cce002 	strb	lr, [ip], #2
   12760:	e1a07002 	mov	r7, r2
   12764:	e1a0200c 	mov	r2, ip
   12768:	e5c71000 	strb	r1, [r7]
   1276c:	e2827001 	add	r7, r2, #1
   12770:	e5c20000 	strb	r0, [r2]
   12774:	e044400b 	sub	r4, r4, fp
   12778:	e1a00008 	mov	r0, r8
   1277c:	ebfffcec 	bl	11b34 <bcm2835_peri_read>
   12780:	e3100080 	tst	r0, #128	; 0x80
   12784:	1a00001b 	bne	127f8 <bcm2835_aux_spi_transfernb+0x17c>
   12788:	e3540000 	cmp	r4, #0
   1278c:	0a000019 	beq	127f8 <bcm2835_aux_spi_transfernb+0x17c>
   12790:	e3540003 	cmp	r4, #3
   12794:	e1a00009 	mov	r0, r9
   12798:	31a0b004 	movcc	fp, r4
   1279c:	23a0b003 	movcs	fp, #3
   127a0:	ebfffce3 	bl	11b34 <bcm2835_peri_read>
   127a4:	e35a0000 	cmp	sl, #0
   127a8:	e1a01420 	lsr	r1, r0, #8
   127ac:	0afffff0 	beq	12774 <bcm2835_aux_spi_transfernb+0xf8>
   127b0:	e35b0002 	cmp	fp, #2
   127b4:	e2872001 	add	r2, r7, #1
   127b8:	0affffea 	beq	12768 <bcm2835_aux_spi_transfernb+0xec>
   127bc:	e35b0003 	cmp	fp, #3
   127c0:	e1a0e820 	lsr	lr, r0, #16
   127c4:	0affffe3 	beq	12758 <bcm2835_aux_spi_transfernb+0xdc>
   127c8:	e1a01002 	mov	r1, r2
   127cc:	e1a02007 	mov	r2, r7
   127d0:	e1a07001 	mov	r7, r1
   127d4:	eaffffe5 	b	12770 <bcm2835_aux_spi_transfernb+0xf4>
   127d8:	e1a0c007 	mov	ip, r7
   127dc:	e4cce002 	strb	lr, [ip], #2
   127e0:	e1a07002 	mov	r7, r2
   127e4:	e1a0200c 	mov	r2, ip
   127e8:	e5c71000 	strb	r1, [r7]
   127ec:	e2827001 	add	r7, r2, #1
   127f0:	e5c20000 	strb	r0, [r2]
   127f4:	e044400b 	sub	r4, r4, fp
   127f8:	e1a00008 	mov	r0, r8
   127fc:	ebfffccc 	bl	11b34 <bcm2835_peri_read>
   12800:	e3100040 	tst	r0, #64	; 0x40
   12804:	1affffb6 	bne	126e4 <bcm2835_aux_spi_transfernb+0x68>
   12808:	e3540000 	cmp	r4, #0
   1280c:	0affffb4 	beq	126e4 <bcm2835_aux_spi_transfernb+0x68>
   12810:	e3540003 	cmp	r4, #3
   12814:	e1a00009 	mov	r0, r9
   12818:	31a0b004 	movcc	fp, r4
   1281c:	23a0b003 	movcs	fp, #3
   12820:	ebfffcc3 	bl	11b34 <bcm2835_peri_read>
   12824:	e35a0000 	cmp	sl, #0
   12828:	e1a01420 	lsr	r1, r0, #8
   1282c:	0afffff0 	beq	127f4 <bcm2835_aux_spi_transfernb+0x178>
   12830:	e35b0002 	cmp	fp, #2
   12834:	e2872001 	add	r2, r7, #1
   12838:	0affffea 	beq	127e8 <bcm2835_aux_spi_transfernb+0x16c>
   1283c:	e35b0003 	cmp	fp, #3
   12840:	e1a0e820 	lsr	lr, r0, #16
   12844:	0affffe3 	beq	127d8 <bcm2835_aux_spi_transfernb+0x15c>
   12848:	e1a01002 	mov	r1, r2
   1284c:	e1a02007 	mov	r2, r7
   12850:	e1a07001 	mov	r7, r1
   12854:	eaffffe5 	b	127f0 <bcm2835_aux_spi_transfernb+0x174>
   12858:	e2433008 	sub	r3, r3, #8
   1285c:	e1530002 	cmp	r3, r2
   12860:	1affffb3 	bne	12734 <bcm2835_aux_spi_transfernb+0xb8>
   12864:	e0566001 	subs	r6, r6, r1
   12868:	e1801d81 	orr	r1, r0, r1, lsl #27
   1286c:	1affffb6 	bne	1274c <bcm2835_aux_spi_transfernb+0xd0>
   12870:	e1a00009 	mov	r0, r9
   12874:	ebfffc74 	bl	11a4c <bcm2835_peri_write>
   12878:	e1a00008 	mov	r0, r8
   1287c:	ebfffcac 	bl	11b34 <bcm2835_peri_read>
   12880:	eaffffbc 	b	12778 <bcm2835_aux_spi_transfernb+0xfc>
   12884:	e28dd00c 	add	sp, sp, #12
   12888:	e8bd8ff0 	pop	{r4, r5, r6, r7, r8, r9, sl, fp, pc}
   1288c:	0000673c 	andeq	r6, r0, ip, lsr r7
   12890:	000000ac 	andeq	r0, r0, ip, lsr #1
   12894:	00006ba4 	andeq	r6, r0, r4, lsr #23
   12898:	00064840 	andeq	r4, r6, r0, asr #16

0001289c <bcm2835_aux_spi_transfern>:
   1289c:	e1a02001 	mov	r2, r1
   128a0:	e1a01000 	mov	r1, r0
   128a4:	eaffff74 	b	1267c <bcm2835_aux_spi_transfernb>

000128a8 <bcm2835_init>:
   128a8:	e3a0c202 	mov	ip, #536870912	; 0x20000000
   128ac:	e59f30b8 	ldr	r3, [pc, #184]	; 1296c <bcm2835_init+0xc4>
   128b0:	e59f10b8 	ldr	r1, [pc, #184]	; 12970 <bcm2835_init+0xc8>
   128b4:	e08f3003 	add	r3, pc, r3
   128b8:	e7931001 	ldr	r1, [r3, r1]
   128bc:	e59f20b0 	ldr	r2, [pc, #176]	; 12974 <bcm2835_init+0xcc>
   128c0:	e581c000 	str	ip, [r1]
   128c4:	e7931002 	ldr	r1, [r3, r2]
   128c8:	e59f00a8 	ldr	r0, [pc, #168]	; 12978 <bcm2835_init+0xd0>
   128cc:	e59f20a8 	ldr	r2, [pc, #168]	; 1297c <bcm2835_init+0xd4>
   128d0:	e5810000 	str	r0, [r1]
   128d4:	e7931002 	ldr	r1, [r3, r2]
   128d8:	e2800a01 	add	r0, r0, #4096	; 0x1000
   128dc:	e59f209c 	ldr	r2, [pc, #156]	; 12980 <bcm2835_init+0xd8>
   128e0:	e5810000 	str	r0, [r1]
   128e4:	e7931002 	ldr	r1, [r3, r2]
   128e8:	e2800aff 	add	r0, r0, #1044480	; 0xff000
   128ec:	e59f2090 	ldr	r2, [pc, #144]	; 12984 <bcm2835_init+0xdc>
   128f0:	e5810000 	str	r0, [r1]
   128f4:	e7931002 	ldr	r1, [r3, r2]
   128f8:	e2800903 	add	r0, r0, #49152	; 0xc000
   128fc:	e59f2084 	ldr	r2, [pc, #132]	; 12988 <bcm2835_init+0xe0>
   12900:	e5810000 	str	r0, [r1]
   12904:	e7931002 	ldr	r1, [r3, r2]
   12908:	e2400902 	sub	r0, r0, #32768	; 0x8000
   1290c:	e59f2078 	ldr	r2, [pc, #120]	; 1298c <bcm2835_init+0xe4>
   12910:	e5810000 	str	r0, [r1]
   12914:	e7931002 	ldr	r1, [r3, r2]
   12918:	e2800a01 	add	r0, r0, #4096	; 0x1000
   1291c:	e59f206c 	ldr	r2, [pc, #108]	; 12990 <bcm2835_init+0xe8>
   12920:	e5810000 	str	r0, [r1]
   12924:	e7931002 	ldr	r1, [r3, r2]
   12928:	e59f0064 	ldr	r0, [pc, #100]	; 12994 <bcm2835_init+0xec>
   1292c:	e59f2064 	ldr	r2, [pc, #100]	; 12998 <bcm2835_init+0xf0>
   12930:	e5810000 	str	r0, [r1]
   12934:	e7931002 	ldr	r1, [r3, r2]
   12938:	e59f005c 	ldr	r0, [pc, #92]	; 1299c <bcm2835_init+0xf4>
   1293c:	e59f205c 	ldr	r2, [pc, #92]	; 129a0 <bcm2835_init+0xf8>
   12940:	e5810000 	str	r0, [r1]
   12944:	e7931002 	ldr	r1, [r3, r2]
   12948:	e2800821 	add	r0, r0, #2162688	; 0x210000
   1294c:	e2800a02 	add	r0, r0, #8192	; 0x2000
   12950:	e59f204c 	ldr	r2, [pc, #76]	; 129a4 <bcm2835_init+0xfc>
   12954:	e5810000 	str	r0, [r1]
   12958:	e7932002 	ldr	r2, [r3, r2]
   1295c:	e59f1044 	ldr	r1, [pc, #68]	; 129a8 <bcm2835_init+0x100>
   12960:	e3a00001 	mov	r0, #1
   12964:	e5821000 	str	r1, [r2]
   12968:	e12fff1e 	bx	lr
   1296c:	00006520 	andeq	r6, r0, r0, lsr #10
   12970:	00000060 	andeq	r0, r0, r0, rrx
   12974:	00000128 	andeq	r0, r0, r8, lsr #2
   12978:	20100000 	andscs	r0, r0, r0
   1297c:	0000006c 	andeq	r0, r0, ip, rrx
   12980:	00000114 	andeq	r0, r0, r4, lsl r1
   12984:	0000014c 	andeq	r0, r0, ip, asr #2
   12988:	000001e4 	andeq	r0, r0, r4, ror #3
   1298c:	00000124 	andeq	r0, r0, r4, lsr #2
   12990:	000001d8 	ldrdeq	r0, [r0], -r8
   12994:	20804000 	addcs	r4, r0, r0
   12998:	000001c0 	andeq	r0, r0, r0, asr #3
   1299c:	20003000 	andcs	r3, r0, r0
   129a0:	0000010c 	andeq	r0, r0, ip, lsl #2
   129a4:	000000ac 	andeq	r0, r0, ip, lsr #1
   129a8:	20215080 	eorcs	r5, r1, r0, lsl #1

000129ac <bcm2835_close>:
   129ac:	e3a02000 	mov	r2, #0
   129b0:	e59f308c 	ldr	r3, [pc, #140]	; 12a44 <bcm2835_close+0x98>
   129b4:	e59f108c 	ldr	r1, [pc, #140]	; 12a48 <bcm2835_close+0x9c>
   129b8:	e08f3003 	add	r3, pc, r3
   129bc:	e793c001 	ldr	ip, [r3, r1]
   129c0:	e59f0084 	ldr	r0, [pc, #132]	; 12a4c <bcm2835_close+0xa0>
   129c4:	e58c2000 	str	r2, [ip]
   129c8:	e793c000 	ldr	ip, [r3, r0]
   129cc:	e59f107c 	ldr	r1, [pc, #124]	; 12a50 <bcm2835_close+0xa4>
   129d0:	e58c2000 	str	r2, [ip]
   129d4:	e793c001 	ldr	ip, [r3, r1]
   129d8:	e59f0074 	ldr	r0, [pc, #116]	; 12a54 <bcm2835_close+0xa8>
   129dc:	e58c2000 	str	r2, [ip]
   129e0:	e793c000 	ldr	ip, [r3, r0]
   129e4:	e59f106c 	ldr	r1, [pc, #108]	; 12a58 <bcm2835_close+0xac>
   129e8:	e58c2000 	str	r2, [ip]
   129ec:	e793c001 	ldr	ip, [r3, r1]
   129f0:	e59f0064 	ldr	r0, [pc, #100]	; 12a5c <bcm2835_close+0xb0>
   129f4:	e58c2000 	str	r2, [ip]
   129f8:	e793c000 	ldr	ip, [r3, r0]
   129fc:	e59f105c 	ldr	r1, [pc, #92]	; 12a60 <bcm2835_close+0xb4>
   12a00:	e58c2000 	str	r2, [ip]
   12a04:	e793c001 	ldr	ip, [r3, r1]
   12a08:	e59f0054 	ldr	r0, [pc, #84]	; 12a64 <bcm2835_close+0xb8>
   12a0c:	e58c2000 	str	r2, [ip]
   12a10:	e793c000 	ldr	ip, [r3, r0]
   12a14:	e59f104c 	ldr	r1, [pc, #76]	; 12a68 <bcm2835_close+0xbc>
   12a18:	e58c2000 	str	r2, [ip]
   12a1c:	e793c001 	ldr	ip, [r3, r1]
   12a20:	e59f0044 	ldr	r0, [pc, #68]	; 12a6c <bcm2835_close+0xc0>
   12a24:	e58c2000 	str	r2, [ip]
   12a28:	e793c000 	ldr	ip, [r3, r0]
   12a2c:	e59f103c 	ldr	r1, [pc, #60]	; 12a70 <bcm2835_close+0xc4>
   12a30:	e58c2000 	str	r2, [ip]
   12a34:	e7933001 	ldr	r3, [r3, r1]
   12a38:	e3a00001 	mov	r0, #1
   12a3c:	e5832000 	str	r2, [r3]
   12a40:	e12fff1e 	bx	lr
   12a44:	0000641c 	andeq	r6, r0, ip, lsl r4
   12a48:	00000060 	andeq	r0, r0, r0, rrx
   12a4c:	00000114 	andeq	r0, r0, r4, lsl r1
   12a50:	0000014c 	andeq	r0, r0, ip, asr #2
   12a54:	0000006c 	andeq	r0, r0, ip, rrx
   12a58:	00000128 	andeq	r0, r0, r8, lsr #2
   12a5c:	000001e4 	andeq	r0, r0, r4, ror #3
   12a60:	00000124 	andeq	r0, r0, r4, lsr #2
   12a64:	000001d8 	ldrdeq	r0, [r0], -r8
   12a68:	000001c0 	andeq	r0, r0, r0, asr #3
   12a6c:	0000010c 	andeq	r0, r0, ip, lsl #2
   12a70:	000000ac 	andeq	r0, r0, ip, lsr #1

00012a74 <__aeabi_idiv>:
   12a74:	e3a00000 	mov	r0, #0
   12a78:	e12fff1e 	bx	lr

00012a7c <Touch_Init>:
   12a7c:	e92d4010 	push	{r4, lr}
   12a80:	e3a01000 	mov	r1, #0
   12a84:	e3a0000b 	mov	r0, #11
   12a88:	ebfffc23 	bl	11b1c <bcm2835_gpio_write>
   12a8c:	e3a01001 	mov	r1, #1
   12a90:	e3a0000a 	mov	r0, #10
   12a94:	ebfffc20 	bl	11b1c <bcm2835_gpio_write>
   12a98:	e3a0202d 	mov	r2, #45	; 0x2d
   12a9c:	e3a0c0be 	mov	ip, #190	; 0xbe
   12aa0:	e59f0054 	ldr	r0, [pc, #84]	; 12afc <Touch_Init+0x80>
   12aa4:	e59f3054 	ldr	r3, [pc, #84]	; 12b00 <Touch_Init+0x84>
   12aa8:	e08f0000 	add	r0, pc, r0
   12aac:	e7903003 	ldr	r3, [r0, r3]
   12ab0:	e59fe04c 	ldr	lr, [pc, #76]	; 12b04 <Touch_Init+0x88>
   12ab4:	e59f104c 	ldr	r1, [pc, #76]	; 12b08 <Touch_Init+0x8c>
   12ab8:	e583e00c 	str	lr, [r3, #12]
   12abc:	e5832000 	str	r2, [r3]
   12ac0:	e5832004 	str	r2, [r3, #4]
   12ac4:	e5832008 	str	r2, [r3, #8]
   12ac8:	e583c010 	str	ip, [r3, #16]
   12acc:	e583c014 	str	ip, [r3, #20]
   12ad0:	e7903001 	ldr	r3, [r0, r1]
   12ad4:	e3a01001 	mov	r1, #1
   12ad8:	e583e00c 	str	lr, [r3, #12]
   12adc:	e3a00008 	mov	r0, #8
   12ae0:	e8bd4010 	pop	{r4, lr}
   12ae4:	e5832000 	str	r2, [r3]
   12ae8:	e5832004 	str	r2, [r3, #4]
   12aec:	e5832008 	str	r2, [r3, #8]
   12af0:	e583c010 	str	ip, [r3, #16]
   12af4:	e583c014 	str	ip, [r3, #20]
   12af8:	eafffc07 	b	11b1c <bcm2835_gpio_write>
   12afc:	0000632c 	andeq	r6, r0, ip, lsr #6
   12b00:	00000154 	andeq	r0, r0, r4, asr r1
   12b04:	0000010e 	andeq	r0, r0, lr, lsl #2
   12b08:	00000134 	andeq	r0, r0, r4, lsr r1

00012b0c <Read_XY>:
   12b0c:	e92d4010 	push	{r4, lr}
   12b10:	e1a04000 	mov	r4, r0
   12b14:	e3a01000 	mov	r1, #0
   12b18:	e3a0000b 	mov	r0, #11
   12b1c:	ebfffbfe 	bl	11b1c <bcm2835_gpio_write>
   12b20:	e3a01001 	mov	r1, #1
   12b24:	e3a0000a 	mov	r0, #10
   12b28:	ebfffbfb 	bl	11b1c <bcm2835_gpio_write>
   12b2c:	e3a01000 	mov	r1, #0
   12b30:	e3a00008 	mov	r0, #8
   12b34:	ebfffbf8 	bl	11b1c <bcm2835_gpio_write>
   12b38:	e1a00004 	mov	r0, r4
   12b3c:	eb000bfd 	bl	15b38 <spi_man_send>
   12b40:	e3a01001 	mov	r1, #1
   12b44:	e3a0000b 	mov	r0, #11
   12b48:	ebfffbf3 	bl	11b1c <bcm2835_gpio_write>
   12b4c:	e3a00f4b 	mov	r0, #300	; 0x12c
   12b50:	ebfffb77 	bl	11934 <Delayns>
   12b54:	e3a01000 	mov	r1, #0
   12b58:	e3a0000b 	mov	r0, #11
   12b5c:	ebfffbee 	bl	11b1c <bcm2835_gpio_write>
   12b60:	e3a00f4b 	mov	r0, #300	; 0x12c
   12b64:	ebfffb72 	bl	11934 <Delayns>
   12b68:	eb000c0d 	bl	15ba4 <spi_man_get>
   12b6c:	e1a04000 	mov	r4, r0
   12b70:	e3a01001 	mov	r1, #1
   12b74:	e3a00008 	mov	r0, #8
   12b78:	ebfffbe7 	bl	11b1c <bcm2835_gpio_write>
   12b7c:	e59f0004 	ldr	r0, [pc, #4]	; 12b88 <Read_XY+0x7c>
   12b80:	e00001a4 	and	r0, r0, r4, lsr #3
   12b84:	e8bd8010 	pop	{r4, pc}
   12b88:	00000fff 	strdeq	r0, [r0], -pc	; <UNPREDICTABLE>

00012b8c <TP_GetAdXY>:
   12b8c:	e92d4070 	push	{r4, r5, r6, lr}
   12b90:	e1a05000 	mov	r5, r0
   12b94:	e3a000d0 	mov	r0, #208	; 0xd0
   12b98:	e1a06001 	mov	r6, r1
   12b9c:	ebffffda 	bl	12b0c <Read_XY>
   12ba0:	e1a04000 	mov	r4, r0
   12ba4:	e3a00f4b 	mov	r0, #300	; 0x12c
   12ba8:	ebfffb61 	bl	11934 <Delayns>
   12bac:	e3a00090 	mov	r0, #144	; 0x90
   12bb0:	ebffffd5 	bl	12b0c <Read_XY>
   12bb4:	e3540000 	cmp	r4, #0
   12bb8:	c2444019 	subgt	r4, r4, #25
   12bbc:	e3500000 	cmp	r0, #0
   12bc0:	c2400037 	subgt	r0, r0, #55	; 0x37
   12bc4:	e5854000 	str	r4, [r5]
   12bc8:	e5860000 	str	r0, [r6]
   12bcc:	e8bd8070 	pop	{r4, r5, r6, pc}

00012bd0 <TP_DrawPoint>:
   12bd0:	e92d41f0 	push	{r4, r5, r6, r7, r8, lr}
   12bd4:	e1a04002 	mov	r4, r2
   12bd8:	e1a06001 	mov	r6, r1
   12bdc:	e1a07000 	mov	r7, r0
   12be0:	e2805001 	add	r5, r0, #1
   12be4:	eb000238 	bl	134cc <TFT_Dot>
   12be8:	e1a00005 	mov	r0, r5
   12bec:	e1a02004 	mov	r2, r4
   12bf0:	e1a01006 	mov	r1, r6
   12bf4:	e2866001 	add	r6, r6, #1
   12bf8:	eb000233 	bl	134cc <TFT_Dot>
   12bfc:	e1a00007 	mov	r0, r7
   12c00:	e1a01006 	mov	r1, r6
   12c04:	e1a02004 	mov	r2, r4
   12c08:	eb00022f 	bl	134cc <TFT_Dot>
   12c0c:	e1a02004 	mov	r2, r4
   12c10:	e1a01006 	mov	r1, r6
   12c14:	e1a00005 	mov	r0, r5
   12c18:	e8bd41f0 	pop	{r4, r5, r6, r7, r8, lr}
   12c1c:	ea00022a 	b	134cc <TFT_Dot>

00012c20 <Read_Ads7843>:
   12c20:	e92d4ff0 	push	{r4, r5, r6, r7, r8, r9, sl, fp, lr}
   12c24:	e1a07000 	mov	r7, r0
   12c28:	e24dd054 	sub	sp, sp, #84	; 0x54
   12c2c:	e3a02048 	mov	r2, #72	; 0x48
   12c30:	e3a01000 	mov	r1, #0
   12c34:	e28d0008 	add	r0, sp, #8
   12c38:	ebfffa11 	bl	11484 <memset>
   12c3c:	e59f2330 	ldr	r2, [pc, #816]	; 12f74 <Read_Ads7843+0x354>
   12c40:	e3570000 	cmp	r7, #0
   12c44:	e08f2002 	add	r2, pc, r2
   12c48:	0a0000b0 	beq	12f10 <Read_Ads7843+0x2f0>
   12c4c:	e3a01000 	mov	r1, #0
   12c50:	e59f3320 	ldr	r3, [pc, #800]	; 12f78 <Read_Ads7843+0x358>
   12c54:	e3a0000c 	mov	r0, #12
   12c58:	e7924003 	ldr	r4, [r2, r3]
   12c5c:	e5841000 	str	r1, [r4]
   12c60:	ebfffbb7 	bl	11b44 <bcm2835_gpio_lev>
   12c64:	e3500000 	cmp	r0, #0
   12c68:	e5942000 	ldr	r2, [r4]
   12c6c:	1a000012 	bne	12cbc <Read_Ads7843+0x9c>
   12c70:	e3520008 	cmp	r2, #8
   12c74:	8a000010 	bhi	12cbc <Read_Ads7843+0x9c>
   12c78:	e1a0500d 	mov	r5, sp
   12c7c:	e28d6004 	add	r6, sp, #4
   12c80:	e1a01006 	mov	r1, r6
   12c84:	e1a00005 	mov	r0, r5
   12c88:	ebffffbf 	bl	12b8c <TP_GetAdXY>
   12c8c:	e5943000 	ldr	r3, [r4]
   12c90:	e59dc000 	ldr	ip, [sp]
   12c94:	e2832001 	add	r2, r3, #1
   12c98:	e59d1004 	ldr	r1, [sp, #4]
   12c9c:	e28d0050 	add	r0, sp, #80	; 0x50
   12ca0:	e0800103 	add	r0, r0, r3, lsl #2
   12ca4:	e3520008 	cmp	r2, #8
   12ca8:	e28de050 	add	lr, sp, #80	; 0x50
   12cac:	e500c048 	str	ip, [r0, #-72]	; 0xffffffb8
   12cb0:	e5842000 	str	r2, [r4]
   12cb4:	e5001024 	str	r1, [r0, #-36]	; 0xffffffdc
   12cb8:	9afffff0 	bls	12c80 <Read_Ads7843+0x60>
   12cbc:	e3520009 	cmp	r2, #9
   12cc0:	0a000002 	beq	12cd0 <Read_Ads7843+0xb0>
   12cc4:	e3a00000 	mov	r0, #0
   12cc8:	e28dd054 	add	sp, sp, #84	; 0x54
   12ccc:	e8bd8ff0 	pop	{r4, r5, r6, r7, r8, r9, sl, fp, pc}
   12cd0:	e59d5018 	ldr	r5, [sp, #24]
   12cd4:	e59d3014 	ldr	r3, [sp, #20]
   12cd8:	e59de024 	ldr	lr, [sp, #36]	; 0x24
   12cdc:	e59d2020 	ldr	r2, [sp, #32]
   12ce0:	e0833005 	add	r3, r3, r5
   12ce4:	e59dc010 	ldr	ip, [sp, #16]
   12ce8:	e59d501c 	ldr	r5, [sp, #28]
   12cec:	e1cd00d8 	ldrd	r0, [sp, #8]
   12cf0:	e082200e 	add	r2, r2, lr
   12cf4:	e0800001 	add	r0, r0, r1
   12cf8:	e59de028 	ldr	lr, [sp, #40]	; 0x28
   12cfc:	e59f1278 	ldr	r1, [pc, #632]	; 12f7c <Read_Ads7843+0x35c>
   12d00:	e0833005 	add	r3, r3, r5
   12d04:	e080c00c 	add	ip, r0, ip
   12d08:	e082200e 	add	r2, r2, lr
   12d0c:	e0cba19c 	smull	sl, fp, ip, r1
   12d10:	e0c98193 	smull	r8, r9, r3, r1
   12d14:	e0c10192 	smull	r0, r1, r2, r1
   12d18:	e04bafcc 	sub	sl, fp, ip, asr #31
   12d1c:	e0493fc3 	sub	r3, r9, r3, asr #31
   12d20:	e04ac003 	sub	ip, sl, r3
   12d24:	e0412fc2 	sub	r2, r1, r2, asr #31
   12d28:	e0431002 	sub	r1, r3, r2
   12d2c:	e35c0000 	cmp	ip, #0
   12d30:	b26cc000 	rsblt	ip, ip, #0
   12d34:	e3510000 	cmp	r1, #0
   12d38:	b2611000 	rsblt	r1, r1, #0
   12d3c:	e35c0002 	cmp	ip, #2
   12d40:	c3510002 	cmpgt	r1, #2
   12d44:	c3a05001 	movgt	r5, #1
   12d48:	d3a05000 	movle	r5, #0
   12d4c:	e042e00a 	sub	lr, r2, sl
   12d50:	e35e0000 	cmp	lr, #0
   12d54:	b26ee000 	rsblt	lr, lr, #0
   12d58:	e35e0002 	cmp	lr, #2
   12d5c:	d3a05000 	movle	r5, #0
   12d60:	c2055001 	andgt	r5, r5, #1
   12d64:	e3a0600a 	mov	r6, #10
   12d68:	e3550000 	cmp	r5, #0
   12d6c:	e5846000 	str	r6, [r4]
   12d70:	1affffd3 	bne	12cc4 <Read_Ads7843+0xa4>
   12d74:	e15c0001 	cmp	ip, r1
   12d78:	ba000067 	blt	12f1c <Read_Ads7843+0x2fc>
   12d7c:	e151000e 	cmp	r1, lr
   12d80:	ca00006c 	bgt	12f38 <Read_Ads7843+0x318>
   12d84:	e0833002 	add	r3, r3, r2
   12d88:	e0833fa3 	add	r3, r3, r3, lsr #31
   12d8c:	e1a030c3 	asr	r3, r3, #1
   12d90:	e5873000 	str	r3, [r7]
   12d94:	e59de03c 	ldr	lr, [sp, #60]	; 0x3c
   12d98:	e59d3038 	ldr	r3, [sp, #56]	; 0x38
   12d9c:	e59d4030 	ldr	r4, [sp, #48]	; 0x30
   12da0:	e59d0048 	ldr	r0, [sp, #72]	; 0x48
   12da4:	e59d102c 	ldr	r1, [sp, #44]	; 0x2c
   12da8:	e59d2044 	ldr	r2, [sp, #68]	; 0x44
   12dac:	e083300e 	add	r3, r3, lr
   12db0:	e59dc034 	ldr	ip, [sp, #52]	; 0x34
   12db4:	e59de040 	ldr	lr, [sp, #64]	; 0x40
   12db8:	e0811004 	add	r1, r1, r4
   12dbc:	e0822000 	add	r2, r2, r0
   12dc0:	e59f41b4 	ldr	r4, [pc, #436]	; 12f7c <Read_Ads7843+0x35c>
   12dc4:	e59d004c 	ldr	r0, [sp, #76]	; 0x4c
   12dc8:	e081c00c 	add	ip, r1, ip
   12dcc:	e083300e 	add	r3, r3, lr
   12dd0:	e0822000 	add	r2, r2, r0
   12dd4:	e0c98493 	smull	r8, r9, r3, r4
   12dd8:	e0c1049c 	smull	r0, r1, ip, r4
   12ddc:	e0c54492 	smull	r4, r5, r2, r4
   12de0:	e0411fcc 	sub	r1, r1, ip, asr #31
   12de4:	e0493fc3 	sub	r3, r9, r3, asr #31
   12de8:	e041c003 	sub	ip, r1, r3
   12dec:	e0452fc2 	sub	r2, r5, r2, asr #31
   12df0:	e0430002 	sub	r0, r3, r2
   12df4:	e35c0000 	cmp	ip, #0
   12df8:	b26cc000 	rsblt	ip, ip, #0
   12dfc:	e3500000 	cmp	r0, #0
   12e00:	b2600000 	rsblt	r0, r0, #0
   12e04:	e35c0002 	cmp	ip, #2
   12e08:	c3500002 	cmpgt	r0, #2
   12e0c:	c3a04001 	movgt	r4, #1
   12e10:	d3a04000 	movle	r4, #0
   12e14:	e042e001 	sub	lr, r2, r1
   12e18:	e35e0000 	cmp	lr, #0
   12e1c:	b26ee000 	rsblt	lr, lr, #0
   12e20:	e35e0002 	cmp	lr, #2
   12e24:	d3a04000 	movle	r4, #0
   12e28:	c2044001 	andgt	r4, r4, #1
   12e2c:	e3540000 	cmp	r4, #0
   12e30:	1affffa3 	bne	12cc4 <Read_Ads7843+0xa4>
   12e34:	e15c0000 	cmp	ip, r0
   12e38:	aa000047 	bge	12f5c <Read_Ads7843+0x33c>
   12e3c:	e15c000e 	cmp	ip, lr
   12e40:	ca000041 	bgt	12f4c <Read_Ads7843+0x32c>
   12e44:	e0813003 	add	r3, r1, r3
   12e48:	e0833fa3 	add	r3, r3, r3, lsr #31
   12e4c:	e1a030c3 	asr	r3, r3, #1
   12e50:	e3530000 	cmp	r3, #0
   12e54:	b3a0c000 	movlt	ip, #0
   12e58:	ba000012 	blt	12ea8 <Read_Ads7843+0x288>
   12e5c:	e3a02001 	mov	r2, #1
   12e60:	e3a01000 	mov	r1, #0
   12e64:	e0833002 	add	r3, r3, r2
   12e68:	e1a0c001 	mov	ip, r1
   12e6c:	e1a00002 	mov	r0, r2
   12e70:	ea000007 	b	12e94 <Read_Ads7843+0x274>
   12e74:	e2822001 	add	r2, r2, #1
   12e78:	e3520005 	cmp	r2, #5
   12e7c:	e2800001 	add	r0, r0, #1
   12e80:	028cc003 	addeq	ip, ip, #3
   12e84:	03a02000 	moveq	r2, #0
   12e88:	e3500006 	cmp	r0, #6
   12e8c:	03a00000 	moveq	r0, #0
   12e90:	028cc001 	addeq	ip, ip, #1
   12e94:	e2811001 	add	r1, r1, #1
   12e98:	e1530001 	cmp	r3, r1
   12e9c:	1afffff4 	bne	12e74 <Read_Ads7843+0x254>
   12ea0:	e3520000 	cmp	r2, #0
   12ea4:	128cc001 	addne	ip, ip, #1
   12ea8:	e5970000 	ldr	r0, [r7]
   12eac:	e587c004 	str	ip, [r7, #4]
   12eb0:	e3500000 	cmp	r0, #0
   12eb4:	b3a0c000 	movlt	ip, #0
   12eb8:	ba000010 	blt	12f00 <Read_Ads7843+0x2e0>
   12ebc:	e3a01001 	mov	r1, #1
   12ec0:	e3a03000 	mov	r3, #0
   12ec4:	e0800001 	add	r0, r0, r1
   12ec8:	e1a0c003 	mov	ip, r3
   12ecc:	e1a02001 	mov	r2, r1
   12ed0:	ea000007 	b	12ef4 <Read_Ads7843+0x2d4>
   12ed4:	e3510001 	cmp	r1, #1
   12ed8:	e2822001 	add	r2, r2, #1
   12edc:	028cc001 	addeq	ip, ip, #1
   12ee0:	03a01000 	moveq	r1, #0
   12ee4:	13a01001 	movne	r1, #1
   12ee8:	e352001f 	cmp	r2, #31
   12eec:	03a02000 	moveq	r2, #0
   12ef0:	028cc001 	addeq	ip, ip, #1
   12ef4:	e2833001 	add	r3, r3, #1
   12ef8:	e1530000 	cmp	r3, r0
   12efc:	1afffff4 	bne	12ed4 <Read_Ads7843+0x2b4>
   12f00:	e3a00001 	mov	r0, #1
   12f04:	e587c000 	str	ip, [r7]
   12f08:	e28dd054 	add	sp, sp, #84	; 0x54
   12f0c:	e8bd8ff0 	pop	{r4, r5, r6, r7, r8, r9, sl, fp, pc}
   12f10:	e59f3068 	ldr	r3, [pc, #104]	; 12f80 <Read_Ads7843+0x360>
   12f14:	e7927003 	ldr	r7, [r2, r3]
   12f18:	eaffff4b 	b	12c4c <Read_Ads7843+0x2c>
   12f1c:	e15c000e 	cmp	ip, lr
   12f20:	ca000004 	bgt	12f38 <Read_Ads7843+0x318>
   12f24:	e08a2003 	add	r2, sl, r3
   12f28:	e0822fa2 	add	r2, r2, r2, lsr #31
   12f2c:	e1a020c2 	asr	r2, r2, #1
   12f30:	e5872000 	str	r2, [r7]
   12f34:	eaffff96 	b	12d94 <Read_Ads7843+0x174>
   12f38:	e08a2002 	add	r2, sl, r2
   12f3c:	e0822fa2 	add	r2, r2, r2, lsr #31
   12f40:	e1a020c2 	asr	r2, r2, #1
   12f44:	e5872000 	str	r2, [r7]
   12f48:	eaffff91 	b	12d94 <Read_Ads7843+0x174>
   12f4c:	e0813002 	add	r3, r1, r2
   12f50:	e0833fa3 	add	r3, r3, r3, lsr #31
   12f54:	e1a030c3 	asr	r3, r3, #1
   12f58:	eaffffbc 	b	12e50 <Read_Ads7843+0x230>
   12f5c:	e150000e 	cmp	r0, lr
   12f60:	cafffff9 	bgt	12f4c <Read_Ads7843+0x32c>
   12f64:	e0833002 	add	r3, r3, r2
   12f68:	e0833fa3 	add	r3, r3, r3, lsr #31
   12f6c:	e1a030c3 	asr	r3, r3, #1
   12f70:	eaffffb6 	b	12e50 <Read_Ads7843+0x230>
   12f74:	00006190 	muleq	r0, r0, r1
   12f78:	00000160 	andeq	r0, r0, r0, ror #2
   12f7c:	55555556 	ldrbpl	r5, [r5, #-1366]	; 0xfffffaaa
   12f80:	00000084 	andeq	r0, r0, r4, lsl #1

00012f84 <getDisplayPoint>:
   12f84:	e92d41f0 	push	{r4, r5, r6, r7, r8, lr}
   12f88:	e59f3080 	ldr	r3, [pc, #128]	; 13010 <getDisplayPoint+0x8c>
   12f8c:	e59f2080 	ldr	r2, [pc, #128]	; 13014 <getDisplayPoint+0x90>
   12f90:	e08f3003 	add	r3, pc, r3
   12f94:	e7934002 	ldr	r4, [r3, r2]
   12f98:	e5945018 	ldr	r5, [r4, #24]
   12f9c:	e3550000 	cmp	r5, #0
   12fa0:	03a03001 	moveq	r3, #1
   12fa4:	0a000017 	beq	13008 <getDisplayPoint+0x84>
   12fa8:	e59f2068 	ldr	r2, [pc, #104]	; 13018 <getDisplayPoint+0x94>
   12fac:	e5940004 	ldr	r0, [r4, #4]
   12fb0:	e7932002 	ldr	r2, [r3, r2]
   12fb4:	e5941000 	ldr	r1, [r4]
   12fb8:	e1c260d0 	ldrd	r6, [r2]
   12fbc:	e0000790 	mul	r0, r0, r7
   12fc0:	e0210691 	mla	r1, r1, r6, r0
   12fc4:	e5940008 	ldr	r0, [r4, #8]
   12fc8:	e59f204c 	ldr	r2, [pc, #76]	; 1301c <getDisplayPoint+0x98>
   12fcc:	e0810000 	add	r0, r1, r0
   12fd0:	e1a01005 	mov	r1, r5
   12fd4:	e7938002 	ldr	r8, [r3, r2]
   12fd8:	ebfffea5 	bl	12a74 <__aeabi_idiv>
   12fdc:	e5943010 	ldr	r3, [r4, #16]
   12fe0:	e594200c 	ldr	r2, [r4, #12]
   12fe4:	e0030793 	mul	r3, r3, r7
   12fe8:	e0263692 	mla	r6, r2, r6, r3
   12fec:	e5880000 	str	r0, [r8]
   12ff0:	e5940014 	ldr	r0, [r4, #20]
   12ff4:	e1a01005 	mov	r1, r5
   12ff8:	e0860000 	add	r0, r6, r0
   12ffc:	ebfffe9c 	bl	12a74 <__aeabi_idiv>
   13000:	e3a03000 	mov	r3, #0
   13004:	e5880004 	str	r0, [r8, #4]
   13008:	e1a00003 	mov	r0, r3
   1300c:	e8bd81f0 	pop	{r4, r5, r6, r7, r8, pc}
   13010:	00005e44 	andeq	r5, r0, r4, asr #28
   13014:	00000150 	andeq	r0, r0, r0, asr r1
   13018:	00000084 	andeq	r0, r0, r4, lsl #1
   1301c:	000000b0 	strheq	r0, [r0], -r0	; <UNPREDICTABLE>

00013020 <lcd_tch_irq_clearer>:
   13020:	e92d4010 	push	{r4, lr}
   13024:	e3a0000c 	mov	r0, #12
   13028:	ebfffad8 	bl	11b90 <bcm2835_gpio_eds>
   1302c:	e59f3024 	ldr	r3, [pc, #36]	; 13058 <lcd_tch_irq_clearer+0x38>
   13030:	e3500000 	cmp	r0, #0
   13034:	e08f3003 	add	r3, pc, r3
   13038:	08bd8010 	popeq	{r4, pc}
   1303c:	e3a01001 	mov	r1, #1
   13040:	e59f2014 	ldr	r2, [pc, #20]	; 1305c <lcd_tch_irq_clearer+0x3c>
   13044:	e3a0000c 	mov	r0, #12
   13048:	e7933002 	ldr	r3, [r3, r2]
   1304c:	e5c31000 	strb	r1, [r3]
   13050:	e8bd4010 	pop	{r4, lr}
   13054:	eafffa80 	b	11a5c <bcm2835_gpio_set_eds>
   13058:	00005da0 	andeq	r5, r0, r0, lsr #27
   1305c:	00000180 	andeq	r0, r0, r0, lsl #3

00013060 <Write_Bytes_GPIO>:
   13060:	e92d4070 	push	{r4, r5, r6, lr}
   13064:	e1a04000 	mov	r4, r0
   13068:	e3a01000 	mov	r1, #0
   1306c:	e3a00018 	mov	r0, #24
   13070:	ebfffaa9 	bl	11b1c <bcm2835_gpio_write>
   13074:	e1a01424 	lsr	r1, r4, #8
   13078:	e2011001 	and	r1, r1, #1
   1307c:	e3a00005 	mov	r0, #5
   13080:	ebfffaa5 	bl	11b1c <bcm2835_gpio_write>
   13084:	e1a014a4 	lsr	r1, r4, #9
   13088:	e2011001 	and	r1, r1, #1
   1308c:	e3a00006 	mov	r0, #6
   13090:	ebfffaa1 	bl	11b1c <bcm2835_gpio_write>
   13094:	e1a01524 	lsr	r1, r4, #10
   13098:	e2011001 	and	r1, r1, #1
   1309c:	e3a0000d 	mov	r0, #13
   130a0:	ebfffa9d 	bl	11b1c <bcm2835_gpio_write>
   130a4:	e1a015a4 	lsr	r1, r4, #11
   130a8:	e2011001 	and	r1, r1, #1
   130ac:	e3a00013 	mov	r0, #19
   130b0:	ebfffa99 	bl	11b1c <bcm2835_gpio_write>
   130b4:	e1a01624 	lsr	r1, r4, #12
   130b8:	e2011001 	and	r1, r1, #1
   130bc:	e3a0001a 	mov	r0, #26
   130c0:	ebfffa95 	bl	11b1c <bcm2835_gpio_write>
   130c4:	e1a016a4 	lsr	r1, r4, #13
   130c8:	e2011001 	and	r1, r1, #1
   130cc:	e3a00010 	mov	r0, #16
   130d0:	ebfffa91 	bl	11b1c <bcm2835_gpio_write>
   130d4:	e1a01724 	lsr	r1, r4, #14
   130d8:	e2011001 	and	r1, r1, #1
   130dc:	e3a00014 	mov	r0, #20
   130e0:	ebfffa8d 	bl	11b1c <bcm2835_gpio_write>
   130e4:	e1a017a4 	lsr	r1, r4, #15
   130e8:	e2011001 	and	r1, r1, #1
   130ec:	e3a00015 	mov	r0, #21
   130f0:	ebfffa89 	bl	11b1c <bcm2835_gpio_write>
   130f4:	e3a01001 	mov	r1, #1
   130f8:	e3a00018 	mov	r0, #24
   130fc:	ebfffa86 	bl	11b1c <bcm2835_gpio_write>
   13100:	e3a0000f 	mov	r0, #15
   13104:	ebfffa0a 	bl	11934 <Delayns>
   13108:	e3a01000 	mov	r1, #0
   1310c:	e3a00018 	mov	r0, #24
   13110:	e6ef5074 	uxtb	r5, r4
   13114:	ebfffa80 	bl	11b1c <bcm2835_gpio_write>
   13118:	e2041001 	and	r1, r4, #1
   1311c:	e3a00005 	mov	r0, #5
   13120:	ebfffa7d 	bl	11b1c <bcm2835_gpio_write>
   13124:	e1a010a5 	lsr	r1, r5, #1
   13128:	e2011001 	and	r1, r1, #1
   1312c:	e3a00006 	mov	r0, #6
   13130:	ebfffa79 	bl	11b1c <bcm2835_gpio_write>
   13134:	e1a01125 	lsr	r1, r5, #2
   13138:	e2011001 	and	r1, r1, #1
   1313c:	e3a0000d 	mov	r0, #13
   13140:	ebfffa75 	bl	11b1c <bcm2835_gpio_write>
   13144:	e1a011a5 	lsr	r1, r5, #3
   13148:	e2011001 	and	r1, r1, #1
   1314c:	e3a00013 	mov	r0, #19
   13150:	ebfffa71 	bl	11b1c <bcm2835_gpio_write>
   13154:	e1a01225 	lsr	r1, r5, #4
   13158:	e2011001 	and	r1, r1, #1
   1315c:	e3a0001a 	mov	r0, #26
   13160:	ebfffa6d 	bl	11b1c <bcm2835_gpio_write>
   13164:	e1a012a5 	lsr	r1, r5, #5
   13168:	e2011001 	and	r1, r1, #1
   1316c:	e3a00010 	mov	r0, #16
   13170:	ebfffa69 	bl	11b1c <bcm2835_gpio_write>
   13174:	e1a01325 	lsr	r1, r5, #6
   13178:	e2011001 	and	r1, r1, #1
   1317c:	e3a00014 	mov	r0, #20
   13180:	ebfffa65 	bl	11b1c <bcm2835_gpio_write>
   13184:	e1a013a5 	lsr	r1, r5, #7
   13188:	e3a00015 	mov	r0, #21
   1318c:	e8bd4070 	pop	{r4, r5, r6, lr}
   13190:	eafffa61 	b	11b1c <bcm2835_gpio_write>

00013194 <Write_Command>:
   13194:	e92d4010 	push	{r4, lr}
   13198:	e1a04000 	mov	r4, r0
   1319c:	e3a01001 	mov	r1, #1
   131a0:	e3a0000e 	mov	r0, #14
   131a4:	ebfffa5c 	bl	11b1c <bcm2835_gpio_write>
   131a8:	e3a01000 	mov	r1, #0
   131ac:	e3a00016 	mov	r0, #22
   131b0:	ebfffa59 	bl	11b1c <bcm2835_gpio_write>
   131b4:	e1a00004 	mov	r0, r4
   131b8:	ebffffa8 	bl	13060 <Write_Bytes_GPIO>
   131bc:	e3a01000 	mov	r1, #0
   131c0:	e3a0000f 	mov	r0, #15
   131c4:	ebfffa54 	bl	11b1c <bcm2835_gpio_write>
   131c8:	e3a00023 	mov	r0, #35	; 0x23
   131cc:	ebfff9d8 	bl	11934 <Delayns>
   131d0:	e8bd4010 	pop	{r4, lr}
   131d4:	e3a01001 	mov	r1, #1
   131d8:	e3a0000f 	mov	r0, #15
   131dc:	eafffa4e 	b	11b1c <bcm2835_gpio_write>

000131e0 <Write_Data>:
   131e0:	e92d4010 	push	{r4, lr}
   131e4:	e1a04000 	mov	r4, r0
   131e8:	e59f3060 	ldr	r3, [pc, #96]	; 13250 <Write_Data+0x70>
   131ec:	e59f1060 	ldr	r1, [pc, #96]	; 13254 <Write_Data+0x74>
   131f0:	e59f2060 	ldr	r2, [pc, #96]	; 13258 <Write_Data+0x78>
   131f4:	e08f3003 	add	r3, pc, r3
   131f8:	e7931001 	ldr	r1, [r3, r1]
   131fc:	e7932002 	ldr	r2, [r3, r2]
   13200:	e5910000 	ldr	r0, [r1]
   13204:	e5922000 	ldr	r2, [r2]
   13208:	e3a01001 	mov	r1, #1
   1320c:	e7824100 	str	r4, [r2, r0, lsl #2]
   13210:	e3a0000e 	mov	r0, #14
   13214:	ebfffa40 	bl	11b1c <bcm2835_gpio_write>
   13218:	e3a01001 	mov	r1, #1
   1321c:	e3a00016 	mov	r0, #22
   13220:	ebfffa3d 	bl	11b1c <bcm2835_gpio_write>
   13224:	e1a00004 	mov	r0, r4
   13228:	ebffff8c 	bl	13060 <Write_Bytes_GPIO>
   1322c:	e3a01000 	mov	r1, #0
   13230:	e3a0000f 	mov	r0, #15
   13234:	ebfffa38 	bl	11b1c <bcm2835_gpio_write>
   13238:	e3a00023 	mov	r0, #35	; 0x23
   1323c:	ebfff9bc 	bl	11934 <Delayns>
   13240:	e8bd4010 	pop	{r4, lr}
   13244:	e3a01001 	mov	r1, #1
   13248:	e3a0000f 	mov	r0, #15
   1324c:	eafffa32 	b	11b1c <bcm2835_gpio_write>
   13250:	00005be0 	andeq	r5, r0, r0, ror #23
   13254:	00000000 	andeq	r0, r0, r0
   13258:	00000088 	andeq	r0, r0, r8, lsl #1

0001325c <Read_Data>:
   1325c:	e3a00000 	mov	r0, #0
   13260:	e12fff1e 	bx	lr

00013264 <Write_Command_Data>:
   13264:	e92d4070 	push	{r4, r5, r6, lr}
   13268:	e1a05001 	mov	r5, r1
   1326c:	e59f4024 	ldr	r4, [pc, #36]	; 13298 <Write_Command_Data+0x34>
   13270:	ebffffc7 	bl	13194 <Write_Command>
   13274:	e59f2020 	ldr	r2, [pc, #32]	; 1329c <Write_Command_Data+0x38>
   13278:	e08f4004 	add	r4, pc, r4
   1327c:	e1a03004 	mov	r3, r4
   13280:	e59fc018 	ldr	ip, [pc, #24]	; 132a0 <Write_Command_Data+0x3c>
   13284:	e7943002 	ldr	r3, [r4, r2]
   13288:	e1a00005 	mov	r0, r5
   1328c:	e8bd4070 	pop	{r4, r5, r6, lr}
   13290:	e583c000 	str	ip, [r3]
   13294:	eaffffd1 	b	131e0 <Write_Data>
   13298:	00005b5c 	andeq	r5, r0, ip, asr fp
   1329c:	00000000 	andeq	r0, r0, r0
   132a0:	003fffff 	ldrshteq	pc, [pc], -pc	; <UNPREDICTABLE>

000132a4 <TFT_Set_Address>:
   132a4:	e92d4070 	push	{r4, r5, r6, lr}
   132a8:	e1a05000 	mov	r5, r0
   132ac:	e1a04001 	mov	r4, r1
   132b0:	e1a06003 	mov	r6, r3
   132b4:	e59f005c 	ldr	r0, [pc, #92]	; 13318 <TFT_Set_Address+0x74>
   132b8:	e59fc05c 	ldr	ip, [pc, #92]	; 1331c <TFT_Set_Address+0x78>
   132bc:	e08f0000 	add	r0, pc, r0
   132c0:	e790c00c 	ldr	ip, [r0, ip]
   132c4:	e085e404 	add	lr, r5, r4, lsl #8
   132c8:	e0851402 	add	r1, r5, r2, lsl #8
   132cc:	e1a02000 	mov	r2, r0
   132d0:	e3a00044 	mov	r0, #68	; 0x44
   132d4:	e58ce000 	str	lr, [ip]
   132d8:	ebffffe1 	bl	13264 <Write_Command_Data>
   132dc:	e1a01004 	mov	r1, r4
   132e0:	e3a00045 	mov	r0, #69	; 0x45
   132e4:	ebffffde 	bl	13264 <Write_Command_Data>
   132e8:	e1a01006 	mov	r1, r6
   132ec:	e3a00046 	mov	r0, #70	; 0x46
   132f0:	ebffffdb 	bl	13264 <Write_Command_Data>
   132f4:	e1a01005 	mov	r1, r5
   132f8:	e3a0004e 	mov	r0, #78	; 0x4e
   132fc:	ebffffd8 	bl	13264 <Write_Command_Data>
   13300:	e1a01004 	mov	r1, r4
   13304:	e3a0004f 	mov	r0, #79	; 0x4f
   13308:	ebffffd5 	bl	13264 <Write_Command_Data>
   1330c:	e8bd4070 	pop	{r4, r5, r6, lr}
   13310:	e3a00022 	mov	r0, #34	; 0x22
   13314:	eaffff9e 	b	13194 <Write_Command>
   13318:	00005b18 	andeq	r5, r0, r8, lsl fp
   1331c:	00000000 	andeq	r0, r0, r0

00013320 <Set_Color>:
   13320:	e20000f8 	and	r0, r0, #248	; 0xf8
   13324:	e18012a1 	orr	r1, r0, r1, lsr #5
   13328:	e1a021a2 	lsr	r2, r2, #3
   1332c:	e6ef1071 	uxtb	r1, r1
   13330:	e2020cff 	and	r0, r2, #65280	; 0xff00
   13334:	e1800001 	orr	r0, r0, r1
   13338:	e12fff1e 	bx	lr

0001333c <TFT_Fill>:
   1333c:	e92d47f0 	push	{r4, r5, r6, r7, r8, r9, sl, lr}
   13340:	e3a01000 	mov	r1, #0
   13344:	e1a06000 	mov	r6, r0
   13348:	e3a00012 	mov	r0, #18
   1334c:	ebfff9f2 	bl	11b1c <bcm2835_gpio_write>
   13350:	e3a01000 	mov	r1, #0
   13354:	e3a08000 	mov	r8, #0
   13358:	e59f4098 	ldr	r4, [pc, #152]	; 133f8 <TFT_Fill+0xbc>
   1335c:	e59f2098 	ldr	r2, [pc, #152]	; 133fc <TFT_Fill+0xc0>
   13360:	e59f3098 	ldr	r3, [pc, #152]	; 13400 <TFT_Fill+0xc4>
   13364:	e08f4004 	add	r4, pc, r4
   13368:	e7949003 	ldr	r9, [r4, r3]
   1336c:	e7945002 	ldr	r5, [r4, r2]
   13370:	e1a00001 	mov	r0, r1
   13374:	e5952000 	ldr	r2, [r5]
   13378:	e5993000 	ldr	r3, [r9]
   1337c:	ebffffc8 	bl	132a4 <TFT_Set_Address>
   13380:	e1a00006 	mov	r0, r6
   13384:	ebffff95 	bl	131e0 <Write_Data>
   13388:	e59f3074 	ldr	r3, [pc, #116]	; 13404 <TFT_Fill+0xc8>
   1338c:	e5992000 	ldr	r2, [r9]
   13390:	e7947003 	ldr	r7, [r4, r3]
   13394:	e3a04000 	mov	r4, #0
   13398:	e5953000 	ldr	r3, [r5]
   1339c:	e1a06408 	lsl	r6, r8, #8
   133a0:	e0863004 	add	r3, r6, r4
   133a4:	e3a01000 	mov	r1, #0
   133a8:	e3a0000f 	mov	r0, #15
   133ac:	e5873000 	str	r3, [r7]
   133b0:	ebfff9d9 	bl	11b1c <bcm2835_gpio_write>
   133b4:	e3a00046 	mov	r0, #70	; 0x46
   133b8:	ebfff95d 	bl	11934 <Delayns>
   133bc:	e3a01001 	mov	r1, #1
   133c0:	e3a0000f 	mov	r0, #15
   133c4:	ebfff9d4 	bl	11b1c <bcm2835_gpio_write>
   133c8:	e5953000 	ldr	r3, [r5]
   133cc:	e2844001 	add	r4, r4, #1
   133d0:	e1530004 	cmp	r3, r4
   133d4:	2afffff1 	bcs	133a0 <TFT_Fill+0x64>
   133d8:	e5993000 	ldr	r3, [r9]
   133dc:	e2888001 	add	r8, r8, #1
   133e0:	e1530008 	cmp	r3, r8
   133e4:	2affffea 	bcs	13394 <TFT_Fill+0x58>
   133e8:	e8bd47f0 	pop	{r4, r5, r6, r7, r8, r9, sl, lr}
   133ec:	e3a01001 	mov	r1, #1
   133f0:	e3a00012 	mov	r0, #18
   133f4:	eafff9c8 	b	11b1c <bcm2835_gpio_write>
   133f8:	00005a70 	andeq	r5, r0, r0, ror sl
   133fc:	00000194 	muleq	r0, r4, r1
   13400:	000000d0 	ldrdeq	r0, [r0], -r0	; <UNPREDICTABLE>
   13404:	00000000 	andeq	r0, r0, r0

00013408 <TFT_Box>:
   13408:	e92d4ff8 	push	{r3, r4, r5, r6, r7, r8, r9, sl, fp, lr}
   1340c:	e1a08001 	mov	r8, r1
   13410:	e1a0a003 	mov	sl, r3
   13414:	e1a09000 	mov	r9, r0
   13418:	e1a06002 	mov	r6, r2
   1341c:	e3a01000 	mov	r1, #0
   13420:	e3a00012 	mov	r0, #18
   13424:	e59d4028 	ldr	r4, [sp, #40]	; 0x28
   13428:	ebfff9bb 	bl	11b1c <bcm2835_gpio_write>
   1342c:	e1a0300a 	mov	r3, sl
   13430:	e1a02006 	mov	r2, r6
   13434:	e1a01008 	mov	r1, r8
   13438:	e1a00009 	mov	r0, r9
   1343c:	ebffff98 	bl	132a4 <TFT_Set_Address>
   13440:	e59fb07c 	ldr	fp, [pc, #124]	; 134c4 <TFT_Box+0xbc>
   13444:	e1a00004 	mov	r0, r4
   13448:	ebffff64 	bl	131e0 <Write_Data>
   1344c:	e158000a 	cmp	r8, sl
   13450:	e08fb00b 	add	fp, pc, fp
   13454:	91a05408 	lslls	r5, r8, #8
   13458:	8a000015 	bhi	134b4 <TFT_Box+0xac>
   1345c:	e1590006 	cmp	r9, r6
   13460:	8a00000f 	bhi	134a4 <TFT_Box+0x9c>
   13464:	e1a04009 	mov	r4, r9
   13468:	e59f3058 	ldr	r3, [pc, #88]	; 134c8 <TFT_Box+0xc0>
   1346c:	e79b7003 	ldr	r7, [fp, r3]
   13470:	e0843005 	add	r3, r4, r5
   13474:	e3a01000 	mov	r1, #0
   13478:	e3a0000f 	mov	r0, #15
   1347c:	e5873000 	str	r3, [r7]
   13480:	ebfff9a5 	bl	11b1c <bcm2835_gpio_write>
   13484:	e3a00046 	mov	r0, #70	; 0x46
   13488:	ebfff929 	bl	11934 <Delayns>
   1348c:	e2844001 	add	r4, r4, #1
   13490:	e3a01001 	mov	r1, #1
   13494:	e3a0000f 	mov	r0, #15
   13498:	ebfff99f 	bl	11b1c <bcm2835_gpio_write>
   1349c:	e1560004 	cmp	r6, r4
   134a0:	2afffff2 	bcs	13470 <TFT_Box+0x68>
   134a4:	e2888001 	add	r8, r8, #1
   134a8:	e15a0008 	cmp	sl, r8
   134ac:	e2855c01 	add	r5, r5, #256	; 0x100
   134b0:	2affffe9 	bcs	1345c <TFT_Box+0x54>
   134b4:	e8bd4ff8 	pop	{r3, r4, r5, r6, r7, r8, r9, sl, fp, lr}
   134b8:	e3a01001 	mov	r1, #1
   134bc:	e3a00012 	mov	r0, #18
   134c0:	eafff995 	b	11b1c <bcm2835_gpio_write>
   134c4:	00005984 	andeq	r5, r0, r4, lsl #19
   134c8:	00000000 	andeq	r0, r0, r0

000134cc <TFT_Dot>:
   134cc:	e92d4070 	push	{r4, r5, r6, lr}
   134d0:	e1a05000 	mov	r5, r0
   134d4:	e1a06001 	mov	r6, r1
   134d8:	e1a04002 	mov	r4, r2
   134dc:	e3a00012 	mov	r0, #18
   134e0:	e3a01000 	mov	r1, #0
   134e4:	ebfff98c 	bl	11b1c <bcm2835_gpio_write>
   134e8:	e1a01006 	mov	r1, r6
   134ec:	e1a03006 	mov	r3, r6
   134f0:	e1a02005 	mov	r2, r5
   134f4:	e1a00005 	mov	r0, r5
   134f8:	ebffff69 	bl	132a4 <TFT_Set_Address>
   134fc:	e1a00004 	mov	r0, r4
   13500:	ebffff36 	bl	131e0 <Write_Data>
   13504:	e8bd4070 	pop	{r4, r5, r6, lr}
   13508:	e3a01001 	mov	r1, #1
   1350c:	e3a00012 	mov	r0, #18
   13510:	eafff981 	b	11b1c <bcm2835_gpio_write>

00013514 <TFT_H_Line>:
   13514:	e1a0c002 	mov	ip, r2
   13518:	e52de004 	push	{lr}		; (str lr, [sp, #-4]!)
   1351c:	e24dd00c 	sub	sp, sp, #12
   13520:	e58d3000 	str	r3, [sp]
   13524:	e1a02001 	mov	r2, r1
   13528:	e28c3001 	add	r3, ip, #1
   1352c:	e1a0100c 	mov	r1, ip
   13530:	ebffffb4 	bl	13408 <TFT_Box>
   13534:	e28dd00c 	add	sp, sp, #12
   13538:	e49df004 	pop	{pc}		; (ldr pc, [sp], #4)

0001353c <TFT_V_Line>:
   1353c:	e1a0c002 	mov	ip, r2
   13540:	e52de004 	push	{lr}		; (str lr, [sp, #-4]!)
   13544:	e24dd00c 	sub	sp, sp, #12
   13548:	e58d3000 	str	r3, [sp]
   1354c:	e2822001 	add	r2, r2, #1
   13550:	e1a03001 	mov	r3, r1
   13554:	e1a01000 	mov	r1, r0
   13558:	e1a0000c 	mov	r0, ip
   1355c:	ebffffa9 	bl	13408 <TFT_Box>
   13560:	e28dd00c 	add	sp, sp, #12
   13564:	e49df004 	pop	{pc}		; (ldr pc, [sp], #4)

00013568 <TFT_Rectangle>:
   13568:	e92d41f0 	push	{r4, r5, r6, r7, r8, lr}
   1356c:	e1a06003 	mov	r6, r3
   13570:	e1a05001 	mov	r5, r1
   13574:	e59d4018 	ldr	r4, [sp, #24]
   13578:	e6ef7072 	uxtb	r7, r2
   1357c:	e6ef8070 	uxtb	r8, r0
   13580:	e1a02001 	mov	r2, r1
   13584:	e1a00008 	mov	r0, r8
   13588:	e1a01007 	mov	r1, r7
   1358c:	e1a03004 	mov	r3, r4
   13590:	ebffffdf 	bl	13514 <TFT_H_Line>
   13594:	e1a03004 	mov	r3, r4
   13598:	e1a02006 	mov	r2, r6
   1359c:	e1a01007 	mov	r1, r7
   135a0:	e1a00008 	mov	r0, r8
   135a4:	ebffffda 	bl	13514 <TFT_H_Line>
   135a8:	e1a03004 	mov	r3, r4
   135ac:	e1a02008 	mov	r2, r8
   135b0:	e1a01006 	mov	r1, r6
   135b4:	e1a00005 	mov	r0, r5
   135b8:	ebffffdf 	bl	1353c <TFT_V_Line>
   135bc:	e1a03004 	mov	r3, r4
   135c0:	e1a02007 	mov	r2, r7
   135c4:	e1a01006 	mov	r1, r6
   135c8:	e1a00005 	mov	r0, r5
   135cc:	e8bd41f0 	pop	{r4, r5, r6, r7, r8, lr}
   135d0:	eaffffd9 	b	1353c <TFT_V_Line>

000135d4 <TFT_Circle>:
   135d4:	e92d4ff0 	push	{r4, r5, r6, r7, r8, r9, sl, fp, lr}
   135d8:	e2628001 	rsb	r8, r2, #1
   135dc:	e24dd024 	sub	sp, sp, #36	; 0x24
   135e0:	e1a05002 	mov	r5, r2
   135e4:	e58d0018 	str	r0, [sp, #24]
   135e8:	e1a0b001 	mov	fp, r1
   135ec:	e58d301c 	str	r3, [sp, #28]
   135f0:	e3a0a000 	mov	sl, #0
   135f4:	e59d9048 	ldr	r9, [sp, #72]	; 0x48
   135f8:	e1a07008 	mov	r7, r8
   135fc:	ea00002d 	b	136b8 <TFT_Circle+0xe4>
   13600:	e1a01003 	mov	r1, r3
   13604:	e1a02009 	mov	r2, r9
   13608:	e59d0008 	ldr	r0, [sp, #8]
   1360c:	e58d3014 	str	r3, [sp, #20]
   13610:	ebffffad 	bl	134cc <TFT_Dot>
   13614:	e1a01004 	mov	r1, r4
   13618:	e1a02009 	mov	r2, r9
   1361c:	e59d0010 	ldr	r0, [sp, #16]
   13620:	ebffffa9 	bl	134cc <TFT_Dot>
   13624:	e59d3014 	ldr	r3, [sp, #20]
   13628:	e1a02009 	mov	r2, r9
   1362c:	e1a01003 	mov	r1, r3
   13630:	e1a00006 	mov	r0, r6
   13634:	ebffffa4 	bl	134cc <TFT_Dot>
   13638:	e1a01004 	mov	r1, r4
   1363c:	e1a02009 	mov	r2, r9
   13640:	e59d000c 	ldr	r0, [sp, #12]
   13644:	ebffffa0 	bl	134cc <TFT_Dot>
   13648:	e04b4005 	sub	r4, fp, r5
   1364c:	e1a02009 	mov	r2, r9
   13650:	e1a01008 	mov	r1, r8
   13654:	e59d0010 	ldr	r0, [sp, #16]
   13658:	ebffff9b 	bl	134cc <TFT_Dot>
   1365c:	e1a02009 	mov	r2, r9
   13660:	e1a01004 	mov	r1, r4
   13664:	e59d0008 	ldr	r0, [sp, #8]
   13668:	ebffff97 	bl	134cc <TFT_Dot>
   1366c:	e1a02009 	mov	r2, r9
   13670:	e1a01004 	mov	r1, r4
   13674:	e1a00006 	mov	r0, r6
   13678:	ebffff93 	bl	134cc <TFT_Dot>
   1367c:	e1a02009 	mov	r2, r9
   13680:	e1a01008 	mov	r1, r8
   13684:	e59d000c 	ldr	r0, [sp, #12]
   13688:	ebffff8f 	bl	134cc <TFT_Dot>
   1368c:	e3570000 	cmp	r7, #0
   13690:	e28a3001 	add	r3, sl, #1
   13694:	b2872003 	addlt	r2, r7, #3
   13698:	a04aa005 	subge	sl, sl, r5
   1369c:	a2872005 	addge	r2, r7, #5
   136a0:	a2455001 	subge	r5, r5, #1
   136a4:	b082708a 	addlt	r7, r2, sl, lsl #1
   136a8:	a082708a 	addge	r7, r2, sl, lsl #1
   136ac:	e1550003 	cmp	r5, r3
   136b0:	e1a0a003 	mov	sl, r3
   136b4:	ba00001a 	blt	13724 <TFT_Circle+0x150>
   136b8:	e59d2018 	ldr	r2, [sp, #24]
   136bc:	e59d301c 	ldr	r3, [sp, #28]
   136c0:	e042600a 	sub	r6, r2, sl
   136c4:	e1a0408a 	lsl	r4, sl, #1
   136c8:	e0421005 	sub	r1, r2, r5
   136cc:	e3530001 	cmp	r3, #1
   136d0:	e04b800a 	sub	r8, fp, sl
   136d4:	e0843006 	add	r3, r4, r6
   136d8:	e0822005 	add	r2, r2, r5
   136dc:	e58d3008 	str	r3, [sp, #8]
   136e0:	e0884004 	add	r4, r8, r4
   136e4:	e08b3005 	add	r3, fp, r5
   136e8:	e58d100c 	str	r1, [sp, #12]
   136ec:	e58d2010 	str	r2, [sp, #16]
   136f0:	1affffc2 	bne	13600 <TFT_Circle+0x2c>
   136f4:	e59d2008 	ldr	r2, [sp, #8]
   136f8:	e04b1005 	sub	r1, fp, r5
   136fc:	e1a00006 	mov	r0, r6
   13700:	e58d9000 	str	r9, [sp]
   13704:	ebffff3f 	bl	13408 <TFT_Box>
   13708:	e58d9000 	str	r9, [sp]
   1370c:	e1a03004 	mov	r3, r4
   13710:	e59d2010 	ldr	r2, [sp, #16]
   13714:	e1a01008 	mov	r1, r8
   13718:	e59d000c 	ldr	r0, [sp, #12]
   1371c:	ebffff39 	bl	13408 <TFT_Box>
   13720:	eaffffd9 	b	1368c <TFT_Circle+0xb8>
   13724:	e28dd024 	add	sp, sp, #36	; 0x24
   13728:	e8bd8ff0 	pop	{r4, r5, r6, r7, r8, r9, sl, fp, pc}

0001372c <TFT_Char>:
   1372c:	e92d4ff0 	push	{r4, r5, r6, r7, r8, r9, sl, fp, lr}
   13730:	e59f41b4 	ldr	r4, [pc, #436]	; 138ec <TFT_Char+0x1c0>
   13734:	e24dd04c 	sub	sp, sp, #76	; 0x4c
   13738:	e3530008 	cmp	r3, #8
   1373c:	e08f4004 	add	r4, pc, r4
   13740:	e1a06001 	mov	r6, r1
   13744:	e1a07002 	mov	r7, r2
   13748:	e59d9070 	ldr	r9, [sp, #112]	; 0x70
   1374c:	e59d8074 	ldr	r8, [sp, #116]	; 0x74
   13750:	0a000035 	beq	1382c <TFT_Char+0x100>
   13754:	e3530010 	cmp	r3, #16
   13758:	0a000001 	beq	13764 <TFT_Char+0x38>
   1375c:	e28dd04c 	add	sp, sp, #76	; 0x4c
   13760:	e8bd8ff0 	pop	{r4, r5, r6, r7, r8, r9, sl, fp, pc}
   13764:	e28da004 	add	sl, sp, #4
   13768:	e1a0100a 	mov	r1, sl
   1376c:	e59f317c 	ldr	r3, [pc, #380]	; 138f0 <TFT_Char+0x1c4>
   13770:	e2800302 	add	r0, r0, #134217728	; 0x8000000
   13774:	e794c003 	ldr	ip, [r4, r3]
   13778:	e2400020 	sub	r0, r0, #32
   1377c:	e08cc280 	add	ip, ip, r0, lsl #5
   13780:	e28c3002 	add	r3, ip, #2
   13784:	e28cc022 	add	ip, ip, #34	; 0x22
   13788:	e5530002 	ldrb	r0, [r3, #-2]
   1378c:	e5532001 	ldrb	r2, [r3, #-1]
   13790:	e2833002 	add	r3, r3, #2
   13794:	e0822400 	add	r2, r2, r0, lsl #8
   13798:	e15c0003 	cmp	ip, r3
   1379c:	e5a12004 	str	r2, [r1, #4]!
   137a0:	1afffff8 	bne	13788 <TFT_Char+0x5c>
   137a4:	e3a01000 	mov	r1, #0
   137a8:	e3a00012 	mov	r0, #18
   137ac:	ebfff8da 	bl	11b1c <bcm2835_gpio_write>
   137b0:	e287300f 	add	r3, r7, #15
   137b4:	e286200f 	add	r2, r6, #15
   137b8:	e1a01007 	mov	r1, r7
   137bc:	e1a00006 	mov	r0, r6
   137c0:	ebfffeb7 	bl	132a4 <TFT_Set_Address>
   137c4:	e59f3128 	ldr	r3, [pc, #296]	; 138f4 <TFT_Char+0x1c8>
   137c8:	e0866407 	add	r6, r6, r7, lsl #8
   137cc:	e286ba01 	add	fp, r6, #4096	; 0x1000
   137d0:	e7947003 	ldr	r7, [r4, r3]
   137d4:	e28bb010 	add	fp, fp, #16
   137d8:	e2866010 	add	r6, r6, #16
   137dc:	e5ba4004 	ldr	r4, [sl, #4]!
   137e0:	e2465010 	sub	r5, r6, #16
   137e4:	e3140902 	tst	r4, #32768	; 0x8000
   137e8:	11a00009 	movne	r0, r9
   137ec:	01a00008 	moveq	r0, r8
   137f0:	e5875000 	str	r5, [r7]
   137f4:	e2855001 	add	r5, r5, #1
   137f8:	ebfffe78 	bl	131e0 <Write_Data>
   137fc:	e1a04084 	lsl	r4, r4, #1
   13800:	e1560005 	cmp	r6, r5
   13804:	e58a4000 	str	r4, [sl]
   13808:	1afffff5 	bne	137e4 <TFT_Char+0xb8>
   1380c:	e2866c01 	add	r6, r6, #256	; 0x100
   13810:	e15b0006 	cmp	fp, r6
   13814:	1afffff0 	bne	137dc <TFT_Char+0xb0>
   13818:	e3a01000 	mov	r1, #0
   1381c:	e3a00012 	mov	r0, #18
   13820:	e28dd04c 	add	sp, sp, #76	; 0x4c
   13824:	e8bd4ff0 	pop	{r4, r5, r6, r7, r8, r9, sl, fp, lr}
   13828:	eafff8bb 	b	11b1c <bcm2835_gpio_write>
   1382c:	e28d5007 	add	r5, sp, #7
   13830:	e1a02005 	mov	r2, r5
   13834:	e59f30bc 	ldr	r3, [pc, #188]	; 138f8 <TFT_Char+0x1cc>
   13838:	e2800202 	add	r0, r0, #536870912	; 0x20000000
   1383c:	e7943003 	ldr	r3, [r4, r3]
   13840:	e2400020 	sub	r0, r0, #32
   13844:	e0833180 	add	r3, r3, r0, lsl #3
   13848:	e2830008 	add	r0, r3, #8
   1384c:	e4d31001 	ldrb	r1, [r3], #1
   13850:	e1530000 	cmp	r3, r0
   13854:	e5e21001 	strb	r1, [r2, #1]!
   13858:	1afffffb 	bne	1384c <TFT_Char+0x120>
   1385c:	e3a01000 	mov	r1, #0
   13860:	e3a00012 	mov	r0, #18
   13864:	ebfff8ac 	bl	11b1c <bcm2835_gpio_write>
   13868:	e2873007 	add	r3, r7, #7
   1386c:	e2862007 	add	r2, r6, #7
   13870:	e1a01007 	mov	r1, r7
   13874:	e1a00006 	mov	r0, r6
   13878:	e0866407 	add	r6, r6, r7, lsl #8
   1387c:	ebfffe88 	bl	132a4 <TFT_Set_Address>
   13880:	e59f306c 	ldr	r3, [pc, #108]	; 138f4 <TFT_Char+0x1c8>
   13884:	e2862b02 	add	r2, r6, #2048	; 0x800
   13888:	e58d2004 	str	r2, [sp, #4]
   1388c:	e7947003 	ldr	r7, [r4, r3]
   13890:	e1a0a006 	mov	sl, r6
   13894:	e5f54001 	ldrb	r4, [r5, #1]!
   13898:	e286b008 	add	fp, r6, #8
   1389c:	e1b033a4 	lsrs	r3, r4, #7
   138a0:	11a00009 	movne	r0, r9
   138a4:	01a00008 	moveq	r0, r8
   138a8:	e587a000 	str	sl, [r7]
   138ac:	e1a04084 	lsl	r4, r4, #1
   138b0:	e28aa001 	add	sl, sl, #1
   138b4:	ebfffe49 	bl	131e0 <Write_Data>
   138b8:	e6ef4074 	uxtb	r4, r4
   138bc:	e15b000a 	cmp	fp, sl
   138c0:	e5c54000 	strb	r4, [r5]
   138c4:	1afffff4 	bne	1389c <TFT_Char+0x170>
   138c8:	e59d3004 	ldr	r3, [sp, #4]
   138cc:	e2866c01 	add	r6, r6, #256	; 0x100
   138d0:	e1530006 	cmp	r3, r6
   138d4:	1affffed 	bne	13890 <TFT_Char+0x164>
   138d8:	e3a01001 	mov	r1, #1
   138dc:	e3a00012 	mov	r0, #18
   138e0:	e28dd04c 	add	sp, sp, #76	; 0x4c
   138e4:	e8bd4ff0 	pop	{r4, r5, r6, r7, r8, r9, sl, fp, lr}
   138e8:	eafff88b 	b	11b1c <bcm2835_gpio_write>
   138ec:	00005698 	muleq	r0, r8, r6
   138f0:	00000038 	andeq	r0, r0, r8, lsr r0
   138f4:	00000000 	andeq	r0, r0, r0
   138f8:	0000011c 	andeq	r0, r0, ip, lsl r1

000138fc <TFT_Text>:
   138fc:	e92d47f0 	push	{r4, r5, r6, r7, r8, r9, sl, lr}
   13900:	e1a05000 	mov	r5, r0
   13904:	e5d00000 	ldrb	r0, [r0]
   13908:	e59fa064 	ldr	sl, [pc, #100]	; 13974 <TFT_Text+0x78>
   1390c:	e24dd008 	sub	sp, sp, #8
   13910:	e3500000 	cmp	r0, #0
   13914:	e08fa00a 	add	sl, pc, sl
   13918:	e1a07001 	mov	r7, r1
   1391c:	e1a04002 	mov	r4, r2
   13920:	e59d8028 	ldr	r8, [sp, #40]	; 0x28
   13924:	e59d902c 	ldr	r9, [sp, #44]	; 0x2c
   13928:	0a000009 	beq	13954 <TFT_Text+0x58>
   1392c:	e1a06003 	mov	r6, r3
   13930:	e1a02004 	mov	r2, r4
   13934:	e1cd80f0 	strd	r8, [sp]
   13938:	e1a03006 	mov	r3, r6
   1393c:	e1a01007 	mov	r1, r7
   13940:	ebffff79 	bl	1372c <TFT_Char>
   13944:	e5f50001 	ldrb	r0, [r5, #1]!
   13948:	e0844006 	add	r4, r4, r6
   1394c:	e3500000 	cmp	r0, #0
   13950:	1afffff6 	bne	13930 <TFT_Text+0x34>
   13954:	e59f201c 	ldr	r2, [pc, #28]	; 13978 <TFT_Text+0x7c>
   13958:	e59f301c 	ldr	r3, [pc, #28]	; 1397c <TFT_Text+0x80>
   1395c:	e79a2002 	ldr	r2, [sl, r2]
   13960:	e5827000 	str	r7, [r2]
   13964:	e79a3003 	ldr	r3, [sl, r3]
   13968:	e5834000 	str	r4, [r3]
   1396c:	e28dd008 	add	sp, sp, #8
   13970:	e8bd87f0 	pop	{r4, r5, r6, r7, r8, r9, sl, pc}
   13974:	000054c0 	andeq	r5, r0, r0, asr #9
   13978:	000001f8 	strdeq	r0, [r0], -r8
   1397c:	0000004c 	andeq	r0, r0, ip, asr #32

00013980 <TFT_Init>:
   13980:	e92d4070 	push	{r4, r5, r6, lr}
   13984:	e3a01001 	mov	r1, #1
   13988:	e24dd008 	sub	sp, sp, #8
   1398c:	e3a00016 	mov	r0, #22
   13990:	ebfff8fe 	bl	11d90 <bcm2835_gpio_fsel>
   13994:	e3a01001 	mov	r1, #1
   13998:	e3a00017 	mov	r0, #23
   1399c:	ebfff8fb 	bl	11d90 <bcm2835_gpio_fsel>
   139a0:	e3a01001 	mov	r1, #1
   139a4:	e3a00012 	mov	r0, #18
   139a8:	ebfff8f8 	bl	11d90 <bcm2835_gpio_fsel>
   139ac:	e3a01001 	mov	r1, #1
   139b0:	e3a0000e 	mov	r0, #14
   139b4:	ebfff8f5 	bl	11d90 <bcm2835_gpio_fsel>
   139b8:	e3a01001 	mov	r1, #1
   139bc:	e3a0000f 	mov	r0, #15
   139c0:	ebfff8f2 	bl	11d90 <bcm2835_gpio_fsel>
   139c4:	e3a01001 	mov	r1, #1
   139c8:	e3a00005 	mov	r0, #5
   139cc:	ebfff8ef 	bl	11d90 <bcm2835_gpio_fsel>
   139d0:	e3a01001 	mov	r1, #1
   139d4:	e3a00006 	mov	r0, #6
   139d8:	ebfff8ec 	bl	11d90 <bcm2835_gpio_fsel>
   139dc:	e3a01001 	mov	r1, #1
   139e0:	e3a0000d 	mov	r0, #13
   139e4:	ebfff8e9 	bl	11d90 <bcm2835_gpio_fsel>
   139e8:	e3a01001 	mov	r1, #1
   139ec:	e3a00013 	mov	r0, #19
   139f0:	ebfff8e6 	bl	11d90 <bcm2835_gpio_fsel>
   139f4:	e3a01001 	mov	r1, #1
   139f8:	e3a0001a 	mov	r0, #26
   139fc:	ebfff8e3 	bl	11d90 <bcm2835_gpio_fsel>
   13a00:	e3a01001 	mov	r1, #1
   13a04:	e3a00010 	mov	r0, #16
   13a08:	ebfff8e0 	bl	11d90 <bcm2835_gpio_fsel>
   13a0c:	e3a01001 	mov	r1, #1
   13a10:	e3a00014 	mov	r0, #20
   13a14:	ebfff8dd 	bl	11d90 <bcm2835_gpio_fsel>
   13a18:	e3a01001 	mov	r1, #1
   13a1c:	e3a00015 	mov	r0, #21
   13a20:	ebfff8da 	bl	11d90 <bcm2835_gpio_fsel>
   13a24:	e3a01001 	mov	r1, #1
   13a28:	e3a00018 	mov	r0, #24
   13a2c:	e3a04000 	mov	r4, #0
   13a30:	ebfff8d6 	bl	11d90 <bcm2835_gpio_fsel>
   13a34:	e3a01000 	mov	r1, #0
   13a38:	e3a0000c 	mov	r0, #12
   13a3c:	ebfff8d3 	bl	11d90 <bcm2835_gpio_fsel>
   13a40:	e3a0000c 	mov	r0, #12
   13a44:	ebfff8b1 	bl	11d10 <bcm2835_gpio_fen>
   13a48:	e59f2414 	ldr	r2, [pc, #1044]	; 13e64 <TFT_Init+0x4e4>
   13a4c:	e59f1414 	ldr	r1, [pc, #1044]	; 13e68 <TFT_Init+0x4e8>
   13a50:	e08f2002 	add	r2, pc, r2
   13a54:	e08f1001 	add	r1, pc, r1
   13a58:	e3a00031 	mov	r0, #49	; 0x31
   13a5c:	ebffd207 	bl	8280 <register_irq_handler>
   13a60:	e3a01001 	mov	r1, #1
   13a64:	e3a00016 	mov	r0, #22
   13a68:	ebfff82b 	bl	11b1c <bcm2835_gpio_write>
   13a6c:	e3a01001 	mov	r1, #1
   13a70:	e3a00012 	mov	r0, #18
   13a74:	ebfff828 	bl	11b1c <bcm2835_gpio_write>
   13a78:	e3a01001 	mov	r1, #1
   13a7c:	e3a0000e 	mov	r0, #14
   13a80:	ebfff825 	bl	11b1c <bcm2835_gpio_write>
   13a84:	e3a01001 	mov	r1, #1
   13a88:	e3a0000f 	mov	r0, #15
   13a8c:	ebfff822 	bl	11b1c <bcm2835_gpio_write>
   13a90:	e3a01000 	mov	r1, #0
   13a94:	e3a00018 	mov	r0, #24
   13a98:	ebfff81f 	bl	11b1c <bcm2835_gpio_write>
   13a9c:	e3a01001 	mov	r1, #1
   13aa0:	e3a00017 	mov	r0, #23
   13aa4:	ebfff81c 	bl	11b1c <bcm2835_gpio_write>
   13aa8:	e3a00005 	mov	r0, #5
   13aac:	ebfff799 	bl	11918 <Delayms>
   13ab0:	e3a01000 	mov	r1, #0
   13ab4:	e3a00017 	mov	r0, #23
   13ab8:	ebfff817 	bl	11b1c <bcm2835_gpio_write>
   13abc:	e3a0000f 	mov	r0, #15
   13ac0:	ebfff794 	bl	11918 <Delayms>
   13ac4:	e3a01001 	mov	r1, #1
   13ac8:	e3a00017 	mov	r0, #23
   13acc:	ebfff812 	bl	11b1c <bcm2835_gpio_write>
   13ad0:	e3a0000f 	mov	r0, #15
   13ad4:	ebfff78f 	bl	11918 <Delayms>
   13ad8:	e3a01000 	mov	r1, #0
   13adc:	e3a00012 	mov	r0, #18
   13ae0:	ebfff80d 	bl	11b1c <bcm2835_gpio_write>
   13ae4:	e3a01001 	mov	r1, #1
   13ae8:	e3a00000 	mov	r0, #0
   13aec:	ebfffddc 	bl	13264 <Write_Command_Data>
   13af0:	e59f1374 	ldr	r1, [pc, #884]	; 13e6c <TFT_Init+0x4ec>
   13af4:	e3a00003 	mov	r0, #3
   13af8:	ebfffdd9 	bl	13264 <Write_Command_Data>
   13afc:	e3a01000 	mov	r1, #0
   13b00:	e3a0000c 	mov	r0, #12
   13b04:	ebfffdd6 	bl	13264 <Write_Command_Data>
   13b08:	e59f1360 	ldr	r1, [pc, #864]	; 13e70 <TFT_Init+0x4f0>
   13b0c:	e3a0000d 	mov	r0, #13
   13b10:	ebfffdd3 	bl	13264 <Write_Command_Data>
   13b14:	e3a01c2b 	mov	r1, #11008	; 0x2b00
   13b18:	e3a0000e 	mov	r0, #14
   13b1c:	ebfffdd0 	bl	13264 <Write_Command_Data>
   13b20:	e3a010b7 	mov	r1, #183	; 0xb7
   13b24:	e3a0001e 	mov	r0, #30
   13b28:	ebfffdcd 	bl	13264 <Write_Command_Data>
   13b2c:	e59f1340 	ldr	r1, [pc, #832]	; 13e74 <TFT_Init+0x4f4>
   13b30:	e3a00001 	mov	r0, #1
   13b34:	ebfffdca 	bl	13264 <Write_Command_Data>
   13b38:	e3a01c06 	mov	r1, #1536	; 0x600
   13b3c:	e3a00002 	mov	r0, #2
   13b40:	ebfffdc7 	bl	13264 <Write_Command_Data>
   13b44:	e3a01000 	mov	r1, #0
   13b48:	e3a00010 	mov	r0, #16
   13b4c:	ebfffdc4 	bl	13264 <Write_Command_Data>
   13b50:	e59f1320 	ldr	r1, [pc, #800]	; 13e78 <TFT_Init+0x4f8>
   13b54:	e3a00011 	mov	r0, #17
   13b58:	ebfffdc1 	bl	13264 <Write_Command_Data>
   13b5c:	e3a01000 	mov	r1, #0
   13b60:	e3a00005 	mov	r0, #5
   13b64:	ebfffdbe 	bl	13264 <Write_Command_Data>
   13b68:	e3a01000 	mov	r1, #0
   13b6c:	e3a00006 	mov	r0, #6
   13b70:	ebfffdbb 	bl	13264 <Write_Command_Data>
   13b74:	e59f1300 	ldr	r1, [pc, #768]	; 13e7c <TFT_Init+0x4fc>
   13b78:	e3a00016 	mov	r0, #22
   13b7c:	ebfffdb8 	bl	13264 <Write_Command_Data>
   13b80:	e3a01003 	mov	r1, #3
   13b84:	e3a00017 	mov	r0, #23
   13b88:	ebfffdb5 	bl	13264 <Write_Command_Data>
   13b8c:	e3a01033 	mov	r1, #51	; 0x33
   13b90:	e3a00007 	mov	r0, #7
   13b94:	ebfffdb2 	bl	13264 <Write_Command_Data>
   13b98:	e1a01004 	mov	r1, r4
   13b9c:	e3a0000b 	mov	r0, #11
   13ba0:	ebfffdaf 	bl	13264 <Write_Command_Data>
   13ba4:	e1a01004 	mov	r1, r4
   13ba8:	e3a0000f 	mov	r0, #15
   13bac:	ebfffdac 	bl	13264 <Write_Command_Data>
   13bb0:	e1a01004 	mov	r1, r4
   13bb4:	e3a00041 	mov	r0, #65	; 0x41
   13bb8:	ebfffda9 	bl	13264 <Write_Command_Data>
   13bbc:	e59f52bc 	ldr	r5, [pc, #700]	; 13e80 <TFT_Init+0x500>
   13bc0:	e1a01004 	mov	r1, r4
   13bc4:	e3a00042 	mov	r0, #66	; 0x42
   13bc8:	ebfffda5 	bl	13264 <Write_Command_Data>
   13bcc:	e1a01004 	mov	r1, r4
   13bd0:	e3a00048 	mov	r0, #72	; 0x48
   13bd4:	ebfffda2 	bl	13264 <Write_Command_Data>
   13bd8:	e1a01005 	mov	r1, r5
   13bdc:	e3a00049 	mov	r0, #73	; 0x49
   13be0:	ebfffd9f 	bl	13264 <Write_Command_Data>
   13be4:	e1a01004 	mov	r1, r4
   13be8:	e3a0004a 	mov	r0, #74	; 0x4a
   13bec:	ebfffd9c 	bl	13264 <Write_Command_Data>
   13bf0:	e1a01004 	mov	r1, r4
   13bf4:	e3a0004b 	mov	r0, #75	; 0x4b
   13bf8:	ebfffd99 	bl	13264 <Write_Command_Data>
   13bfc:	e3a01cef 	mov	r1, #61184	; 0xef00
   13c00:	e3a00044 	mov	r0, #68	; 0x44
   13c04:	ebfffd96 	bl	13264 <Write_Command_Data>
   13c08:	e1a01004 	mov	r1, r4
   13c0c:	e3a00045 	mov	r0, #69	; 0x45
   13c10:	ebfffd93 	bl	13264 <Write_Command_Data>
   13c14:	e1a01005 	mov	r1, r5
   13c18:	e3a00046 	mov	r0, #70	; 0x46
   13c1c:	ebfffd90 	bl	13264 <Write_Command_Data>
   13c20:	e59f125c 	ldr	r1, [pc, #604]	; 13e84 <TFT_Init+0x504>
   13c24:	e3a00030 	mov	r0, #48	; 0x30
   13c28:	ebfffd8d 	bl	13264 <Write_Command_Data>
   13c2c:	e59f6254 	ldr	r6, [pc, #596]	; 13e88 <TFT_Init+0x508>
   13c30:	e3a01f81 	mov	r1, #516	; 0x204
   13c34:	e3a00031 	mov	r0, #49	; 0x31
   13c38:	ebfffd89 	bl	13264 <Write_Command_Data>
   13c3c:	e3a01f81 	mov	r1, #516	; 0x204
   13c40:	e3a00032 	mov	r0, #50	; 0x32
   13c44:	ebfffd86 	bl	13264 <Write_Command_Data>
   13c48:	e1a01006 	mov	r1, r6
   13c4c:	e3a00033 	mov	r0, #51	; 0x33
   13c50:	ebfffd83 	bl	13264 <Write_Command_Data>
   13c54:	e59f1230 	ldr	r1, [pc, #560]	; 13e8c <TFT_Init+0x50c>
   13c58:	e3a00034 	mov	r0, #52	; 0x34
   13c5c:	ebfffd80 	bl	13264 <Write_Command_Data>
   13c60:	e3a01f81 	mov	r1, #516	; 0x204
   13c64:	e3a00035 	mov	r0, #53	; 0x35
   13c68:	ebfffd7d 	bl	13264 <Write_Command_Data>
   13c6c:	e59f521c 	ldr	r5, [pc, #540]	; 13e90 <TFT_Init+0x510>
   13c70:	e3a01f81 	mov	r1, #516	; 0x204
   13c74:	e3a00036 	mov	r0, #54	; 0x36
   13c78:	ebfffd79 	bl	13264 <Write_Command_Data>
   13c7c:	e1a01006 	mov	r1, r6
   13c80:	e3a00037 	mov	r0, #55	; 0x37
   13c84:	ebfffd76 	bl	13264 <Write_Command_Data>
   13c88:	e1a01005 	mov	r1, r5
   13c8c:	e3a0003a 	mov	r0, #58	; 0x3a
   13c90:	ebfffd73 	bl	13264 <Write_Command_Data>
   13c94:	e1a01005 	mov	r1, r5
   13c98:	e3a0003b 	mov	r0, #59	; 0x3b
   13c9c:	ebfffd70 	bl	13264 <Write_Command_Data>
   13ca0:	e1a01004 	mov	r1, r4
   13ca4:	e3a00023 	mov	r0, #35	; 0x23
   13ca8:	ebfffd6d 	bl	13264 <Write_Command_Data>
   13cac:	e1a01004 	mov	r1, r4
   13cb0:	e3a00024 	mov	r0, #36	; 0x24
   13cb4:	ebfffd6a 	bl	13264 <Write_Command_Data>
   13cb8:	e3a01902 	mov	r1, #32768	; 0x8000
   13cbc:	e3a00025 	mov	r0, #37	; 0x25
   13cc0:	ebfffd67 	bl	13264 <Write_Command_Data>
   13cc4:	e1a01004 	mov	r1, r4
   13cc8:	e3a0004f 	mov	r0, #79	; 0x4f
   13ccc:	ebfffd64 	bl	13264 <Write_Command_Data>
   13cd0:	e1a01004 	mov	r1, r4
   13cd4:	e3a0004e 	mov	r0, #78	; 0x4e
   13cd8:	ebfffd61 	bl	13264 <Write_Command_Data>
   13cdc:	e59f51b0 	ldr	r5, [pc, #432]	; 13e94 <TFT_Init+0x514>
   13ce0:	e3a00022 	mov	r0, #34	; 0x22
   13ce4:	ebfffd2a 	bl	13194 <Write_Command>
   13ce8:	e59f61a8 	ldr	r6, [pc, #424]	; 13e98 <TFT_Init+0x518>
   13cec:	e3a01001 	mov	r1, #1
   13cf0:	e3a00012 	mov	r0, #18
   13cf4:	ebfff788 	bl	11b1c <bcm2835_gpio_write>
   13cf8:	e08f5005 	add	r5, pc, r5
   13cfc:	e1a00004 	mov	r0, r4
   13d00:	ebfffd8d 	bl	1333c <TFT_Fill>
   13d04:	e1a01004 	mov	r1, r4
   13d08:	e1a00005 	mov	r0, r5
   13d0c:	e58d4004 	str	r4, [sp, #4]
   13d10:	e58d6000 	str	r6, [sp]
   13d14:	e3a03008 	mov	r3, #8
   13d18:	e3a0202e 	mov	r2, #46	; 0x2e
   13d1c:	ebfffef6 	bl	138fc <TFT_Text>
   13d20:	e2850014 	add	r0, r5, #20
   13d24:	e58d4004 	str	r4, [sp, #4]
   13d28:	e58d6000 	str	r6, [sp]
   13d2c:	e3a03008 	mov	r3, #8
   13d30:	e3a0202e 	mov	r2, #46	; 0x2e
   13d34:	e3a0100a 	mov	r1, #10
   13d38:	ebfffeef 	bl	138fc <TFT_Text>
   13d3c:	e2850028 	add	r0, r5, #40	; 0x28
   13d40:	e58d4004 	str	r4, [sp, #4]
   13d44:	e58d6000 	str	r6, [sp]
   13d48:	e3a03008 	mov	r3, #8
   13d4c:	e3a0202e 	mov	r2, #46	; 0x2e
   13d50:	e3a01014 	mov	r1, #20
   13d54:	ebfffee8 	bl	138fc <TFT_Text>
   13d58:	e3a03b3e 	mov	r3, #63488	; 0xf800
   13d5c:	e3a0202e 	mov	r2, #46	; 0x2e
   13d60:	e3a0101e 	mov	r1, #30
   13d64:	e2850044 	add	r0, r5, #68	; 0x44
   13d68:	e58d3000 	str	r3, [sp]
   13d6c:	e58d4004 	str	r4, [sp, #4]
   13d70:	e3a03008 	mov	r3, #8
   13d74:	ebfffee0 	bl	138fc <TFT_Text>
   13d78:	e3a00002 	mov	r0, #2
   13d7c:	ebfff6df 	bl	11900 <Delays>
   13d80:	e1a00004 	mov	r0, r4
   13d84:	ebfffd6c 	bl	1333c <TFT_Fill>
   13d88:	e59f310c 	ldr	r3, [pc, #268]	; 13e9c <TFT_Init+0x51c>
   13d8c:	e59f210c 	ldr	r2, [pc, #268]	; 13ea0 <TFT_Init+0x520>
   13d90:	e08f3003 	add	r3, pc, r3
   13d94:	e7930002 	ldr	r0, [r3, r2]
   13d98:	e59f1104 	ldr	r1, [pc, #260]	; 13ea4 <TFT_Init+0x524>
   13d9c:	e5c04000 	strb	r4, [r0]
   13da0:	e7930001 	ldr	r0, [r3, r1]
   13da4:	e59f20fc 	ldr	r2, [pc, #252]	; 13ea8 <TFT_Init+0x528>
   13da8:	e5c04000 	strb	r4, [r0]
   13dac:	e7930002 	ldr	r0, [r3, r2]
   13db0:	e59f10f4 	ldr	r1, [pc, #244]	; 13eac <TFT_Init+0x52c>
   13db4:	e5c04000 	strb	r4, [r0]
   13db8:	e7930001 	ldr	r0, [r3, r1]
   13dbc:	e59f20ec 	ldr	r2, [pc, #236]	; 13eb0 <TFT_Init+0x530>
   13dc0:	e5c04000 	strb	r4, [r0]
   13dc4:	e7930002 	ldr	r0, [r3, r2]
   13dc8:	e59f10e4 	ldr	r1, [pc, #228]	; 13eb4 <TFT_Init+0x534>
   13dcc:	e5804000 	str	r4, [r0]
   13dd0:	e7930001 	ldr	r0, [r3, r1]
   13dd4:	e59f20dc 	ldr	r2, [pc, #220]	; 13eb8 <TFT_Init+0x538>
   13dd8:	e5804000 	str	r4, [r0]
   13ddc:	e7930002 	ldr	r0, [r3, r2]
   13de0:	e59f10d4 	ldr	r1, [pc, #212]	; 13ebc <TFT_Init+0x53c>
   13de4:	e5c04000 	strb	r4, [r0]
   13de8:	e7930001 	ldr	r0, [r3, r1]
   13dec:	e59f20cc 	ldr	r2, [pc, #204]	; 13ec0 <TFT_Init+0x540>
   13df0:	e5804000 	str	r4, [r0]
   13df4:	e7930002 	ldr	r0, [r3, r2]
   13df8:	e59f10c4 	ldr	r1, [pc, #196]	; 13ec4 <TFT_Init+0x544>
   13dfc:	e5804000 	str	r4, [r0]
   13e00:	e7930001 	ldr	r0, [r3, r1]
   13e04:	e59f20bc 	ldr	r2, [pc, #188]	; 13ec8 <TFT_Init+0x548>
   13e08:	e5804000 	str	r4, [r0]
   13e0c:	e7930002 	ldr	r0, [r3, r2]
   13e10:	e59f10b4 	ldr	r1, [pc, #180]	; 13ecc <TFT_Init+0x54c>
   13e14:	e5804000 	str	r4, [r0]
   13e18:	e7930001 	ldr	r0, [r3, r1]
   13e1c:	e59f20ac 	ldr	r2, [pc, #172]	; 13ed0 <TFT_Init+0x550>
   13e20:	e5804000 	str	r4, [r0]
   13e24:	e7930002 	ldr	r0, [r3, r2]
   13e28:	e59f10a4 	ldr	r1, [pc, #164]	; 13ed4 <TFT_Init+0x554>
   13e2c:	e5c04000 	strb	r4, [r0]
   13e30:	e7930001 	ldr	r0, [r3, r1]
   13e34:	e59f209c 	ldr	r2, [pc, #156]	; 13ed8 <TFT_Init+0x558>
   13e38:	e5c04000 	strb	r4, [r0]
   13e3c:	e7930002 	ldr	r0, [r3, r2]
   13e40:	e59f1094 	ldr	r1, [pc, #148]	; 13edc <TFT_Init+0x55c>
   13e44:	e5c04000 	strb	r4, [r0]
   13e48:	e7931001 	ldr	r1, [r3, r1]
   13e4c:	e59f208c 	ldr	r2, [pc, #140]	; 13ee0 <TFT_Init+0x560>
   13e50:	e5c14000 	strb	r4, [r1]
   13e54:	e7933002 	ldr	r3, [r3, r2]
   13e58:	e5834000 	str	r4, [r3]
   13e5c:	e28dd008 	add	sp, sp, #8
   13e60:	e8bd8070 	pop	{r4, r5, r6, pc}
   13e64:	fffff5c8 			; <UNDEFINED> instruction: 0xfffff5c8
   13e68:	0000205c 	andeq	r2, r0, ip, asr r0
   13e6c:	0000a8a4 	andeq	sl, r0, r4, lsr #17
   13e70:	0000080c 	andeq	r0, r0, ip, lsl #16
   13e74:	0000293f 	andeq	r2, r0, pc, lsr r9
   13e78:	00006078 	andeq	r6, r0, r8, ror r0
   13e7c:	0000ef1c 	andeq	lr, r0, ip, lsl pc
   13e80:	0000013f 	andeq	r0, r0, pc, lsr r1
   13e84:	00000707 	andeq	r0, r0, r7, lsl #14
   13e88:	00000502 	andeq	r0, r0, r2, lsl #10
   13e8c:	00000507 	andeq	r0, r0, r7, lsl #10
   13e90:	00000302 	andeq	r0, r0, r2, lsl #6
   13e94:	0000273c 	andeq	r2, r0, ip, lsr r7
   13e98:	0000ffff 	strdeq	pc, [r0], -pc	; <UNPREDICTABLE>
   13e9c:	00005044 	andeq	r5, r0, r4, asr #32
   13ea0:	000001b4 			; <UNDEFINED> instruction: 0x000001b4
   13ea4:	0000013c 	andeq	r0, r0, ip, lsr r1
   13ea8:	000001c8 	andeq	r0, r0, r8, asr #3
   13eac:	000001e8 	andeq	r0, r0, r8, ror #3
   13eb0:	000001f8 	strdeq	r0, [r0], -r8
   13eb4:	0000004c 	andeq	r0, r0, ip, asr #32
   13eb8:	000000dc 	ldrdeq	r0, [r0], -ip
   13ebc:	000001dc 	ldrdeq	r0, [r0], -ip
   13ec0:	000000e8 	andeq	r0, r0, r8, ror #1
   13ec4:	00000094 	muleq	r0, r4, r0
   13ec8:	0000000c 	andeq	r0, r0, ip
   13ecc:	000001b0 			; <UNDEFINED> instruction: 0x000001b0
   13ed0:	00000130 	andeq	r0, r0, r0, lsr r1
   13ed4:	00000198 	muleq	r0, r8, r1
   13ed8:	000000e0 	andeq	r0, r0, r0, ror #1
   13edc:	00000188 	andeq	r0, r0, r8, lsl #3
   13ee0:	000000f0 	strdeq	r0, [r0], -r0	; <UNPREDICTABLE>

00013ee4 <TFT_Image>:
   13ee4:	e92d4ff0 	push	{r4, r5, r6, r7, r8, r9, sl, fp, lr}
   13ee8:	e1a0a000 	mov	sl, r0
   13eec:	e1a07001 	mov	r7, r1
   13ef0:	e24dd01c 	sub	sp, sp, #28
   13ef4:	e0814002 	add	r4, r1, r2
   13ef8:	e08a6003 	add	r6, sl, r3
   13efc:	e3a01000 	mov	r1, #0
   13f00:	e3a00012 	mov	r0, #18
   13f04:	e1a05003 	mov	r5, r3
   13f08:	e58d300c 	str	r3, [sp, #12]
   13f0c:	e58d4008 	str	r4, [sp, #8]
   13f10:	e58d6004 	str	r6, [sp, #4]
   13f14:	e59d8040 	ldr	r8, [sp, #64]	; 0x40
   13f18:	ebfff6ff 	bl	11b1c <bcm2835_gpio_write>
   13f1c:	e2443001 	sub	r3, r4, #1
   13f20:	e2462001 	sub	r2, r6, #1
   13f24:	e1a01007 	mov	r1, r7
   13f28:	e1a0000a 	mov	r0, sl
   13f2c:	ebfffcdc 	bl	132a4 <TFT_Set_Address>
   13f30:	e59f3088 	ldr	r3, [pc, #136]	; 13fc0 <TFT_Image+0xdc>
   13f34:	e1540007 	cmp	r4, r7
   13f38:	e08f3003 	add	r3, pc, r3
   13f3c:	e58d3010 	str	r3, [sp, #16]
   13f40:	9a000019 	bls	13fac <TFT_Image+0xc8>
   13f44:	e1a03105 	lsl	r3, r5, #2
   13f48:	e08a6407 	add	r6, sl, r7, lsl #8
   13f4c:	e58d3014 	str	r3, [sp, #20]
   13f50:	e59d3004 	ldr	r3, [sp, #4]
   13f54:	e153000a 	cmp	r3, sl
   13f58:	9a00000e 	bls	13f98 <TFT_Image+0xb4>
   13f5c:	e1a0b006 	mov	fp, r6
   13f60:	e1a09008 	mov	r9, r8
   13f64:	e59d300c 	ldr	r3, [sp, #12]
   13f68:	e59f1054 	ldr	r1, [pc, #84]	; 13fc4 <TFT_Image+0xe0>
   13f6c:	e0865003 	add	r5, r6, r3
   13f70:	e59d3010 	ldr	r3, [sp, #16]
   13f74:	e7934001 	ldr	r4, [r3, r1]
   13f78:	e584b000 	str	fp, [r4]
   13f7c:	e4990004 	ldr	r0, [r9], #4
   13f80:	e28bb001 	add	fp, fp, #1
   13f84:	ebfffc95 	bl	131e0 <Write_Data>
   13f88:	e15b0005 	cmp	fp, r5
   13f8c:	1afffff9 	bne	13f78 <TFT_Image+0x94>
   13f90:	e59d3014 	ldr	r3, [sp, #20]
   13f94:	e0888003 	add	r8, r8, r3
   13f98:	e59d3008 	ldr	r3, [sp, #8]
   13f9c:	e2877001 	add	r7, r7, #1
   13fa0:	e1530007 	cmp	r3, r7
   13fa4:	e2866c01 	add	r6, r6, #256	; 0x100
   13fa8:	1affffe8 	bne	13f50 <TFT_Image+0x6c>
   13fac:	e3a01001 	mov	r1, #1
   13fb0:	e3a00012 	mov	r0, #18
   13fb4:	e28dd01c 	add	sp, sp, #28
   13fb8:	e8bd4ff0 	pop	{r4, r5, r6, r7, r8, r9, sl, fp, lr}
   13fbc:	eafff6d6 	b	11b1c <bcm2835_gpio_write>
   13fc0:	00004e9c 	muleq	r0, ip, lr
   13fc4:	00000000 	andeq	r0, r0, r0

00013fc8 <TFT_InvertRect>:
   13fc8:	e12fff1e 	bx	lr

00013fcc <TFT_Scroll>:
   13fcc:	e92d4ff0 	push	{r4, r5, r6, r7, r8, r9, sl, fp, lr}
   13fd0:	e59f30cc 	ldr	r3, [pc, #204]	; 140a4 <TFT_Scroll+0xd8>
   13fd4:	e59f10cc 	ldr	r1, [pc, #204]	; 140a8 <TFT_Scroll+0xdc>
   13fd8:	e08f3003 	add	r3, pc, r3
   13fdc:	e793c001 	ldr	ip, [r3, r1]
   13fe0:	e59f20c4 	ldr	r2, [pc, #196]	; 140ac <TFT_Scroll+0xe0>
   13fe4:	e59ce000 	ldr	lr, [ip]
   13fe8:	e7931002 	ldr	r1, [r3, r2]
   13fec:	e24dd00c 	sub	sp, sp, #12
   13ff0:	e59f20b8 	ldr	r2, [pc, #184]	; 140b0 <TFT_Scroll+0xe4>
   13ff4:	e58de004 	str	lr, [sp, #4]
   13ff8:	e5919000 	ldr	r9, [r1]
   13ffc:	e7936002 	ldr	r6, [r3, r2]
   14000:	e1500009 	cmp	r0, r9
   14004:	e5860000 	str	r0, [r6]
   14008:	8a000023 	bhi	1409c <TFT_Scroll+0xd0>
   1400c:	e59fc0a0 	ldr	ip, [pc, #160]	; 140b4 <TFT_Scroll+0xe8>
   14010:	e59f10a0 	ldr	r1, [pc, #160]	; 140b8 <TFT_Scroll+0xec>
   14014:	e59f20a0 	ldr	r2, [pc, #160]	; 140bc <TFT_Scroll+0xf0>
   14018:	e793b00c 	ldr	fp, [r3, ip]
   1401c:	e7935001 	ldr	r5, [r3, r1]
   14020:	e7938002 	ldr	r8, [r3, r2]
   14024:	e28e7001 	add	r7, lr, #1
   14028:	e3a04000 	mov	r4, #0
   1402c:	e1a00500 	lsl	r0, r0, #10
   14030:	e59b3000 	ldr	r3, [fp]
   14034:	e2400004 	sub	r0, r0, #4
   14038:	e0833000 	add	r3, r3, r0
   1403c:	e5b32004 	ldr	r2, [r3, #4]!
   14040:	e7852104 	str	r2, [r5, r4, lsl #2]
   14044:	e2844001 	add	r4, r4, #1
   14048:	e1540007 	cmp	r4, r7
   1404c:	1afffffa 	bne	1403c <TFT_Scroll+0x70>
   14050:	e3a02000 	mov	r2, #0
   14054:	e59d3004 	ldr	r3, [sp, #4]
   14058:	e1a01002 	mov	r1, r2
   1405c:	e1a00002 	mov	r0, r2
   14060:	ebfffc8f 	bl	132a4 <TFT_Set_Address>
   14064:	e3a0a000 	mov	sl, #0
   14068:	e5962000 	ldr	r2, [r6]
   1406c:	e795010a 	ldr	r0, [r5, sl, lsl #2]
   14070:	e08a2402 	add	r2, sl, r2, lsl #8
   14074:	e28aa001 	add	sl, sl, #1
   14078:	e5882000 	str	r2, [r8]
   1407c:	ebfffc57 	bl	131e0 <Write_Data>
   14080:	e15a0004 	cmp	sl, r4
   14084:	1afffff7 	bne	14068 <TFT_Scroll+0x9c>
   14088:	e5960000 	ldr	r0, [r6]
   1408c:	e2800001 	add	r0, r0, #1
   14090:	e1500009 	cmp	r0, r9
   14094:	e5860000 	str	r0, [r6]
   14098:	9affffe2 	bls	14028 <TFT_Scroll+0x5c>
   1409c:	e28dd00c 	add	sp, sp, #12
   140a0:	e8bd8ff0 	pop	{r4, r5, r6, r7, r8, r9, sl, fp, pc}
   140a4:	00004dfc 	strdeq	r4, [r0], -ip
   140a8:	000000d0 	ldrdeq	r0, [r0], -r0	; <UNPREDICTABLE>
   140ac:	00000194 	muleq	r0, r4, r1
   140b0:	000001a0 	andeq	r0, r0, r0, lsr #3
   140b4:	00000088 	andeq	r0, r0, r8, lsl #1
   140b8:	0000001c 	andeq	r0, r0, ip, lsl r0
   140bc:	00000000 	andeq	r0, r0, r0

000140c0 <TFT_SaveScreen>:
   140c0:	e92d41f0 	push	{r4, r5, r6, r7, r8, lr}
   140c4:	e59d5018 	ldr	r5, [sp, #24]
   140c8:	e59fc094 	ldr	ip, [pc, #148]	; 14164 <TFT_SaveScreen+0xa4>
   140cc:	e0925005 	adds	r5, r2, r5
   140d0:	23a07001 	movcs	r7, #1
   140d4:	33a07000 	movcc	r7, #0
   140d8:	e59f4088 	ldr	r4, [pc, #136]	; 14168 <TFT_SaveScreen+0xa8>
   140dc:	e59fe088 	ldr	lr, [pc, #136]	; 1416c <TFT_SaveScreen+0xac>
   140e0:	e08fc00c 	add	ip, pc, ip
   140e4:	e0913003 	adds	r3, r1, r3
   140e8:	e79c4004 	ldr	r4, [ip, r4]
   140ec:	e79ce00e 	ldr	lr, [ip, lr]
   140f0:	23a06001 	movcs	r6, #1
   140f4:	33a06000 	movcc	r6, #0
   140f8:	e3570000 	cmp	r7, #0
   140fc:	e0800100 	add	r0, r0, r0, lsl #2
   14100:	e5947000 	ldr	r7, [r4]
   14104:	e58e2000 	str	r2, [lr]
   14108:	18bd81f0 	popne	{r4, r5, r6, r7, r8, pc}
   1410c:	e59f805c 	ldr	r8, [pc, #92]	; 14170 <TFT_SaveScreen+0xb0>
   14110:	e1a00880 	lsl	r0, r0, #17
   14114:	e79cc008 	ldr	ip, [ip, r8]
   14118:	e0874000 	add	r4, r7, r0
   1411c:	e3560000 	cmp	r6, #0
   14120:	e58c1000 	str	r1, [ip]
   14124:	1a000009 	bne	14150 <TFT_SaveScreen+0x90>
   14128:	e1a00001 	mov	r0, r1
   1412c:	e0800402 	add	r0, r0, r2, lsl #8
   14130:	e7972100 	ldr	r2, [r7, r0, lsl #2]
   14134:	e7842100 	str	r2, [r4, r0, lsl #2]
   14138:	e59c0000 	ldr	r0, [ip]
   1413c:	e59e2000 	ldr	r2, [lr]
   14140:	e2800001 	add	r0, r0, #1
   14144:	e1500003 	cmp	r0, r3
   14148:	e58c0000 	str	r0, [ip]
   1414c:	9afffff6 	bls	1412c <TFT_SaveScreen+0x6c>
   14150:	e2822001 	add	r2, r2, #1
   14154:	e1520005 	cmp	r2, r5
   14158:	e58e2000 	str	r2, [lr]
   1415c:	9affffee 	bls	1411c <TFT_SaveScreen+0x5c>
   14160:	e8bd81f0 	pop	{r4, r5, r6, r7, r8, pc}
   14164:	00004cf4 	strdeq	r4, [r0], -r4	; <UNPREDICTABLE>
   14168:	00000088 	andeq	r0, r0, r8, lsl #1
   1416c:	000001a0 	andeq	r0, r0, r0, lsr #3
   14170:	00000110 	andeq	r0, r0, r0, lsl r1

00014174 <TFT_RestoreScreen>:
   14174:	e92d4ff0 	push	{r4, r5, r6, r7, r8, r9, sl, fp, lr}
   14178:	e1a0a001 	mov	sl, r1
   1417c:	e24dd00c 	sub	sp, sp, #12
   14180:	e59dc030 	ldr	ip, [sp, #48]	; 0x30
   14184:	e59fb0c8 	ldr	fp, [pc, #200]	; 14254 <TFT_RestoreScreen+0xe0>
   14188:	e092100c 	adds	r1, r2, ip
   1418c:	e58d1004 	str	r1, [sp, #4]
   14190:	e59f10c0 	ldr	r1, [pc, #192]	; 14258 <TFT_RestoreScreen+0xe4>
   14194:	e08fb00b 	add	fp, pc, fp
   14198:	23a0e001 	movcs	lr, #1
   1419c:	33a0e000 	movcc	lr, #0
   141a0:	e09a6003 	adds	r6, sl, r3
   141a4:	e79b5001 	ldr	r5, [fp, r1]
   141a8:	23a01001 	movcs	r1, #1
   141ac:	33a01000 	movcc	r1, #0
   141b0:	e59fc0a4 	ldr	ip, [pc, #164]	; 1425c <TFT_RestoreScreen+0xe8>
   141b4:	e35e0000 	cmp	lr, #0
   141b8:	e79b300c 	ldr	r3, [fp, ip]
   141bc:	e0800100 	add	r0, r0, r0, lsl #2
   141c0:	e58d1000 	str	r1, [sp]
   141c4:	e5939000 	ldr	r9, [r3]
   141c8:	e5852000 	str	r2, [r5]
   141cc:	1a00001e 	bne	1424c <TFT_RestoreScreen+0xd8>
   141d0:	e59f3088 	ldr	r3, [pc, #136]	; 14260 <TFT_RestoreScreen+0xec>
   141d4:	e1a08880 	lsl	r8, r0, #17
   141d8:	e79b4003 	ldr	r4, [fp, r3]
   141dc:	e1a03006 	mov	r3, r6
   141e0:	e1a00002 	mov	r0, r2
   141e4:	e1a0100a 	mov	r1, sl
   141e8:	ebfffc2d 	bl	132a4 <TFT_Set_Address>
   141ec:	e59d3000 	ldr	r3, [sp]
   141f0:	e584a000 	str	sl, [r4]
   141f4:	e3530000 	cmp	r3, #0
   141f8:	1a00000d 	bne	14234 <TFT_RestoreScreen+0xc0>
   141fc:	e1a0300a 	mov	r3, sl
   14200:	e59f205c 	ldr	r2, [pc, #92]	; 14264 <TFT_RestoreScreen+0xf0>
   14204:	e79b7002 	ldr	r7, [fp, r2]
   14208:	e5952000 	ldr	r2, [r5]
   1420c:	e0833402 	add	r3, r3, r2, lsl #8
   14210:	e0892103 	add	r2, r9, r3, lsl #2
   14214:	e7920008 	ldr	r0, [r2, r8]
   14218:	e5873000 	str	r3, [r7]
   1421c:	ebfffbef 	bl	131e0 <Write_Data>
   14220:	e5943000 	ldr	r3, [r4]
   14224:	e2833001 	add	r3, r3, #1
   14228:	e1530006 	cmp	r3, r6
   1422c:	e5843000 	str	r3, [r4]
   14230:	9afffff4 	bls	14208 <TFT_RestoreScreen+0x94>
   14234:	e5952000 	ldr	r2, [r5]
   14238:	e59d3004 	ldr	r3, [sp, #4]
   1423c:	e2822001 	add	r2, r2, #1
   14240:	e1520003 	cmp	r2, r3
   14244:	e5852000 	str	r2, [r5]
   14248:	9affffe3 	bls	141dc <TFT_RestoreScreen+0x68>
   1424c:	e28dd00c 	add	sp, sp, #12
   14250:	e8bd8ff0 	pop	{r4, r5, r6, r7, r8, r9, sl, fp, pc}
   14254:	00004c40 	andeq	r4, r0, r0, asr #24
   14258:	000001a0 	andeq	r0, r0, r0, lsr #3
   1425c:	00000088 	andeq	r0, r0, r8, lsl #1
   14260:	00000110 	andeq	r0, r0, r0, lsl r1
   14264:	00000000 	andeq	r0, r0, r0

00014268 <fabs>:
   14268:	e3500000 	cmp	r0, #0
   1426c:	b2600000 	rsblt	r0, r0, #0
   14270:	e12fff1e 	bx	lr

00014274 <TFT_Line>:
   14274:	e92d4ff0 	push	{r4, r5, r6, r7, r8, r9, sl, fp, lr}
   14278:	e1a05000 	mov	r5, r0
   1427c:	e24dd00c 	sub	sp, sp, #12
   14280:	e0420000 	sub	r0, r2, r0
   14284:	e1a04001 	mov	r4, r1
   14288:	e1a06003 	mov	r6, r3
   1428c:	e1a07002 	mov	r7, r2
   14290:	ebfffff4 	bl	14268 <fabs>
   14294:	e1a08000 	mov	r8, r0
   14298:	e0460004 	sub	r0, r6, r4
   1429c:	ebfffff1 	bl	14268 <fabs>
   142a0:	e1570005 	cmp	r7, r5
   142a4:	23a09001 	movcs	r9, #1
   142a8:	33e09000 	mvncc	r9, #0
   142ac:	e1560004 	cmp	r6, r4
   142b0:	23a0a001 	movcs	sl, #1
   142b4:	33e0a000 	mvncc	sl, #0
   142b8:	e1580000 	cmp	r8, r0
   142bc:	ba000015 	blt	14318 <TFT_Line+0xa4>
   142c0:	e1a07080 	lsl	r7, r0, #1
   142c4:	e2983001 	adds	r3, r8, #1
   142c8:	e58d3004 	str	r3, [sp, #4]
   142cc:	e0476008 	sub	r6, r7, r8
   142d0:	0a00000e 	beq	14310 <TFT_Line+0x9c>
   142d4:	e3a0b001 	mov	fp, #1
   142d8:	e1a08b18 	lsl	r8, r8, fp
   142dc:	e1a01004 	mov	r1, r4
   142e0:	e1a00005 	mov	r0, r5
   142e4:	e59d2030 	ldr	r2, [sp, #48]	; 0x30
   142e8:	ebfffc77 	bl	134cc <TFT_Dot>
   142ec:	e59d3004 	ldr	r3, [sp, #4]
   142f0:	e3560000 	cmp	r6, #0
   142f4:	e28bb001 	add	fp, fp, #1
   142f8:	e0876006 	add	r6, r7, r6
   142fc:	a0466008 	subge	r6, r6, r8
   14300:	a084400a 	addge	r4, r4, sl
   14304:	e15b0003 	cmp	fp, r3
   14308:	e0855009 	add	r5, r5, r9
   1430c:	9afffff2 	bls	142dc <TFT_Line+0x68>
   14310:	e28dd00c 	add	sp, sp, #12
   14314:	e8bd8ff0 	pop	{r4, r5, r6, r7, r8, r9, sl, fp, pc}
   14318:	e1a08088 	lsl	r8, r8, #1
   1431c:	e290b001 	adds	fp, r0, #1
   14320:	e0486000 	sub	r6, r8, r0
   14324:	0afffff9 	beq	14310 <TFT_Line+0x9c>
   14328:	e3a07001 	mov	r7, #1
   1432c:	e1a03710 	lsl	r3, r0, r7
   14330:	e58d3004 	str	r3, [sp, #4]
   14334:	e1a01004 	mov	r1, r4
   14338:	e1a00005 	mov	r0, r5
   1433c:	e59d2030 	ldr	r2, [sp, #48]	; 0x30
   14340:	ebfffc61 	bl	134cc <TFT_Dot>
   14344:	e3560000 	cmp	r6, #0
   14348:	a59d3004 	ldrge	r3, [sp, #4]
   1434c:	e0886006 	add	r6, r8, r6
   14350:	e2877001 	add	r7, r7, #1
   14354:	a0466003 	subge	r6, r6, r3
   14358:	a0855009 	addge	r5, r5, r9
   1435c:	e157000b 	cmp	r7, fp
   14360:	e084400a 	add	r4, r4, sl
   14364:	9afffff2 	bls	14334 <TFT_Line+0xc0>
   14368:	e28dd00c 	add	sp, sp, #12
   1436c:	e8bd8ff0 	pop	{r4, r5, r6, r7, r8, r9, sl, fp, pc}

00014370 <ReadKeyMatrix>:
   14370:	e3a0c000 	mov	ip, #0
   14374:	e92d4030 	push	{r4, r5, lr}
   14378:	e59f503c 	ldr	r5, [pc, #60]	; 143bc <ReadKeyMatrix+0x4c>
   1437c:	e59fe03c 	ldr	lr, [pc, #60]	; 143c0 <ReadKeyMatrix+0x50>
   14380:	e08f5005 	add	r5, pc, r5
   14384:	e59f4038 	ldr	r4, [pc, #56]	; 143c4 <ReadKeyMatrix+0x54>
   14388:	e795e00e 	ldr	lr, [r5, lr]
   1438c:	e0811081 	add	r1, r1, r1, lsl #1
   14390:	e1a0300c 	mov	r3, ip
   14394:	e7954004 	ldr	r4, [r5, r4]
   14398:	e08e1101 	add	r1, lr, r1, lsl #2
   1439c:	e084e003 	add	lr, r4, r3
   143a0:	e7dee000 	ldrb	lr, [lr, r0]
   143a4:	e28cc001 	add	ip, ip, #1
   143a8:	e7c1e003 	strb	lr, [r1, r3]
   143ac:	e6ef307c 	uxtb	r3, ip
   143b0:	e1520003 	cmp	r2, r3
   143b4:	2afffff8 	bcs	1439c <ReadKeyMatrix+0x2c>
   143b8:	e8bd8030 	pop	{r4, r5, pc}
   143bc:	00004a54 	andeq	r4, r0, r4, asr sl
   143c0:	0000019c 	muleq	r0, ip, r1
   143c4:	00000028 	andeq	r0, r0, r8, lsr #32

000143c8 <HideKeyboard>:
   143c8:	e92d4010 	push	{r4, lr}
   143cc:	e3a0e000 	mov	lr, #0
   143d0:	e3a04048 	mov	r4, #72	; 0x48
   143d4:	e59f3030 	ldr	r3, [pc, #48]	; 1440c <HideKeyboard+0x44>
   143d8:	e59fc030 	ldr	ip, [pc, #48]	; 14410 <HideKeyboard+0x48>
   143dc:	e08f3003 	add	r3, pc, r3
   143e0:	e793c00c 	ldr	ip, [r3, ip]
   143e4:	e24dd008 	sub	sp, sp, #8
   143e8:	e1a02001 	mov	r2, r1
   143ec:	e1a01000 	mov	r1, r0
   143f0:	e58d4000 	str	r4, [sp]
   143f4:	e1a0000e 	mov	r0, lr
   143f8:	e3a030dd 	mov	r3, #221	; 0xdd
   143fc:	e5cce000 	strb	lr, [ip]
   14400:	ebffff5b 	bl	14174 <TFT_RestoreScreen>
   14404:	e28dd008 	add	sp, sp, #8
   14408:	e8bd8010 	pop	{r4, pc}
   1440c:	000049f8 	strdeq	r4, [r0], -r8
   14410:	00000198 	muleq	r0, r8, r1

00014414 <ShowKeyboard>:
   14414:	e92d4ff0 	push	{r4, r5, r6, r7, r8, r9, sl, fp, lr}
   14418:	e59f757c 	ldr	r7, [pc, #1404]	; 1499c <ShowKeyboard+0x588>
   1441c:	e59f357c 	ldr	r3, [pc, #1404]	; 149a0 <ShowKeyboard+0x58c>
   14420:	e08f7007 	add	r7, pc, r7
   14424:	e7975003 	ldr	r5, [r7, r3]
   14428:	e1a0a000 	mov	sl, r0
   1442c:	e5d50000 	ldrb	r0, [r5]
   14430:	e24dd044 	sub	sp, sp, #68	; 0x44
   14434:	e21000ff 	ands	r0, r0, #255	; 0xff
   14438:	e58d1008 	str	r1, [sp, #8]
   1443c:	e1a04002 	mov	r4, r2
   14440:	0a000108 	beq	14868 <ShowKeyboard+0x454>
   14444:	e59f3558 	ldr	r3, [pc, #1368]	; 149a4 <ShowKeyboard+0x590>
   14448:	e7978003 	ldr	r8, [r7, r3]
   1444c:	e5d83000 	ldrb	r3, [r8]
   14450:	e21330ff 	ands	r3, r3, #255	; 0xff
   14454:	0a0000fc 	beq	1484c <ShowKeyboard+0x438>
   14458:	e3530001 	cmp	r3, #1
   1445c:	0a000095 	beq	146b8 <ShowKeyboard+0x2a4>
   14460:	e59f2540 	ldr	r2, [pc, #1344]	; 149a8 <ShowKeyboard+0x594>
   14464:	e59f3540 	ldr	r3, [pc, #1344]	; 149ac <ShowKeyboard+0x598>
   14468:	e7972002 	ldr	r2, [r7, r2]
   1446c:	e7975003 	ldr	r5, [r7, r3]
   14470:	e5d23000 	ldrb	r3, [r2]
   14474:	e5d51000 	ldrb	r1, [r5]
   14478:	e3530000 	cmp	r3, #0
   1447c:	03a03070 	moveq	r3, #112	; 0x70
   14480:	13a03050 	movne	r3, #80	; 0x50
   14484:	e58d3018 	str	r3, [sp, #24]
   14488:	03a03061 	moveq	r3, #97	; 0x61
   1448c:	13a03041 	movne	r3, #65	; 0x41
   14490:	e58d3014 	str	r3, [sp, #20]
   14494:	03a03063 	moveq	r3, #99	; 0x63
   14498:	13a03043 	movne	r3, #67	; 0x43
   1449c:	e21110ff 	ands	r1, r1, #255	; 0xff
   144a0:	e58d3010 	str	r3, [sp, #16]
   144a4:	0a0000f8 	beq	1488c <ShowKeyboard+0x478>
   144a8:	e5d56000 	ldrb	r6, [r5]
   144ac:	e6ef6076 	uxtb	r6, r6
   144b0:	e3560001 	cmp	r6, #1
   144b4:	0a00011b 	beq	14928 <ShowKeyboard+0x514>
   144b8:	e5d56000 	ldrb	r6, [r5]
   144bc:	e6ef6076 	uxtb	r6, r6
   144c0:	e3560002 	cmp	r6, #2
   144c4:	0a000101 	beq	148d0 <ShowKeyboard+0x4bc>
   144c8:	e3a00042 	mov	r0, #66	; 0x42
   144cc:	e3a01043 	mov	r1, #67	; 0x43
   144d0:	e3a03041 	mov	r3, #65	; 0x41
   144d4:	e1cd02f0 	strd	r0, [sp, #32]
   144d8:	e58d301c 	str	r3, [sp, #28]
   144dc:	e59f34cc 	ldr	r3, [pc, #1228]	; 149b0 <ShowKeyboard+0x59c>
   144e0:	e7973003 	ldr	r3, [r7, r3]
   144e4:	e5d32000 	ldrb	r2, [r3]
   144e8:	e3520000 	cmp	r2, #0
   144ec:	0a000005 	beq	14508 <ShowKeyboard+0xf4>
   144f0:	e5d32000 	ldrb	r2, [r3]
   144f4:	e3520000 	cmp	r2, #0
   144f8:	0a000075 	beq	146d4 <ShowKeyboard+0x2c0>
   144fc:	e5d52000 	ldrb	r2, [r5]
   14500:	e3520000 	cmp	r2, #0
   14504:	0a000072 	beq	146d4 <ShowKeyboard+0x2c0>
   14508:	e3540000 	cmp	r4, #0
   1450c:	1a000074 	bne	146e4 <ShowKeyboard+0x2d0>
   14510:	e28a3007 	add	r3, sl, #7
   14514:	e58d300c 	str	r3, [sp, #12]
   14518:	e59d5008 	ldr	r5, [sp, #8]
   1451c:	e59f4490 	ldr	r4, [pc, #1168]	; 149b4 <ShowKeyboard+0x5a0>
   14520:	e2857036 	add	r7, r5, #54	; 0x36
   14524:	e2858046 	add	r8, r5, #70	; 0x46
   14528:	e1a00007 	mov	r0, r7
   1452c:	e1a02008 	mov	r2, r8
   14530:	e28a30ba 	add	r3, sl, #186	; 0xba
   14534:	e28a1028 	add	r1, sl, #40	; 0x28
   14538:	e58d4000 	str	r4, [sp]
   1453c:	ebfffbb1 	bl	13408 <TFT_Box>
   14540:	e28ae00b 	add	lr, sl, #11
   14544:	e1a00005 	mov	r0, r5
   14548:	e1a0900e 	mov	r9, lr
   1454c:	e3a06000 	mov	r6, #0
   14550:	e28ab025 	add	fp, sl, #37	; 0x25
   14554:	e2855028 	add	r5, r5, #40	; 0x28
   14558:	e1a0300b 	mov	r3, fp
   1455c:	e2802034 	add	r2, r0, #52	; 0x34
   14560:	e59d100c 	ldr	r1, [sp, #12]
   14564:	e58d0008 	str	r0, [sp, #8]
   14568:	e58d4000 	str	r4, [sp]
   1456c:	e2800024 	add	r0, r0, #36	; 0x24
   14570:	ebfffba4 	bl	13408 <TFT_Box>
   14574:	e59d0010 	ldr	r0, [sp, #16]
   14578:	e1a01005 	mov	r1, r5
   1457c:	e58d9010 	str	r9, [sp, #16]
   14580:	e1a02009 	mov	r2, r9
   14584:	e58d4004 	str	r4, [sp, #4]
   14588:	e28a9013 	add	r9, sl, #19
   1458c:	e58d6000 	str	r6, [sp]
   14590:	e3a03008 	mov	r3, #8
   14594:	ebfffc64 	bl	1372c <TFT_Char>
   14598:	e59d0014 	ldr	r0, [sp, #20]
   1459c:	e1a01005 	mov	r1, r5
   145a0:	e1a02009 	mov	r2, r9
   145a4:	e58d4004 	str	r4, [sp, #4]
   145a8:	e58d6000 	str	r6, [sp]
   145ac:	e3a03008 	mov	r3, #8
   145b0:	ebfffc5d 	bl	1372c <TFT_Char>
   145b4:	e59dc008 	ldr	ip, [sp, #8]
   145b8:	e1a01005 	mov	r1, r5
   145bc:	e59d0018 	ldr	r0, [sp, #24]
   145c0:	e28a201b 	add	r2, sl, #27
   145c4:	e58d4004 	str	r4, [sp, #4]
   145c8:	e58d6000 	str	r6, [sp]
   145cc:	e3a03008 	mov	r3, #8
   145d0:	e28c503a 	add	r5, ip, #58	; 0x3a
   145d4:	ebfffc54 	bl	1372c <TFT_Char>
   145d8:	e1a0300b 	mov	r3, fp
   145dc:	e59d100c 	ldr	r1, [sp, #12]
   145e0:	e1a02008 	mov	r2, r8
   145e4:	e1a00007 	mov	r0, r7
   145e8:	e58d4000 	str	r4, [sp]
   145ec:	ebfffb85 	bl	13408 <TFT_Box>
   145f0:	e59d2010 	ldr	r2, [sp, #16]
   145f4:	e59d001c 	ldr	r0, [sp, #28]
   145f8:	e1a01005 	mov	r1, r5
   145fc:	e58d4004 	str	r4, [sp, #4]
   14600:	e58d6000 	str	r6, [sp]
   14604:	e3a03008 	mov	r3, #8
   14608:	ebfffc47 	bl	1372c <TFT_Char>
   1460c:	e1a02009 	mov	r2, r9
   14610:	e59d0020 	ldr	r0, [sp, #32]
   14614:	e1a01005 	mov	r1, r5
   14618:	e58d4004 	str	r4, [sp, #4]
   1461c:	e58d6000 	str	r6, [sp]
   14620:	e3a03008 	mov	r3, #8
   14624:	ebfffc40 	bl	1372c <TFT_Char>
   14628:	e28a201b 	add	r2, sl, #27
   1462c:	e1a01005 	mov	r1, r5
   14630:	e59d0024 	ldr	r0, [sp, #36]	; 0x24
   14634:	e58d4004 	str	r4, [sp, #4]
   14638:	e58d6000 	str	r6, [sp]
   1463c:	e3a03008 	mov	r3, #8
   14640:	ebfffc39 	bl	1372c <TFT_Char>
   14644:	e1a02008 	mov	r2, r8
   14648:	e1a00007 	mov	r0, r7
   1464c:	e28a30db 	add	r3, sl, #219	; 0xdb
   14650:	e28a10bd 	add	r1, sl, #189	; 0xbd
   14654:	e58d4000 	str	r4, [sp]
   14658:	ebfffb6a 	bl	13408 <TFT_Box>
   1465c:	e59d002c 	ldr	r0, [sp, #44]	; 0x2c
   14660:	e1a01007 	mov	r1, r7
   14664:	e28a20c1 	add	r2, sl, #193	; 0xc1
   14668:	e58d4004 	str	r4, [sp, #4]
   1466c:	e58d6000 	str	r6, [sp]
   14670:	e3a03008 	mov	r3, #8
   14674:	ebfffc2c 	bl	1372c <TFT_Char>
   14678:	e59d3028 	ldr	r3, [sp, #40]	; 0x28
   1467c:	e59d0030 	ldr	r0, [sp, #48]	; 0x30
   14680:	e1a01007 	mov	r1, r7
   14684:	e28a20c9 	add	r2, sl, #201	; 0xc9
   14688:	e58d4004 	str	r4, [sp, #4]
   1468c:	e58d6000 	str	r6, [sp]
   14690:	ebfffc25 	bl	1372c <TFT_Char>
   14694:	e58d4004 	str	r4, [sp, #4]
   14698:	e58d6000 	str	r6, [sp]
   1469c:	e1a01007 	mov	r1, r7
   146a0:	e28a20d1 	add	r2, sl, #209	; 0xd1
   146a4:	e59d0034 	ldr	r0, [sp, #52]	; 0x34
   146a8:	e3a03008 	mov	r3, #8
   146ac:	ebfffc1e 	bl	1372c <TFT_Char>
   146b0:	e28dd044 	add	sp, sp, #68	; 0x44
   146b4:	e8bd8ff0 	pop	{r4, r5, r6, r7, r8, r9, sl, fp, pc}
   146b8:	e3a03020 	mov	r3, #32
   146bc:	e3a02083 	mov	r2, #131	; 0x83
   146c0:	e58d302c 	str	r3, [sp, #44]	; 0x2c
   146c4:	e1cd23f0 	strd	r2, [sp, #48]	; 0x30
   146c8:	e3a03010 	mov	r3, #16
   146cc:	e58d3028 	str	r3, [sp, #40]	; 0x28
   146d0:	eaffff62 	b	14460 <ShowKeyboard+0x4c>
   146d4:	e3a02000 	mov	r2, #0
   146d8:	e5c32000 	strb	r2, [r3]
   146dc:	e28dd044 	add	sp, sp, #68	; 0x44
   146e0:	e8bd8ff0 	pop	{r4, r5, r6, r7, r8, r9, sl, fp, pc}
   146e4:	e3a02000 	mov	r2, #0
   146e8:	e59d0008 	ldr	r0, [sp, #8]
   146ec:	e28a30dd 	add	r3, sl, #221	; 0xdd
   146f0:	e58d2000 	str	r2, [sp]
   146f4:	e1a0100a 	mov	r1, sl
   146f8:	e2802048 	add	r2, r0, #72	; 0x48
   146fc:	ebfffb41 	bl	13408 <TFT_Box>
   14700:	e5d83000 	ldrb	r3, [r8]
   14704:	e3530000 	cmp	r3, #0
   14708:	1a00007d 	bne	14904 <ShowKeyboard+0x4f0>
   1470c:	e59d2008 	ldr	r2, [sp, #8]
   14710:	e59f32a0 	ldr	r3, [pc, #672]	; 149b8 <ShowKeyboard+0x5a4>
   14714:	e2822002 	add	r2, r2, #2
   14718:	e58d203c 	str	r2, [sp, #60]	; 0x3c
   1471c:	e7978003 	ldr	r8, [r7, r3]
   14720:	e3a06000 	mov	r6, #0
   14724:	e1a03002 	mov	r3, r2
   14728:	e58da038 	str	sl, [sp, #56]	; 0x38
   1472c:	e28a2007 	add	r2, sl, #7
   14730:	e1a0b006 	mov	fp, r6
   14734:	e1a0a003 	mov	sl, r3
   14738:	e58d200c 	str	r2, [sp, #12]
   1473c:	e0869086 	add	r9, r6, r6, lsl #1
   14740:	e1a09109 	lsl	r9, r9, #2
   14744:	e59d500c 	ldr	r5, [sp, #12]
   14748:	e3a04001 	mov	r4, #1
   1474c:	ea000014 	b	147a4 <ShowKeyboard+0x390>
   14750:	e3560001 	cmp	r6, #1
   14754:	0a000085 	beq	14970 <ShowKeyboard+0x55c>
   14758:	e3500001 	cmp	r0, #1
   1475c:	e7882103 	str	r2, [r8, r3, lsl #2]
   14760:	9a00000d 	bls	1479c <ShowKeyboard+0x388>
   14764:	e3500009 	cmp	r0, #9
   14768:	0a00002d 	beq	14824 <ShowKeyboard+0x410>
   1476c:	e797200c 	ldr	r2, [r7, ip]
   14770:	e3a03010 	mov	r3, #16
   14774:	e0821001 	add	r1, r2, r1
   14778:	e5d10018 	ldrb	r0, [r1, #24]
   1477c:	e59f1230 	ldr	r1, [pc, #560]	; 149b4 <ShowKeyboard+0x5a0>
   14780:	e1a02005 	mov	r2, r5
   14784:	e58d1004 	str	r1, [sp, #4]
   14788:	e58db000 	str	fp, [sp]
   1478c:	e1a0100a 	mov	r1, sl
   14790:	ebfffbe5 	bl	1372c <TFT_Char>
   14794:	e354000a 	cmp	r4, #10
   14798:	0a00001f 	beq	1481c <ShowKeyboard+0x408>
   1479c:	e2844001 	add	r4, r4, #1
   147a0:	e2855013 	add	r5, r5, #19
   147a4:	e3560000 	cmp	r6, #0
   147a8:	e59fc20c 	ldr	ip, [pc, #524]	; 149bc <ShowKeyboard+0x5a8>
   147ac:	e2441003 	sub	r1, r4, #3
   147b0:	e2452003 	sub	r2, r5, #3
   147b4:	e2843017 	add	r3, r4, #23
   147b8:	e2440001 	sub	r0, r4, #1
   147bc:	1affffe3 	bne	14750 <ShowKeyboard+0x33c>
   147c0:	e0842104 	add	r2, r4, r4, lsl #2
   147c4:	e1a03102 	lsl	r3, r2, #2
   147c8:	e59d2038 	ldr	r2, [sp, #56]	; 0x38
   147cc:	e2421010 	sub	r1, r2, #16
   147d0:	e0811003 	add	r1, r1, r3
   147d4:	e242200d 	sub	r2, r2, #13
   147d8:	e7881100 	str	r1, [r8, r0, lsl #2]
   147dc:	e59d103c 	ldr	r1, [sp, #60]	; 0x3c
   147e0:	e0822003 	add	r2, r2, r3
   147e4:	e59fc1d0 	ldr	ip, [pc, #464]	; 149bc <ShowKeyboard+0x5a8>
   147e8:	e3a03010 	mov	r3, #16
   147ec:	e797c00c 	ldr	ip, [r7, ip]
   147f0:	e08cc009 	add	ip, ip, r9
   147f4:	e7dc0000 	ldrb	r0, [ip, r0]
   147f8:	e59fc1b4 	ldr	ip, [pc, #436]	; 149b4 <ShowKeyboard+0x5a0>
   147fc:	e88d1800 	stm	sp, {fp, ip}
   14800:	ebfffbc9 	bl	1372c <TFT_Char>
   14804:	e354000a 	cmp	r4, #10
   14808:	1affffe3 	bne	1479c <ShowKeyboard+0x388>
   1480c:	e2866001 	add	r6, r6, #1
   14810:	e3560003 	cmp	r6, #3
   14814:	e28aa011 	add	sl, sl, #17
   14818:	1affffc7 	bne	1473c <ShowKeyboard+0x328>
   1481c:	e59da038 	ldr	sl, [sp, #56]	; 0x38
   14820:	eaffff3c 	b	14518 <ShowKeyboard+0x104>
   14824:	e3a00000 	mov	r0, #0
   14828:	e59f3184 	ldr	r3, [pc, #388]	; 149b4 <ShowKeyboard+0x5a0>
   1482c:	e1a0100a 	mov	r1, sl
   14830:	e88d0009 	stm	sp, {r0, r3}
   14834:	e1a02005 	mov	r2, r5
   14838:	e3a03010 	mov	r3, #16
   1483c:	e3a00082 	mov	r0, #130	; 0x82
   14840:	e59da038 	ldr	sl, [sp, #56]	; 0x38
   14844:	ebfffbb8 	bl	1372c <TFT_Char>
   14848:	eaffff32 	b	14518 <ShowKeyboard+0x104>
   1484c:	e3a0006e 	mov	r0, #110	; 0x6e
   14850:	e3a01064 	mov	r1, #100	; 0x64
   14854:	e1cd03f0 	strd	r0, [sp, #48]	; 0x30
   14858:	e3a00008 	mov	r0, #8
   1485c:	e3a01065 	mov	r1, #101	; 0x65
   14860:	e1cd02f8 	strd	r0, [sp, #40]	; 0x28
   14864:	eafffefd 	b	14460 <ShowKeyboard+0x4c>
   14868:	e3a03048 	mov	r3, #72	; 0x48
   1486c:	e1a02001 	mov	r2, r1
   14870:	e58d3000 	str	r3, [sp]
   14874:	e1a0100a 	mov	r1, sl
   14878:	e3a030dd 	mov	r3, #221	; 0xdd
   1487c:	ebfffe0f 	bl	140c0 <TFT_SaveScreen>
   14880:	e3a03001 	mov	r3, #1
   14884:	e5c53000 	strb	r3, [r5]
   14888:	eafffeed 	b	14444 <ShowKeyboard+0x30>
   1488c:	e1a00001 	mov	r0, r1
   14890:	e3a02009 	mov	r2, #9
   14894:	ebfffeb5 	bl	14370 <ReadKeyMatrix>
   14898:	e3a02009 	mov	r2, #9
   1489c:	e3a01001 	mov	r1, #1
   148a0:	e3a0000a 	mov	r0, #10
   148a4:	ebfffeb1 	bl	14370 <ReadKeyMatrix>
   148a8:	e3a01002 	mov	r1, #2
   148ac:	e3a00014 	mov	r0, #20
   148b0:	e3a02009 	mov	r2, #9
   148b4:	ebfffead 	bl	14370 <ReadKeyMatrix>
   148b8:	e3a00032 	mov	r0, #50	; 0x32
   148bc:	e3a01033 	mov	r1, #51	; 0x33
   148c0:	e3a03031 	mov	r3, #49	; 0x31
   148c4:	e1cd02f0 	strd	r0, [sp, #32]
   148c8:	e58d301c 	str	r3, [sp, #28]
   148cc:	eaffff02 	b	144dc <ShowKeyboard+0xc8>
   148d0:	e3a02009 	mov	r2, #9
   148d4:	e3a01000 	mov	r1, #0
   148d8:	e3a00040 	mov	r0, #64	; 0x40
   148dc:	ebfffea3 	bl	14370 <ReadKeyMatrix>
   148e0:	e3a02009 	mov	r2, #9
   148e4:	e3a01001 	mov	r1, #1
   148e8:	e3a0004a 	mov	r0, #74	; 0x4a
   148ec:	ebfffe9f 	bl	14370 <ReadKeyMatrix>
   148f0:	e1a01006 	mov	r1, r6
   148f4:	e3a02009 	mov	r2, #9
   148f8:	e3a00054 	mov	r0, #84	; 0x54
   148fc:	ebfffe9b 	bl	14370 <ReadKeyMatrix>
   14900:	eafffef0 	b	144c8 <ShowKeyboard+0xb4>
   14904:	e3a03b3e 	mov	r3, #63488	; 0xf800
   14908:	e59f20a4 	ldr	r2, [pc, #164]	; 149b4 <ShowKeyboard+0x5a0>
   1490c:	e59d1008 	ldr	r1, [sp, #8]
   14910:	e1cd20f0 	strd	r2, [sp]
   14914:	e3a00058 	mov	r0, #88	; 0x58
   14918:	e3a03010 	mov	r3, #16
   1491c:	e28a20ce 	add	r2, sl, #206	; 0xce
   14920:	ebfffb81 	bl	1372c <TFT_Char>
   14924:	eaffff78 	b	1470c <ShowKeyboard+0x2f8>
   14928:	e3a02009 	mov	r2, #9
   1492c:	e3a01000 	mov	r1, #0
   14930:	e3a00020 	mov	r0, #32
   14934:	ebfffe8d 	bl	14370 <ReadKeyMatrix>
   14938:	e1a01006 	mov	r1, r6
   1493c:	e3a02009 	mov	r2, #9
   14940:	e3a0002a 	mov	r0, #42	; 0x2a
   14944:	ebfffe89 	bl	14370 <ReadKeyMatrix>
   14948:	e3a01002 	mov	r1, #2
   1494c:	e3a00034 	mov	r0, #52	; 0x34
   14950:	e3a02009 	mov	r2, #9
   14954:	ebfffe85 	bl	14370 <ReadKeyMatrix>
   14958:	e3a0002b 	mov	r0, #43	; 0x2b
   1495c:	e3a0103d 	mov	r1, #61	; 0x3d
   14960:	e3a03023 	mov	r3, #35	; 0x23
   14964:	e1cd02f0 	strd	r0, [sp, #32]
   14968:	e58d301c 	str	r3, [sp, #28]
   1496c:	eafffeda 	b	144dc <ShowKeyboard+0xc8>
   14970:	e59d2038 	ldr	r2, [sp, #56]	; 0x38
   14974:	e0843104 	add	r3, r4, r4, lsl #2
   14978:	e1a03103 	lsl	r3, r3, #2
   1497c:	e242c00e 	sub	ip, r2, #14
   14980:	e284100b 	add	r1, r4, #11
   14984:	e08cc003 	add	ip, ip, r3
   14988:	e242200b 	sub	r2, r2, #11
   1498c:	e788c101 	str	ip, [r8, r1, lsl #2]
   14990:	e0822003 	add	r2, r2, r3
   14994:	e1a0100a 	mov	r1, sl
   14998:	eaffff91 	b	147e4 <ShowKeyboard+0x3d0>
   1499c:	000049b4 			; <UNDEFINED> instruction: 0x000049b4
   149a0:	00000198 	muleq	r0, r8, r1
   149a4:	00000040 	andeq	r0, r0, r0, asr #32
   149a8:	00000058 	andeq	r0, r0, r8, asr r0
   149ac:	00000168 	andeq	r0, r0, r8, ror #2
   149b0:	00000054 	andeq	r0, r0, r4, asr r0
   149b4:	0000ffff 	strdeq	pc, [r0], -pc	; <UNPREDICTABLE>
   149b8:	00000120 	andeq	r0, r0, r0, lsr #2
   149bc:	0000019c 	muleq	r0, ip, r1

000149c0 <ReturnKeyboard>:
   149c0:	e92d4ff0 	push	{r4, r5, r6, r7, r8, r9, sl, fp, lr}
   149c4:	e3a04000 	mov	r4, #0
   149c8:	e3a0b01f 	mov	fp, #31
   149cc:	e1a06003 	mov	r6, r3
   149d0:	e59f84f0 	ldr	r8, [pc, #1264]	; 14ec8 <ReturnKeyboard+0x508>
   149d4:	e59f34f0 	ldr	r3, [pc, #1264]	; 14ecc <ReturnKeyboard+0x50c>
   149d8:	e08f8008 	add	r8, pc, r8
   149dc:	e59fa4ec 	ldr	sl, [pc, #1260]	; 14ed0 <ReturnKeyboard+0x510>
   149e0:	e24dd014 	sub	sp, sp, #20
   149e4:	e7983003 	ldr	r3, [r8, r3]
   149e8:	e59f94e4 	ldr	r9, [pc, #1252]	; 14ed4 <ReturnKeyboard+0x514>
   149ec:	e08fa00a 	add	sl, pc, sl
   149f0:	e1a07001 	mov	r7, r1
   149f4:	e58d000c 	str	r0, [sp, #12]
   149f8:	e1a01004 	mov	r1, r4
   149fc:	e1a00002 	mov	r0, r2
   14a00:	e1a05002 	mov	r5, r2
   14a04:	e3a0200a 	mov	r2, #10
   14a08:	e58d3008 	str	r3, [sp, #8]
   14a0c:	e5c34001 	strb	r4, [r3, #1]
   14a10:	ebfff35e 	bl	11790 <itoa>
   14a14:	e1a0000a 	mov	r0, sl
   14a18:	e3a03008 	mov	r3, #8
   14a1c:	e3a020dc 	mov	r2, #220	; 0xdc
   14a20:	e3a01064 	mov	r1, #100	; 0x64
   14a24:	e58db004 	str	fp, [sp, #4]
   14a28:	e58d9000 	str	r9, [sp]
   14a2c:	ebfffbb2 	bl	138fc <TFT_Text>
   14a30:	e3a03008 	mov	r3, #8
   14a34:	e1a00004 	mov	r0, r4
   14a38:	e3a020dc 	mov	r2, #220	; 0xdc
   14a3c:	e3a01064 	mov	r1, #100	; 0x64
   14a40:	e88d0a00 	stm	sp, {r9, fp}
   14a44:	ebfffbac 	bl	138fc <TFT_Text>
   14a48:	e1a01004 	mov	r1, r4
   14a4c:	e3a0200a 	mov	r2, #10
   14a50:	e1a00006 	mov	r0, r6
   14a54:	ebfff34d 	bl	11790 <itoa>
   14a58:	e3a02b3e 	mov	r2, #63488	; 0xf800
   14a5c:	e1a0000a 	mov	r0, sl
   14a60:	e1a0a002 	mov	sl, r2
   14a64:	e58d2004 	str	r2, [sp, #4]
   14a68:	e3a03008 	mov	r3, #8
   14a6c:	e3a020dc 	mov	r2, #220	; 0xdc
   14a70:	e3a010c8 	mov	r1, #200	; 0xc8
   14a74:	e58d9000 	str	r9, [sp]
   14a78:	ebfffb9f 	bl	138fc <TFT_Text>
   14a7c:	e88d0600 	stm	sp, {r9, sl}
   14a80:	e1a00004 	mov	r0, r4
   14a84:	e3a03008 	mov	r3, #8
   14a88:	e3a020dc 	mov	r2, #220	; 0xdc
   14a8c:	e3a010c8 	mov	r1, #200	; 0xc8
   14a90:	ebfffb99 	bl	138fc <TFT_Text>
   14a94:	e1560007 	cmp	r6, r7
   14a98:	3a000027 	bcc	14b3c <ReturnKeyboard+0x17c>
   14a9c:	e2873011 	add	r3, r7, #17
   14aa0:	e1530006 	cmp	r3, r6
   14aa4:	3a000024 	bcc	14b3c <ReturnKeyboard+0x17c>
   14aa8:	e59d200c 	ldr	r2, [sp, #12]
   14aac:	e2879001 	add	r9, r7, #1
   14ab0:	e28260cd 	add	r6, r2, #205	; 0xcd
   14ab4:	e1560005 	cmp	r6, r5
   14ab8:	9a0000a8 	bls	14d60 <ReturnKeyboard+0x3a0>
   14abc:	e59f3414 	ldr	r3, [pc, #1044]	; 14ed8 <ReturnKeyboard+0x518>
   14ac0:	e7983003 	ldr	r3, [r8, r3]
   14ac4:	e7932104 	ldr	r2, [r3, r4, lsl #2]
   14ac8:	e1520005 	cmp	r2, r5
   14acc:	8a0000d5 	bhi	14e28 <ReturnKeyboard+0x468>
   14ad0:	e7932104 	ldr	r2, [r3, r4, lsl #2]
   14ad4:	e2822013 	add	r2, r2, #19
   14ad8:	e1520005 	cmp	r2, r5
   14adc:	3a0000d1 	bcc	14e28 <ReturnKeyboard+0x468>
   14ae0:	e3a01001 	mov	r1, #1
   14ae4:	e7936104 	ldr	r6, [r3, r4, lsl #2]
   14ae8:	e59d3008 	ldr	r3, [sp, #8]
   14aec:	e59f23e8 	ldr	r2, [pc, #1000]	; 14edc <ReturnKeyboard+0x51c>
   14af0:	e5c31001 	strb	r1, [r3, #1]
   14af4:	e7983002 	ldr	r3, [r8, r2]
   14af8:	e2866002 	add	r6, r6, #2
   14afc:	e5d33000 	ldrb	r3, [r3]
   14b00:	e3530000 	cmp	r3, #0
   14b04:	1a0000cf 	bne	14e48 <ReturnKeyboard+0x488>
   14b08:	e59f33d0 	ldr	r3, [pc, #976]	; 14ee0 <ReturnKeyboard+0x520>
   14b0c:	e7983003 	ldr	r3, [r8, r3]
   14b10:	e5d33000 	ldrb	r3, [r3]
   14b14:	e3530000 	cmp	r3, #0
   14b18:	1a0000ca 	bne	14e48 <ReturnKeyboard+0x488>
   14b1c:	e59f33c0 	ldr	r3, [pc, #960]	; 14ee4 <ReturnKeyboard+0x524>
   14b20:	e59d2008 	ldr	r2, [sp, #8]
   14b24:	e7983003 	ldr	r3, [r8, r3]
   14b28:	e7d33004 	ldrb	r3, [r3, r4]
   14b2c:	e2833020 	add	r3, r3, #32
   14b30:	e6ef3073 	uxtb	r3, r3
   14b34:	e5c23002 	strb	r3, [r2, #2]
   14b38:	ea00002c 	b	14bf0 <ReturnKeyboard+0x230>
   14b3c:	e2879012 	add	r9, r7, #18
   14b40:	e1590006 	cmp	r9, r6
   14b44:	8a00003e 	bhi	14c44 <ReturnKeyboard+0x284>
   14b48:	e2873022 	add	r3, r7, #34	; 0x22
   14b4c:	e1530006 	cmp	r3, r6
   14b50:	3a00003b 	bcc	14c44 <ReturnKeyboard+0x284>
   14b54:	e3a02000 	mov	r2, #0
   14b58:	e59f3378 	ldr	r3, [pc, #888]	; 14ed8 <ReturnKeyboard+0x518>
   14b5c:	e7983003 	ldr	r3, [r8, r3]
   14b60:	e282100c 	add	r1, r2, #12
   14b64:	e7930101 	ldr	r0, [r3, r1, lsl #2]
   14b68:	e6efc072 	uxtb	ip, r2
   14b6c:	e1500005 	cmp	r0, r5
   14b70:	8a0000a8 	bhi	14e18 <ReturnKeyboard+0x458>
   14b74:	e7930101 	ldr	r0, [r3, r1, lsl #2]
   14b78:	e2800013 	add	r0, r0, #19
   14b7c:	e1500005 	cmp	r0, r5
   14b80:	3a0000a4 	bcc	14e18 <ReturnKeyboard+0x458>
   14b84:	e3a00001 	mov	r0, #1
   14b88:	e7936101 	ldr	r6, [r3, r1, lsl #2]
   14b8c:	e59d1008 	ldr	r1, [sp, #8]
   14b90:	e59f3344 	ldr	r3, [pc, #836]	; 14edc <ReturnKeyboard+0x51c>
   14b94:	e5c10001 	strb	r0, [r1, #1]
   14b98:	e7983003 	ldr	r3, [r8, r3]
   14b9c:	e2866002 	add	r6, r6, #2
   14ba0:	e5d33000 	ldrb	r3, [r3]
   14ba4:	e3530000 	cmp	r3, #0
   14ba8:	1a000009 	bne	14bd4 <ReturnKeyboard+0x214>
   14bac:	e59f332c 	ldr	r3, [pc, #812]	; 14ee0 <ReturnKeyboard+0x520>
   14bb0:	e7983003 	ldr	r3, [r8, r3]
   14bb4:	e5d33000 	ldrb	r3, [r3]
   14bb8:	e2933000 	adds	r3, r3, #0
   14bbc:	13a03001 	movne	r3, #1
   14bc0:	e35c0009 	cmp	ip, #9
   14bc4:	11a0c003 	movne	ip, r3
   14bc8:	0383c001 	orreq	ip, r3, #1
   14bcc:	e35c0000 	cmp	ip, #0
   14bd0:	0a0000b3 	beq	14ea4 <ReturnKeyboard+0x4e4>
   14bd4:	e59f3308 	ldr	r3, [pc, #776]	; 14ee4 <ReturnKeyboard+0x524>
   14bd8:	e7983003 	ldr	r3, [r8, r3]
   14bdc:	e0832002 	add	r2, r3, r2
   14be0:	e5d2300c 	ldrb	r3, [r2, #12]
   14be4:	e59d2008 	ldr	r2, [sp, #8]
   14be8:	e6ef3073 	uxtb	r3, r3
   14bec:	e5c23002 	strb	r3, [r2, #2]
   14bf0:	e59d3008 	ldr	r3, [sp, #8]
   14bf4:	e5d33001 	ldrb	r3, [r3, #1]
   14bf8:	e3530000 	cmp	r3, #0
   14bfc:	0a000061 	beq	14d88 <ReturnKeyboard+0x3c8>
   14c00:	e3560000 	cmp	r6, #0
   14c04:	13590000 	cmpne	r9, #0
   14c08:	0a00005e 	beq	14d88 <ReturnKeyboard+0x3c8>
   14c0c:	e3a03010 	mov	r3, #16
   14c10:	e1a01006 	mov	r1, r6
   14c14:	e1a02003 	mov	r2, r3
   14c18:	e1a00009 	mov	r0, r9
   14c1c:	ebfffce9 	bl	13fc8 <TFT_InvertRect>
   14c20:	e3a000c8 	mov	r0, #200	; 0xc8
   14c24:	ebfff33b 	bl	11918 <Delayms>
   14c28:	e3a03010 	mov	r3, #16
   14c2c:	e1a01006 	mov	r1, r6
   14c30:	e1a00009 	mov	r0, r9
   14c34:	e1a02003 	mov	r2, r3
   14c38:	e28dd014 	add	sp, sp, #20
   14c3c:	e8bd4ff0 	pop	{r4, r5, r6, r7, r8, r9, sl, fp, lr}
   14c40:	eafffce0 	b	13fc8 <TFT_InvertRect>
   14c44:	e2879023 	add	r9, r7, #35	; 0x23
   14c48:	e1590006 	cmp	r9, r6
   14c4c:	9a000012 	bls	14c9c <ReturnKeyboard+0x2dc>
   14c50:	e2879036 	add	r9, r7, #54	; 0x36
   14c54:	e1590006 	cmp	r9, r6
   14c58:	8a000048 	bhi	14d80 <ReturnKeyboard+0x3c0>
   14c5c:	e2877046 	add	r7, r7, #70	; 0x46
   14c60:	e1570006 	cmp	r7, r6
   14c64:	3a000045 	bcc	14d80 <ReturnKeyboard+0x3c0>
   14c68:	e59d300c 	ldr	r3, [sp, #12]
   14c6c:	e2836028 	add	r6, r3, #40	; 0x28
   14c70:	e1560005 	cmp	r6, r5
   14c74:	8a00004d 	bhi	14db0 <ReturnKeyboard+0x3f0>
   14c78:	e28330ba 	add	r3, r3, #186	; 0xba
   14c7c:	e1530005 	cmp	r3, r5
   14c80:	3a00004a 	bcc	14db0 <ReturnKeyboard+0x3f0>
   14c84:	e3a02001 	mov	r2, #1
   14c88:	e3a03020 	mov	r3, #32
   14c8c:	e59d1008 	ldr	r1, [sp, #8]
   14c90:	e5c12001 	strb	r2, [r1, #1]
   14c94:	e5c13002 	strb	r3, [r1, #2]
   14c98:	eaffffd4 	b	14bf0 <ReturnKeyboard+0x230>
   14c9c:	e2873034 	add	r3, r7, #52	; 0x34
   14ca0:	e1530006 	cmp	r3, r6
   14ca4:	3affffe9 	bcc	14c50 <ReturnKeyboard+0x290>
   14ca8:	e59d300c 	ldr	r3, [sp, #12]
   14cac:	e2836007 	add	r6, r3, #7
   14cb0:	e1560005 	cmp	r6, r5
   14cb4:	8a000002 	bhi	14cc4 <ReturnKeyboard+0x304>
   14cb8:	e2833025 	add	r3, r3, #37	; 0x25
   14cbc:	e1530005 	cmp	r3, r5
   14cc0:	2a00006b 	bcs	14e74 <ReturnKeyboard+0x4b4>
   14cc4:	e3a02002 	mov	r2, #2
   14cc8:	e59f3208 	ldr	r3, [pc, #520]	; 14ed8 <ReturnKeyboard+0x518>
   14ccc:	e7983003 	ldr	r3, [r8, r3]
   14cd0:	e2821018 	add	r1, r2, #24
   14cd4:	e7930101 	ldr	r0, [r3, r1, lsl #2]
   14cd8:	e6efc072 	uxtb	ip, r2
   14cdc:	e1500005 	cmp	r0, r5
   14ce0:	8a000054 	bhi	14e38 <ReturnKeyboard+0x478>
   14ce4:	e7930101 	ldr	r0, [r3, r1, lsl #2]
   14ce8:	e2800013 	add	r0, r0, #19
   14cec:	e1500005 	cmp	r0, r5
   14cf0:	3a000050 	bcc	14e38 <ReturnKeyboard+0x478>
   14cf4:	e3a00001 	mov	r0, #1
   14cf8:	e7936101 	ldr	r6, [r3, r1, lsl #2]
   14cfc:	e59d3008 	ldr	r3, [sp, #8]
   14d00:	e35c0009 	cmp	ip, #9
   14d04:	e2866002 	add	r6, r6, #2
   14d08:	e5c30001 	strb	r0, [r3, #1]
   14d0c:	0a000054 	beq	14e64 <ReturnKeyboard+0x4a4>
   14d10:	e59f31c4 	ldr	r3, [pc, #452]	; 14edc <ReturnKeyboard+0x51c>
   14d14:	e2422002 	sub	r2, r2, #2
   14d18:	e7983003 	ldr	r3, [r8, r3]
   14d1c:	e5d33000 	ldrb	r3, [r3]
   14d20:	e3530000 	cmp	r3, #0
   14d24:	1a000019 	bne	14d90 <ReturnKeyboard+0x3d0>
   14d28:	e59f31b0 	ldr	r3, [pc, #432]	; 14ee0 <ReturnKeyboard+0x520>
   14d2c:	e7983003 	ldr	r3, [r8, r3]
   14d30:	e5d33000 	ldrb	r3, [r3]
   14d34:	e3530000 	cmp	r3, #0
   14d38:	1a000014 	bne	14d90 <ReturnKeyboard+0x3d0>
   14d3c:	e59f31a0 	ldr	r3, [pc, #416]	; 14ee4 <ReturnKeyboard+0x524>
   14d40:	e7983003 	ldr	r3, [r8, r3]
   14d44:	e0832002 	add	r2, r3, r2
   14d48:	e5d23018 	ldrb	r3, [r2, #24]
   14d4c:	e59d2008 	ldr	r2, [sp, #8]
   14d50:	e2833020 	add	r3, r3, #32
   14d54:	e6ef3073 	uxtb	r3, r3
   14d58:	e5c23002 	strb	r3, [r2, #2]
   14d5c:	eaffffa3 	b	14bf0 <ReturnKeyboard+0x230>
   14d60:	e28230df 	add	r3, r2, #223	; 0xdf
   14d64:	e1530005 	cmp	r3, r5
   14d68:	3affff53 	bcc	14abc <ReturnKeyboard+0xfc>
   14d6c:	e59f3174 	ldr	r3, [pc, #372]	; 14ee8 <ReturnKeyboard+0x528>
   14d70:	e7983003 	ldr	r3, [r8, r3]
   14d74:	e5d33000 	ldrb	r3, [r3]
   14d78:	e1530004 	cmp	r3, r4
   14d7c:	1a000042 	bne	14e8c <ReturnKeyboard+0x4cc>
   14d80:	e59d3008 	ldr	r3, [sp, #8]
   14d84:	e5d33001 	ldrb	r3, [r3, #1]
   14d88:	e28dd014 	add	sp, sp, #20
   14d8c:	e8bd8ff0 	pop	{r4, r5, r6, r7, r8, r9, sl, fp, pc}
   14d90:	e59f314c 	ldr	r3, [pc, #332]	; 14ee4 <ReturnKeyboard+0x524>
   14d94:	e7983003 	ldr	r3, [r8, r3]
   14d98:	e0832002 	add	r2, r3, r2
   14d9c:	e5d23018 	ldrb	r3, [r2, #24]
   14da0:	e59d2008 	ldr	r2, [sp, #8]
   14da4:	e6ef3073 	uxtb	r3, r3
   14da8:	e5c23002 	strb	r3, [r2, #2]
   14dac:	eaffff8f 	b	14bf0 <ReturnKeyboard+0x230>
   14db0:	e59d100c 	ldr	r1, [sp, #12]
   14db4:	e28130bd 	add	r3, r1, #189	; 0xbd
   14db8:	e1530005 	cmp	r3, r5
   14dbc:	8a000009 	bhi	14de8 <ReturnKeyboard+0x428>
   14dc0:	e28130db 	add	r3, r1, #219	; 0xdb
   14dc4:	e1530005 	cmp	r3, r5
   14dc8:	3a000006 	bcc	14de8 <ReturnKeyboard+0x428>
   14dcc:	e3a02001 	mov	r2, #1
   14dd0:	e3a0300d 	mov	r3, #13
   14dd4:	e28160c9 	add	r6, r1, #201	; 0xc9
   14dd8:	e59d1008 	ldr	r1, [sp, #8]
   14ddc:	e5c12001 	strb	r2, [r1, #1]
   14de0:	e5c13002 	strb	r3, [r1, #2]
   14de4:	eaffff81 	b	14bf0 <ReturnKeyboard+0x230>
   14de8:	e59d300c 	ldr	r3, [sp, #12]
   14dec:	e2836007 	add	r6, r3, #7
   14df0:	e1560005 	cmp	r6, r5
   14df4:	8affffe1 	bhi	14d80 <ReturnKeyboard+0x3c0>
   14df8:	e2833025 	add	r3, r3, #37	; 0x25
   14dfc:	e1530005 	cmp	r3, r5
   14e00:	3affffde 	bcc	14d80 <ReturnKeyboard+0x3c0>
   14e04:	e3a03001 	mov	r3, #1
   14e08:	e59d2008 	ldr	r2, [sp, #8]
   14e0c:	e5c23001 	strb	r3, [r2, #1]
   14e10:	e5c23002 	strb	r3, [r2, #2]
   14e14:	eaffff75 	b	14bf0 <ReturnKeyboard+0x230>
   14e18:	e2822001 	add	r2, r2, #1
   14e1c:	e352000a 	cmp	r2, #10
   14e20:	1affff4e 	bne	14b60 <ReturnKeyboard+0x1a0>
   14e24:	eaffffd5 	b	14d80 <ReturnKeyboard+0x3c0>
   14e28:	e2844001 	add	r4, r4, #1
   14e2c:	e354000a 	cmp	r4, #10
   14e30:	1affff23 	bne	14ac4 <ReturnKeyboard+0x104>
   14e34:	eaffffd1 	b	14d80 <ReturnKeyboard+0x3c0>
   14e38:	e2822001 	add	r2, r2, #1
   14e3c:	e352000a 	cmp	r2, #10
   14e40:	1affffa2 	bne	14cd0 <ReturnKeyboard+0x310>
   14e44:	eaffffcd 	b	14d80 <ReturnKeyboard+0x3c0>
   14e48:	e59f3094 	ldr	r3, [pc, #148]	; 14ee4 <ReturnKeyboard+0x524>
   14e4c:	e59d2008 	ldr	r2, [sp, #8]
   14e50:	e7983003 	ldr	r3, [r8, r3]
   14e54:	e7d33004 	ldrb	r3, [r3, r4]
   14e58:	e6ef3073 	uxtb	r3, r3
   14e5c:	e5c23002 	strb	r3, [r2, #2]
   14e60:	eaffff62 	b	14bf0 <ReturnKeyboard+0x230>
   14e64:	e3a03008 	mov	r3, #8
   14e68:	e59d2008 	ldr	r2, [sp, #8]
   14e6c:	e5c23002 	strb	r3, [r2, #2]
   14e70:	eaffff5e 	b	14bf0 <ReturnKeyboard+0x230>
   14e74:	e3a02001 	mov	r2, #1
   14e78:	e3a03002 	mov	r3, #2
   14e7c:	e59d1008 	ldr	r1, [sp, #8]
   14e80:	e5c12001 	strb	r2, [r1, #1]
   14e84:	e5c13002 	strb	r3, [r1, #2]
   14e88:	eaffff58 	b	14bf0 <ReturnKeyboard+0x230>
   14e8c:	e3a02001 	mov	r2, #1
   14e90:	e3a03003 	mov	r3, #3
   14e94:	e59d1008 	ldr	r1, [sp, #8]
   14e98:	e5c12001 	strb	r2, [r1, #1]
   14e9c:	e5c13002 	strb	r3, [r1, #2]
   14ea0:	eaffff52 	b	14bf0 <ReturnKeyboard+0x230>
   14ea4:	e59f3038 	ldr	r3, [pc, #56]	; 14ee4 <ReturnKeyboard+0x524>
   14ea8:	e7983003 	ldr	r3, [r8, r3]
   14eac:	e0832002 	add	r2, r3, r2
   14eb0:	e5d2300c 	ldrb	r3, [r2, #12]
   14eb4:	e59d2008 	ldr	r2, [sp, #8]
   14eb8:	e2833020 	add	r3, r3, #32
   14ebc:	e6ef3073 	uxtb	r3, r3
   14ec0:	e5c23002 	strb	r3, [r2, #2]
   14ec4:	eaffff49 	b	14bf0 <ReturnKeyboard+0x230>
   14ec8:	000043fc 	strdeq	r4, [r0], -ip
   14ecc:	00000108 	andeq	r0, r0, r8, lsl #2
   14ed0:	00001c10 	andeq	r1, r0, r0, lsl ip
   14ed4:	0000ffff 	strdeq	pc, [r0], -pc	; <UNPREDICTABLE>
   14ed8:	00000120 	andeq	r0, r0, r0, lsr #2
   14edc:	00000058 	andeq	r0, r0, r8, asr r0
   14ee0:	00000168 	andeq	r0, r0, r8, ror #2
   14ee4:	0000019c 	muleq	r0, ip, r1
   14ee8:	00000040 	andeq	r0, r0, r0, asr #32

00014eec <TCHVerif>:
   14eec:	e92d47f0 	push	{r4, r5, r6, r7, r8, r9, sl, lr}
   14ef0:	e59f42c0 	ldr	r4, [pc, #704]	; 151b8 <TCHVerif+0x2cc>
   14ef4:	e59f32c0 	ldr	r3, [pc, #704]	; 151bc <TCHVerif+0x2d0>
   14ef8:	e08f4004 	add	r4, pc, r4
   14efc:	e7945003 	ldr	r5, [r4, r3]
   14f00:	e1a00005 	mov	r0, r5
   14f04:	ebfff745 	bl	12c20 <Read_Ads7843>
   14f08:	e3500000 	cmp	r0, #0
   14f0c:	0a000005 	beq	14f28 <TCHVerif+0x3c>
   14f10:	e5953000 	ldr	r3, [r5]
   14f14:	e3530000 	cmp	r3, #0
   14f18:	0a000002 	beq	14f28 <TCHVerif+0x3c>
   14f1c:	e5952004 	ldr	r2, [r5, #4]
   14f20:	e3520000 	cmp	r2, #0
   14f24:	1a000008 	bne	14f4c <TCHVerif+0x60>
   14f28:	e59f3290 	ldr	r3, [pc, #656]	; 151c0 <TCHVerif+0x2d4>
   14f2c:	e7943003 	ldr	r3, [r4, r3]
   14f30:	e5d32000 	ldrb	r2, [r3]
   14f34:	e3520000 	cmp	r2, #0
   14f38:	0a000014 	beq	14f90 <TCHVerif+0xa4>
   14f3c:	e3a02000 	mov	r2, #0
   14f40:	e1a00002 	mov	r0, r2
   14f44:	e5c32000 	strb	r2, [r3]
   14f48:	e8bd87f0 	pop	{r4, r5, r6, r7, r8, r9, sl, pc}
   14f4c:	e3a0c000 	mov	ip, #0
   14f50:	e59f126c 	ldr	r1, [pc, #620]	; 151c4 <TCHVerif+0x2d8>
   14f54:	e59f026c 	ldr	r0, [pc, #620]	; 151c8 <TCHVerif+0x2dc>
   14f58:	e7946001 	ldr	r6, [r4, r1]
   14f5c:	e59f1268 	ldr	r1, [pc, #616]	; 151cc <TCHVerif+0x2e0>
   14f60:	e5c6c001 	strb	ip, [r6, #1]
   14f64:	e5c6c002 	strb	ip, [r6, #2]
   14f68:	e7947000 	ldr	r7, [r4, r0]
   14f6c:	e7949001 	ldr	r9, [r4, r1]
   14f70:	e5971000 	ldr	r1, [r7]
   14f74:	e5990000 	ldr	r0, [r9]
   14f78:	ebfffe90 	bl	149c0 <ReturnKeyboard>
   14f7c:	e59f324c 	ldr	r3, [pc, #588]	; 151d0 <TCHVerif+0x2e4>
   14f80:	e7948003 	ldr	r8, [r4, r3]
   14f84:	e5983000 	ldr	r3, [r8]
   14f88:	e3530000 	cmp	r3, #0
   14f8c:	0a000001 	beq	14f98 <TCHVerif+0xac>
   14f90:	e3a00000 	mov	r0, #0
   14f94:	e8bd87f0 	pop	{r4, r5, r6, r7, r8, r9, sl, pc}
   14f98:	e59f3234 	ldr	r3, [pc, #564]	; 151d4 <TCHVerif+0x2e8>
   14f9c:	e7943003 	ldr	r3, [r4, r3]
   14fa0:	e5d33000 	ldrb	r3, [r3]
   14fa4:	e3530000 	cmp	r3, #0
   14fa8:	e59f3228 	ldr	r3, [pc, #552]	; 151d8 <TCHVerif+0x2ec>
   14fac:	e7943003 	ldr	r3, [r4, r3]
   14fb0:	0a000026 	beq	15050 <TCHVerif+0x164>
   14fb4:	e5d32000 	ldrb	r2, [r3]
   14fb8:	e3520000 	cmp	r2, #0
   14fbc:	1a000023 	bne	15050 <TCHVerif+0x164>
   14fc0:	e59f31f8 	ldr	r3, [pc, #504]	; 151c0 <TCHVerif+0x2d4>
   14fc4:	e794c003 	ldr	ip, [r4, r3]
   14fc8:	e5dc3000 	ldrb	r3, [ip]
   14fcc:	e21330ff 	ands	r3, r3, #255	; 0xff
   14fd0:	1a000007 	bne	14ff4 <TCHVerif+0x108>
   14fd4:	e3a02001 	mov	r2, #1
   14fd8:	e3e0e000 	mvn	lr, #0
   14fdc:	e5971000 	ldr	r1, [r7]
   14fe0:	e5990000 	ldr	r0, [r9]
   14fe4:	e5cc2000 	strb	r2, [ip]
   14fe8:	e5c6e001 	strb	lr, [r6, #1]
   14fec:	e5c63002 	strb	r3, [r6, #2]
   14ff0:	ebfffd07 	bl	14414 <ShowKeyboard>
   14ff4:	e5d63001 	ldrb	r3, [r6, #1]
   14ff8:	e3530000 	cmp	r3, #0
   14ffc:	0a000005 	beq	15018 <TCHVerif+0x12c>
   15000:	e5d63001 	ldrb	r3, [r6, #1]
   15004:	e3530000 	cmp	r3, #0
   15008:	0affffe0 	beq	14f90 <TCHVerif+0xa4>
   1500c:	e5d63002 	ldrb	r3, [r6, #2]
   15010:	e3530003 	cmp	r3, #3
   15014:	9affffdd 	bls	14f90 <TCHVerif+0xa4>
   15018:	e5d63001 	ldrb	r3, [r6, #1]
   1501c:	e3530000 	cmp	r3, #0
   15020:	0a000034 	beq	150f8 <TCHVerif+0x20c>
   15024:	e59f31b0 	ldr	r3, [pc, #432]	; 151dc <TCHVerif+0x2f0>
   15028:	e7943003 	ldr	r3, [r4, r3]
   1502c:	e5932000 	ldr	r2, [r3]
   15030:	e3a00001 	mov	r0, #1
   15034:	e352000f 	cmp	r2, #15
   15038:	95932000 	ldrls	r2, [r3]
   1503c:	92822001 	addls	r2, r2, #1
   15040:	95832000 	strls	r2, [r3]
   15044:	e3a03000 	mov	r3, #0
   15048:	e5883000 	str	r3, [r8]
   1504c:	e8bd87f0 	pop	{r4, r5, r6, r7, r8, r9, sl, pc}
   15050:	e5d33000 	ldrb	r3, [r3]
   15054:	e3530000 	cmp	r3, #0
   15058:	0affffe5 	beq	14ff4 <TCHVerif+0x108>
   1505c:	e59f315c 	ldr	r3, [pc, #348]	; 151c0 <TCHVerif+0x2d4>
   15060:	e7940003 	ldr	r0, [r4, r3]
   15064:	e5d03000 	ldrb	r3, [r0]
   15068:	e213a0ff 	ands	sl, r3, #255	; 0xff
   1506c:	1affffe0 	bne	14ff4 <TCHVerif+0x108>
   15070:	e3a0c001 	mov	ip, #1
   15074:	e5953000 	ldr	r3, [r5]
   15078:	e5c0c000 	strb	ip, [r0]
   1507c:	e5952004 	ldr	r2, [r5, #4]
   15080:	e5971000 	ldr	r1, [r7]
   15084:	e5990000 	ldr	r0, [r9]
   15088:	ebfffe4c 	bl	149c0 <ReturnKeyboard>
   1508c:	e5d63001 	ldrb	r3, [r6, #1]
   15090:	e3530000 	cmp	r3, #0
   15094:	0affffd6 	beq	14ff4 <TCHVerif+0x108>
   15098:	e5d63002 	ldrb	r3, [r6, #2]
   1509c:	e3530003 	cmp	r3, #3
   150a0:	8a00002d 	bhi	1515c <TCHVerif+0x270>
   150a4:	e5d62002 	ldrb	r2, [r6, #2]
   150a8:	e6ef2072 	uxtb	r2, r2
   150ac:	e3520001 	cmp	r2, #1
   150b0:	0a000032 	beq	15180 <TCHVerif+0x294>
   150b4:	e5d63002 	ldrb	r3, [r6, #2]
   150b8:	e3530002 	cmp	r3, #2
   150bc:	1a000005 	bne	150d8 <TCHVerif+0x1ec>
   150c0:	e59f3118 	ldr	r3, [pc, #280]	; 151e0 <TCHVerif+0x2f4>
   150c4:	e7942003 	ldr	r2, [r4, r3]
   150c8:	e5d23000 	ldrb	r3, [r2]
   150cc:	e1e03003 	mvn	r3, r3
   150d0:	e6ef3073 	uxtb	r3, r3
   150d4:	e5c23000 	strb	r3, [r2]
   150d8:	e5d63002 	ldrb	r3, [r6, #2]
   150dc:	e5990000 	ldr	r0, [r9]
   150e0:	e3530003 	cmp	r3, #3
   150e4:	e5971000 	ldr	r1, [r7]
   150e8:	0a000030 	beq	151b0 <TCHVerif+0x2c4>
   150ec:	e3a02001 	mov	r2, #1
   150f0:	ebfffcc7 	bl	14414 <ShowKeyboard>
   150f4:	eaffffbe 	b	14ff4 <TCHVerif+0x108>
   150f8:	e3e0c000 	mvn	ip, #0
   150fc:	e59f30d8 	ldr	r3, [pc, #216]	; 151dc <TCHVerif+0x2f0>
   15100:	e59f20dc 	ldr	r2, [pc, #220]	; 151e4 <TCHVerif+0x2f8>
   15104:	e7943003 	ldr	r3, [r4, r3]
   15108:	e7940002 	ldr	r0, [r4, r2]
   1510c:	e5931000 	ldr	r1, [r3]
   15110:	e59f20d0 	ldr	r2, [pc, #208]	; 151e8 <TCHVerif+0x2fc>
   15114:	e7c0c001 	strb	ip, [r0, r1]
   15118:	e7942002 	ldr	r2, [r4, r2]
   1511c:	e59f10c8 	ldr	r1, [pc, #200]	; 151ec <TCHVerif+0x300>
   15120:	e592c000 	ldr	ip, [r2]
   15124:	e7940001 	ldr	r0, [r4, r1]
   15128:	e595e004 	ldr	lr, [r5, #4]
   1512c:	e59f10bc 	ldr	r1, [pc, #188]	; 151f0 <TCHVerif+0x304>
   15130:	e780e10c 	str	lr, [r0, ip, lsl #2]
   15134:	e5920000 	ldr	r0, [r2]
   15138:	e7941001 	ldr	r1, [r4, r1]
   1513c:	e595c000 	ldr	ip, [r5]
   15140:	e781c100 	str	ip, [r1, r0, lsl #2]
   15144:	e5921000 	ldr	r1, [r2]
   15148:	e351000f 	cmp	r1, #15
   1514c:	95921000 	ldrls	r1, [r2]
   15150:	92811001 	addls	r1, r1, #1
   15154:	95821000 	strls	r1, [r2]
   15158:	eaffffb3 	b	1502c <TCHVerif+0x140>
   1515c:	e59f3078 	ldr	r3, [pc, #120]	; 151dc <TCHVerif+0x2f0>
   15160:	e59f207c 	ldr	r2, [pc, #124]	; 151e4 <TCHVerif+0x2f8>
   15164:	e7943003 	ldr	r3, [r4, r3]
   15168:	e7941002 	ldr	r1, [r4, r2]
   1516c:	e5932000 	ldr	r2, [r3]
   15170:	e5d63002 	ldrb	r3, [r6, #2]
   15174:	e6ef3073 	uxtb	r3, r3
   15178:	e7c13002 	strb	r3, [r1, r2]
   1517c:	eaffff9c 	b	14ff4 <TCHVerif+0x108>
   15180:	e59f306c 	ldr	r3, [pc, #108]	; 151f4 <TCHVerif+0x308>
   15184:	e7943003 	ldr	r3, [r4, r3]
   15188:	e5d31000 	ldrb	r1, [r3]
   1518c:	e3510000 	cmp	r1, #0
   15190:	0a000004 	beq	151a8 <TCHVerif+0x2bc>
   15194:	e5d32000 	ldrb	r2, [r3]
   15198:	e3520001 	cmp	r2, #1
   1519c:	15c3a000 	strbne	sl, [r3]
   151a0:	1affffcc 	bne	150d8 <TCHVerif+0x1ec>
   151a4:	e3a02002 	mov	r2, #2
   151a8:	e5c32000 	strb	r2, [r3]
   151ac:	eaffffc9 	b	150d8 <TCHVerif+0x1ec>
   151b0:	ebfffc84 	bl	143c8 <HideKeyboard>
   151b4:	eaffff8e 	b	14ff4 <TCHVerif+0x108>
   151b8:	00003edc 	ldrdeq	r3, [r0], -ip
   151bc:	00000034 	andeq	r0, r0, r4, lsr r0
   151c0:	000001e0 	andeq	r0, r0, r0, ror #3
   151c4:	00000108 	andeq	r0, r0, r8, lsl #2
   151c8:	0000000c 	andeq	r0, r0, ip
   151cc:	000001b0 			; <UNDEFINED> instruction: 0x000001b0
   151d0:	000000f0 	strdeq	r0, [r0], -r0	; <UNPREDICTABLE>
   151d4:	00000130 	andeq	r0, r0, r0, lsr r1
   151d8:	00000198 	muleq	r0, r8, r1
   151dc:	000000e8 	andeq	r0, r0, r8, ror #1
   151e0:	00000058 	andeq	r0, r0, r8, asr r0
   151e4:	00000080 	andeq	r0, r0, r0, lsl #1
   151e8:	00000094 	muleq	r0, r4, r0
   151ec:	000000a0 	andeq	r0, r0, r0, lsr #1
   151f0:	000000a8 	andeq	r0, r0, r8, lsr #1
   151f4:	00000168 	andeq	r0, r0, r8, ror #2

000151f8 <commVDG>:
   151f8:	e92d4ff0 	push	{r4, r5, r6, r7, r8, r9, sl, fp, lr}
   151fc:	e1a04000 	mov	r4, r0
   15200:	e59f581c 	ldr	r5, [pc, #2076]	; 15a24 <commVDG+0x82c>
   15204:	e1d0c0b2 	ldrh	ip, [r0, #2]
   15208:	e59f3818 	ldr	r3, [pc, #2072]	; 15a28 <commVDG+0x830>
   1520c:	e08f5005 	add	r5, pc, r5
   15210:	e7952003 	ldr	r2, [r5, r3]
   15214:	e6bfcfbc 	rev16	ip, ip
   15218:	e24dd034 	sub	sp, sp, #52	; 0x34
   1521c:	e59f3808 	ldr	r3, [pc, #2056]	; 15a2c <commVDG+0x834>
   15220:	e1d000b4 	ldrh	r0, [r0, #4]
   15224:	e6ffc07c 	uxth	ip, ip
   15228:	e58d2014 	str	r2, [sp, #20]
   1522c:	e582c000 	str	ip, [r2]
   15230:	e7951003 	ldr	r1, [r5, r3]
   15234:	e6bf0fb0 	rev16	r0, r0
   15238:	e59f27f0 	ldr	r2, [pc, #2032]	; 15a30 <commVDG+0x838>
   1523c:	e1d430b6 	ldrh	r3, [r4, #6]
   15240:	e6ff0070 	uxth	r0, r0
   15244:	e5810000 	str	r0, [r1]
   15248:	e58d1018 	str	r1, [sp, #24]
   1524c:	e795e002 	ldr	lr, [r5, r2]
   15250:	e6bf3fb3 	rev16	r3, r3
   15254:	e59f17d8 	ldr	r1, [pc, #2008]	; 15a34 <commVDG+0x83c>
   15258:	e1d420b8 	ldrh	r2, [r4, #8]
   1525c:	e6ff3073 	uxth	r3, r3
   15260:	e58e3000 	str	r3, [lr]
   15264:	e795e001 	ldr	lr, [r5, r1]
   15268:	e6bf2fb2 	rev16	r2, r2
   1526c:	e6ff2072 	uxth	r2, r2
   15270:	e59f17c0 	ldr	r1, [pc, #1984]	; 15a38 <commVDG+0x840>
   15274:	e58e2000 	str	r2, [lr]
   15278:	e7951001 	ldr	r1, [r5, r1]
   1527c:	e5d47006 	ldrb	r7, [r4, #6]
   15280:	e1a0e001 	mov	lr, r1
   15284:	e5ce7000 	strb	r7, [lr]
   15288:	e5d4e008 	ldrb	lr, [r4, #8]
   1528c:	e58d1020 	str	r1, [sp, #32]
   15290:	e59f17a4 	ldr	r1, [pc, #1956]	; 15a3c <commVDG+0x844>
   15294:	e58de02c 	str	lr, [sp, #44]	; 0x2c
   15298:	e5d4a007 	ldrb	sl, [r4, #7]
   1529c:	e7951001 	ldr	r1, [r5, r1]
   152a0:	e18e840a 	orr	r8, lr, sl, lsl #8
   152a4:	e59fe794 	ldr	lr, [pc, #1940]	; 15a40 <commVDG+0x848>
   152a8:	e58d1028 	str	r1, [sp, #40]	; 0x28
   152ac:	e5818000 	str	r8, [r1]
   152b0:	e795e00e 	ldr	lr, [r5, lr]
   152b4:	e5d4100a 	ldrb	r1, [r4, #10]
   152b8:	e1a0600e 	mov	r6, lr
   152bc:	e5d4b009 	ldrb	fp, [r4, #9]
   152c0:	e58de010 	str	lr, [sp, #16]
   152c4:	e181940b 	orr	r9, r1, fp, lsl #8
   152c8:	e59fe774 	ldr	lr, [pc, #1908]	; 15a44 <commVDG+0x84c>
   152cc:	e5869000 	str	r9, [r6]
   152d0:	e5d4600b 	ldrb	r6, [r4, #11]
   152d4:	e795e00e 	ldr	lr, [r5, lr]
   152d8:	e1861401 	orr	r1, r6, r1, lsl #8
   152dc:	e58de024 	str	lr, [sp, #36]	; 0x24
   152e0:	e58e1000 	str	r1, [lr]
   152e4:	e5d4e001 	ldrb	lr, [r4, #1]
   152e8:	e58de00c 	str	lr, [sp, #12]
   152ec:	e5d4e004 	ldrb	lr, [r4, #4]
   152f0:	e58de01c 	str	lr, [sp, #28]
   152f4:	e59de00c 	ldr	lr, [sp, #12]
   152f8:	e24ee0d0 	sub	lr, lr, #208	; 0xd0
   152fc:	e35e0020 	cmp	lr, #32
   15300:	908ff10e 	addls	pc, pc, lr, lsl #2
   15304:	ea00004f 	b	15448 <commVDG+0x250>
   15308:	ea000159 	b	15874 <commVDG+0x67c>
   1530c:	ea000134 	b	157e4 <commVDG+0x5ec>
   15310:	ea00011f 	b	15794 <commVDG+0x59c>
   15314:	ea00011a 	b	15784 <commVDG+0x58c>
   15318:	ea000115 	b	15774 <commVDG+0x57c>
   1531c:	ea000110 	b	15764 <commVDG+0x56c>
   15320:	ea000109 	b	1574c <commVDG+0x554>
   15324:	ea000104 	b	1573c <commVDG+0x544>
   15328:	ea000159 	b	15894 <commVDG+0x69c>
   1532c:	ea0000f9 	b	15718 <commVDG+0x520>
   15330:	ea000044 	b	15448 <commVDG+0x250>
   15334:	ea0000e4 	b	156cc <commVDG+0x4d4>
   15338:	ea0000c0 	b	15640 <commVDG+0x448>
   1533c:	ea00008f 	b	15580 <commVDG+0x388>
   15340:	ea00006e 	b	15500 <commVDG+0x308>
   15344:	ea000067 	b	154e8 <commVDG+0x2f0>
   15348:	ea00003e 	b	15448 <commVDG+0x250>
   1534c:	ea00003d 	b	15448 <commVDG+0x250>
   15350:	ea00003c 	b	15448 <commVDG+0x250>
   15354:	ea00003b 	b	15448 <commVDG+0x250>
   15358:	ea00003a 	b	15448 <commVDG+0x250>
   1535c:	ea000039 	b	15448 <commVDG+0x250>
   15360:	ea000038 	b	15448 <commVDG+0x250>
   15364:	ea000037 	b	15448 <commVDG+0x250>
   15368:	ea000036 	b	15448 <commVDG+0x250>
   1536c:	ea000035 	b	15448 <commVDG+0x250>
   15370:	ea000055 	b	154cc <commVDG+0x2d4>
   15374:	ea00004d 	b	154b0 <commVDG+0x2b8>
   15378:	ea000049 	b	154a4 <commVDG+0x2ac>
   1537c:	ea000045 	b	15498 <commVDG+0x2a0>
   15380:	ea000030 	b	15448 <commVDG+0x250>
   15384:	ea000032 	b	15454 <commVDG+0x25c>
   15388:	eaffffff 	b	1538c <commVDG+0x194>
   1538c:	e59f36b4 	ldr	r3, [pc, #1716]	; 15a48 <commVDG+0x850>
   15390:	e7953003 	ldr	r3, [r5, r3]
   15394:	e5d33000 	ldrb	r3, [r3]
   15398:	e3530000 	cmp	r3, #0
   1539c:	0a000029 	beq	15448 <commVDG+0x250>
   153a0:	e59f36a4 	ldr	r3, [pc, #1700]	; 15a4c <commVDG+0x854>
   153a4:	e7954003 	ldr	r4, [r5, r3]
   153a8:	e5943000 	ldr	r3, [r4]
   153ac:	e3530a05 	cmp	r3, #20480	; 0x5000
   153b0:	0a000160 	beq	15938 <commVDG+0x740>
   153b4:	e3530801 	cmp	r3, #65536	; 0x10000
   153b8:	0a000005 	beq	153d4 <commVDG+0x1dc>
   153bc:	e59f268c 	ldr	r2, [pc, #1676]	; 15a50 <commVDG+0x858>
   153c0:	e7952002 	ldr	r2, [r5, r2]
   153c4:	e5d22000 	ldrb	r2, [r2]
   153c8:	e3520000 	cmp	r2, #0
   153cc:	02833001 	addeq	r3, r3, #1
   153d0:	0a00001b 	beq	15444 <commVDG+0x24c>
   153d4:	e59f2678 	ldr	r2, [pc, #1656]	; 15a54 <commVDG+0x85c>
   153d8:	e59f3678 	ldr	r3, [pc, #1656]	; 15a58 <commVDG+0x860>
   153dc:	e7952002 	ldr	r2, [r5, r2]
   153e0:	e7953003 	ldr	r3, [r5, r3]
   153e4:	e5921000 	ldr	r1, [r2]
   153e8:	e5933000 	ldr	r3, [r3]
   153ec:	e1510003 	cmp	r1, r3
   153f0:	2a000012 	bcs	15440 <commVDG+0x248>
   153f4:	e59f2660 	ldr	r2, [pc, #1632]	; 15a5c <commVDG+0x864>
   153f8:	e59f3660 	ldr	r3, [pc, #1632]	; 15a60 <commVDG+0x868>
   153fc:	e7952002 	ldr	r2, [r5, r2]
   15400:	e7953003 	ldr	r3, [r5, r3]
   15404:	e5922000 	ldr	r2, [r2]
   15408:	e5933000 	ldr	r3, [r3]
   1540c:	e1520003 	cmp	r2, r3
   15410:	2a00000a 	bcs	15440 <commVDG+0x248>
   15414:	e59f3648 	ldr	r3, [pc, #1608]	; 15a64 <commVDG+0x86c>
   15418:	e7953003 	ldr	r3, [r5, r3]
   1541c:	e5930000 	ldr	r0, [r3]
   15420:	e59f3640 	ldr	r3, [pc, #1600]	; 15a68 <commVDG+0x870>
   15424:	e58d0004 	str	r0, [sp, #4]
   15428:	e7950003 	ldr	r0, [r5, r3]
   1542c:	e3a03008 	mov	r3, #8
   15430:	e590c000 	ldr	ip, [r0]
   15434:	e3a00020 	mov	r0, #32
   15438:	e58dc000 	str	ip, [sp]
   1543c:	ebfff8ba 	bl	1372c <TFT_Char>
   15440:	e3a03001 	mov	r3, #1
   15444:	e5843000 	str	r3, [r4]
   15448:	e3a00001 	mov	r0, #1
   1544c:	e28dd034 	add	sp, sp, #52	; 0x34
   15450:	e8bd8ff0 	pop	{r4, r5, r6, r7, r8, r9, sl, fp, pc}
   15454:	e3e0207d 	mvn	r2, #125	; 0x7d
   15458:	e59f3600 	ldr	r3, [pc, #1536]	; 15a60 <commVDG+0x868>
   1545c:	e5c42000 	strb	r2, [r4]
   15460:	e7951003 	ldr	r1, [r5, r3]
   15464:	e59f35ec 	ldr	r3, [pc, #1516]	; 15a58 <commVDG+0x860>
   15468:	e5912000 	ldr	r2, [r1]
   1546c:	e1a02422 	lsr	r2, r2, #8
   15470:	e5c42001 	strb	r2, [r4, #1]
   15474:	e5912000 	ldr	r2, [r1]
   15478:	e5c42002 	strb	r2, [r4, #2]
   1547c:	e7952003 	ldr	r2, [r5, r3]
   15480:	e5923000 	ldr	r3, [r2]
   15484:	e1a03423 	lsr	r3, r3, #8
   15488:	e5c43003 	strb	r3, [r4, #3]
   1548c:	e5923000 	ldr	r3, [r2]
   15490:	e5c43004 	strb	r3, [r4, #4]
   15494:	eaffffeb 	b	15448 <commVDG+0x250>
   15498:	ebfffe93 	bl	14eec <TCHVerif>
   1549c:	e5c40000 	strb	r0, [r4]
   154a0:	eaffffe8 	b	15448 <commVDG+0x250>
   154a4:	e1a0100c 	mov	r1, ip
   154a8:	ebfffac6 	bl	13fc8 <TFT_InvertRect>
   154ac:	eaffffe5 	b	15448 <commVDG+0x250>
   154b0:	e58d3000 	str	r3, [sp]
   154b4:	e1a01000 	mov	r1, r0
   154b8:	e1a03002 	mov	r3, r2
   154bc:	e3a00000 	mov	r0, #0
   154c0:	e1a0200c 	mov	r2, ip
   154c4:	ebfffb2a 	bl	14174 <TFT_RestoreScreen>
   154c8:	eaffffde 	b	15448 <commVDG+0x250>
   154cc:	e58d3000 	str	r3, [sp]
   154d0:	e1a01000 	mov	r1, r0
   154d4:	e1a03002 	mov	r3, r2
   154d8:	e3a00000 	mov	r0, #0
   154dc:	e1a0200c 	mov	r2, ip
   154e0:	ebfffaf6 	bl	140c0 <TFT_SaveScreen>
   154e4:	eaffffd7 	b	15448 <commVDG+0x250>
   154e8:	e59f157c 	ldr	r1, [pc, #1404]	; 15a6c <commVDG+0x874>
   154ec:	e795e001 	ldr	lr, [r5, r1]
   154f0:	e1a0100c 	mov	r1, ip
   154f4:	e58de000 	str	lr, [sp]
   154f8:	ebfffa79 	bl	13ee4 <TFT_Image>
   154fc:	eaffffd1 	b	15448 <commVDG+0x250>
   15500:	e3a06003 	mov	r6, #3
   15504:	e1a00004 	mov	r0, r4
   15508:	e59f1560 	ldr	r1, [pc, #1376]	; 15a70 <commVDG+0x878>
   1550c:	e5d43002 	ldrb	r3, [r4, #2]
   15510:	e7957001 	ldr	r7, [r5, r1]
   15514:	e1a03303 	lsl	r3, r3, #6
   15518:	e59f1554 	ldr	r1, [pc, #1364]	; 15a74 <commVDG+0x87c>
   1551c:	e5873000 	str	r3, [r7]
   15520:	e7951001 	ldr	r1, [r5, r1]
   15524:	e59fe54c 	ldr	lr, [pc, #1356]	; 15a78 <commVDG+0x880>
   15528:	e59fc53c 	ldr	ip, [pc, #1340]	; 15a6c <commVDG+0x874>
   1552c:	e5816000 	str	r6, [r1]
   15530:	e1a02006 	mov	r2, r6
   15534:	e795600e 	ldr	r6, [r5, lr]
   15538:	e795e00c 	ldr	lr, [r5, ip]
   1553c:	e5d0c003 	ldrb	ip, [r0, #3]
   15540:	e2822002 	add	r2, r2, #2
   15544:	e1a0440c 	lsl	r4, ip, #8
   15548:	e78e4103 	str	r4, [lr, r3, lsl #2]
   1554c:	e586c000 	str	ip, [r6]
   15550:	e5d04004 	ldrb	r4, [r0, #4]
   15554:	e79ec103 	ldr	ip, [lr, r3, lsl #2]
   15558:	e3520083 	cmp	r2, #131	; 0x83
   1555c:	e184c00c 	orr	ip, r4, ip
   15560:	e78ec103 	str	ip, [lr, r3, lsl #2]
   15564:	e2833001 	add	r3, r3, #1
   15568:	e5864000 	str	r4, [r6]
   1556c:	e5812000 	str	r2, [r1]
   15570:	e2800002 	add	r0, r0, #2
   15574:	e5873000 	str	r3, [r7]
   15578:	1affffef 	bne	1553c <commVDG+0x344>
   1557c:	eaffffb1 	b	15448 <commVDG+0x250>
   15580:	e59f34f4 	ldr	r3, [pc, #1268]	; 15a7c <commVDG+0x884>
   15584:	e59f14f4 	ldr	r1, [pc, #1268]	; 15a80 <commVDG+0x888>
   15588:	e7952003 	ldr	r2, [r5, r3]
   1558c:	e59f34f0 	ldr	r3, [pc, #1264]	; 15a84 <commVDG+0x88c>
   15590:	e5920000 	ldr	r0, [r2]
   15594:	e1a00420 	lsr	r0, r0, #8
   15598:	e5c40000 	strb	r0, [r4]
   1559c:	e5920000 	ldr	r0, [r2]
   155a0:	e5c40001 	strb	r0, [r4, #1]
   155a4:	e7950001 	ldr	r0, [r5, r1]
   155a8:	e5901000 	ldr	r1, [r0]
   155ac:	e1a01421 	lsr	r1, r1, #8
   155b0:	e5c41002 	strb	r1, [r4, #2]
   155b4:	e5901000 	ldr	r1, [r0]
   155b8:	e5c41003 	strb	r1, [r4, #3]
   155bc:	e795e003 	ldr	lr, [r5, r3]
   155c0:	e59e3000 	ldr	r3, [lr]
   155c4:	e3530000 	cmp	r3, #0
   155c8:	0affff9e 	beq	15448 <commVDG+0x250>
   155cc:	e3a03001 	mov	r3, #1
   155d0:	e59f149c 	ldr	r1, [pc, #1180]	; 15a74 <commVDG+0x87c>
   155d4:	e59ec000 	ldr	ip, [lr]
   155d8:	e7951001 	ldr	r1, [r5, r1]
   155dc:	e35c0000 	cmp	ip, #0
   155e0:	e5813000 	str	r3, [r1]
   155e4:	0a00000c 	beq	1561c <commVDG+0x424>
   155e8:	e7904103 	ldr	r4, [r0, r3, lsl #2]
   155ec:	e243c001 	sub	ip, r3, #1
   155f0:	e780410c 	str	r4, [r0, ip, lsl #2]
   155f4:	e7924103 	ldr	r4, [r2, r3, lsl #2]
   155f8:	e2833001 	add	r3, r3, #1
   155fc:	e782410c 	str	r4, [r2, ip, lsl #2]
   15600:	e59ec000 	ldr	ip, [lr]
   15604:	e153000c 	cmp	r3, ip
   15608:	9afffff6 	bls	155e8 <commVDG+0x3f0>
   1560c:	e59fc464 	ldr	ip, [pc, #1124]	; 15a78 <commVDG+0x880>
   15610:	e5813000 	str	r3, [r1]
   15614:	e795300c 	ldr	r3, [r5, ip]
   15618:	e5834000 	str	r4, [r3]
   1561c:	e3a03000 	mov	r3, #0
   15620:	e59e1000 	ldr	r1, [lr]
   15624:	e7803101 	str	r3, [r0, r1, lsl #2]
   15628:	e59e1000 	ldr	r1, [lr]
   1562c:	e7823101 	str	r3, [r2, r1, lsl #2]
   15630:	e59e3000 	ldr	r3, [lr]
   15634:	e2433001 	sub	r3, r3, #1
   15638:	e58e3000 	str	r3, [lr]
   1563c:	eaffff81 	b	15448 <commVDG+0x250>
   15640:	e59f2440 	ldr	r2, [pc, #1088]	; 15a88 <commVDG+0x890>
   15644:	e59f3440 	ldr	r3, [pc, #1088]	; 15a8c <commVDG+0x894>
   15648:	e7950002 	ldr	r0, [r5, r2]
   1564c:	e5d02000 	ldrb	r2, [r0]
   15650:	e5c42000 	strb	r2, [r4]
   15654:	e795c003 	ldr	ip, [r5, r3]
   15658:	e59c3000 	ldr	r3, [ip]
   1565c:	e3530000 	cmp	r3, #0
   15660:	0a0000a2 	beq	158f0 <commVDG+0x6f8>
   15664:	e3a03001 	mov	r3, #1
   15668:	e59f2404 	ldr	r2, [pc, #1028]	; 15a74 <commVDG+0x87c>
   1566c:	e59ce000 	ldr	lr, [ip]
   15670:	e7951002 	ldr	r1, [r5, r2]
   15674:	e35e0000 	cmp	lr, #0
   15678:	e5813000 	str	r3, [r1]
   1567c:	0a00000b 	beq	156b0 <commVDG+0x4b8>
   15680:	e7d02003 	ldrb	r2, [r0, r3]
   15684:	e243e001 	sub	lr, r3, #1
   15688:	e6ef2072 	uxtb	r2, r2
   1568c:	e7c0200e 	strb	r2, [r0, lr]
   15690:	e59ce000 	ldr	lr, [ip]
   15694:	e2833001 	add	r3, r3, #1
   15698:	e153000e 	cmp	r3, lr
   1569c:	9afffff7 	bls	15680 <commVDG+0x488>
   156a0:	e59fe3c8 	ldr	lr, [pc, #968]	; 15a70 <commVDG+0x878>
   156a4:	e5813000 	str	r3, [r1]
   156a8:	e795300e 	ldr	r3, [r5, lr]
   156ac:	e5832000 	str	r2, [r3]
   156b0:	e3a02000 	mov	r2, #0
   156b4:	e59c3000 	ldr	r3, [ip]
   156b8:	e7c02003 	strb	r2, [r0, r3]
   156bc:	e59c3000 	ldr	r3, [ip]
   156c0:	e2433001 	sub	r3, r3, #1
   156c4:	e58c3000 	str	r3, [ip]
   156c8:	eaffff5e 	b	15448 <commVDG+0x250>
   156cc:	e3570001 	cmp	r7, #1
   156d0:	0a0000aa 	beq	15980 <commVDG+0x788>
   156d4:	e3570002 	cmp	r7, #2
   156d8:	1affff5a 	bne	15448 <commVDG+0x250>
   156dc:	e3a01000 	mov	r1, #0
   156e0:	e59f23a8 	ldr	r2, [pc, #936]	; 15a90 <commVDG+0x898>
   156e4:	e59f33a8 	ldr	r3, [pc, #936]	; 15a94 <commVDG+0x89c>
   156e8:	e7950002 	ldr	r0, [r5, r2]
   156ec:	e59f23a4 	ldr	r2, [pc, #932]	; 15a98 <commVDG+0x8a0>
   156f0:	e5c01000 	strb	r1, [r0]
   156f4:	e7950003 	ldr	r0, [r5, r3]
   156f8:	e59f339c 	ldr	r3, [pc, #924]	; 15a9c <commVDG+0x8a4>
   156fc:	e5c01000 	strb	r1, [r0]
   15700:	e7952002 	ldr	r2, [r5, r2]
   15704:	e7953003 	ldr	r3, [r5, r3]
   15708:	e5921000 	ldr	r1, [r2]
   1570c:	e5930000 	ldr	r0, [r3]
   15710:	ebfffb2c 	bl	143c8 <HideKeyboard>
   15714:	eaffff4b 	b	15448 <commVDG+0x250>
   15718:	e5d43003 	ldrb	r3, [r4, #3]
   1571c:	e59d201c 	ldr	r2, [sp, #28]
   15720:	e3a01001 	mov	r1, #1
   15724:	e182a403 	orr	sl, r2, r3, lsl #8
   15728:	e59d3010 	ldr	r3, [sp, #16]
   1572c:	e583a000 	str	sl, [r3]
   15730:	e5d40002 	ldrb	r0, [r4, #2]
   15734:	ebfffa24 	bl	13fcc <TFT_Scroll>
   15738:	eaffff42 	b	15448 <commVDG+0x250>
   1573c:	e1a02008 	mov	r2, r8
   15740:	e1a0100c 	mov	r1, ip
   15744:	ebfff760 	bl	134cc <TFT_Dot>
   15748:	eaffff3e 	b	15448 <commVDG+0x250>
   1574c:	e58d9000 	str	r9, [sp]
   15750:	e1a0300a 	mov	r3, sl
   15754:	e1a02007 	mov	r2, r7
   15758:	e1a0100c 	mov	r1, ip
   1575c:	ebfff79c 	bl	135d4 <TFT_Circle>
   15760:	eaffff38 	b	15448 <commVDG+0x250>
   15764:	e58d1000 	str	r1, [sp]
   15768:	e1a0100c 	mov	r1, ip
   1576c:	ebfff77d 	bl	13568 <TFT_Rectangle>
   15770:	eaffff34 	b	15448 <commVDG+0x250>
   15774:	e58d1000 	str	r1, [sp]
   15778:	e1a0100c 	mov	r1, ip
   1577c:	ebfffabc 	bl	14274 <TFT_Line>
   15780:	eaffff30 	b	15448 <commVDG+0x250>
   15784:	e58d1000 	str	r1, [sp]
   15788:	e1a0100c 	mov	r1, ip
   1578c:	ebfff71d 	bl	13408 <TFT_Box>
   15790:	eaffff2c 	b	15448 <commVDG+0x250>
   15794:	e3560008 	cmp	r6, #8
   15798:	e1cd80f0 	strd	r8, [sp]
   1579c:	e1a03007 	mov	r3, r7
   157a0:	e1a0200c 	mov	r2, ip
   157a4:	e1a01000 	mov	r1, r0
   157a8:	0a000055 	beq	15904 <commVDG+0x70c>
   157ac:	e1a00006 	mov	r0, r6
   157b0:	ebfff7dd 	bl	1372c <TFT_Char>
   157b4:	e59f3298 	ldr	r3, [pc, #664]	; 15a54 <commVDG+0x85c>
   157b8:	e59d2018 	ldr	r2, [sp, #24]
   157bc:	e7951003 	ldr	r1, [r5, r3]
   157c0:	e5920000 	ldr	r0, [r2]
   157c4:	e59d3014 	ldr	r3, [sp, #20]
   157c8:	e59f228c 	ldr	r2, [pc, #652]	; 15a5c <commVDG+0x864>
   157cc:	e5933000 	ldr	r3, [r3]
   157d0:	e5810000 	str	r0, [r1]
   157d4:	e7952002 	ldr	r2, [r5, r2]
   157d8:	e2833008 	add	r3, r3, #8
   157dc:	e5823000 	str	r3, [r2]
   157e0:	eaffff18 	b	15448 <commVDG+0x250>
   157e4:	e3a0300b 	mov	r3, #11
   157e8:	e59f2284 	ldr	r2, [pc, #644]	; 15a74 <commVDG+0x87c>
   157ec:	e3560000 	cmp	r6, #0
   157f0:	e7951002 	ldr	r1, [r5, r2]
   157f4:	01a02004 	moveq	r2, r4
   157f8:	e5813000 	str	r3, [r1]
   157fc:	0a00000c 	beq	15834 <commVDG+0x63c>
   15800:	e59f2298 	ldr	r2, [pc, #664]	; 15aa0 <commVDG+0x8a8>
   15804:	e7950002 	ldr	r0, [r5, r2]
   15808:	e0843003 	add	r3, r4, r3
   1580c:	e5c06000 	strb	r6, [r0]
   15810:	e543600b 	strb	r6, [r3, #-11]
   15814:	e5912000 	ldr	r2, [r1]
   15818:	e2823001 	add	r3, r2, #1
   1581c:	e5813000 	str	r3, [r1]
   15820:	e7d46003 	ldrb	r6, [r4, r3]
   15824:	e3560000 	cmp	r6, #0
   15828:	1afffff6 	bne	15808 <commVDG+0x610>
   1582c:	e242200a 	sub	r2, r2, #10
   15830:	e0842002 	add	r2, r4, r2
   15834:	e3a03000 	mov	r3, #0
   15838:	e59d0010 	ldr	r0, [sp, #16]
   1583c:	e5c23000 	strb	r3, [r2]
   15840:	e590e000 	ldr	lr, [r0]
   15844:	e59d0028 	ldr	r0, [sp, #40]	; 0x28
   15848:	e59d3020 	ldr	r3, [sp, #32]
   1584c:	e590c000 	ldr	ip, [r0]
   15850:	e59d2014 	ldr	r2, [sp, #20]
   15854:	e59d1018 	ldr	r1, [sp, #24]
   15858:	e5d33000 	ldrb	r3, [r3]
   1585c:	e5922000 	ldr	r2, [r2]
   15860:	e5911000 	ldr	r1, [r1]
   15864:	e1a00004 	mov	r0, r4
   15868:	e88d5000 	stm	sp, {ip, lr}
   1586c:	ebfff822 	bl	138fc <TFT_Text>
   15870:	eafffef4 	b	15448 <commVDG+0x250>
   15874:	e1d430b2 	ldrh	r3, [r4, #2]
   15878:	e59d2024 	ldr	r2, [sp, #36]	; 0x24
   1587c:	e6bf3fb3 	rev16	r3, r3
   15880:	e6ff3073 	uxth	r3, r3
   15884:	e1a00003 	mov	r0, r3
   15888:	e5823000 	str	r3, [r2]
   1588c:	ebfff6aa 	bl	1333c <TFT_Fill>
   15890:	eafffeec 	b	15448 <commVDG+0x250>
   15894:	e59f31ac 	ldr	r3, [pc, #428]	; 15a48 <commVDG+0x850>
   15898:	e5d41002 	ldrb	r1, [r4, #2]
   1589c:	e7952003 	ldr	r2, [r5, r3]
   158a0:	e59f31c0 	ldr	r3, [pc, #448]	; 15a68 <commVDG+0x870>
   158a4:	e5c21000 	strb	r1, [r2]
   158a8:	e7952003 	ldr	r2, [r5, r3]
   158ac:	e59f31b0 	ldr	r3, [pc, #432]	; 15a64 <commVDG+0x86c>
   158b0:	e5828000 	str	r8, [r2]
   158b4:	e7953003 	ldr	r3, [r5, r3]
   158b8:	e59f2194 	ldr	r2, [pc, #404]	; 15a54 <commVDG+0x85c>
   158bc:	e5839000 	str	r9, [r3]
   158c0:	e59f3194 	ldr	r3, [pc, #404]	; 15a5c <commVDG+0x864>
   158c4:	e7952002 	ldr	r2, [r5, r2]
   158c8:	e7953003 	ldr	r3, [r5, r3]
   158cc:	e3510000 	cmp	r1, #0
   158d0:	03a00020 	moveq	r0, #32
   158d4:	e5921000 	ldr	r1, [r2]
   158d8:	13a0005f 	movne	r0, #95	; 0x5f
   158dc:	e5932000 	ldr	r2, [r3]
   158e0:	e1cd80f0 	strd	r8, [sp]
   158e4:	e3a03008 	mov	r3, #8
   158e8:	ebfff78f 	bl	1372c <TFT_Char>
   158ec:	eafffed5 	b	15448 <commVDG+0x250>
   158f0:	e3a02001 	mov	r2, #1
   158f4:	e59f31a8 	ldr	r3, [pc, #424]	; 15aa4 <commVDG+0x8ac>
   158f8:	e7953003 	ldr	r3, [r5, r3]
   158fc:	e5c32000 	strb	r2, [r3]
   15900:	eafffed0 	b	15448 <commVDG+0x250>
   15904:	e3a00020 	mov	r0, #32
   15908:	ebfff787 	bl	1372c <TFT_Char>
   1590c:	e59f3140 	ldr	r3, [pc, #320]	; 15a54 <commVDG+0x85c>
   15910:	e59d2018 	ldr	r2, [sp, #24]
   15914:	e5921000 	ldr	r1, [r2]
   15918:	e7952003 	ldr	r2, [r5, r3]
   1591c:	e59f3138 	ldr	r3, [pc, #312]	; 15a5c <commVDG+0x864>
   15920:	e5821000 	str	r1, [r2]
   15924:	e59d2014 	ldr	r2, [sp, #20]
   15928:	e7953003 	ldr	r3, [r5, r3]
   1592c:	e5922000 	ldr	r2, [r2]
   15930:	e5832000 	str	r2, [r3]
   15934:	eafffec3 	b	15448 <commVDG+0x250>
   15938:	e59f2114 	ldr	r2, [pc, #276]	; 15a54 <commVDG+0x85c>
   1593c:	e59f3114 	ldr	r3, [pc, #276]	; 15a58 <commVDG+0x860>
   15940:	e7952002 	ldr	r2, [r5, r2]
   15944:	e7953003 	ldr	r3, [r5, r3]
   15948:	e5921000 	ldr	r1, [r2]
   1594c:	e5933000 	ldr	r3, [r3]
   15950:	e1510003 	cmp	r1, r3
   15954:	2a000007 	bcs	15978 <commVDG+0x780>
   15958:	e59f20fc 	ldr	r2, [pc, #252]	; 15a5c <commVDG+0x864>
   1595c:	e59f30fc 	ldr	r3, [pc, #252]	; 15a60 <commVDG+0x868>
   15960:	e7952002 	ldr	r2, [r5, r2]
   15964:	e7953003 	ldr	r3, [r5, r3]
   15968:	e5922000 	ldr	r2, [r2]
   1596c:	e5933000 	ldr	r3, [r3]
   15970:	e1520003 	cmp	r2, r3
   15974:	3a00001c 	bcc	159ec <commVDG+0x7f4>
   15978:	e59f3128 	ldr	r3, [pc, #296]	; 15aa8 <commVDG+0x8b0>
   1597c:	eafffeb0 	b	15444 <commVDG+0x24c>
   15980:	e59f2108 	ldr	r2, [pc, #264]	; 15a90 <commVDG+0x898>
   15984:	e59f3108 	ldr	r3, [pc, #264]	; 15a94 <commVDG+0x89c>
   15988:	e7952002 	ldr	r2, [r5, r2]
   1598c:	e59d102c 	ldr	r1, [sp, #44]	; 0x2c
   15990:	e5c27000 	strb	r7, [r2]
   15994:	e7952003 	ldr	r2, [r5, r3]
   15998:	e59f310c 	ldr	r3, [pc, #268]	; 15aac <commVDG+0x8b4>
   1599c:	e5c27000 	strb	r7, [r2]
   159a0:	e7952003 	ldr	r2, [r5, r3]
   159a4:	e59f3104 	ldr	r3, [pc, #260]	; 15ab0 <commVDG+0x8b8>
   159a8:	e5c2a000 	strb	sl, [r2]
   159ac:	e7952003 	ldr	r2, [r5, r3]
   159b0:	e59f30fc 	ldr	r3, [pc, #252]	; 15ab4 <commVDG+0x8bc>
   159b4:	e5c21000 	strb	r1, [r2]
   159b8:	e7952003 	ldr	r2, [r5, r3]
   159bc:	e59f30d4 	ldr	r3, [pc, #212]	; 15a98 <commVDG+0x8a0>
   159c0:	e5c2b000 	strb	fp, [r2]
   159c4:	e7952003 	ldr	r2, [r5, r3]
   159c8:	e59f30cc 	ldr	r3, [pc, #204]	; 15a9c <commVDG+0x8a4>
   159cc:	e5820000 	str	r0, [r2]
   159d0:	e7953003 	ldr	r3, [r5, r3]
   159d4:	e1a01000 	mov	r1, r0
   159d8:	e1a02007 	mov	r2, r7
   159dc:	e1a0000c 	mov	r0, ip
   159e0:	e583c000 	str	ip, [r3]
   159e4:	ebfffa8a 	bl	14414 <ShowKeyboard>
   159e8:	eafffe96 	b	15448 <commVDG+0x250>
   159ec:	e59f3070 	ldr	r3, [pc, #112]	; 15a64 <commVDG+0x86c>
   159f0:	e7953003 	ldr	r3, [r5, r3]
   159f4:	e5930000 	ldr	r0, [r3]
   159f8:	e59f3068 	ldr	r3, [pc, #104]	; 15a68 <commVDG+0x870>
   159fc:	e58d0004 	str	r0, [sp, #4]
   15a00:	e7950003 	ldr	r0, [r5, r3]
   15a04:	e3a03008 	mov	r3, #8
   15a08:	e590c000 	ldr	ip, [r0]
   15a0c:	e3a0005f 	mov	r0, #95	; 0x5f
   15a10:	e58dc000 	str	ip, [sp]
   15a14:	ebfff744 	bl	1372c <TFT_Char>
   15a18:	e5943000 	ldr	r3, [r4]
   15a1c:	e2833001 	add	r3, r3, #1
   15a20:	eafffe87 	b	15444 <commVDG+0x24c>
   15a24:	00003bc8 	andeq	r3, r0, r8, asr #23
   15a28:	00000178 	andeq	r0, r0, r8, ror r1
   15a2c:	000000f4 	strdeq	r0, [r0], -r4
   15a30:	00000138 	andeq	r0, r0, r8, lsr r1
   15a34:	00000184 	andeq	r0, r0, r4, lsl #3
   15a38:	000001f0 	strdeq	r0, [r0], -r0	; <UNPREDICTABLE>
   15a3c:	00000118 	andeq	r0, r0, r8, lsl r1
   15a40:	00000190 	muleq	r0, r0, r1
   15a44:	0000002c 	andeq	r0, r0, ip, lsr #32
   15a48:	000000dc 	ldrdeq	r0, [r0], -ip
   15a4c:	000001dc 	ldrdeq	r0, [r0], -ip
   15a50:	000001c8 	andeq	r0, r0, r8, asr #3
   15a54:	000001f8 	strdeq	r0, [r0], -r8
   15a58:	00000194 	muleq	r0, r4, r1
   15a5c:	0000004c 	andeq	r0, r0, ip, asr #32
   15a60:	000000d0 	ldrdeq	r0, [r0], -r0	; <UNPREDICTABLE>
   15a64:	000001cc 	andeq	r0, r0, ip, asr #3
   15a68:	000000d4 	ldrdeq	r0, [r0], -r4
   15a6c:	0000001c 	andeq	r0, r0, ip, lsl r0
   15a70:	00000064 	andeq	r0, r0, r4, rrx
   15a74:	000001a0 	andeq	r0, r0, r0, lsr #3
   15a78:	00000110 	andeq	r0, r0, r0, lsl r1
   15a7c:	000000a8 	andeq	r0, r0, r8, lsr #1
   15a80:	000000a0 	andeq	r0, r0, r0, lsr #1
   15a84:	00000094 	muleq	r0, r4, r0
   15a88:	00000080 	andeq	r0, r0, r0, lsl #1
   15a8c:	000000e8 	andeq	r0, r0, r8, ror #1
   15a90:	00000188 	andeq	r0, r0, r8, lsl #3
   15a94:	00000130 	andeq	r0, r0, r0, lsr r1
   15a98:	0000000c 	andeq	r0, r0, ip
   15a9c:	000001b0 			; <UNDEFINED> instruction: 0x000001b0
   15aa0:	00000140 	andeq	r0, r0, r0, asr #2
   15aa4:	00000144 	andeq	r0, r0, r4, asr #2
   15aa8:	00005001 	andeq	r5, r0, r1
   15aac:	00000040 	andeq	r0, r0, r0, asr #32
   15ab0:	00000058 	andeq	r0, r0, r8, asr r0
   15ab4:	00000168 	andeq	r0, r0, r8, ror #2

00015ab8 <lcd_tch_irq_handler>:
   15ab8:	e59f3020 	ldr	r3, [pc, #32]	; 15ae0 <lcd_tch_irq_handler+0x28>
   15abc:	e59f2020 	ldr	r2, [pc, #32]	; 15ae4 <lcd_tch_irq_handler+0x2c>
   15ac0:	e08f3003 	add	r3, pc, r3
   15ac4:	e7933002 	ldr	r3, [r3, r2]
   15ac8:	e5d32000 	ldrb	r2, [r3]
   15acc:	e3520000 	cmp	r2, #0
   15ad0:	012fff1e 	bxeq	lr
   15ad4:	e3a02000 	mov	r2, #0
   15ad8:	e5c32000 	strb	r2, [r3]
   15adc:	eafffd02 	b	14eec <TCHVerif>
   15ae0:	00003314 	andeq	r3, r0, r4, lsl r3
   15ae4:	00000180 	andeq	r0, r0, r0, lsl #3

00015ae8 <spi_man_init>:
   15ae8:	e92d4010 	push	{r4, lr}
   15aec:	e3a01001 	mov	r1, #1
   15af0:	e3a00008 	mov	r0, #8
   15af4:	ebfff0a5 	bl	11d90 <bcm2835_gpio_fsel>
   15af8:	e3a01001 	mov	r1, #1
   15afc:	e3a0000b 	mov	r0, #11
   15b00:	ebfff0a2 	bl	11d90 <bcm2835_gpio_fsel>
   15b04:	e3a01001 	mov	r1, #1
   15b08:	e3a0000a 	mov	r0, #10
   15b0c:	ebfff09f 	bl	11d90 <bcm2835_gpio_fsel>
   15b10:	e3a01000 	mov	r1, #0
   15b14:	e3a00009 	mov	r0, #9
   15b18:	ebfff09c 	bl	11d90 <bcm2835_gpio_fsel>
   15b1c:	e3a01000 	mov	r1, #0
   15b20:	e3a0000b 	mov	r0, #11
   15b24:	ebffeffc 	bl	11b1c <bcm2835_gpio_write>
   15b28:	e8bd4010 	pop	{r4, lr}
   15b2c:	e3a01001 	mov	r1, #1
   15b30:	e3a0000a 	mov	r0, #10
   15b34:	eaffeff8 	b	11b1c <bcm2835_gpio_write>

00015b38 <spi_man_send>:
   15b38:	e92d4070 	push	{r4, r5, r6, lr}
   15b3c:	e3a01000 	mov	r1, #0
   15b40:	e1a05000 	mov	r5, r0
   15b44:	e3a0000b 	mov	r0, #11
   15b48:	ebffeff3 	bl	11b1c <bcm2835_gpio_write>
   15b4c:	e3a04008 	mov	r4, #8
   15b50:	e3150080 	tst	r5, #128	; 0x80
   15b54:	13a01001 	movne	r1, #1
   15b58:	03a01000 	moveq	r1, #0
   15b5c:	e3a0000a 	mov	r0, #10
   15b60:	ebffefed 	bl	11b1c <bcm2835_gpio_write>
   15b64:	e3a01000 	mov	r1, #0
   15b68:	e3a0000b 	mov	r0, #11
   15b6c:	ebffefea 	bl	11b1c <bcm2835_gpio_write>
   15b70:	e3a00001 	mov	r0, #1
   15b74:	ebffef6c 	bl	1192c <Delayus>
   15b78:	e3a01001 	mov	r1, #1
   15b7c:	e3a0000b 	mov	r0, #11
   15b80:	ebffefe5 	bl	11b1c <bcm2835_gpio_write>
   15b84:	e3a00001 	mov	r0, #1
   15b88:	ebffef67 	bl	1192c <Delayus>
   15b8c:	e2443001 	sub	r3, r4, #1
   15b90:	e1a05085 	lsl	r5, r5, #1
   15b94:	e21340ff 	ands	r4, r3, #255	; 0xff
   15b98:	e6ef5075 	uxtb	r5, r5
   15b9c:	1affffeb 	bne	15b50 <spi_man_send+0x18>
   15ba0:	e8bd8070 	pop	{r4, r5, r6, pc}

00015ba4 <spi_man_get>:
   15ba4:	e92d4070 	push	{r4, r5, r6, lr}
   15ba8:	e3a0400c 	mov	r4, #12
   15bac:	e3a05000 	mov	r5, #0
   15bb0:	e3a01001 	mov	r1, #1
   15bb4:	e3a0000b 	mov	r0, #11
   15bb8:	ebffefd7 	bl	11b1c <bcm2835_gpio_write>
   15bbc:	e3a00001 	mov	r0, #1
   15bc0:	ebffef59 	bl	1192c <Delayus>
   15bc4:	e3a01000 	mov	r1, #0
   15bc8:	e3a0000b 	mov	r0, #11
   15bcc:	ebffefd2 	bl	11b1c <bcm2835_gpio_write>
   15bd0:	e3a00001 	mov	r0, #1
   15bd4:	ebffef54 	bl	1192c <Delayus>
   15bd8:	e3a00009 	mov	r0, #9
   15bdc:	ebffefd8 	bl	11b44 <bcm2835_gpio_lev>
   15be0:	e1a05085 	lsl	r5, r5, #1
   15be4:	e3500001 	cmp	r0, #1
   15be8:	e2443001 	sub	r3, r4, #1
   15bec:	02855001 	addeq	r5, r5, #1
   15bf0:	e21340ff 	ands	r4, r3, #255	; 0xff
   15bf4:	1affffed 	bne	15bb0 <spi_man_get+0xc>
   15bf8:	e1a00005 	mov	r0, r5
   15bfc:	e8bd8070 	pop	{r4, r5, r6, pc}

00015c00 <spi_man8_send>:
   15c00:	e92d4010 	push	{r4, lr}
   15c04:	e3a01000 	mov	r1, #0
   15c08:	e3a0000b 	mov	r0, #11
   15c0c:	ebffefc2 	bl	11b1c <bcm2835_gpio_write>
   15c10:	e3a04008 	mov	r4, #8
   15c14:	e3a01001 	mov	r1, #1
   15c18:	e3a0000a 	mov	r0, #10
   15c1c:	ebffefbe 	bl	11b1c <bcm2835_gpio_write>
   15c20:	e3a01000 	mov	r1, #0
   15c24:	e3a0000b 	mov	r0, #11
   15c28:	ebffefbb 	bl	11b1c <bcm2835_gpio_write>
   15c2c:	e3a01001 	mov	r1, #1
   15c30:	e3a0000b 	mov	r0, #11
   15c34:	ebffefb8 	bl	11b1c <bcm2835_gpio_write>
   15c38:	e2441001 	sub	r1, r4, #1
   15c3c:	e21140ff 	ands	r4, r1, #255	; 0xff
   15c40:	1afffff3 	bne	15c14 <spi_man8_send+0x14>
   15c44:	e1a01004 	mov	r1, r4
   15c48:	e8bd4010 	pop	{r4, lr}
   15c4c:	e3a0000b 	mov	r0, #11
   15c50:	eaffefb1 	b	11b1c <bcm2835_gpio_write>

00015c54 <spi_man8_get>:
   15c54:	e92d4070 	push	{r4, r5, r6, lr}
   15c58:	e3a01000 	mov	r1, #0
   15c5c:	e3a0000b 	mov	r0, #11
   15c60:	ebffefad 	bl	11b1c <bcm2835_gpio_write>
   15c64:	e3a05008 	mov	r5, #8
   15c68:	e3a04000 	mov	r4, #0
   15c6c:	e3a01000 	mov	r1, #0
   15c70:	e3a0000b 	mov	r0, #11
   15c74:	ebffefa8 	bl	11b1c <bcm2835_gpio_write>
   15c78:	e3a01001 	mov	r1, #1
   15c7c:	e3a0000b 	mov	r0, #11
   15c80:	ebffefa5 	bl	11b1c <bcm2835_gpio_write>
   15c84:	e3a00009 	mov	r0, #9
   15c88:	ebffefad 	bl	11b44 <bcm2835_gpio_lev>
   15c8c:	e1a04084 	lsl	r4, r4, #1
   15c90:	e3500001 	cmp	r0, #1
   15c94:	e6ef4074 	uxtb	r4, r4
   15c98:	02844001 	addeq	r4, r4, #1
   15c9c:	e2451001 	sub	r1, r5, #1
   15ca0:	06ef4074 	uxtbeq	r4, r4
   15ca4:	e21150ff 	ands	r5, r1, #255	; 0xff
   15ca8:	1affffef 	bne	15c6c <spi_man8_get+0x18>
   15cac:	e1a01005 	mov	r1, r5
   15cb0:	e3a0000b 	mov	r0, #11
   15cb4:	ebffef98 	bl	11b1c <bcm2835_gpio_write>
   15cb8:	e1a00004 	mov	r0, r4
   15cbc:	e8bd8070 	pop	{r4, r5, r6, pc}

00015cc0 <mmio_write>:
   15cc0:	e5801000 	str	r1, [r0]
   15cc4:	e12fff1e 	bx	lr

00015cc8 <mmio_read>:
   15cc8:	e5900000 	ldr	r0, [r0]
   15ccc:	e12fff1e 	bx	lr

00015cd0 <delay>:
   15cd0:	e2500001 	subs	r0, r0, #1
   15cd4:	1afffffd 	bne	15cd0 <delay>
   15cd8:	e12fff1e 	bx	lr

00015cdc <uart_init>:
   15cdc:	e3a01004 	mov	r1, #4
   15ce0:	e92d4030 	push	{r4, r5, lr}
   15ce4:	e59f40b4 	ldr	r4, [pc, #180]	; 15da0 <uart_init+0xc4>
   15ce8:	e24dd00c 	sub	sp, sp, #12
   15cec:	e08d0001 	add	r0, sp, r1
   15cf0:	ebffedf5 	bl	114cc <bzero>
   15cf4:	e1a00004 	mov	r0, r4
   15cf8:	e59d1004 	ldr	r1, [sp, #4]
   15cfc:	ebffffef 	bl	15cc0 <mmio_write>
   15d00:	e59f509c 	ldr	r5, [pc, #156]	; 15da4 <uart_init+0xc8>
   15d04:	e3a01000 	mov	r1, #0
   15d08:	e59f0098 	ldr	r0, [pc, #152]	; 15da8 <uart_init+0xcc>
   15d0c:	ebffffeb 	bl	15cc0 <mmio_write>
   15d10:	e3a00096 	mov	r0, #150	; 0x96
   15d14:	ebffffed 	bl	15cd0 <delay>
   15d18:	e1a00005 	mov	r0, r5
   15d1c:	e3a01903 	mov	r1, #49152	; 0xc000
   15d20:	ebffffe6 	bl	15cc0 <mmio_write>
   15d24:	e3a00096 	mov	r0, #150	; 0x96
   15d28:	ebffffe8 	bl	15cd0 <delay>
   15d2c:	e1a00005 	mov	r0, r5
   15d30:	e3a01000 	mov	r1, #0
   15d34:	ebffffe1 	bl	15cc0 <mmio_write>
   15d38:	e59f106c 	ldr	r1, [pc, #108]	; 15dac <uart_init+0xd0>
   15d3c:	e59f006c 	ldr	r0, [pc, #108]	; 15db0 <uart_init+0xd4>
   15d40:	ebffffde 	bl	15cc0 <mmio_write>
   15d44:	e3a01001 	mov	r1, #1
   15d48:	e59f0064 	ldr	r0, [pc, #100]	; 15db4 <uart_init+0xd8>
   15d4c:	ebffffdb 	bl	15cc0 <mmio_write>
   15d50:	e3a01028 	mov	r1, #40	; 0x28
   15d54:	e59f005c 	ldr	r0, [pc, #92]	; 15db8 <uart_init+0xdc>
   15d58:	ebffffd8 	bl	15cc0 <mmio_write>
   15d5c:	e3a01070 	mov	r1, #112	; 0x70
   15d60:	e59f0054 	ldr	r0, [pc, #84]	; 15dbc <uart_init+0xe0>
   15d64:	ebffffd5 	bl	15cc0 <mmio_write>
   15d68:	e59f1050 	ldr	r1, [pc, #80]	; 15dc0 <uart_init+0xe4>
   15d6c:	e59f0050 	ldr	r0, [pc, #80]	; 15dc4 <uart_init+0xe8>
   15d70:	ebffffd2 	bl	15cc0 <mmio_write>
   15d74:	e5dd2004 	ldrb	r2, [sp, #4]
   15d78:	e5dd3005 	ldrb	r3, [sp, #5]
   15d7c:	e3822001 	orr	r2, r2, #1
   15d80:	e3833003 	orr	r3, r3, #3
   15d84:	e5cd2004 	strb	r2, [sp, #4]
   15d88:	e5cd3005 	strb	r3, [sp, #5]
   15d8c:	e1a00004 	mov	r0, r4
   15d90:	e59d1004 	ldr	r1, [sp, #4]
   15d94:	ebffffc9 	bl	15cc0 <mmio_write>
   15d98:	e28dd00c 	add	sp, sp, #12
   15d9c:	e8bd8030 	pop	{r4, r5, pc}
   15da0:	20201030 	eorcs	r1, r0, r0, lsr r0
   15da4:	20200098 	mlacs	r0, r8, r0, r0
   15da8:	20200094 	mlacs	r0, r4, r0, r0
   15dac:	000007ff 	strdeq	r0, [r0], -pc	; <UNPREDICTABLE>
   15db0:	20201044 	eorcs	r1, r0, r4, asr #32
   15db4:	20201024 	eorcs	r1, r0, r4, lsr #32
   15db8:	20201028 	eorcs	r1, r0, r8, lsr #32
   15dbc:	2020102c 	eorcs	r1, r0, ip, lsr #32
   15dc0:	000007f2 	strdeq	r0, [r0], -r2
   15dc4:	20201038 	eorcs	r1, r0, r8, lsr r0

00015dc8 <read_flags>:
   15dc8:	e92d4010 	push	{r4, lr}
   15dcc:	e59f0004 	ldr	r0, [pc, #4]	; 15dd8 <read_flags+0x10>
   15dd0:	ebffffbc 	bl	15cc8 <mmio_read>
   15dd4:	e8bd8010 	pop	{r4, pc}
   15dd8:	20201018 	eorcs	r1, r0, r8, lsl r0

00015ddc <uart_putc>:
   15ddc:	e92d4010 	push	{r4, lr}
   15de0:	e1a04000 	mov	r4, r0
   15de4:	ebfffff7 	bl	15dc8 <read_flags>
   15de8:	e3100020 	tst	r0, #32
   15dec:	1afffffc 	bne	15de4 <uart_putc+0x8>
   15df0:	e1a01004 	mov	r1, r4
   15df4:	e8bd4010 	pop	{r4, lr}
   15df8:	e59f0000 	ldr	r0, [pc]	; 15e00 <uart_putc+0x24>
   15dfc:	eaffffaf 	b	15cc0 <mmio_write>
   15e00:	20201000 	eorcs	r1, r0, r0

00015e04 <uart_getc>:
   15e04:	e92d4010 	push	{r4, lr}
   15e08:	ebffffee 	bl	15dc8 <read_flags>
   15e0c:	e3100010 	tst	r0, #16
   15e10:	1afffffc 	bne	15e08 <uart_getc+0x4>
   15e14:	e59f0008 	ldr	r0, [pc, #8]	; 15e24 <uart_getc+0x20>
   15e18:	ebffffaa 	bl	15cc8 <mmio_read>
   15e1c:	e6ef0070 	uxtb	r0, r0
   15e20:	e8bd8010 	pop	{r4, pc}
   15e24:	20201000 	eorcs	r1, r0, r0

00015e28 <getc>:
   15e28:	eafffff5 	b	15e04 <uart_getc>

00015e2c <putc>:
   15e2c:	eaffffea 	b	15ddc <uart_putc>

00015e30 <puts>:
   15e30:	e92d4010 	push	{r4, lr}
   15e34:	e1a04000 	mov	r4, r0
   15e38:	e5d00000 	ldrb	r0, [r0]
   15e3c:	e3500000 	cmp	r0, #0
   15e40:	08bd8010 	popeq	{r4, pc}
   15e44:	ebfffff8 	bl	15e2c <putc>
   15e48:	e5f40001 	ldrb	r0, [r4, #1]!
   15e4c:	e3500000 	cmp	r0, #0
   15e50:	1afffffb 	bne	15e44 <puts+0x14>
   15e54:	e8bd8010 	pop	{r4, pc}

00015e58 <gets>:
   15e58:	e92d41f0 	push	{r4, r5, r6, r7, r8, lr}
   15e5c:	e1a08000 	mov	r8, r0
   15e60:	e1a05001 	mov	r5, r1
   15e64:	e2407001 	sub	r7, r0, #1
   15e68:	e3a06000 	mov	r6, #0
   15e6c:	ea000005 	b	15e88 <gets+0x30>
   15e70:	e3550001 	cmp	r5, #1
   15e74:	da00000d 	ble	15eb0 <gets+0x58>
   15e78:	ebffffeb 	bl	15e2c <putc>
   15e7c:	e2866001 	add	r6, r6, #1
   15e80:	e5e74001 	strb	r4, [r7, #1]!
   15e84:	e2455001 	sub	r5, r5, #1
   15e88:	ebffffe6 	bl	15e28 <getc>
   15e8c:	e350000d 	cmp	r0, #13
   15e90:	e1a04000 	mov	r4, r0
   15e94:	1afffff5 	bne	15e70 <gets+0x18>
   15e98:	e3a0000a 	mov	r0, #10
   15e9c:	ebffffe2 	bl	15e2c <putc>
   15ea0:	e3a03000 	mov	r3, #0
   15ea4:	e0885005 	add	r5, r8, r5
   15ea8:	e5453001 	strb	r3, [r5, #-1]
   15eac:	e8bd81f0 	pop	{r4, r5, r6, r7, r8, pc}
   15eb0:	e3a0000a 	mov	r0, #10
   15eb4:	ebffffdc 	bl	15e2c <putc>
   15eb8:	e354000a 	cmp	r4, #10
   15ebc:	1afffff7 	bne	15ea0 <gets+0x48>
   15ec0:	e3a03000 	mov	r3, #0
   15ec4:	e7c83006 	strb	r3, [r8, r6]
   15ec8:	e8bd81f0 	pop	{r4, r5, r6, r7, r8, pc}

Disassembly of section .rodata:

00016000 <__rodata_start>:
   16000:	00000023 	andeq	r0, r0, r3, lsr #32
   16004:	0000003e 	andeq	r0, r0, lr, lsr r0
   16008:	666e6f43 	strbtvs	r6, [lr], -r3, asr #30
   1600c:	66206769 	strtvs	r6, [r0], -r9, ror #14
   16010:	20656c69 	rsbcs	r6, r5, r9, ror #24
   16014:	746e7973 	strbtvc	r7, [lr], #-2419	; 0xfffff68d
   16018:	65207861 	strvs	r7, [r0, #-2145]!	; 0xfffff79f
   1601c:	726f7272 	rsbvc	r7, pc, #536870919	; 0x20000007
   16020:	0a2e2e2e 	beq	ba18e0 <__bss_end+0xb838e0>
   16024:	00000000 	andeq	r0, r0, r0
   16028:	666e6f43 	strbtvs	r6, [lr], -r3, asr #30
   1602c:	66206769 	strtvs	r6, [r0], -r9, ror #14
   16030:	20656c69 	rsbcs	r6, r5, r9, ror #24
   16034:	746e7973 	strbtvc	r7, [lr], #-2419	; 0xfffff68d
   16038:	65207861 	strvs	r7, [r0, #-2145]!	; 0xfffff79f
   1603c:	726f7272 	rsbvc	r7, pc, #536870919	; 0x20000007
   16040:	002e2e2e 	eoreq	r2, lr, lr, lsr #28
   16044:	00000000 	andeq	r0, r0, r0
   16048:	74746553 	ldrbtvc	r6, [r4], #-1363	; 0xfffffaad
   1604c:	73676e69 	cmnvc	r7, #1680	; 0x690
   16050:	70706120 	rsbsvc	r6, r0, r0, lsr #2
   16054:	6465696c 	strbtvs	r6, [r5], #-2412	; 0xfffff694
   16058:	63757320 	cmnvs	r5, #32, 6	; 0x80000000
   1605c:	73736563 	cmnvc	r3, #415236096	; 0x18c00000
   16060:	6c6c7566 	cfstr64vs	mvdx7, [ip], #-408	; 0xfffffe68
   16064:	2e2e2e79 	mcrcs	14, 1, r2, cr14, cr9, {3}
   16068:	0000000a 	andeq	r0, r0, sl
   1606c:	74746553 	ldrbtvc	r6, [r4], #-1363	; 0xfffffaad
   16070:	73676e69 	cmnvc	r7, #1680	; 0x690
   16074:	70706120 	rsbsvc	r6, r0, r0, lsr #2
   16078:	6465696c 	strbtvs	r6, [r5], #-2412	; 0xfffff694
   1607c:	6375730a 	cmnvs	r5, #671088640	; 0x28000000
   16080:	73736563 	cmnvc	r3, #415236096	; 0x18c00000
   16084:	6c6c7566 	cfstr64vs	mvdx7, [ip], #-408	; 0xfffffe68
   16088:	00000079 	andeq	r0, r0, r9, ror r0
   1608c:	64616f4c 	strbtvs	r6, [r1], #-3916	; 0xfffff0b4
   16090:	20676e69 	rsbcs	r6, r7, r9, ror #28
   16094:	666e6f63 	strbtvs	r6, [lr], -r3, ror #30
   16098:	66206769 	strtvs	r6, [r0], -r9, ror #14
   1609c:	20656c69 	rsbcs	r6, r5, r9, ror #24
   160a0:	6f727265 	svcvs	0x00727265
   160a4:	2e2e2e72 	mcrcs	14, 1, r2, cr14, cr2, {3}
   160a8:	0000000a 	andeq	r0, r0, sl
   160ac:	64616f4c 	strbtvs	r6, [r1], #-3916	; 0xfffff0b4
   160b0:	20676e69 	rsbcs	r6, r7, r9, ror #28
   160b4:	666e6f63 	strbtvs	r6, [lr], -r3, ror #30
   160b8:	66206769 	strtvs	r6, [r0], -r9, ror #14
   160bc:	0a656c69 	beq	1971268 <__bss_end+0x1953268>
   160c0:	6f727265 	svcvs	0x00727265
   160c4:	00000072 	andeq	r0, r0, r2, ror r0
   160c8:	64616f4c 	strbtvs	r6, [r1], #-3916	; 0xfffff0b4
   160cc:	20676e69 	rsbcs	r6, r7, r9, ror #28
   160d0:	656c6966 	strbvs	r6, [ip, #-2406]!	; 0xfffff69a
   160d4:	72726520 	rsbsvc	r6, r2, #32, 10	; 0x8000000
   160d8:	2e2e726f 	cdpcs	2, 2, cr7, cr14, cr15, {3}
   160dc:	00000a2e 	andeq	r0, r0, lr, lsr #20
   160e0:	64616f4c 	strbtvs	r6, [r1], #-3916	; 0xfffff0b4
   160e4:	20676e69 	rsbcs	r6, r7, r9, ror #28
   160e8:	656c6966 	strbvs	r6, [ip, #-2406]!	; 0xfffff69a
   160ec:	72726520 	rsbsvc	r6, r2, #32, 10	; 0x8000000
   160f0:	2e2e726f 	cdpcs	2, 2, cr7, cr14, cr15, {3}
   160f4:	0000002e 	andeq	r0, r0, lr, lsr #32
   160f8:	534f444d 	movtpl	r4, #62541	; 0xf44d
   160fc:	00000000 	andeq	r0, r0, r0
   16100:	65736544 	ldrbvs	r6, [r3, #-1348]!	; 0xfffffabc
   16104:	5320616a 			; <UNDEFINED> instruction: 0x5320616a
   16108:	20726961 	rsbscs	r6, r2, r1, ror #18
   1610c:	0000003f 	andeq	r0, r0, pc, lsr r0
   16110:	2049474d 	subcs	r4, r9, sp, asr #14
   16114:	312e3076 			; <UNDEFINED> instruction: 0x312e3076
   16118:	6172470a 	cmnvs	r2, sl, lsl #14
   1611c:	63696870 	cmnvs	r9, #112, 16	; 0x700000
   16120:	49206c61 	stmdbmi	r0!, {r0, r5, r6, sl, fp, sp, lr}
   16124:	7265746e 	rsbvc	r7, r5, #1845493760	; 0x6e000000
   16128:	65636166 	strbvs	r6, [r3, #-358]!	; 0xfffffe9a
   1612c:	770a200a 	strvc	r2, [sl, -sl]
   16130:	752e7777 	strvc	r7, [lr, #-1911]!	; 0xfffff889
   16134:	696c6974 	stmdbvs	ip!, {r2, r4, r5, r6, r8, fp, sp, lr}^
   16138:	6e697974 			; <UNDEFINED> instruction: 0x6e697974
   1613c:	6f632e66 	svcvs	0x00632e66
   16140:	72622e6d 	rsbvc	r2, r2, #1744	; 0x6d0
   16144:	00000000 	andeq	r0, r0, r0
   16148:	4a534d4d 	bmi	14e9684 <__bss_end+0x14cb684>
   1614c:	20534f2d 	subscs	r4, r3, sp, lsr #30
   16150:	312e3076 			; <UNDEFINED> instruction: 0x312e3076
   16154:	0000000a 	andeq	r0, r0, sl
   16158:	656c6946 	strbvs	r6, [ip, #-2374]!	; 0xfffff6ba
   1615c:	746f6e20 	strbtvc	r6, [pc], #-3616	; 16164 <__rodata_start+0x164>
   16160:	756f6620 	strbvc	r6, [pc, #-1568]!	; 15b48 <spi_man_send+0x10>
   16164:	000a646e 	andeq	r6, sl, lr, ror #8
   16168:	00000000 	andeq	r0, r0, r0
   1616c:	0000000a 	andeq	r0, r0, sl
   16170:	61766e49 	cmnvs	r6, r9, asr #28
   16174:	2064696c 	rsbcs	r6, r4, ip, ror #18
   16178:	6d6d6f43 	stclvs	15, cr6, [sp, #-268]!	; 0xfffffef4
   1617c:	20646e61 	rsbcs	r6, r4, r1, ror #28
   16180:	4620726f 	strtmi	r7, [r0], -pc, ror #4
   16184:	20656c69 	rsbcs	r6, r5, r9, ror #24
   16188:	656d614e 	strbvs	r6, [sp, #-334]!	; 0xfffffeb2
   1618c:	0000000a 	andeq	r0, r0, sl
   16190:	61766e49 	cmnvs	r6, r9, asr #28
   16194:	2064696c 	rsbcs	r6, r4, ip, ror #18
   16198:	6d6d6f43 	stclvs	15, cr6, [sp, #-268]!	; 0xfffffef4
   1619c:	20646e61 	rsbcs	r6, r4, r1, ror #28
   161a0:	460a726f 	strmi	r7, [sl], -pc, ror #4
   161a4:	20656c69 	rsbcs	r6, r5, r9, ror #24
   161a8:	656d614e 	strbvs	r6, [sp, #-334]!	; 0xfffffeb2
   161ac:	00000000 	andeq	r0, r0, r0
   161b0:	6d6d6f43 	stclvs	15, cr6, [sp, #-268]!	; 0xfffffef4
   161b4:	20646e61 	rsbcs	r6, r4, r1, ror #28
   161b8:	75736e75 	ldrbvc	r6, [r3, #-3701]!	; 0xfffff18b
   161bc:	73656363 	cmnvc	r5, #-1946157055	; 0x8c000001
   161c0:	6c756673 	ldclvs	6, cr6, [r5], #-460	; 0xfffffe34
   161c4:	000a796c 	andeq	r7, sl, ip, ror #18
   161c8:	00000000 	andeq	r0, r0, r0
   161cc:	61442020 	cmpvs	r4, r0, lsr #32
   161d0:	69206574 	stmdbvs	r0!, {r2, r4, r5, r6, r8, sl, sp, lr}
   161d4:	00002073 	andeq	r2, r0, r3, ror r0
   161d8:	69542020 	ldmdbvs	r4, {r5, sp}^
   161dc:	6920656d 	stmdbvs	r0!, {r0, r2, r3, r5, r6, r8, sl, sp, lr}
   161e0:	00002073 	andeq	r2, r0, r3, ror r0
   161e4:	20202020 	eorcs	r2, r0, r0, lsr #32
   161e8:	41205049 			; <UNDEFINED> instruction: 0x41205049
   161ec:	3a726464 	bcc	1caf384 <__bss_end+0x1c91384>
   161f0:	00000020 	andeq	r0, r0, r0, lsr #32
   161f4:	20202020 	eorcs	r2, r0, r0, lsr #32
   161f8:	4d627553 	cfstr64mi	mvdx7, [r2, #-332]!	; 0xfffffeb4
   161fc:	3a6b7361 	bcc	1af2f88 <__bss_end+0x1ad4f88>
   16200:	00000020 	andeq	r0, r0, r0, lsr #32
   16204:	20202020 	eorcs	r2, r0, r0, lsr #32
   16208:	65746147 	ldrbvs	r6, [r4, #-327]!	; 0xfffffeb9
   1620c:	3a796177 	bcc	1e6e7f0 <__bss_end+0x1e507f0>
   16210:	00000020 	andeq	r0, r0, r0, lsr #32
   16214:	20202020 	eorcs	r2, r0, r0, lsr #32
   16218:	20534e44 	subscs	r4, r3, r4, asr #28
   1621c:	6d697250 	sfmvs	f7, 2, [r9, #-320]!	; 0xfffffec0
   16220:	0000203a 	andeq	r2, r0, sl, lsr r0
   16224:	20202020 	eorcs	r2, r0, r0, lsr #32
   16228:	20534e44 	subscs	r4, r3, r4, asr #28
   1622c:	3a636553 	bcc	18ef780 <__bss_end+0x18d1780>
   16230:	00000020 	andeq	r0, r0, r0, lsr #32
   16234:	6e6e7552 	mcrvs	5, 3, r7, cr14, cr2, {2}
   16238:	20676e69 	rsbcs	r6, r7, r9, ror #28
   1623c:	4a534d4d 	bmi	14e9778 <__bss_end+0x14cb778>
   16240:	20534f2d 	subscs	r4, r3, sp, lsr #30
   16244:	73726576 	cmnvc	r2, #494927872	; 0x1d800000
   16248:	206e6f69 	rsbcs	r6, lr, r9, ror #30
   1624c:	0a312e30 	beq	c61b14 <__bss_end+0xc43b14>
   16250:	00000000 	andeq	r0, r0, r0
   16254:	73615220 	cmnvc	r1, #32, 4
   16258:	72656270 	rsbvc	r6, r5, #112, 4
   1625c:	50207972 	eorpl	r7, r0, r2, ror r9
   16260:	655a2049 	ldrbvs	r2, [sl, #-73]	; 0xffffffb7
   16264:	57206f72 			; <UNDEFINED> instruction: 0x57206f72
   16268:	2e317620 	cfmsuba32cs	mvax1, mvax7, mvfx1, mvfx0
   1626c:	74612031 	strbtvc	r2, [r1], #-49	; 0xffffffcf
   16270:	68473120 	stmdavs	r7, {r5, r8, ip, sp}^
   16274:	000a2e7a 	andeq	r2, sl, sl, ror lr
   16278:	00000000 	andeq	r0, r0, r0
   1627c:	746f5420 	strbtvc	r5, [pc], #-1056	; 16284 <__rodata_start+0x284>
   16280:	4d206c61 	stcmi	12, cr6, [r0, #-388]!	; 0xfffffe7c
   16284:	726f6d65 	rsbvc	r6, pc, #6464	; 0x1940
   16288:	6f462079 	svcvs	0x00462079
   1628c:	20646e75 	rsbcs	r6, r4, r5, ror lr
   16290:	00000000 	andeq	r0, r0, r0
   16294:	000a424d 	andeq	r4, sl, sp, asr #4
   16298:	00000000 	andeq	r0, r0, r0
   1629c:	20474456 	subcs	r4, r7, r6, asr r4
   162a0:	666e6f43 	strbtvs	r6, [lr], -r3, asr #30
   162a4:	72756769 	rsbsvc	r6, r5, #27525120	; 0x1a40000
   162a8:	6f697461 	svcvs	0x00697461
   162ac:	2e2e736e 	cdpcs	3, 2, cr7, cr14, cr14, {3}
   162b0:	00000a2e 	andeq	r0, r0, lr, lsr #20
   162b4:	61724720 	cmnvs	r2, r0, lsr #14
   162b8:	63696870 	cmnvs	r9, #112, 16	; 0x700000
   162bc:	00000020 	andeq	r0, r0, r0, lsr #32
   162c0:	00000078 	andeq	r0, r0, r8, ror r0
   162c4:	6554202c 	ldrbvs	r2, [r4, #-44]	; 0xffffffd4
   162c8:	00207478 	eoreq	r7, r0, r8, ror r4
   162cc:	00000000 	andeq	r0, r0, r0
   162d0:	0a2e2e2e 	beq	ba1b90 <__bss_end+0xb83b90>
   162d4:	00000000 	andeq	r0, r0, r0
   162d8:	756f5420 	strbvc	r5, [pc, #-1056]!	; 15ec0 <gets+0x68>
   162dc:	4d206863 	stcmi	8, cr6, [r0, #-396]!	; 0xfffffe74
   162e0:	6c75646f 	cfldrdvs	mvd6, [r5], #-444	; 0xfffffe44
   162e4:	2e2e2e65 	cdpcs	14, 2, cr2, cr14, cr5, {3}
   162e8:	756f4620 	strbvc	r4, [pc, #-1568]!	; 15cd0 <delay>
   162ec:	0a2e646e 	beq	baf4ac <__bss_end+0xb914ac>
   162f0:	0000000a 	andeq	r0, r0, sl
   162f4:	756f5420 	strbvc	r5, [pc, #-1056]!	; 15edc <gets+0x84>
   162f8:	4d206863 	stcmi	8, cr6, [r0, #-396]!	; 0xfffffe74
   162fc:	6c75646f 	cfldrdvs	mvd6, [r5], #-444	; 0xfffffe44
   16300:	2e2e2e65 	cdpcs	14, 2, cr2, cr14, cr5, {3}
   16304:	544f4e20 	strbpl	r4, [pc], #-3616	; 1630c <__rodata_start+0x30c>
   16308:	756f4620 	strbvc	r4, [pc, #-1568]!	; 15cf0 <uart_init+0x14>
   1630c:	0a2e646e 	beq	baf4cc <__bss_end+0xb914cc>
   16310:	0000000a 	andeq	r0, r0, sl

00016314 <hex2ascii_data>:
   16314:	33323130 	teqcc	r2, #48, 2
   16318:	37363534 			; <UNDEFINED> instruction: 0x37363534
   1631c:	62613938 	rsbvs	r3, r1, #56, 18	; 0xe0000
   16320:	66656463 	strbtvs	r6, [r5], -r3, ror #8
   16324:	6a696867 	bvs	1a704c8 <__bss_end+0x1a524c8>
   16328:	6e6d6c6b 	cdpvs	12, 6, cr6, cr13, cr11, {3}
   1632c:	7271706f 	rsbsvc	r7, r1, #111	; 0x6f
   16330:	76757473 			; <UNDEFINED> instruction: 0x76757473
   16334:	7a797877 	bvc	1e74518 <__bss_end+0x1e56518>
   16338:	00000000 	andeq	r0, r0, r0

0001633c <bcm2835_byte_reverse_table>:
   1633c:	c0408000 	subgt	r8, r0, r0
   16340:	e060a020 	rsb	sl, r0, r0, lsr #32
   16344:	d0509010 	subsle	r9, r0, r0, lsl r0
   16348:	f070b030 			; <UNDEFINED> instruction: 0xf070b030
   1634c:	c8488808 	stmdagt	r8, {r3, fp, pc}^
   16350:	e868a828 	stmda	r8!, {r3, r5, fp, sp, pc}^
   16354:	d8589818 	ldmdale	r8, {r3, r4, fp, ip, pc}^
   16358:	f878b838 			; <UNDEFINED> instruction: 0xf878b838
   1635c:	c4448404 	strbgt	r8, [r4], #-1028	; 0xfffffbfc
   16360:	e464a424 	strbt	sl, [r4], #-1060	; 0xfffffbdc
   16364:	d4549414 	ldrble	r9, [r4], #-1044	; 0xfffffbec
   16368:	f474b434 			; <UNDEFINED> instruction: 0xf474b434
   1636c:	cc4c8c0c 	mcrrgt	12, 0, r8, ip, cr12
   16370:	ec6cac2c 	stcl	12, cr10, [ip], #-176	; 0xffffff50
   16374:	dc5c9c1c 	mrrcle	12, 1, r9, ip, cr12
   16378:	fc7cbc3c 	ldc2l	12, cr11, [ip], #-240	; 0xffffff10
   1637c:	c2428202 	subgt	r8, r2, #536870912	; 0x20000000
   16380:	e262a222 	rsb	sl, r2, #536870914	; 0x20000002
   16384:	d2529212 	subsle	r9, r2, #536870913	; 0x20000001
   16388:	f272b232 	vqsub.s64	d27, d2, d18
   1638c:	ca4a8a0a 	bgt	12b8bbc <__bss_end+0x129abbc>
   16390:	ea6aaa2a 	b	1ac0c40 <__bss_end+0x1aa2c40>
   16394:	da5a9a1a 	ble	16bcc04 <__bss_end+0x169ec04>
   16398:	fa7aba3a 	blx	1ec4c88 <__bss_end+0x1ea6c88>
   1639c:	c6468606 	strbgt	r8, [r6], -r6, lsl #12
   163a0:	e666a626 	strbt	sl, [r6], -r6, lsr #12
   163a4:	d6569616 			; <UNDEFINED> instruction: 0xd6569616
   163a8:	f676b636 			; <UNDEFINED> instruction: 0xf676b636
   163ac:	ce4e8e0e 	cdpgt	14, 4, cr8, cr14, cr14, {0}
   163b0:	ee6eae2e 	cdp	14, 6, cr10, cr14, cr14, {1}
   163b4:	de5e9e1e 	mrcle	14, 2, r9, cr14, cr14, {0}
   163b8:	fe7ebe3e 	mrc2	14, 3, fp, cr14, cr14, {1}
   163bc:	c1418101 	cmpgt	r1, r1, lsl #2
   163c0:	e161a121 	cmn	r1, r1, lsr #2
   163c4:	d1519111 	cmple	r1, r1, lsl r1
   163c8:	f171b131 			; <UNDEFINED> instruction: 0xf171b131
   163cc:	c9498909 	stmdbgt	r9, {r0, r3, r8, fp, pc}^
   163d0:	e969a929 	stmdb	r9!, {r0, r3, r5, r8, fp, sp, pc}^
   163d4:	d9599919 	ldmdble	r9, {r0, r3, r4, r8, fp, ip, pc}^
   163d8:	f979b939 			; <UNDEFINED> instruction: 0xf979b939
   163dc:	c5458505 	strbgt	r8, [r5, #-1285]	; 0xfffffafb
   163e0:	e565a525 	strb	sl, [r5, #-1317]!	; 0xfffffadb
   163e4:	d5559515 	ldrble	r9, [r5, #-1301]	; 0xfffffaeb
   163e8:	f575b535 			; <UNDEFINED> instruction: 0xf575b535
   163ec:	cd4d8d0d 	stclgt	13, cr8, [sp, #-52]	; 0xffffffcc
   163f0:	ed6dad2d 	stcl	13, cr10, [sp, #-180]!	; 0xffffff4c
   163f4:	dd5d9d1d 	ldclle	13, cr9, [sp, #-116]	; 0xffffff8c
   163f8:	fd7dbd3d 	ldc2l	13, cr11, [sp, #-244]!	; 0xffffff0c
   163fc:	c3438303 	movtgt	r8, #13059	; 0x3303
   16400:	e363a323 	cmn	r3, #-1946157056	; 0x8c000000
   16404:	d3539313 	cmple	r3, #1275068416	; 0x4c000000
   16408:	f373b333 	vcge.u<illegal width 64>	d27, d3, d19
   1640c:	cb4b8b0b 	blgt	12f9040 <__bss_end+0x12db040>
   16410:	eb6bab2b 	bl	1b010c4 <__bss_end+0x1ae30c4>
   16414:	db5b9b1b 	blle	16fd088 <__bss_end+0x16df088>
   16418:	fb7bbb3b 	blx	1f0510e <__bss_end+0x1ee710e>
   1641c:	c7478707 	strbgt	r8, [r7, -r7, lsl #14]
   16420:	e767a727 	strb	sl, [r7, -r7, lsr #14]!
   16424:	d7579717 	smmlale	r7, r7, r7, r9
   16428:	f777b737 			; <UNDEFINED> instruction: 0xf777b737
   1642c:	cf4f8f0f 	svcgt	0x004f8f0f
   16430:	ef6faf2f 	svc	0x006faf2f
   16434:	df5f9f1f 	svcle	0x005f9f1f
   16438:	ff7fbf3f 			; <UNDEFINED> instruction: 0xff7fbf3f
   1643c:	20474456 	subcs	r4, r7, r6, asr r4
   16440:	332d5455 			; <UNDEFINED> instruction: 0x332d5455
   16444:	76203030 			; <UNDEFINED> instruction: 0x76203030
   16448:	61362e31 	teqvs	r6, r1, lsr lr
   1644c:	00000000 	andeq	r0, r0, r0
   16450:	20544654 	subscs	r4, r4, r4, asr r6
   16454:	44434c47 	strbmi	r4, [r3], #-3143	; 0xfffff3b9
   16458:	53202d20 			; <UNDEFINED> instruction: 0x53202d20
   1645c:	32314453 	eorscc	r4, r1, #1392508928	; 0x53000000
   16460:	00003938 	andeq	r3, r0, r8, lsr r9
   16464:	4b323731 	blmi	ca4130 <__bss_end+0xc86130>
   16468:	52562042 	subspl	r2, r6, #66	; 0x42
   1646c:	2d204d41 	stccs	13, cr4, [r0, #-260]!	; 0xfffffefc
   16470:	4b343620 	blmi	d23cf8 <__bss_end+0xd05cf8>
   16474:	6c6f4320 	stclvs	3, cr4, [pc], #-128	; 163fc <bcm2835_byte_reverse_table+0xc0>
   16478:	0073726f 	rsbseq	r7, r3, pc, ror #4
   1647c:	00000000 	andeq	r0, r0, r0
   16480:	2e777777 	mrccs	7, 3, r7, cr7, cr7, {3}
   16484:	6c697475 	cfstrdvs	mvd7, [r9], #-468	; 0xfffffe2c
   16488:	69797469 	ldmdbvs	r9!, {r0, r3, r5, r6, sl, ip, sp, lr}^
   1648c:	632e666e 			; <UNDEFINED> instruction: 0x632e666e
   16490:	622e6d6f 	eorvs	r6, lr, #7104	; 0x1bc0
   16494:	Address 0x00016494 is out of bounds.


Disassembly of section .rodata.str1.4:

00016498 <.rodata.str1.4>:
   16498:	4f43492e 	svcmi	0x0043492e
   1649c:	00000000 	andeq	r0, r0, r0
   164a0:	00004b4f 	andeq	r4, r0, pc, asr #22
   164a4:	52415453 	subpl	r5, r1, #1392508928	; 0x53000000
   164a8:	00000054 	andeq	r0, r0, r4, asr r0
   164ac:	534f4c43 	movtpl	r4, #64579	; 0xfc43
   164b0:	00000045 	andeq	r0, r0, r5, asr #32
   164b4:	434e4143 	movtmi	r4, #57667	; 0xe143
   164b8:	00000000 	andeq	r0, r0, r0
   164bc:	00534559 	subseq	r4, r3, r9, asr r5
   164c0:	00004f4e 	andeq	r4, r0, lr, asr #30
   164c4:	504c4548 	subpl	r4, ip, r8, asr #10
   164c8:	00000000 	andeq	r0, r0, r0
   164cc:	4a534d4d 	bmi	14e9a08 <__bss_end+0x14cba08>
   164d0:	00534f44 	subseq	r4, r3, r4, asr #30
   164d4:	4a534d4d 	bmi	14e9a10 <__bss_end+0x14cba10>
   164d8:	2e474643 	cdpcs	6, 4, cr4, cr7, cr3, {2}
   164dc:	00494e49 	subeq	r4, r9, r9, asr #28
   164e0:	4c4f4346 	mcrrmi	3, 4, r4, pc, cr6
   164e4:	0000524f 	andeq	r5, r0, pc, asr #4
   164e8:	4c4f4342 	mcrrmi	3, 4, r4, pc, cr2
   164ec:	0000524f 	andeq	r5, r0, pc, asr #4
   164f0:	48544150 	ldmdami	r4, {r4, r6, r8, lr}^
   164f4:	00000000 	andeq	r0, r0, r0
   164f8:	444e455b 	strbmi	r4, [lr], #-1371	; 0xfffffaa5
   164fc:	0000005d 	andeq	r0, r0, sp, asr r0
   16500:	63657845 	cmnvs	r5, #4521984	; 0x450000
   16504:	00657475 	rsbeq	r7, r5, r5, ror r4
   16508:	63657845 	cmnvs	r5, #4521984	; 0x450000
   1650c:	3a657475 	bcc	19736e8 <__bss_end+0x19556e8>
   16510:	00000000 	andeq	r0, r0, r0
   16514:	6d726f46 	ldclvs	15, cr6, [r2, #-280]!	; 0xfffffee8
   16518:	00007461 	andeq	r7, r0, r1, ror #8
   1651c:	706c6548 	rsbvc	r6, ip, r8, asr #10
   16520:	00000000 	andeq	r0, r0, r0
   16524:	756f6241 	strbvc	r6, [pc, #-577]!	; 162eb <__rodata_start+0x2eb>
   16528:	00000074 	andeq	r0, r0, r4, ror r0
   1652c:	70617247 	rsbvc	r7, r1, r7, asr #4
   16530:	61636968 	cmnvs	r3, r8, ror #18
   16534:	6e49206c 	cdpvs	0, 4, cr2, cr9, cr12, {3}
   16538:	66726574 			; <UNDEFINED> instruction: 0x66726574
   1653c:	00656361 	rsbeq	r6, r5, r1, ror #6
   16540:	61656c50 	cmnvs	r5, r0, asr ip
   16544:	57206573 			; <UNDEFINED> instruction: 0x57206573
   16548:	2e746961 	vsubcs.f16	s13, s8, s3	; <UNPREDICTABLE>
   1654c:	00002e2e 	andeq	r2, r0, lr, lsr #28
   16550:	64616f4c 	strbtvs	r6, [r1], #-3916	; 0xfffff0b4
   16554:	20676e69 	rsbcs	r6, r7, r9, ror #28
   16558:	666e6f43 	strbtvs	r6, [lr], -r3, asr #30
   1655c:	00006769 	andeq	r6, r0, r9, ror #14
   16560:	4746432e 	strbmi	r4, [r6, -lr, lsr #6]
   16564:	00000000 	andeq	r0, r0, r0
   16568:	4a534d4d 	bmi	14e9aa4 <__bss_end+0x14cbaa4>
   1656c:	0049474d 	subeq	r4, r9, sp, asr #14
   16570:	64616f4c 	strbtvs	r6, [r1], #-3916	; 0xfffff0b4
   16574:	20676e69 	rsbcs	r6, r7, r9, ror #28
   16578:	6e6f6349 	cdpvs	3, 6, cr6, cr15, cr9, {2}
   1657c:	00002073 	andeq	r2, r0, r3, ror r0
   16580:	42494c2e 	submi	r4, r9, #11776	; 0x2e00
   16584:	00000000 	andeq	r0, r0, r0
   16588:	45524f4d 	ldrbmi	r4, [r2, #-3917]	; 0xfffff0b3
   1658c:	4e4f4349 	cdpmi	3, 4, cr4, cr15, cr9, {2}
   16590:	00000000 	andeq	r0, r0, r0
   16594:	00534c43 	subseq	r4, r3, r3, asr #24
   16598:	41454c43 	cmpmi	r5, r3, asr #24
   1659c:	00000052 	andeq	r0, r0, r2, asr r0
   165a0:	00524556 	subseq	r4, r2, r6, asr r5
   165a4:	0000534c 	andeq	r5, r0, ip, asr #6
   165a8:	00004d52 	andeq	r4, r0, r2, asr sp
   165ac:	004e4552 	subeq	r4, lr, r2, asr r5
   165b0:	00005043 	andeq	r5, r0, r3, asr #32
   165b4:	0000444d 	andeq	r4, r0, sp, asr #8
   165b8:	00004443 	andeq	r4, r0, r3, asr #8
   165bc:	00004452 	andeq	r4, r0, r2, asr r4
   165c0:	45544144 	ldrbmi	r4, [r4, #-324]	; 0xfffffebc
   165c4:	00000000 	andeq	r0, r0, r0
   165c8:	454d4954 	strbmi	r4, [sp, #-2388]	; 0xfffff6ac
   165cc:	00000000 	andeq	r0, r0, r0
   165d0:	4f434649 	svcmi	0x00434649
   165d4:	4749464e 	strbmi	r4, [r9, -lr, asr #12]
   165d8:	00000000 	andeq	r0, r0, r0
   165dc:	44414f4c 	strbmi	r4, [r1], #-3916	; 0xfffff0b4
   165e0:	00474643 	subeq	r4, r7, r3, asr #12
   165e4:	45444f4d 	strbmi	r4, [r4, #-3917]	; 0xfffff0b3
   165e8:	00000000 	andeq	r0, r0, r0
   165ec:	00544143 	subseq	r4, r4, r3, asr #2
   165f0:	746d6628 	strbtvc	r6, [sp], #-1576	; 0xfffff9d8
   165f4:	6c756e20 	ldclvs	14, cr6, [r5], #-128	; 0xffffff80
   165f8:	000a296c 	andeq	r2, sl, ip, ror #18
   165fc:	6c756e28 	ldclvs	14, cr6, [r5], #-160	; 0xffffff60
   16600:	0000296c 	andeq	r2, r0, ip, ror #18
   16604:	20202020 	eorcs	r2, r0, r0, lsr #32
   16608:	00202020 	eoreq	r2, r0, r0, lsr #32

Disassembly of section .data:

00017000 <vmesc>:
   17000:	466e614a 	strbtmi	r6, [lr], -sl, asr #2
   17004:	614d6265 	cmpvs	sp, r5, ror #4
   17008:	72704172 	rsbsvc	r4, r0, #-2147483620	; 0x8000001c
   1700c:	4a79614d 	bmi	1e6f548 <__bss_end+0x1e51548>
   17010:	754a6e75 	strbvc	r6, [sl, #-3701]	; 0xfffff18b
   17014:	6775416c 	ldrbvs	r4, [r5, -ip, ror #2]!
   17018:	4f706553 	svcmi	0x00706553
   1701c:	6f4e7463 	svcvs	0x004e7463
   17020:	63654476 	cmnvs	r5, #1979711488	; 0x76000000

00017024 <strValidChars>:
   17024:	33323130 	teqcc	r2, #48, 2
   17028:	37363534 			; <UNDEFINED> instruction: 0x37363534
   1702c:	42413938 	submi	r3, r1, #56, 18	; 0xe0000
   17030:	46454443 	strbmi	r4, [r5], -r3, asr #8
   17034:	4a494847 	bmi	1269158 <__bss_end+0x124b158>
   17038:	4e4d4c4b 	cdpmi	12, 4, cr4, cr13, cr11, {2}
   1703c:	5251504f 	subspl	r5, r1, #79	; 0x4f
   17040:	56555453 			; <UNDEFINED> instruction: 0x56555453
   17044:	5a595857 	bpl	166d1a8 <__bss_end+0x164f1a8>
   17048:	4027265e 	eormi	r2, r7, lr, asr r6
   1704c:	5d5b7d7b 	ldclpl	13, cr7, [fp, #-492]	; 0xfffffe14
   17050:	213d242c 	teqcs	sp, ip, lsr #8
   17054:	2928232d 	stmdbcs	r8!, {r0, r2, r3, r5, r8, r9, sp}
   17058:	7e2b2e25 	cdpvc	14, 2, cr2, cr11, cr5, {1}
   1705c:	0000005f 	andeq	r0, r0, pc, asr r0

00017060 <bcm2835_spi_bit_order>:
   17060:	00000001 	andeq	r0, r0, r1

00017064 <bcm2835_peripherals_size>:
   17064:	01000000 	mrseq	r0, (UNDEF: 0)

00017068 <bcm2835_peripherals_base>:
   17068:	20000000 	andcs	r0, r0, r0

0001706c <tl_gray>:
   1706c:	00007bef 	andeq	r7, r0, pc, ror #23

00017070 <td_gray>:
   17070:	0000528a 	andeq	r5, r0, sl, lsl #5

00017074 <tCyan>:
   17074:	000007ff 	strdeq	r0, [r0], -pc	; <UNPREDICTABLE>

00017078 <tYellow>:
   17078:	0000ffe0 	andeq	pc, r0, r0, ror #31

0001707c <tPurple>:
   1707c:	0000f11f 	andeq	pc, r0, pc, lsl r1	; <UNPREDICTABLE>

00017080 <tWhite>:
   17080:	0000ffff 	strdeq	pc, [r0], -pc	; <UNPREDICTABLE>

00017084 <tBlue>:
   17084:	0000001f 	andeq	r0, r0, pc, lsl r0

00017088 <tGreen>:
   17088:	000007e0 	andeq	r0, r0, r0, ror #15

0001708c <tRed>:
   1708c:	0000f800 	andeq	pc, r0, r0, lsl #16

00017090 <ASCCHR>:
   17090:	33323130 	teqcc	r2, #48, 2
   17094:	37363534 			; <UNDEFINED> instruction: 0x37363534
   17098:	42413938 	submi	r3, r1, #56, 18	; 0xe0000
   1709c:	46454443 	strbmi	r4, [r5], -r3, asr #8

000170a0 <KEY_MOD>:
   170a0:	52455751 	subpl	r5, r5, #21233664	; 0x1440000
   170a4:	49555954 	ldmdbmi	r5, {r2, r4, r6, r8, fp, ip, lr}^
   170a8:	5341504f 	movtpl	r5, #4175	; 0x104f
   170ac:	48474644 	stmdami	r7, {r2, r6, r9, sl, lr}^
   170b0:	2e4c4b4a 	vmlscs.f64	d20, d12, d10
   170b4:	5643585a 			; <UNDEFINED> instruction: 0x5643585a
   170b8:	204d4e42 	subcs	r4, sp, r2, asr #28
   170bc:	00002020 	andeq	r2, r0, r0, lsr #32
   170c0:	34333231 	ldrtcc	r3, [r3], #-561	; 0xfffffdcf
   170c4:	38373635 	ldmdacc	r7!, {r0, r2, r4, r5, r9, sl, ip, sp}
   170c8:	2f2d3039 	svccs	0x002d3039
   170cc:	24234021 	strtcs	r4, [r3], #-33	; 0xffffffdf
   170d0:	29282a26 	stmdbcs	r8!, {r1, r2, r5, r9, fp, sp}
   170d4:	3a3b2e2c 	bcc	ee298c <__bss_end+0xec498c>
   170d8:	203e3c3f 	eorscs	r3, lr, pc, lsr ip
   170dc:	00002020 	andeq	r2, r0, r0, lsr #32
   170e0:	7d7b5d5b 	ldclvc	13, cr5, [fp, #-364]!	; 0xfffffe94
   170e4:	2b5f5c60 	blcs	17ee26c <__bss_end+0x17d026c>
   170e8:	207c3d2d 	rsbscs	r3, ip, sp, lsr #26
   170ec:	20202020 	eorcs	r2, r0, r0, lsr #32
   170f0:	20202020 	eorcs	r2, r0, r0, lsr #32
   170f4:	20202020 	eorcs	r2, r0, r0, lsr #32
   170f8:	00002020 	andeq	r2, r0, r0, lsr #32
	...

00017108 <utlogo>:
   17108:	0000fffd 	strdeq	pc, [r0], -sp
   1710c:	0000f7bc 			; <UNDEFINED> instruction: 0x0000f7bc
   17110:	0000ffff 	strdeq	pc, [r0], -pc	; <UNPREDICTABLE>
   17114:	0000f7bf 			; <UNDEFINED> instruction: 0x0000f7bf
   17118:	0000ffff 	strdeq	pc, [r0], -pc	; <UNPREDICTABLE>
   1711c:	0000fffe 	strdeq	pc, [r0], -lr
   17120:	0000fffe 	strdeq	pc, [r0], -lr
   17124:	0000ffde 	ldrdeq	pc, [r0], -lr
   17128:	0000ffff 	strdeq	pc, [r0], -pc	; <UNPREDICTABLE>
   1712c:	0000ffbf 			; <UNDEFINED> instruction: 0x0000ffbf
   17130:	0000ffdf 	ldrdeq	pc, [r0], -pc	; <UNPREDICTABLE>
   17134:	0000f79f 	muleq	r0, pc, r7	; <UNPREDICTABLE>
   17138:	0000ef7e 	andeq	lr, r0, lr, ror pc
   1713c:	0000c619 	andeq	ip, r0, r9, lsl r6
   17140:	0000a4d7 	ldrdeq	sl, [r0], -r7
   17144:	00008c35 	andeq	r8, r0, r5, lsr ip
   17148:	00007392 	muleq	r0, r2, r3
   1714c:	00006b50 	andeq	r6, r0, r0, asr fp
   17150:	000062ee 	andeq	r6, r0, lr, ror #5
   17154:	00005aad 	andeq	r5, r0, sp, lsr #21
   17158:	00005acd 	andeq	r5, r0, sp, asr #21
   1715c:	00006b4f 	andeq	r6, r0, pc, asr #22
   17160:	00007bd1 	ldrdeq	r7, [r0], -r1
   17164:	00008413 	andeq	r8, r0, r3, lsl r4
   17168:	0000ad38 	andeq	sl, r0, r8, lsr sp
   1716c:	0000bdbb 			; <UNDEFINED> instruction: 0x0000bdbb
   17170:	0000e71f 	andeq	lr, r0, pc, lsl r7
   17174:	0000ffbf 			; <UNDEFINED> instruction: 0x0000ffbf
   17178:	0000ffdf 	ldrdeq	pc, [r0], -pc	; <UNPREDICTABLE>
   1717c:	0000ffdf 	ldrdeq	pc, [r0], -pc	; <UNPREDICTABLE>
   17180:	0000ffff 	strdeq	pc, [r0], -pc	; <UNPREDICTABLE>
   17184:	0000f7be 			; <UNDEFINED> instruction: 0x0000f7be
   17188:	0000f7de 	ldrdeq	pc, [r0], -lr
   1718c:	0000ffff 	strdeq	pc, [r0], -pc	; <UNPREDICTABLE>
   17190:	0000ffff 	strdeq	pc, [r0], -pc	; <UNPREDICTABLE>
   17194:	0000ffff 	strdeq	pc, [r0], -pc	; <UNPREDICTABLE>
   17198:	0000f7de 	ldrdeq	pc, [r0], -lr
   1719c:	0000fffe 	strdeq	pc, [r0], -lr
   171a0:	0000fffe 	strdeq	pc, [r0], -lr
   171a4:	0000fffe 	strdeq	pc, [r0], -lr
   171a8:	0000fffd 	strdeq	pc, [r0], -sp
   171ac:	0000ffdd 	ldrdeq	pc, [r0], -sp
   171b0:	0000ffff 	strdeq	pc, [r0], -pc	; <UNPREDICTABLE>
   171b4:	0000ffff 	strdeq	pc, [r0], -pc	; <UNPREDICTABLE>
   171b8:	0000ffdf 	ldrdeq	pc, [r0], -pc	; <UNPREDICTABLE>
   171bc:	0000ffff 	strdeq	pc, [r0], -pc	; <UNPREDICTABLE>
   171c0:	0000fffe 	strdeq	pc, [r0], -lr
   171c4:	0000ffff 	strdeq	pc, [r0], -pc	; <UNPREDICTABLE>
   171c8:	0000f79f 	muleq	r0, pc, r7	; <UNPREDICTABLE>
   171cc:	0000b598 	muleq	r0, r8, r5
   171d0:	00007390 	muleq	r0, r0, r3
   171d4:	00005aac 	andeq	r5, r0, ip, lsr #21
   171d8:	00004a29 	andeq	r4, r0, r9, lsr #20
   171dc:	0000736f 	andeq	r7, r0, pc, ror #6
   171e0:	0000a4f7 	strdeq	sl, [r0], -r7
   171e4:	0000a4f8 	strdeq	sl, [r0], -r8
   171e8:	0000bdfa 	strdeq	fp, [r0], -sl
   171ec:	0000ce3b 	andeq	ip, r0, fp, lsr lr
   171f0:	0000d69c 	muleq	r0, ip, r6
   171f4:	0000dedc 	ldrdeq	sp, [r0], -ip
   171f8:	0000dedc 	ldrdeq	sp, [r0], -ip
   171fc:	0000d67b 	andeq	sp, r0, fp, ror r6
   17200:	0000c5fa 	strdeq	ip, [r0], -sl
   17204:	0000b599 	muleq	r0, r9, r5
   17208:	00008c14 	andeq	r8, r0, r4, lsl ip
   1720c:	00006b51 	andeq	r6, r0, r1, asr fp
   17210:	00005aae 	andeq	r5, r0, lr, lsr #21
   17214:	00004a4d 	andeq	r4, r0, sp, asr #20
   17218:	00007370 	andeq	r7, r0, r0, ror r3
   1721c:	0000ad56 	andeq	sl, r0, r6, asr sp
   17220:	0000ef7e 	andeq	lr, r0, lr, ror pc
   17224:	0000ffff 	strdeq	pc, [r0], -pc	; <UNPREDICTABLE>
   17228:	0000ffff 	strdeq	pc, [r0], -pc	; <UNPREDICTABLE>
   1722c:	0000f7be 			; <UNDEFINED> instruction: 0x0000f7be
   17230:	0000ffff 	strdeq	pc, [r0], -pc	; <UNPREDICTABLE>
   17234:	0000f7de 	ldrdeq	pc, [r0], -lr
   17238:	0000ffff 	strdeq	pc, [r0], -pc	; <UNPREDICTABLE>
   1723c:	0000fffe 	strdeq	pc, [r0], -lr
   17240:	0000f79d 	muleq	r0, sp, r7
   17244:	0000fffe 	strdeq	pc, [r0], -lr
   17248:	0000ffde 	ldrdeq	pc, [r0], -lr
   1724c:	0000ffff 	strdeq	pc, [r0], -pc	; <UNPREDICTABLE>
   17250:	0000ffdf 	ldrdeq	pc, [r0], -pc	; <UNPREDICTABLE>
   17254:	0000ffdf 	ldrdeq	pc, [r0], -pc	; <UNPREDICTABLE>
   17258:	0000ffff 	strdeq	pc, [r0], -pc	; <UNPREDICTABLE>
   1725c:	0000ef7e 	andeq	lr, r0, lr, ror pc
   17260:	0000ce59 	andeq	ip, r0, r9, asr lr
   17264:	00007baf 	andeq	r7, r0, pc, lsr #23
   17268:	000039a8 	andeq	r3, r0, r8, lsr #19
   1726c:	00007370 	andeq	r7, r0, r0, ror r3
   17270:	0000ad56 	andeq	sl, r0, r6, asr sp
   17274:	0000f79f 	muleq	r0, pc, r7	; <UNPREDICTABLE>
   17278:	0000f79f 	muleq	r0, pc, r7	; <UNPREDICTABLE>
   1727c:	0000f79f 	muleq	r0, pc, r7	; <UNPREDICTABLE>
   17280:	0000f79f 	muleq	r0, pc, r7	; <UNPREDICTABLE>
   17284:	0000f79f 	muleq	r0, pc, r7	; <UNPREDICTABLE>
   17288:	0000f7bf 			; <UNDEFINED> instruction: 0x0000f7bf
   1728c:	0000ffdf 	ldrdeq	pc, [r0], -pc	; <UNPREDICTABLE>
   17290:	0000ffdf 	ldrdeq	pc, [r0], -pc	; <UNPREDICTABLE>
   17294:	0000ffdf 	ldrdeq	pc, [r0], -pc	; <UNPREDICTABLE>
   17298:	0000f7bf 			; <UNDEFINED> instruction: 0x0000f7bf
   1729c:	0000f7bf 			; <UNDEFINED> instruction: 0x0000f7bf
   172a0:	0000f79f 	muleq	r0, pc, r7	; <UNPREDICTABLE>
   172a4:	0000ef7f 	andeq	lr, r0, pc, ror pc
   172a8:	00009475 	andeq	r9, r0, r5, ror r4
   172ac:	00003169 	andeq	r3, r0, r9, ror #2
   172b0:	00008c55 	andeq	r8, r0, r5, asr ip
   172b4:	0000e71f 	andeq	lr, r0, pc, lsl r7
   172b8:	0000bdfa 	strdeq	fp, [r0], -sl
   172bc:	00006b6f 	andeq	r6, r0, pc, ror #22
   172c0:	00004a29 	andeq	r4, r0, r9, lsr #20
   172c4:	000073ae 	andeq	r7, r0, lr, lsr #7
   172c8:	0000c618 	andeq	ip, r0, r8, lsl r6
   172cc:	0000ffff 	strdeq	pc, [r0], -pc	; <UNPREDICTABLE>
   172d0:	0000ffff 	strdeq	pc, [r0], -pc	; <UNPREDICTABLE>
   172d4:	0000f7bf 			; <UNDEFINED> instruction: 0x0000f7bf
   172d8:	0000f7be 			; <UNDEFINED> instruction: 0x0000f7be
   172dc:	0000ffff 	strdeq	pc, [r0], -pc	; <UNPREDICTABLE>
   172e0:	0000ffde 	ldrdeq	pc, [r0], -lr
   172e4:	0000f7bd 			; <UNDEFINED> instruction: 0x0000f7bd
   172e8:	0000ffff 	strdeq	pc, [r0], -pc	; <UNPREDICTABLE>
   172ec:	0000ffdf 	ldrdeq	pc, [r0], -pc	; <UNPREDICTABLE>
   172f0:	0000ffdf 	ldrdeq	pc, [r0], -pc	; <UNPREDICTABLE>
   172f4:	0000e73e 	andeq	lr, r0, lr, lsr r7
   172f8:	0000debc 			; <UNDEFINED> instruction: 0x0000debc
   172fc:	0000736f 	andeq	r7, r0, pc, ror #6
   17300:	0000526b 	andeq	r5, r0, fp, ror #4
   17304:	0000a515 	andeq	sl, r0, r5, lsl r5
   17308:	0000f79f 	muleq	r0, pc, r7	; <UNPREDICTABLE>
   1730c:	0000ffdf 	ldrdeq	pc, [r0], -pc	; <UNPREDICTABLE>
   17310:	0000f7bf 			; <UNDEFINED> instruction: 0x0000f7bf
   17314:	0000ffbf 			; <UNDEFINED> instruction: 0x0000ffbf
   17318:	0000f79f 	muleq	r0, pc, r7	; <UNPREDICTABLE>
   1731c:	0000ffdf 	ldrdeq	pc, [r0], -pc	; <UNPREDICTABLE>
   17320:	0000ffbf 			; <UNDEFINED> instruction: 0x0000ffbf
   17324:	0000ffbf 			; <UNDEFINED> instruction: 0x0000ffbf
   17328:	0000f79f 	muleq	r0, pc, r7	; <UNPREDICTABLE>
   1732c:	0000f7bf 			; <UNDEFINED> instruction: 0x0000f7bf
   17330:	0000ffdf 	ldrdeq	pc, [r0], -pc	; <UNPREDICTABLE>
   17334:	0000f7df 	ldrdeq	pc, [r0], -pc	; <UNPREDICTABLE>
   17338:	0000f7df 	ldrdeq	pc, [r0], -pc	; <UNPREDICTABLE>
   1733c:	0000ffdf 	ldrdeq	pc, [r0], -pc	; <UNPREDICTABLE>
   17340:	0000ffdf 	ldrdeq	pc, [r0], -pc	; <UNPREDICTABLE>
   17344:	0000ffdf 	ldrdeq	pc, [r0], -pc	; <UNPREDICTABLE>
   17348:	0000b599 	muleq	r0, r9, r5
   1734c:	0000398a 	andeq	r3, r0, sl, lsl #19
   17350:	000041cb 	andeq	r4, r0, fp, asr #3
   17354:	0000ef3f 	andeq	lr, r0, pc, lsr pc
   17358:	0000ffdf 	ldrdeq	pc, [r0], -pc	; <UNPREDICTABLE>
   1735c:	0000ffdf 	ldrdeq	pc, [r0], -pc	; <UNPREDICTABLE>
   17360:	0000f79e 	muleq	r0, lr, r7
   17364:	00009cf4 	strdeq	r9, [r0], -r4
   17368:	00004a4b 	andeq	r4, r0, fp, asr #20
   1736c:	00006b2e 	andeq	r6, r0, lr, lsr #22
   17370:	0000ce7b 	andeq	ip, r0, fp, ror lr
   17374:	0000ffff 	strdeq	pc, [r0], -pc	; <UNPREDICTABLE>
   17378:	0000ffdf 	ldrdeq	pc, [r0], -pc	; <UNPREDICTABLE>
   1737c:	0000ffff 	strdeq	pc, [r0], -pc	; <UNPREDICTABLE>
   17380:	0000f7be 			; <UNDEFINED> instruction: 0x0000f7be
   17384:	0000f7be 			; <UNDEFINED> instruction: 0x0000f7be
   17388:	0000f79f 	muleq	r0, pc, r7	; <UNPREDICTABLE>
   1738c:	0000ffdf 	ldrdeq	pc, [r0], -pc	; <UNPREDICTABLE>
   17390:	0000f7bf 			; <UNDEFINED> instruction: 0x0000f7bf
   17394:	0000a4f5 	strdeq	sl, [r0], -r5
   17398:	00003188 	andeq	r3, r0, r8, lsl #3
   1739c:	0000ad36 	andeq	sl, r0, r6, lsr sp
   173a0:	0000e6fe 	strdeq	lr, [r0], -lr	; <UNPREDICTABLE>
   173a4:	0000f7bf 			; <UNDEFINED> instruction: 0x0000f7bf
   173a8:	0000ffbf 			; <UNDEFINED> instruction: 0x0000ffbf
   173ac:	0000debd 			; <UNDEFINED> instruction: 0x0000debd
   173b0:	0000c61a 	andeq	ip, r0, sl, lsl r6
   173b4:	00009cb6 			; <UNDEFINED> instruction: 0x00009cb6
   173b8:	00009c96 	muleq	r0, r6, ip
   173bc:	00008c35 	andeq	r8, r0, r5, lsr ip
   173c0:	00007b92 	muleq	r0, r2, fp
   173c4:	000083d2 	ldrdeq	r8, [r0], -r2
   173c8:	0000f79f 	muleq	r0, pc, r7	; <UNPREDICTABLE>
   173cc:	0000ffdf 	ldrdeq	pc, [r0], -pc	; <UNPREDICTABLE>
   173d0:	0000ffff 	strdeq	pc, [r0], -pc	; <UNPREDICTABLE>
   173d4:	0000ffff 	strdeq	pc, [r0], -pc	; <UNPREDICTABLE>
   173d8:	0000ffff 	strdeq	pc, [r0], -pc	; <UNPREDICTABLE>
   173dc:	0000ffff 	strdeq	pc, [r0], -pc	; <UNPREDICTABLE>
   173e0:	0000ffdf 	ldrdeq	pc, [r0], -pc	; <UNPREDICTABLE>
   173e4:	0000ffdf 	ldrdeq	pc, [r0], -pc	; <UNPREDICTABLE>
   173e8:	0000ffdf 	ldrdeq	pc, [r0], -pc	; <UNPREDICTABLE>
   173ec:	00005aad 	andeq	r5, r0, sp, lsr #21
   173f0:	00002948 	andeq	r2, r0, r8, asr #18
   173f4:	0000e71f 	andeq	lr, r0, pc, lsl r7
   173f8:	0000f77f 	andeq	pc, r0, pc, ror r7	; <UNPREDICTABLE>
   173fc:	0000ffff 	strdeq	pc, [r0], -pc	; <UNPREDICTABLE>
   17400:	0000f7bf 			; <UNDEFINED> instruction: 0x0000f7bf
   17404:	0000ffdf 	ldrdeq	pc, [r0], -pc	; <UNPREDICTABLE>
   17408:	0000ef5f 	andeq	lr, r0, pc, asr pc
   1740c:	0000a4f6 	strdeq	sl, [r0], -r6
   17410:	00004a4b 	andeq	r4, r0, fp, asr #20
   17414:	00007bd1 	ldrdeq	r7, [r0], -r1
   17418:	0000ffff 	strdeq	pc, [r0], -pc	; <UNPREDICTABLE>
   1741c:	0000f79f 	muleq	r0, pc, r7	; <UNPREDICTABLE>
   17420:	0000ffdf 	ldrdeq	pc, [r0], -pc	; <UNPREDICTABLE>
   17424:	0000ffff 	strdeq	pc, [r0], -pc	; <UNPREDICTABLE>
   17428:	0000ffbf 			; <UNDEFINED> instruction: 0x0000ffbf
   1742c:	0000f79f 	muleq	r0, pc, r7	; <UNPREDICTABLE>
   17430:	0000736f 	andeq	r7, r0, pc, ror #6
   17434:	00004a4a 	andeq	r4, r0, sl, asr #20
   17438:	0000e71e 	andeq	lr, r0, lr, lsl r7
   1743c:	0000f79f 	muleq	r0, pc, r7	; <UNPREDICTABLE>
   17440:	0000ffdf 	ldrdeq	pc, [r0], -pc	; <UNPREDICTABLE>
   17444:	0000d67c 	andeq	sp, r0, ip, ror r6
   17448:	000062ee 	andeq	r6, r0, lr, ror #5
   1744c:	00008412 	andeq	r8, r0, r2, lsl r4
   17450:	0000a517 	andeq	sl, r0, r7, lsl r5
   17454:	0000bdba 			; <UNDEFINED> instruction: 0x0000bdba
   17458:	0000c5fc 	strdeq	ip, [r0], -ip	; <UNPREDICTABLE>
   1745c:	0000524e 	andeq	r5, r0, lr, asr #4
   17460:	00002929 	andeq	r2, r0, r9, lsr #18
   17464:	00009cb5 			; <UNDEFINED> instruction: 0x00009cb5
   17468:	0000f7bf 			; <UNDEFINED> instruction: 0x0000f7bf
   1746c:	0000ffdf 	ldrdeq	pc, [r0], -pc	; <UNPREDICTABLE>
   17470:	0000ffff 	strdeq	pc, [r0], -pc	; <UNPREDICTABLE>
   17474:	0000ffdf 	ldrdeq	pc, [r0], -pc	; <UNPREDICTABLE>
   17478:	0000f7de 	ldrdeq	pc, [r0], -lr
   1747c:	0000ffff 	strdeq	pc, [r0], -pc	; <UNPREDICTABLE>
   17480:	0000ffff 	strdeq	pc, [r0], -pc	; <UNPREDICTABLE>
   17484:	0000ffff 	strdeq	pc, [r0], -pc	; <UNPREDICTABLE>
   17488:	0000ef7f 	andeq	lr, r0, pc, ror pc
   1748c:	00009cf6 	strdeq	r9, [r0], -r6
   17490:	000018c6 	andeq	r1, r0, r6, asr #17
   17494:	0000d6bc 			; <UNDEFINED> instruction: 0x0000d6bc
   17498:	0000ffdf 	ldrdeq	pc, [r0], -pc	; <UNPREDICTABLE>
   1749c:	0000f7bf 			; <UNDEFINED> instruction: 0x0000f7bf
   174a0:	0000ffff 	strdeq	pc, [r0], -pc	; <UNPREDICTABLE>
   174a4:	0000ffff 	strdeq	pc, [r0], -pc	; <UNPREDICTABLE>
   174a8:	0000ffbf 			; <UNDEFINED> instruction: 0x0000ffbf
   174ac:	0000f79f 	muleq	r0, pc, r7	; <UNPREDICTABLE>
   174b0:	0000c5fb 	strdeq	ip, [r0], -fp
   174b4:	000062ee 	andeq	r6, r0, lr, ror #5
   174b8:	000062ee 	andeq	r6, r0, lr, ror #5
   174bc:	0000ef7f 	andeq	lr, r0, pc, ror pc
   174c0:	0000ffff 	strdeq	pc, [r0], -pc	; <UNPREDICTABLE>
   174c4:	0000ef5e 	andeq	lr, r0, lr, asr pc
   174c8:	0000ffbf 			; <UNDEFINED> instruction: 0x0000ffbf
   174cc:	00007bb2 			; <UNDEFINED> instruction: 0x00007bb2
   174d0:	0000526b 	andeq	r5, r0, fp, ror #4
   174d4:	0000f79f 	muleq	r0, pc, r7	; <UNPREDICTABLE>
   174d8:	0000f7bf 			; <UNDEFINED> instruction: 0x0000f7bf
   174dc:	0000f77f 	andeq	pc, r0, pc, ror r7	; <UNPREDICTABLE>
   174e0:	0000a4f7 	strdeq	sl, [r0], -r7
   174e4:	00005a8d 	andeq	r5, r0, sp, lsl #21
   174e8:	0000e71e 	andeq	lr, r0, lr, lsl r7
   174ec:	0000ef7f 	andeq	lr, r0, pc, ror pc
   174f0:	0000debd 			; <UNDEFINED> instruction: 0x0000debd
   174f4:	0000e71f 	andeq	lr, r0, pc, lsl r7
   174f8:	0000ad3a 	andeq	sl, r0, sl, lsr sp
   174fc:	00002909 	andeq	r2, r0, r9, lsl #18
   17500:	00004a4c 	andeq	r4, r0, ip, asr #20
   17504:	0000d69c 	muleq	r0, ip, r6
   17508:	0000ef5d 	andeq	lr, r0, sp, asr pc
   1750c:	0000f7be 			; <UNDEFINED> instruction: 0x0000f7be
   17510:	0000ffff 	strdeq	pc, [r0], -pc	; <UNPREDICTABLE>
   17514:	0000ffff 	strdeq	pc, [r0], -pc	; <UNPREDICTABLE>
   17518:	0000ffff 	strdeq	pc, [r0], -pc	; <UNPREDICTABLE>
   1751c:	0000ffff 	strdeq	pc, [r0], -pc	; <UNPREDICTABLE>
   17520:	0000ffff 	strdeq	pc, [r0], -pc	; <UNPREDICTABLE>
   17524:	0000ffdf 	ldrdeq	pc, [r0], -pc	; <UNPREDICTABLE>
   17528:	0000ffff 	strdeq	pc, [r0], -pc	; <UNPREDICTABLE>
   1752c:	0000a536 	andeq	sl, r0, r6, lsr r5
   17530:	00004a4b 	andeq	r4, r0, fp, asr #20
   17534:	0000d69c 	muleq	r0, ip, r6
   17538:	0000ffdf 	ldrdeq	pc, [r0], -pc	; <UNPREDICTABLE>
   1753c:	0000ffdf 	ldrdeq	pc, [r0], -pc	; <UNPREDICTABLE>
   17540:	0000f79f 	muleq	r0, pc, r7	; <UNPREDICTABLE>
   17544:	0000ffbf 			; <UNDEFINED> instruction: 0x0000ffbf
   17548:	00009475 	andeq	r9, r0, r5, ror r4
   1754c:	00004a0c 	andeq	r4, r0, ip, lsl #20
   17550:	0000a518 	andeq	sl, r0, r8, lsl r5
   17554:	0000ef5f 	andeq	lr, r0, pc, asr pc
   17558:	0000528d 	andeq	r5, r0, sp, lsl #5
   1755c:	00006b50 	andeq	r6, r0, r0, asr fp
   17560:	0000ffdf 	ldrdeq	pc, [r0], -pc	; <UNPREDICTABLE>
   17564:	0000ffdf 	ldrdeq	pc, [r0], -pc	; <UNPREDICTABLE>
   17568:	0000b57a 	andeq	fp, r0, sl, ror r5
   1756c:	0000398a 	andeq	r3, r0, sl, lsl #19
   17570:	0000dedc 	ldrdeq	sp, [r0], -ip
   17574:	0000f7bf 			; <UNDEFINED> instruction: 0x0000f7bf
   17578:	0000ffdf 	ldrdeq	pc, [r0], -pc	; <UNPREDICTABLE>
   1757c:	0000e73f 	andeq	lr, r0, pc, lsr r7
   17580:	0000398a 	andeq	r3, r0, sl, lsl #19
   17584:	0000b599 	muleq	r0, r9, r5
   17588:	0000ef3e 	andeq	lr, r0, lr, lsr pc
   1758c:	0000ef3e 	andeq	lr, r0, lr, lsr pc
   17590:	0000ef5f 	andeq	lr, r0, pc, asr pc
   17594:	0000f77f 	andeq	pc, r0, pc, ror r7	; <UNPREDICTABLE>
   17598:	000041cc 	andeq	r4, r0, ip, asr #3
   1759c:	000020c8 	andeq	r2, r0, r8, asr #1
   175a0:	0000c5fa 	strdeq	ip, [r0], -sl
   175a4:	0000dedc 	ldrdeq	sp, [r0], -ip
   175a8:	0000f7be 			; <UNDEFINED> instruction: 0x0000f7be
   175ac:	0000ffff 	strdeq	pc, [r0], -pc	; <UNPREDICTABLE>
   175b0:	0000ffff 	strdeq	pc, [r0], -pc	; <UNPREDICTABLE>
   175b4:	0000ffff 	strdeq	pc, [r0], -pc	; <UNPREDICTABLE>
   175b8:	0000ffde 	ldrdeq	pc, [r0], -lr
   175bc:	0000ffdf 	ldrdeq	pc, [r0], -pc	; <UNPREDICTABLE>
   175c0:	0000ffff 	strdeq	pc, [r0], -pc	; <UNPREDICTABLE>
   175c4:	0000ffff 	strdeq	pc, [r0], -pc	; <UNPREDICTABLE>
   175c8:	0000ffff 	strdeq	pc, [r0], -pc	; <UNPREDICTABLE>
   175cc:	00008c32 	andeq	r8, r0, r2, lsr ip
   175d0:	0000528c 	andeq	r5, r0, ip, lsl #5
   175d4:	0000defd 	strdeq	sp, [r0], -sp	; <UNPREDICTABLE>
   175d8:	0000ffdf 	ldrdeq	pc, [r0], -pc	; <UNPREDICTABLE>
   175dc:	0000f7bf 			; <UNDEFINED> instruction: 0x0000f7bf
   175e0:	0000ffdf 	ldrdeq	pc, [r0], -pc	; <UNPREDICTABLE>
   175e4:	0000dede 	ldrdeq	sp, [r0], -lr
   175e8:	00002929 	andeq	r2, r0, r9, lsr #18
   175ec:	00002909 	andeq	r2, r0, r9, lsl #18
   175f0:	0000d67e 	andeq	sp, r0, lr, ror r6
   175f4:	0000f79f 	muleq	r0, pc, r7	; <UNPREDICTABLE>
   175f8:	0000dede 	ldrdeq	sp, [r0], -lr
   175fc:	00004a2b 	andeq	r4, r0, fp, lsr #20
   17600:	0000a516 	andeq	sl, r0, r6, lsl r5
   17604:	0000ffdf 	ldrdeq	pc, [r0], -pc	; <UNPREDICTABLE>
   17608:	00005a8e 	andeq	r5, r0, lr, lsl #21
   1760c:	00008c14 	andeq	r8, r0, r4, lsl ip
   17610:	0000f79f 	muleq	r0, pc, r7	; <UNPREDICTABLE>
   17614:	0000ffff 	strdeq	pc, [r0], -pc	; <UNPREDICTABLE>
   17618:	0000ffdf 	ldrdeq	pc, [r0], -pc	; <UNPREDICTABLE>
   1761c:	0000ce5b 	andeq	ip, r0, fp, asr lr
   17620:	00002107 	andeq	r2, r0, r7, lsl #2
   17624:	0000528d 	andeq	r5, r0, sp, lsl #5
   17628:	0000ef5e 	andeq	lr, r0, lr, asr pc
   1762c:	0000ffff 	strdeq	pc, [r0], -pc	; <UNPREDICTABLE>
   17630:	0000ffdf 	ldrdeq	pc, [r0], -pc	; <UNPREDICTABLE>
   17634:	00007bb2 			; <UNDEFINED> instruction: 0x00007bb2
   17638:	000020e8 	andeq	r2, r0, r8, ror #1
   1763c:	00007372 	andeq	r7, r0, r2, ror r3
   17640:	0000debc 			; <UNDEFINED> instruction: 0x0000debc
   17644:	0000f7be 			; <UNDEFINED> instruction: 0x0000f7be
   17648:	0000ffff 	strdeq	pc, [r0], -pc	; <UNPREDICTABLE>
   1764c:	0000fffe 	strdeq	pc, [r0], -lr
   17650:	0000fffe 	strdeq	pc, [r0], -lr
   17654:	0000ffff 	strdeq	pc, [r0], -pc	; <UNPREDICTABLE>
   17658:	0000ffff 	strdeq	pc, [r0], -pc	; <UNPREDICTABLE>
   1765c:	0000ffff 	strdeq	pc, [r0], -pc	; <UNPREDICTABLE>
   17660:	0000f79e 	muleq	r0, lr, r7
   17664:	0000ffff 	strdeq	pc, [r0], -pc	; <UNPREDICTABLE>
   17668:	0000f79f 	muleq	r0, pc, r7	; <UNPREDICTABLE>
   1766c:	0000528b 	andeq	r5, r0, fp, lsl #5
   17670:	00008c32 	andeq	r8, r0, r2, lsr ip
   17674:	0000defd 	strdeq	sp, [r0], -sp	; <UNPREDICTABLE>
   17678:	0000ffbf 			; <UNDEFINED> instruction: 0x0000ffbf
   1767c:	0000e71f 	andeq	lr, r0, pc, lsl r7
   17680:	0000d69c 	muleq	r0, ip, r6
   17684:	00008c34 	andeq	r8, r0, r4, lsr ip
   17688:	00002909 	andeq	r2, r0, r9, lsl #18
   1768c:	0000526e 	andeq	r5, r0, lr, ror #4
   17690:	0000bdbb 			; <UNDEFINED> instruction: 0x0000bdbb
   17694:	0000d67d 	andeq	sp, r0, sp, ror r6
   17698:	0000e73f 	andeq	lr, r0, pc, lsr r7
   1769c:	000094b5 			; <UNDEFINED> instruction: 0x000094b5
   176a0:	00004a4c 	andeq	r4, r0, ip, asr #20
   176a4:	0000ffdf 	ldrdeq	pc, [r0], -pc	; <UNPREDICTABLE>
   176a8:	00002909 	andeq	r2, r0, r9, lsl #18
   176ac:	0000ce5c 	andeq	ip, r0, ip, asr lr
   176b0:	0000ffdf 	ldrdeq	pc, [r0], -pc	; <UNPREDICTABLE>
   176b4:	0000ffdf 	ldrdeq	pc, [r0], -pc	; <UNPREDICTABLE>
   176b8:	0000ffdf 	ldrdeq	pc, [r0], -pc	; <UNPREDICTABLE>
   176bc:	0000f7bf 			; <UNDEFINED> instruction: 0x0000f7bf
   176c0:	00009494 	muleq	r0, r4, r4
   176c4:	00009473 	andeq	r9, r0, r3, ror r4
   176c8:	0000ef7e 	andeq	lr, r0, lr, ror pc
   176cc:	0000f7bf 			; <UNDEFINED> instruction: 0x0000f7bf
   176d0:	0000debd 			; <UNDEFINED> instruction: 0x0000debd
   176d4:	00003189 	andeq	r3, r0, r9, lsl #3
   176d8:	000041ab 	andeq	r4, r0, fp, lsr #3
   176dc:	0000b559 	andeq	fp, r0, r9, asr r5
   176e0:	0000e73e 	andeq	lr, r0, lr, lsr r7
   176e4:	0000f7be 			; <UNDEFINED> instruction: 0x0000f7be
   176e8:	0000fffe 	strdeq	pc, [r0], -lr
   176ec:	0000fffe 	strdeq	pc, [r0], -lr
   176f0:	0000fffe 	strdeq	pc, [r0], -lr
   176f4:	0000f7de 	ldrdeq	pc, [r0], -lr
   176f8:	0000ffff 	strdeq	pc, [r0], -pc	; <UNPREDICTABLE>
   176fc:	0000f7be 			; <UNDEFINED> instruction: 0x0000f7be
   17700:	0000ffff 	strdeq	pc, [r0], -pc	; <UNPREDICTABLE>
   17704:	0000f79e 	muleq	r0, lr, r7
   17708:	0000dedb 	ldrdeq	sp, [r0], -fp
   1770c:	00003187 	andeq	r3, r0, r7, lsl #3
   17710:	0000d69b 	muleq	r0, fp, r6
   17714:	0000f7bf 			; <UNDEFINED> instruction: 0x0000f7bf
   17718:	0000d67c 	andeq	sp, r0, ip, ror r6
   1771c:	00006b50 	andeq	r6, r0, r0, asr fp
   17720:	00007392 	muleq	r0, r2, r3
   17724:	000020e8 	andeq	r2, r0, r8, ror #1
   17728:	00002929 	andeq	r2, r0, r9, lsr #18
   1772c:	0000528e 	andeq	r5, r0, lr, lsl #5
   17730:	00006b31 	andeq	r6, r0, r1, lsr fp
   17734:	000083f3 	strdeq	r8, [r0], -r3
   17738:	0000ad58 	andeq	sl, r0, r8, asr sp
   1773c:	0000ce3b 	andeq	ip, r0, fp, lsr lr
   17740:	00002927 	andeq	r2, r0, r7, lsr #18
   17744:	0000e73e 	andeq	lr, r0, lr, lsr r7
   17748:	0000316a 	andeq	r3, r0, sl, ror #2
   1774c:	0000bd99 	muleq	r0, r9, sp
   17750:	0000ffff 	strdeq	pc, [r0], -pc	; <UNPREDICTABLE>
   17754:	0000ffff 	strdeq	pc, [r0], -pc	; <UNPREDICTABLE>
   17758:	0000ffdf 	ldrdeq	pc, [r0], -pc	; <UNPREDICTABLE>
   1775c:	0000ffff 	strdeq	pc, [r0], -pc	; <UNPREDICTABLE>
   17760:	0000ffdf 	ldrdeq	pc, [r0], -pc	; <UNPREDICTABLE>
   17764:	0000d67b 	andeq	sp, r0, fp, ror r6
   17768:	0000e73d 	andeq	lr, r0, sp, lsr r7
   1776c:	0000ffdf 	ldrdeq	pc, [r0], -pc	; <UNPREDICTABLE>
   17770:	00008c33 	andeq	r8, r0, r3, lsr ip
   17774:	000020c6 	andeq	r2, r0, r6, asr #1
   17778:	00005a8e 	andeq	r5, r0, lr, lsl #21
   1777c:	0000e6fe 	strdeq	lr, [r0], -lr	; <UNPREDICTABLE>
   17780:	0000ef5e 	andeq	lr, r0, lr, asr pc
   17784:	0000ffff 	strdeq	pc, [r0], -pc	; <UNPREDICTABLE>
   17788:	0000ffff 	strdeq	pc, [r0], -pc	; <UNPREDICTABLE>
   1778c:	0000f7bd 			; <UNDEFINED> instruction: 0x0000f7bd
   17790:	0000f7be 			; <UNDEFINED> instruction: 0x0000f7be
   17794:	0000ffff 	strdeq	pc, [r0], -pc	; <UNPREDICTABLE>
   17798:	0000ffff 	strdeq	pc, [r0], -pc	; <UNPREDICTABLE>
   1779c:	0000ffff 	strdeq	pc, [r0], -pc	; <UNPREDICTABLE>
   177a0:	0000ffdf 	ldrdeq	pc, [r0], -pc	; <UNPREDICTABLE>
   177a4:	0000ffff 	strdeq	pc, [r0], -pc	; <UNPREDICTABLE>
   177a8:	00006b2d 	andeq	r6, r0, sp, lsr #22
   177ac:	00007bf0 	strdeq	r7, [r0], -r0
   177b0:	0000d6bc 			; <UNDEFINED> instruction: 0x0000d6bc
   177b4:	0000f79f 	muleq	r0, pc, r7	; <UNPREDICTABLE>
   177b8:	0000ffdf 	ldrdeq	pc, [r0], -pc	; <UNPREDICTABLE>
   177bc:	0000ef5f 	andeq	lr, r0, pc, asr pc
   177c0:	0000c5fb 	strdeq	ip, [r0], -fp
   177c4:	00002908 	andeq	r2, r0, r8, lsl #18
   177c8:	00002929 	andeq	r2, r0, r9, lsr #18
   177cc:	0000e71f 	andeq	lr, r0, pc, lsl r7
   177d0:	0000debe 			; <UNDEFINED> instruction: 0x0000debe
   177d4:	0000e73f 	andeq	lr, r0, pc, lsr r7
   177d8:	0000d6bd 			; <UNDEFINED> instruction: 0x0000d6bd
   177dc:	0000d67b 	andeq	sp, r0, fp, ror r6
   177e0:	000041e9 	andeq	r4, r0, r9, ror #3
   177e4:	0000defd 	strdeq	sp, [r0], -sp	; <UNPREDICTABLE>
   177e8:	00003169 	andeq	r3, r0, r9, ror #2
   177ec:	0000bdda 	ldrdeq	fp, [r0], -sl
   177f0:	0000f79f 	muleq	r0, pc, r7	; <UNPREDICTABLE>
   177f4:	0000ffdf 	ldrdeq	pc, [r0], -pc	; <UNPREDICTABLE>
   177f8:	0000ffff 	strdeq	pc, [r0], -pc	; <UNPREDICTABLE>
   177fc:	0000ffde 	ldrdeq	pc, [r0], -lr
   17800:	0000ffdf 	ldrdeq	pc, [r0], -pc	; <UNPREDICTABLE>
   17804:	0000ffdf 	ldrdeq	pc, [r0], -pc	; <UNPREDICTABLE>
   17808:	0000ffbf 			; <UNDEFINED> instruction: 0x0000ffbf
   1780c:	0000f79f 	muleq	r0, pc, r7	; <UNPREDICTABLE>
   17810:	00003169 	andeq	r3, r0, r9, ror #2
   17814:	00002908 	andeq	r2, r0, r8, lsl #18
   17818:	00009475 	andeq	r9, r0, r5, ror r4
   1781c:	0000f77f 	andeq	pc, r0, pc, ror r7	; <UNPREDICTABLE>
   17820:	0000f77f 	andeq	pc, r0, pc, ror r7	; <UNPREDICTABLE>
   17824:	0000ffff 	strdeq	pc, [r0], -pc	; <UNPREDICTABLE>
   17828:	0000ffff 	strdeq	pc, [r0], -pc	; <UNPREDICTABLE>
   1782c:	0000ffff 	strdeq	pc, [r0], -pc	; <UNPREDICTABLE>
   17830:	0000ffff 	strdeq	pc, [r0], -pc	; <UNPREDICTABLE>
   17834:	0000ffff 	strdeq	pc, [r0], -pc	; <UNPREDICTABLE>
   17838:	0000ef7e 	andeq	lr, r0, lr, ror pc
   1783c:	0000ffff 	strdeq	pc, [r0], -pc	; <UNPREDICTABLE>
   17840:	0000e73d 	andeq	lr, r0, sp, lsr r7
   17844:	0000c618 	andeq	ip, r0, r8, lsl r6
   17848:	00004229 	andeq	r4, r0, r9, lsr #4
   1784c:	0000e71c 	andeq	lr, r0, ip, lsl r7
   17850:	0000ef5e 	andeq	lr, r0, lr, asr pc
   17854:	0000ffdf 	ldrdeq	pc, [r0], -pc	; <UNPREDICTABLE>
   17858:	0000ef7f 	andeq	lr, r0, pc, ror pc
   1785c:	0000f79f 	muleq	r0, pc, r7	; <UNPREDICTABLE>
   17860:	00007b93 	muleq	r0, r3, fp
   17864:	00002909 	andeq	r2, r0, r9, lsl #18
   17868:	00007371 	andeq	r7, r0, r1, ror r3
   1786c:	0000d69d 	muleq	r0, sp, r6
   17870:	0000ef7f 	andeq	lr, r0, pc, ror pc
   17874:	0000ffdf 	ldrdeq	pc, [r0], -pc	; <UNPREDICTABLE>
   17878:	0000f7bf 			; <UNDEFINED> instruction: 0x0000f7bf
   1787c:	0000b5b8 			; <UNDEFINED> instruction: 0x0000b5b8
   17880:	00003187 	andeq	r3, r0, r7, lsl #3
   17884:	0000defc 	strdeq	sp, [r0], -ip
   17888:	00006b50 	andeq	r6, r0, r0, asr fp
   1788c:	00007370 	andeq	r7, r0, r0, ror r3
   17890:	0000ffdf 	ldrdeq	pc, [r0], -pc	; <UNPREDICTABLE>
   17894:	0000ef7e 	andeq	lr, r0, lr, ror pc
   17898:	0000ffff 	strdeq	pc, [r0], -pc	; <UNPREDICTABLE>
   1789c:	0000ffff 	strdeq	pc, [r0], -pc	; <UNPREDICTABLE>
   178a0:	0000f7be 			; <UNDEFINED> instruction: 0x0000f7be
   178a4:	0000ffff 	strdeq	pc, [r0], -pc	; <UNPREDICTABLE>
   178a8:	0000ffdf 	ldrdeq	pc, [r0], -pc	; <UNPREDICTABLE>
   178ac:	0000ce3c 	andeq	ip, r0, ip, lsr lr
   178b0:	00002908 	andeq	r2, r0, r8, lsl #18
   178b4:	00002908 	andeq	r2, r0, r8, lsl #18
   178b8:	0000bdda 	ldrdeq	fp, [r0], -sl
   178bc:	0000defe 	strdeq	sp, [r0], -lr
   178c0:	0000ffdf 	ldrdeq	pc, [r0], -pc	; <UNPREDICTABLE>
   178c4:	0000f79f 	muleq	r0, pc, r7	; <UNPREDICTABLE>
   178c8:	0000ffff 	strdeq	pc, [r0], -pc	; <UNPREDICTABLE>
   178cc:	0000ffdf 	ldrdeq	pc, [r0], -pc	; <UNPREDICTABLE>
   178d0:	0000f7bf 			; <UNDEFINED> instruction: 0x0000f7bf
   178d4:	0000f79f 	muleq	r0, pc, r7	; <UNPREDICTABLE>
   178d8:	0000ffff 	strdeq	pc, [r0], -pc	; <UNPREDICTABLE>
   178dc:	0000f79f 	muleq	r0, pc, r7	; <UNPREDICTABLE>
   178e0:	0000e73e 	andeq	lr, r0, lr, lsr r7
   178e4:	00004209 	andeq	r4, r0, r9, lsl #4
   178e8:	0000b597 	muleq	r0, r7, r5
   178ec:	0000dedb 	ldrdeq	sp, [r0], -fp
   178f0:	0000f7bf 			; <UNDEFINED> instruction: 0x0000f7bf
   178f4:	0000ffdf 	ldrdeq	pc, [r0], -pc	; <UNPREDICTABLE>
   178f8:	0000ffdf 	ldrdeq	pc, [r0], -pc	; <UNPREDICTABLE>
   178fc:	0000ffbf 			; <UNDEFINED> instruction: 0x0000ffbf
   17900:	000041ed 	andeq	r4, r0, sp, ror #3
   17904:	000020c8 	andeq	r2, r0, r8, asr #1
   17908:	0000ad58 	andeq	sl, r0, r8, asr sp
   1790c:	0000e71e 	andeq	lr, r0, lr, lsl r7
   17910:	0000ffdf 	ldrdeq	pc, [r0], -pc	; <UNPREDICTABLE>
   17914:	0000ef7f 	andeq	lr, r0, pc, ror pc
   17918:	0000ffff 	strdeq	pc, [r0], -pc	; <UNPREDICTABLE>
   1791c:	0000ef9e 	muleq	r0, lr, pc	; <UNPREDICTABLE>
   17920:	0000c618 	andeq	ip, r0, r8, lsl r6
   17924:	0000ffff 	strdeq	pc, [r0], -pc	; <UNPREDICTABLE>
   17928:	0000dede 	ldrdeq	sp, [r0], -lr
   1792c:	00003148 	andeq	r3, r0, r8, asr #2
   17930:	0000ad58 	andeq	sl, r0, r8, asr sp
   17934:	0000ffdf 	ldrdeq	pc, [r0], -pc	; <UNPREDICTABLE>
   17938:	0000ffff 	strdeq	pc, [r0], -pc	; <UNPREDICTABLE>
   1793c:	0000fffe 	strdeq	pc, [r0], -lr
   17940:	0000fffe 	strdeq	pc, [r0], -lr
   17944:	0000ffdf 	ldrdeq	pc, [r0], -pc	; <UNPREDICTABLE>
   17948:	0000ffdf 	ldrdeq	pc, [r0], -pc	; <UNPREDICTABLE>
   1794c:	0000b55a 	andeq	fp, r0, sl, asr r5
   17950:	00002929 	andeq	r2, r0, r9, lsr #18
   17954:	00002909 	andeq	r2, r0, r9, lsl #18
   17958:	0000ad17 	andeq	sl, r0, r7, lsl sp
   1795c:	0000ffbf 			; <UNDEFINED> instruction: 0x0000ffbf
   17960:	0000ffdf 	ldrdeq	pc, [r0], -pc	; <UNPREDICTABLE>
   17964:	0000f7bf 			; <UNDEFINED> instruction: 0x0000f7bf
   17968:	0000f79f 	muleq	r0, pc, r7	; <UNPREDICTABLE>
   1796c:	0000ffff 	strdeq	pc, [r0], -pc	; <UNPREDICTABLE>
   17970:	0000f7bf 			; <UNDEFINED> instruction: 0x0000f7bf
   17974:	0000ffff 	strdeq	pc, [r0], -pc	; <UNPREDICTABLE>
   17978:	0000ffdf 	ldrdeq	pc, [r0], -pc	; <UNPREDICTABLE>
   1797c:	0000defd 	strdeq	sp, [r0], -sp	; <UNPREDICTABLE>
   17980:	0000420a 	andeq	r4, r0, sl, lsl #4
   17984:	000094b4 			; <UNDEFINED> instruction: 0x000094b4
   17988:	0000defc 	strdeq	sp, [r0], -ip
   1798c:	0000ef5d 	andeq	lr, r0, sp, asr pc
   17990:	0000ffff 	strdeq	pc, [r0], -pc	; <UNPREDICTABLE>
   17994:	0000ffdf 	ldrdeq	pc, [r0], -pc	; <UNPREDICTABLE>
   17998:	0000f79f 	muleq	r0, pc, r7	; <UNPREDICTABLE>
   1799c:	0000b59a 	muleq	r0, sl, r5
   179a0:	0000314a 	andeq	r3, r0, sl, asr #2
   179a4:	0000398b 	andeq	r3, r0, fp, lsl #19
   179a8:	0000debd 			; <UNDEFINED> instruction: 0x0000debd
   179ac:	0000f79f 	muleq	r0, pc, r7	; <UNPREDICTABLE>
   179b0:	0000ef7f 	andeq	lr, r0, pc, ror pc
   179b4:	0000f7df 	ldrdeq	pc, [r0], -pc	; <UNPREDICTABLE>
   179b8:	0000ffff 	strdeq	pc, [r0], -pc	; <UNPREDICTABLE>
   179bc:	0000f7bf 			; <UNDEFINED> instruction: 0x0000f7bf
   179c0:	0000ffff 	strdeq	pc, [r0], -pc	; <UNPREDICTABLE>
   179c4:	0000f79e 	muleq	r0, lr, r7
   179c8:	0000ffdf 	ldrdeq	pc, [r0], -pc	; <UNPREDICTABLE>
   179cc:	0000b599 	muleq	r0, r9, r5
   179d0:	0000398a 	andeq	r3, r0, sl, lsl #19
   179d4:	0000ce5b 	andeq	ip, r0, fp, asr lr
   179d8:	0000f79e 	muleq	r0, lr, r7
   179dc:	0000f7bd 			; <UNDEFINED> instruction: 0x0000f7bd
   179e0:	0000f7bd 			; <UNDEFINED> instruction: 0x0000f7bd
   179e4:	0000ffff 	strdeq	pc, [r0], -pc	; <UNPREDICTABLE>
   179e8:	0000ffdf 	ldrdeq	pc, [r0], -pc	; <UNPREDICTABLE>
   179ec:	0000ce1d 	andeq	ip, r0, sp, lsl lr
   179f0:	00002909 	andeq	r2, r0, r9, lsl #18
   179f4:	000020c8 	andeq	r2, r0, r8, asr #1
   179f8:	00006b2f 	andeq	r6, r0, pc, lsr #22
   179fc:	0000f79f 	muleq	r0, pc, r7	; <UNPREDICTABLE>
   17a00:	0000ffbf 			; <UNDEFINED> instruction: 0x0000ffbf
   17a04:	0000f79f 	muleq	r0, pc, r7	; <UNPREDICTABLE>
   17a08:	0000ffff 	strdeq	pc, [r0], -pc	; <UNPREDICTABLE>
   17a0c:	0000f7df 	ldrdeq	pc, [r0], -pc	; <UNPREDICTABLE>
   17a10:	0000ffff 	strdeq	pc, [r0], -pc	; <UNPREDICTABLE>
   17a14:	0000f7bf 			; <UNDEFINED> instruction: 0x0000f7bf
   17a18:	0000b578 	andeq	fp, r0, r8, ror r5
   17a1c:	00003189 	andeq	r3, r0, r9, lsl #3
   17a20:	00009cd5 	ldrdeq	r9, [r0], -r5
   17a24:	0000d6bb 			; <UNDEFINED> instruction: 0x0000d6bb
   17a28:	0000ef5d 	andeq	lr, r0, sp, asr pc
   17a2c:	0000ffff 	strdeq	pc, [r0], -pc	; <UNPREDICTABLE>
   17a30:	0000ef7e 	andeq	lr, r0, lr, ror pc
   17a34:	0000ffdf 	ldrdeq	pc, [r0], -pc	; <UNPREDICTABLE>
   17a38:	0000ffdf 	ldrdeq	pc, [r0], -pc	; <UNPREDICTABLE>
   17a3c:	00006b11 	andeq	r6, r0, r1, lsl fp
   17a40:	000020c9 	andeq	r2, r0, r9, asr #1
   17a44:	00007bb3 			; <UNDEFINED> instruction: 0x00007bb3
   17a48:	0000e71e 	andeq	lr, r0, lr, lsl r7
   17a4c:	0000ffdf 	ldrdeq	pc, [r0], -pc	; <UNPREDICTABLE>
   17a50:	0000ffff 	strdeq	pc, [r0], -pc	; <UNPREDICTABLE>
   17a54:	0000d69a 	muleq	r0, sl, r6
   17a58:	0000d6ba 			; <UNDEFINED> instruction: 0x0000d6ba
   17a5c:	0000ffff 	strdeq	pc, [r0], -pc	; <UNPREDICTABLE>
   17a60:	0000f7be 			; <UNDEFINED> instruction: 0x0000f7be
   17a64:	0000ffff 	strdeq	pc, [r0], -pc	; <UNPREDICTABLE>
   17a68:	0000ffdf 	ldrdeq	pc, [r0], -pc	; <UNPREDICTABLE>
   17a6c:	0000ffdf 	ldrdeq	pc, [r0], -pc	; <UNPREDICTABLE>
   17a70:	0000ad37 	andeq	sl, r0, r7, lsr sp
   17a74:	00003188 	andeq	r3, r0, r8, lsl #3
   17a78:	0000ad76 	andeq	sl, r0, r6, ror sp
   17a7c:	0000ffde 	ldrdeq	pc, [r0], -lr
   17a80:	0000ffff 	strdeq	pc, [r0], -pc	; <UNPREDICTABLE>
   17a84:	0000ffdf 	ldrdeq	pc, [r0], -pc	; <UNPREDICTABLE>
   17a88:	0000ffbf 			; <UNDEFINED> instruction: 0x0000ffbf
   17a8c:	0000ff9f 	muleq	r0, pc, pc	; <UNPREDICTABLE>
   17a90:	000062d0 	ldrdeq	r6, [r0], -r0
   17a94:	000020c8 	andeq	r2, r0, r8, asr #1
   17a98:	00002908 	andeq	r2, r0, r8, lsl #18
   17a9c:	00007bd2 	ldrdeq	r7, [r0], -r2
   17aa0:	0000debe 			; <UNDEFINED> instruction: 0x0000debe
   17aa4:	0000ffdf 	ldrdeq	pc, [r0], -pc	; <UNPREDICTABLE>
   17aa8:	0000f7bf 			; <UNDEFINED> instruction: 0x0000f7bf
   17aac:	0000ef5e 	andeq	lr, r0, lr, asr pc
   17ab0:	0000bdd9 	ldrdeq	fp, [r0], -r9
   17ab4:	0000630e 	andeq	r6, r0, lr, lsl #6
   17ab8:	000041ea 	andeq	r4, r0, sl, ror #3
   17abc:	0000a536 	andeq	sl, r0, r6, lsr r5
   17ac0:	0000e71d 	andeq	lr, r0, sp, lsl r7
   17ac4:	0000ef5e 	andeq	lr, r0, lr, asr pc
   17ac8:	0000ffff 	strdeq	pc, [r0], -pc	; <UNPREDICTABLE>
   17acc:	0000f7bf 			; <UNDEFINED> instruction: 0x0000f7bf
   17ad0:	0000ffff 	strdeq	pc, [r0], -pc	; <UNPREDICTABLE>
   17ad4:	0000ef5e 	andeq	lr, r0, lr, asr pc
   17ad8:	0000f7bf 			; <UNDEFINED> instruction: 0x0000f7bf
   17adc:	00004a2d 	andeq	r4, r0, sp, lsr #20
   17ae0:	000020c9 	andeq	r2, r0, r9, asr #1
   17ae4:	00009456 	andeq	r9, r0, r6, asr r4
   17ae8:	0000defd 	strdeq	sp, [r0], -sp	; <UNPREDICTABLE>
   17aec:	0000b5b6 			; <UNDEFINED> instruction: 0x0000b5b6
   17af0:	0000630c 	andeq	r6, r0, ip, lsl #6
   17af4:	00008430 	andeq	r8, r0, r0, lsr r4
   17af8:	0000f7be 			; <UNDEFINED> instruction: 0x0000f7be
   17afc:	0000ffff 	strdeq	pc, [r0], -pc	; <UNPREDICTABLE>
   17b00:	0000ffde 	ldrdeq	pc, [r0], -lr
   17b04:	0000ffff 	strdeq	pc, [r0], -pc	; <UNPREDICTABLE>
   17b08:	0000ffff 	strdeq	pc, [r0], -pc	; <UNPREDICTABLE>
   17b0c:	0000f79f 	muleq	r0, pc, r7	; <UNPREDICTABLE>
   17b10:	0000ffff 	strdeq	pc, [r0], -pc	; <UNPREDICTABLE>
   17b14:	0000c61a 	andeq	ip, r0, sl, lsl r6
   17b18:	0000528b 	andeq	r5, r0, fp, lsl #5
   17b1c:	0000630d 	andeq	r6, r0, sp, lsl #6
   17b20:	0000ce5a 	andeq	ip, r0, sl, asr lr
   17b24:	0000f7bf 			; <UNDEFINED> instruction: 0x0000f7bf
   17b28:	0000f79f 	muleq	r0, pc, r7	; <UNPREDICTABLE>
   17b2c:	0000ffdf 	ldrdeq	pc, [r0], -pc	; <UNPREDICTABLE>
   17b30:	0000d69e 	muleq	r0, lr, r6
   17b34:	000062d0 	ldrdeq	r6, [r0], -r0
   17b38:	00001887 	andeq	r1, r0, r7, lsl #17
   17b3c:	000020e8 	andeq	r2, r0, r8, ror #1
   17b40:	000039ac 	andeq	r3, r0, ip, lsr #19
   17b44:	0000398b 	andeq	r3, r0, fp, lsl #19
   17b48:	000041ca 	andeq	r4, r0, sl, asr #3
   17b4c:	00003148 	andeq	r3, r0, r8, asr #2
   17b50:	00004a2b 	andeq	r4, r0, fp, lsr #20
   17b54:	00009474 	andeq	r9, r0, r4, ror r4
   17b58:	0000d67c 	andeq	sp, r0, ip, ror r6
   17b5c:	0000e71e 	andeq	lr, r0, lr, lsl r7
   17b60:	0000ef7e 	andeq	lr, r0, lr, ror pc
   17b64:	0000ffdf 	ldrdeq	pc, [r0], -pc	; <UNPREDICTABLE>
   17b68:	0000ffff 	strdeq	pc, [r0], -pc	; <UNPREDICTABLE>
   17b6c:	0000ffff 	strdeq	pc, [r0], -pc	; <UNPREDICTABLE>
   17b70:	0000f7be 			; <UNDEFINED> instruction: 0x0000f7be
   17b74:	0000ffff 	strdeq	pc, [r0], -pc	; <UNPREDICTABLE>
   17b78:	0000f79f 	muleq	r0, pc, r7	; <UNPREDICTABLE>
   17b7c:	00003148 	andeq	r3, r0, r8, asr #2
   17b80:	00002909 	andeq	r2, r0, r9, lsl #18
   17b84:	00003169 	andeq	r3, r0, r9, ror #2
   17b88:	000041e9 	andeq	r4, r0, r9, ror #3
   17b8c:	00009492 	muleq	r0, r2, r4
   17b90:	0000defb 	strdeq	sp, [r0], -fp
   17b94:	0000ef7d 	andeq	lr, r0, sp, ror pc
   17b98:	0000e75c 	andeq	lr, r0, ip, asr r7
   17b9c:	0000f7be 			; <UNDEFINED> instruction: 0x0000f7be
   17ba0:	0000ffff 	strdeq	pc, [r0], -pc	; <UNPREDICTABLE>
   17ba4:	0000ffff 	strdeq	pc, [r0], -pc	; <UNPREDICTABLE>
   17ba8:	0000f7bf 			; <UNDEFINED> instruction: 0x0000f7bf
   17bac:	0000ffdf 	ldrdeq	pc, [r0], -pc	; <UNPREDICTABLE>
   17bb0:	0000ffdf 	ldrdeq	pc, [r0], -pc	; <UNPREDICTABLE>
   17bb4:	0000ffff 	strdeq	pc, [r0], -pc	; <UNPREDICTABLE>
   17bb8:	0000f7bf 			; <UNDEFINED> instruction: 0x0000f7bf
   17bbc:	00009cb4 			; <UNDEFINED> instruction: 0x00009cb4
   17bc0:	0000528b 	andeq	r5, r0, fp, lsl #5
   17bc4:	00005acd 	andeq	r5, r0, sp, asr #21
   17bc8:	0000bdb9 			; <UNDEFINED> instruction: 0x0000bdb9
   17bcc:	0000defe 	strdeq	sp, [r0], -lr
   17bd0:	0000ffdf 	ldrdeq	pc, [r0], -pc	; <UNPREDICTABLE>
   17bd4:	0000ef3f 	andeq	lr, r0, pc, lsr pc
   17bd8:	0000bd9b 	muleq	r0, fp, sp
   17bdc:	00008c35 	andeq	r8, r0, r5, lsr ip
   17be0:	00007bb3 			; <UNDEFINED> instruction: 0x00007bb3
   17be4:	00007bb3 			; <UNDEFINED> instruction: 0x00007bb3
   17be8:	0000a4d7 	ldrdeq	sl, [r0], -r7
   17bec:	0000bdda 	ldrdeq	fp, [r0], -sl
   17bf0:	0000dede 	ldrdeq	sp, [r0], -lr
   17bf4:	0000e71f 	andeq	lr, r0, pc, lsl r7
   17bf8:	0000e6fe 	strdeq	lr, [r0], -lr	; <UNPREDICTABLE>
   17bfc:	0000e71e 	andeq	lr, r0, lr, lsl r7
   17c00:	0000f79f 	muleq	r0, pc, r7	; <UNPREDICTABLE>
   17c04:	0000ffff 	strdeq	pc, [r0], -pc	; <UNPREDICTABLE>
   17c08:	0000ffff 	strdeq	pc, [r0], -pc	; <UNPREDICTABLE>
   17c0c:	0000ffff 	strdeq	pc, [r0], -pc	; <UNPREDICTABLE>
   17c10:	0000ffff 	strdeq	pc, [r0], -pc	; <UNPREDICTABLE>
   17c14:	0000ffff 	strdeq	pc, [r0], -pc	; <UNPREDICTABLE>
   17c18:	0000ffbf 			; <UNDEFINED> instruction: 0x0000ffbf
   17c1c:	00009cb5 			; <UNDEFINED> instruction: 0x00009cb5
   17c20:	000083f3 	strdeq	r8, [r0], -r3
   17c24:	00009454 	andeq	r9, r0, r4, asr r4
   17c28:	0000d6bb 			; <UNDEFINED> instruction: 0x0000d6bb
   17c2c:	0000e73c 	andeq	lr, r0, ip, lsr r7
   17c30:	0000ef7d 	andeq	lr, r0, sp, ror pc
   17c34:	0000ef7d 	andeq	lr, r0, sp, ror pc
   17c38:	0000ef9d 	muleq	r0, sp, pc	; <UNPREDICTABLE>
   17c3c:	0000ffff 	strdeq	pc, [r0], -pc	; <UNPREDICTABLE>
   17c40:	0000ffff 	strdeq	pc, [r0], -pc	; <UNPREDICTABLE>
   17c44:	0000ffdf 	ldrdeq	pc, [r0], -pc	; <UNPREDICTABLE>
   17c48:	0000ffff 	strdeq	pc, [r0], -pc	; <UNPREDICTABLE>
   17c4c:	0000f79e 	muleq	r0, lr, r7
   17c50:	0000ffff 	strdeq	pc, [r0], -pc	; <UNPREDICTABLE>
   17c54:	0000ffff 	strdeq	pc, [r0], -pc	; <UNPREDICTABLE>
   17c58:	0000ef7e 	andeq	lr, r0, lr, ror pc
   17c5c:	0000ffff 	strdeq	pc, [r0], -pc	; <UNPREDICTABLE>
   17c60:	0000f7df 	ldrdeq	pc, [r0], -pc	; <UNPREDICTABLE>
   17c64:	0000bdd8 	ldrdeq	fp, [r0], -r8
   17c68:	00006b6f 	andeq	r6, r0, pc, ror #22
   17c6c:	00005aad 	andeq	r5, r0, sp, lsr #21
   17c70:	000062ee 	andeq	r6, r0, lr, ror #5
   17c74:	00009495 	muleq	r0, r5, r4
   17c78:	0000c5fb 	strdeq	ip, [r0], -fp
   17c7c:	0000d67d 	andeq	sp, r0, sp, ror r6
   17c80:	0000debe 			; <UNDEFINED> instruction: 0x0000debe
   17c84:	0000e71f 	andeq	lr, r0, pc, lsl r7
   17c88:	0000de9e 	muleq	r0, lr, lr
   17c8c:	0000ef3f 	andeq	lr, r0, pc, lsr pc
   17c90:	0000ef5f 	andeq	lr, r0, pc, asr pc
   17c94:	0000ef3f 	andeq	lr, r0, pc, lsr pc
   17c98:	0000f79f 	muleq	r0, pc, r7	; <UNPREDICTABLE>
   17c9c:	0000ffdf 	ldrdeq	pc, [r0], -pc	; <UNPREDICTABLE>
   17ca0:	0000ffff 	strdeq	pc, [r0], -pc	; <UNPREDICTABLE>
   17ca4:	0000f7bf 			; <UNDEFINED> instruction: 0x0000f7bf
   17ca8:	0000f79e 	muleq	r0, lr, r7
   17cac:	0000ffff 	strdeq	pc, [r0], -pc	; <UNPREDICTABLE>
   17cb0:	0000ffff 	strdeq	pc, [r0], -pc	; <UNPREDICTABLE>
   17cb4:	0000f79e 	muleq	r0, lr, r7
   17cb8:	0000ffbf 			; <UNDEFINED> instruction: 0x0000ffbf
   17cbc:	0000f7bf 			; <UNDEFINED> instruction: 0x0000f7bf
   17cc0:	0000d69d 	muleq	r0, sp, r6
   17cc4:	0000ef3f 	andeq	lr, r0, pc, lsr pc
   17cc8:	0000ef5d 	andeq	lr, r0, sp, asr pc
   17ccc:	0000ef7d 	andeq	lr, r0, sp, ror pc
   17cd0:	0000f7be 			; <UNDEFINED> instruction: 0x0000f7be
   17cd4:	0000ffff 	strdeq	pc, [r0], -pc	; <UNPREDICTABLE>
   17cd8:	0000ffff 	strdeq	pc, [r0], -pc	; <UNPREDICTABLE>
   17cdc:	0000ffff 	strdeq	pc, [r0], -pc	; <UNPREDICTABLE>
   17ce0:	0000ffdf 	ldrdeq	pc, [r0], -pc	; <UNPREDICTABLE>
   17ce4:	0000f7de 	ldrdeq	pc, [r0], -lr
   17ce8:	0000ffde 	ldrdeq	pc, [r0], -lr
   17cec:	0000f7de 	ldrdeq	pc, [r0], -lr
   17cf0:	0000ffff 	strdeq	pc, [r0], -pc	; <UNPREDICTABLE>
   17cf4:	0000ffff 	strdeq	pc, [r0], -pc	; <UNPREDICTABLE>
   17cf8:	0000f7be 			; <UNDEFINED> instruction: 0x0000f7be
   17cfc:	0000ffff 	strdeq	pc, [r0], -pc	; <UNPREDICTABLE>
   17d00:	0000ffff 	strdeq	pc, [r0], -pc	; <UNPREDICTABLE>
   17d04:	0000e75d 	andeq	lr, r0, sp, asr r7
   17d08:	0000f79f 	muleq	r0, pc, r7	; <UNPREDICTABLE>
   17d0c:	0000defd 	strdeq	sp, [r0], -sp	; <UNPREDICTABLE>
   17d10:	0000c5f9 	strdeq	ip, [r0], -r9
   17d14:	00009494 	muleq	r0, r4, r4
   17d18:	000062ee 	andeq	r6, r0, lr, ror #5
   17d1c:	00004a0b 	andeq	r4, r0, fp, lsl #20
   17d20:	00004a4c 	andeq	r4, r0, ip, asr #20
   17d24:	000062ef 	andeq	r6, r0, pc, ror #5
   17d28:	00007bb2 			; <UNDEFINED> instruction: 0x00007bb2
   17d2c:	000083f3 	strdeq	r8, [r0], -r3
   17d30:	00008c54 	andeq	r8, r0, r4, asr ip
   17d34:	00009495 	muleq	r0, r5, r4
   17d38:	00009495 	muleq	r0, r5, r4
   17d3c:	00008412 	andeq	r8, r0, r2, lsl r4
   17d40:	0000736f 	andeq	r7, r0, pc, ror #6
   17d44:	000062ed 	andeq	r6, r0, sp, ror #5
   17d48:	00005acb 	andeq	r5, r0, fp, asr #21
   17d4c:	0000ad55 	andeq	sl, r0, r5, asr sp
   17d50:	0000ffff 	strdeq	pc, [r0], -pc	; <UNPREDICTABLE>
   17d54:	0000ffff 	strdeq	pc, [r0], -pc	; <UNPREDICTABLE>
   17d58:	0000ffff 	strdeq	pc, [r0], -pc	; <UNPREDICTABLE>
   17d5c:	0000ffdf 	ldrdeq	pc, [r0], -pc	; <UNPREDICTABLE>
   17d60:	0000e73e 	andeq	lr, r0, lr, lsr r7
   17d64:	0000ffdf 	ldrdeq	pc, [r0], -pc	; <UNPREDICTABLE>
   17d68:	0000f7bf 			; <UNDEFINED> instruction: 0x0000f7bf
   17d6c:	0000f7de 	ldrdeq	pc, [r0], -lr
   17d70:	0000ffff 	strdeq	pc, [r0], -pc	; <UNPREDICTABLE>
   17d74:	0000ffff 	strdeq	pc, [r0], -pc	; <UNPREDICTABLE>
   17d78:	0000ffff 	strdeq	pc, [r0], -pc	; <UNPREDICTABLE>
   17d7c:	0000f7be 			; <UNDEFINED> instruction: 0x0000f7be
   17d80:	0000ffdf 	ldrdeq	pc, [r0], -pc	; <UNPREDICTABLE>
   17d84:	0000ffff 	strdeq	pc, [r0], -pc	; <UNPREDICTABLE>
   17d88:	0000fffe 	strdeq	pc, [r0], -lr
   17d8c:	0000ffff 	strdeq	pc, [r0], -pc	; <UNPREDICTABLE>
   17d90:	0000f7bd 			; <UNDEFINED> instruction: 0x0000f7bd
   17d94:	0000f79d 	muleq	r0, sp, r7
   17d98:	0000ffff 	strdeq	pc, [r0], -pc	; <UNPREDICTABLE>
   17d9c:	0000ffff 	strdeq	pc, [r0], -pc	; <UNPREDICTABLE>
   17da0:	0000ef9d 	muleq	r0, sp, pc	; <UNPREDICTABLE>
   17da4:	0000ffff 	strdeq	pc, [r0], -pc	; <UNPREDICTABLE>
   17da8:	0000ffff 	strdeq	pc, [r0], -pc	; <UNPREDICTABLE>
   17dac:	0000ffff 	strdeq	pc, [r0], -pc	; <UNPREDICTABLE>
   17db0:	0000ffdf 	ldrdeq	pc, [r0], -pc	; <UNPREDICTABLE>
   17db4:	0000f79f 	muleq	r0, pc, r7	; <UNPREDICTABLE>
   17db8:	0000f7bf 			; <UNDEFINED> instruction: 0x0000f7bf
   17dbc:	0000f7bf 			; <UNDEFINED> instruction: 0x0000f7bf
   17dc0:	0000e73e 	andeq	lr, r0, lr, lsr r7
   17dc4:	0000d67c 	andeq	sp, r0, ip, ror r6
   17dc8:	0000bdda 	ldrdeq	fp, [r0], -sl
   17dcc:	0000b578 	andeq	fp, r0, r8, ror r5
   17dd0:	0000ad58 	andeq	sl, r0, r8, asr sp
   17dd4:	0000ad58 	andeq	sl, r0, r8, asr sp
   17dd8:	0000ad37 	andeq	sl, r0, r7, lsr sp
   17ddc:	0000b558 	andeq	fp, r0, r8, asr r5
   17de0:	0000c61a 	andeq	ip, r0, sl, lsl r6
   17de4:	0000e6fd 	strdeq	lr, [r0], -sp
   17de8:	0000e71c 	andeq	lr, r0, ip, lsl r7
   17dec:	0000ef7d 	andeq	lr, r0, sp, ror pc
   17df0:	0000f7bf 			; <UNDEFINED> instruction: 0x0000f7bf
   17df4:	0000f79e 	muleq	r0, lr, r7
   17df8:	0000ffff 	strdeq	pc, [r0], -pc	; <UNPREDICTABLE>
   17dfc:	0000ffff 	strdeq	pc, [r0], -pc	; <UNPREDICTABLE>
   17e00:	0000f7bf 			; <UNDEFINED> instruction: 0x0000f7bf
   17e04:	0000ffbf 			; <UNDEFINED> instruction: 0x0000ffbf
   17e08:	0000ffff 	strdeq	pc, [r0], -pc	; <UNPREDICTABLE>
   17e0c:	0000ffff 	strdeq	pc, [r0], -pc	; <UNPREDICTABLE>
   17e10:	0000ffff 	strdeq	pc, [r0], -pc	; <UNPREDICTABLE>
   17e14:	0000ffdf 	ldrdeq	pc, [r0], -pc	; <UNPREDICTABLE>
   17e18:	0000ffdf 	ldrdeq	pc, [r0], -pc	; <UNPREDICTABLE>
   17e1c:	0000ffff 	strdeq	pc, [r0], -pc	; <UNPREDICTABLE>
   17e20:	0000ffff 	strdeq	pc, [r0], -pc	; <UNPREDICTABLE>
   17e24:	0000ffff 	strdeq	pc, [r0], -pc	; <UNPREDICTABLE>

00017e28 <FONT_16X16>:
	...
   17e4c:	800f0007 	andhi	r0, pc, r7
   17e50:	800f800f 	andhi	r8, pc, pc
   17e54:	800f800f 	andhi	r8, pc, pc
   17e58:	00070007 	andeq	r0, r7, r7
   17e5c:	00000000 	andeq	r0, r0, r0
   17e60:	00070007 	andeq	r0, r7, r7
   17e64:	00000007 	andeq	r0, r0, r7
   17e68:	380e0000 	stmdacc	lr, {}	; <UNPREDICTABLE>
   17e6c:	380e380e 	stmdacc	lr, {r1, r2, r3, fp, ip, sp}
   17e70:	3006380e 	andcc	r3, r6, lr, lsl #16
	...
   17e88:	300c0000 	andcc	r0, ip, r0
   17e8c:	300c300c 	andcc	r3, ip, ip
   17e90:	fe7ffe7f 	mrc2	14, 3, pc, cr15, cr15, {3}
   17e94:	300c300c 	andcc	r3, ip, ip
   17e98:	300c300c 	andcc	r3, ip, ip
   17e9c:	fe7ffe7f 	mrc2	14, 3, pc, cr15, cr15, {3}
   17ea0:	300c300c 	andcc	r3, ip, ip
   17ea4:	0000300c 	andeq	r3, r0, ip
   17ea8:	40020000 	andmi	r0, r2, r0
   17eac:	f80f4002 			; <UNDEFINED> instruction: 0xf80f4002
   17eb0:	401af81f 	andsmi	pc, sl, pc, lsl r8	; <UNPREDICTABLE>
   17eb4:	f01f401a 			; <UNDEFINED> instruction: 0xf01f401a
   17eb8:	5802f80f 	stmdapl	r2, {r0, r1, r2, r3, fp, ip, sp, lr, pc}
   17ebc:	f81f5802 			; <UNDEFINED> instruction: 0xf81f5802
   17ec0:	4002f01f 	andmi	pc, r2, pc, lsl r0	; <UNPREDICTABLE>
   17ec4:	00004002 	andeq	r4, r0, r2
   17ec8:	00000000 	andeq	r0, r0, r0
   17ecc:	100e0000 	andne	r0, lr, r0
   17ed0:	700e300e 	andvc	r3, lr, lr
   17ed4:	c001e000 	andgt	lr, r1, r0
   17ed8:	00078003 	andeq	r8, r7, r3
   17edc:	700c700e 	andvc	r7, ip, lr
   17ee0:	00007008 	andeq	r7, r0, r8
	...
   17eec:	8019000f 	andshi	r0, r9, pc
   17ef0:	80198019 	andshi	r8, r9, r9, lsl r0
   17ef4:	080f000f 	stmdaeq	pc, {r0, r1, r2, r3}	; <UNPREDICTABLE>
   17ef8:	f819980f 			; <UNDEFINED> instruction: 0xf819980f
   17efc:	e018f018 	ands	pc, r8, r8, lsl r0	; <UNPREDICTABLE>
   17f00:	980ff019 	stmdals	pc, {r0, r3, r4, ip, sp, lr, pc}	; <UNPREDICTABLE>
	...
   17f0c:	00070007 	andeq	r0, r7, r7
   17f10:	000e0007 	andeq	r0, lr, r7
	...
   17f2c:	c001f000 	andgt	pc, r1, r0
   17f30:	00078003 	andeq	r8, r7, r3
   17f34:	000e000e 	andeq	r0, lr, lr
   17f38:	000e000e 	andeq	r0, lr, lr
   17f3c:	80030007 	andhi	r0, r3, r7
   17f40:	f000c001 			; <UNDEFINED> instruction: 0xf000c001
	...
   17f4c:	8003000f 	andhi	r0, r3, pc
   17f50:	e000c001 	and	ip, r0, r1
   17f54:	70007000 	andvc	r7, r0, r0
   17f58:	70007000 	andvc	r7, r0, r0
   17f5c:	c001e000 	andgt	lr, r1, r0
   17f60:	000f8003 	andeq	r8, pc, r3
	...
   17f6c:	88118001 	ldmdahi	r1, {r0, pc}
   17f70:	e0079009 	and	r9, r7, r9
   17f74:	fc3fe007 	ldc2	0, cr14, [pc], #-28	; 17f60 <FONT_16X16+0x138>
   17f78:	e007fc3f 	and	pc, r7, pc, lsr ip	; <UNPREDICTABLE>
   17f7c:	9009e007 	andls	lr, r9, r7
   17f80:	80018811 	andhi	r8, r1, r1, lsl r8
	...
   17f90:	80018001 	andhi	r8, r1, r1
   17f94:	f00f8001 			; <UNDEFINED> instruction: 0xf00f8001
   17f98:	8001f00f 	andhi	pc, r1, pc
   17f9c:	80018001 	andhi	r8, r1, r1
	...
   17fbc:	00070000 	andeq	r0, r7, r0
   17fc0:	00070007 	andeq	r0, r7, r7
   17fc4:	0000000e 	andeq	r0, r0, lr
	...
   17fd4:	f81f0000 			; <UNDEFINED> instruction: 0xf81f0000
   17fd8:	0000f81f 	andeq	pc, r0, pc, lsl r8	; <UNPREDICTABLE>
	...
   17ffc:	00070000 	andeq	r0, r7, r0
   18000:	00070007 	andeq	r0, r7, r7
	...
   1800c:	06000200 	streq	r0, [r0], -r0, lsl #4
   18010:	1c000e00 	stcne	14, cr0, [r0], {-0}
   18014:	70003800 	andvc	r3, r0, r0, lsl #16
   18018:	c001e000 	andgt	lr, r1, r0
   1801c:	00078003 	andeq	r8, r7, r3
   18020:	001c000e 	andseq	r0, ip, lr
	...
   1802c:	381cf00f 	ldmdacc	ip, {r0, r1, r2, r3, ip, sp, lr, pc}
   18030:	f81c781c 			; <UNDEFINED> instruction: 0xf81c781c
   18034:	b81df81c 	ldmdalt	sp, {r2, r3, r4, fp, ip, sp, lr, pc}
   18038:	381fb81d 	ldmdacc	pc, {r0, r2, r3, r4, fp, ip, sp, pc}	; <UNPREDICTABLE>
   1803c:	381e381f 	ldmdacc	lr, {r0, r1, r2, r3, r4, fp, ip, sp}
   18040:	f00f381c 			; <UNDEFINED> instruction: 0xf00f381c
	...
   1804c:	80018001 	andhi	r8, r1, r1
   18050:	801f8003 	andshi	r8, pc, r3
   18054:	8003801f 	andhi	r8, r3, pc, lsl r0
   18058:	80038003 	andhi	r8, r3, r3
   1805c:	80038003 	andhi	r8, r3, r3
   18060:	f01f8003 			; <UNDEFINED> instruction: 0xf01f8003
	...
   1806c:	701ce00f 	andsvc	lr, ip, pc
   18070:	3800381c 	stmdacc	r0, {r2, r3, r4, fp, ip, sp}
   18074:	e0007000 	and	r7, r0, r0
   18078:	8003c001 	andhi	ip, r3, r1
   1807c:	380e0007 	stmdacc	lr, {r0, r1, r2}
   18080:	f81f381c 			; <UNDEFINED> instruction: 0xf81f381c
	...
   1808c:	701ce00f 	andsvc	lr, ip, pc
   18090:	3800381c 	stmdacc	r0, {r2, r3, r4, fp, ip, sp}
   18094:	c0037000 	andgt	r7, r3, r0
   18098:	7000c003 	andvc	ip, r0, r3
   1809c:	381c3800 	ldmdacc	ip, {fp, ip, sp}
   180a0:	e00f701c 	and	r7, pc, ip, lsl r0	; <UNPREDICTABLE>
	...
   180ac:	e001e000 	and	lr, r1, r0
   180b0:	e006e003 	and	lr, r6, r3
   180b4:	e018e00c 	ands	lr, r8, ip
   180b8:	f81ff81f 			; <UNDEFINED> instruction: 0xf81ff81f
   180bc:	e000e000 	and	lr, r0, r0
   180c0:	f803e000 			; <UNDEFINED> instruction: 0xf803e000
	...
   180cc:	001cf81f 	andseq	pc, ip, pc, lsl r8	; <UNPREDICTABLE>
   180d0:	001c001c 	andseq	r0, ip, ip, lsl r0
   180d4:	e01f001c 	ands	r0, pc, ip, lsl r0	; <UNPREDICTABLE>
   180d8:	7800f01f 	stmdavc	r0, {r0, r1, r2, r3, r4, ip, sp, lr, pc}
   180dc:	381c3800 	ldmdacc	ip, {fp, ip, sp}
   180e0:	e00f701c 	and	r7, pc, ip, lsl r0	; <UNPREDICTABLE>
	...
   180ec:	0007e003 	andeq	lr, r7, r3
   180f0:	001c000e 	andseq	r0, ip, lr
   180f4:	f01f001c 			; <UNDEFINED> instruction: 0xf01f001c
   180f8:	381cf81f 	ldmdacc	ip, {r0, r1, r2, r3, r4, fp, ip, sp, lr, pc}
   180fc:	381c381c 	ldmdacc	ip, {r2, r3, r4, fp, ip, sp}
   18100:	f00f381c 			; <UNDEFINED> instruction: 0xf00f381c
	...
   1810c:	1c1cfc1f 	ldcne	12, cr15, [ip], {31}
   18110:	1c1c1c1c 	ldcne	12, cr1, [ip], {28}
   18114:	38001c00 	stmdacc	r0, {sl, fp, ip}
   18118:	e0007000 	and	r7, r0, r0
   1811c:	8003c001 	andhi	ip, r3, r1
   18120:	80038003 	andhi	r8, r3, r3
	...
   1812c:	381cf00f 	ldmdacc	ip, {r0, r1, r2, r3, ip, sp, lr, pc}
   18130:	381c381c 	ldmdacc	ip, {r2, r3, r4, fp, ip, sp}
   18134:	e007381f 	and	r3, r7, pc, lsl r8
   18138:	f81ce007 			; <UNDEFINED> instruction: 0xf81ce007
   1813c:	381c381c 	ldmdacc	ip, {r2, r3, r4, fp, ip, sp}
   18140:	f00f381c 			; <UNDEFINED> instruction: 0xf00f381c
	...
   1814c:	381cf00f 	ldmdacc	ip, {r0, r1, r2, r3, ip, sp, lr, pc}
   18150:	381c381c 	ldmdacc	ip, {r2, r3, r4, fp, ip, sp}
   18154:	f81f381c 			; <UNDEFINED> instruction: 0xf81f381c
   18158:	3800f80f 	stmdacc	r0, {r0, r1, r2, r3, fp, ip, sp, lr, pc}
   1815c:	70003800 	andvc	r3, r0, r0, lsl #16
   18160:	c007e000 	andgt	lr, r7, r0
	...
   18170:	80038003 	andhi	r8, r3, r3
   18174:	00008003 	andeq	r8, r0, r3
   18178:	80030000 	andhi	r0, r3, r0
   1817c:	80038003 	andhi	r8, r3, r3
	...
   18190:	80038003 	andhi	r8, r3, r3
   18194:	00008003 	andeq	r8, r0, r3
   18198:	80030000 	andhi	r0, r3, r0
   1819c:	80038003 	andhi	r8, r3, r3
   181a0:	00000007 	andeq	r0, r0, r7
   181a4:	00000000 	andeq	r0, r0, r0
   181a8:	70000000 	andvc	r0, r0, r0
   181ac:	c001e000 	andgt	lr, r1, r0
   181b0:	00078003 	andeq	r8, r7, r3
   181b4:	001c000e 	andseq	r0, ip, lr
   181b8:	000e001c 	andeq	r0, lr, ip, lsl r0
   181bc:	80030007 	andhi	r0, r3, r7
   181c0:	e000c001 	and	ip, r0, r1
   181c4:	00007000 	andeq	r7, r0, r0
	...
   181d0:	fc3f0000 	ldc2	0, cr0, [pc], #-0	; 181d8 <FONT_16X16+0x3b0>
   181d4:	0000fc3f 	andeq	pc, r0, pc, lsr ip	; <UNPREDICTABLE>
   181d8:	fc3f0000 	ldc2	0, cr0, [pc], #-0	; 181e0 <FONT_16X16+0x3b8>
   181dc:	0000fc3f 	andeq	pc, r0, pc, lsr ip	; <UNPREDICTABLE>
	...
   181e8:	001c0000 	andseq	r0, ip, r0
   181ec:	0007000e 	andeq	r0, r7, lr
   181f0:	c0018003 	andgt	r8, r1, r3
   181f4:	7000e000 	andvc	lr, r0, r0
   181f8:	e0007000 	and	r7, r0, r0
   181fc:	8003c001 	andhi	ip, r3, r1
   18200:	000e0007 	andeq	r0, lr, r7
   18204:	0000001c 	andeq	r0, r0, ip, lsl r0
   18208:	c0030000 	andgt	r0, r3, r0
   1820c:	781ef00f 	ldmdavc	lr, {r0, r1, r2, r3, ip, sp, lr, pc}
   18210:	38003818 	stmdacc	r0, {r3, r4, fp, ip, sp}
   18214:	e0007000 	and	r7, r0, r0
   18218:	c001c001 	andgt	ip, r1, r1
   1821c:	00000000 	andeq	r0, r0, r0
   18220:	c001c001 	andgt	ip, r1, r1
   18224:	0000c001 	andeq	ip, r0, r1
   18228:	f80f0000 			; <UNDEFINED> instruction: 0xf80f0000
   1822c:	1c1c1c1c 	ldcne	12, cr1, [ip], {28}
   18230:	1c1c1c1c 	ldcne	12, cr1, [ip], {28}
   18234:	fc1cfc1c 	ldc2	12, cr15, [ip], {28}
   18238:	fc1cfc1c 	ldc2	12, cr15, [ip], {28}
   1823c:	001c001c 	andseq	r0, ip, ip, lsl r0
   18240:	f01f001c 			; <UNDEFINED> instruction: 0xf01f001c
   18244:	0000f807 	andeq	pc, r0, r7, lsl #16
   18248:	00000000 	andeq	r0, r0, r0
   1824c:	e007c003 	and	ip, r7, r3
   18250:	381c700e 	ldmdacc	ip, {r1, r2, r3, ip, sp, lr}
   18254:	381c381c 	ldmdacc	ip, {r2, r3, r4, fp, ip, sp}
   18258:	f81f381c 			; <UNDEFINED> instruction: 0xf81f381c
   1825c:	381c381c 	ldmdacc	ip, {r2, r3, r4, fp, ip, sp}
   18260:	381c381c 	ldmdacc	ip, {r2, r3, r4, fp, ip, sp}
	...
   1826c:	380ef01f 	stmdacc	lr, {r0, r1, r2, r3, r4, ip, sp, lr, pc}
   18270:	380e380e 	stmdacc	lr, {r1, r2, r3, fp, ip, sp}
   18274:	f00f380e 			; <UNDEFINED> instruction: 0xf00f380e
   18278:	380ef00f 	stmdacc	lr, {r0, r1, r2, r3, ip, sp, lr, pc}
   1827c:	380e380e 	stmdacc	lr, {r1, r2, r3, fp, ip, sp}
   18280:	f01f380e 			; <UNDEFINED> instruction: 0xf01f380e
	...
   1828c:	380ef007 	stmdacc	lr, {r0, r1, r2, ip, sp, lr, pc}
   18290:	001c381c 	andseq	r3, ip, ip, lsl r8
   18294:	001c001c 	andseq	r0, ip, ip, lsl r0
   18298:	001c001c 	andseq	r0, ip, ip, lsl r0
   1829c:	381c001c 	ldmdacc	ip, {r2, r3, r4}
   182a0:	f007380e 			; <UNDEFINED> instruction: 0xf007380e
	...
   182ac:	700ee01f 	andvc	lr, lr, pc, lsl r0
   182b0:	380e380e 	stmdacc	lr, {r1, r2, r3, fp, ip, sp}
   182b4:	380e380e 	stmdacc	lr, {r1, r2, r3, fp, ip, sp}
   182b8:	380e380e 	stmdacc	lr, {r1, r2, r3, fp, ip, sp}
   182bc:	380e380e 	stmdacc	lr, {r1, r2, r3, fp, ip, sp}
   182c0:	e01f700e 	ands	r7, pc, lr
	...
   182cc:	180ef81f 	stmdane	lr, {r0, r1, r2, r3, r4, fp, ip, sp, lr, pc}
   182d0:	000e080e 	andeq	r0, lr, lr, lsl #16
   182d4:	f00f300e 			; <UNDEFINED> instruction: 0xf00f300e
   182d8:	300ef00f 	andcc	pc, lr, pc
   182dc:	080e000e 	stmdaeq	lr, {r1, r2, r3}
   182e0:	f81f180e 			; <UNDEFINED> instruction: 0xf81f180e
	...
   182ec:	180ef81f 	stmdane	lr, {r0, r1, r2, r3, r4, fp, ip, sp, lr, pc}
   182f0:	000e080e 	andeq	r0, lr, lr, lsl #16
   182f4:	f00f300e 			; <UNDEFINED> instruction: 0xf00f300e
   182f8:	300ef00f 	andcc	pc, lr, pc
   182fc:	000e000e 	andeq	r0, lr, lr
   18300:	001f000e 	andseq	r0, pc, lr
	...
   1830c:	380ef007 	stmdacc	lr, {r0, r1, r2, ip, sp, lr, pc}
   18310:	381c381c 	ldmdacc	ip, {r2, r3, r4, fp, ip, sp}
   18314:	001c001c 	andseq	r0, ip, ip, lsl r0
   18318:	f81c001c 			; <UNDEFINED> instruction: 0xf81c001c
   1831c:	381c381c 	ldmdacc	ip, {r2, r3, r4, fp, ip, sp}
   18320:	f807380e 			; <UNDEFINED> instruction: 0xf807380e
	...
   1832c:	701c701c 	andsvc	r7, ip, ip, lsl r0
   18330:	701c701c 	andsvc	r7, ip, ip, lsl r0
   18334:	f01f701c 			; <UNDEFINED> instruction: 0xf01f701c
   18338:	701cf01f 	andsvc	pc, ip, pc, lsl r0	; <UNPREDICTABLE>
   1833c:	701c701c 	andsvc	r7, ip, ip, lsl r0
   18340:	701c701c 	andsvc	r7, ip, ip, lsl r0
	...
   1834c:	8003e00f 	andhi	lr, r3, pc
   18350:	80038003 	andhi	r8, r3, r3
   18354:	80038003 	andhi	r8, r3, r3
   18358:	80038003 	andhi	r8, r3, r3
   1835c:	80038003 	andhi	r8, r3, r3
   18360:	e00f8003 	and	r8, pc, r3
	...
   1836c:	7000fc01 	andvc	pc, r0, r1, lsl #24
   18370:	70007000 	andvc	r7, r0, r0
   18374:	70007000 	andvc	r7, r0, r0
   18378:	70387000 	eorsvc	r7, r8, r0
   1837c:	70387038 	eorsvc	r7, r8, r8, lsr r0
   18380:	e00f7038 	and	r7, pc, r8, lsr r0	; <UNPREDICTABLE>
	...
   1838c:	380e381e 	stmdacc	lr, {r1, r2, r3, r4, fp, ip, sp}
   18390:	e00e700e 	and	r7, lr, lr
   18394:	800fc00f 	andhi	ip, pc, pc
   18398:	c00f800f 	andgt	r8, pc, pc
   1839c:	700ee00e 	andvc	lr, lr, lr
   183a0:	381e380e 	ldmdacc	lr, {r1, r2, r3, fp, ip, sp}
	...
   183ac:	000e001f 	andeq	r0, lr, pc, lsl r0
   183b0:	000e000e 	andeq	r0, lr, lr
   183b4:	000e000e 	andeq	r0, lr, lr
   183b8:	000e000e 	andeq	r0, lr, lr
   183bc:	180e080e 	stmdane	lr, {r1, r2, r3, fp}
   183c0:	f81f380e 			; <UNDEFINED> instruction: 0xf81f380e
	...
   183cc:	3c1e1c1c 	ldccc	12, cr1, [lr], {28}
   183d0:	fc1f7c1f 	ldc2	12, cr7, [pc], {31}
   183d4:	dc1dfc1f 	ldcle	12, cr15, [sp], {31}
   183d8:	1c1c9c1c 	ldcne	12, cr9, [ip], {28}
   183dc:	1c1c1c1c 	ldcne	12, cr1, [ip], {28}
   183e0:	1c1c1c1c 	ldcne	12, cr1, [ip], {28}
	...
   183ec:	1c1c1c1c 	ldcne	12, cr1, [ip], {28}
   183f0:	1c1f1c1e 	ldcne	12, cr1, [pc], {30}
   183f4:	dc1d9c1f 	ldcle	12, cr9, [sp], {31}
   183f8:	7c1cfc1c 	ldcvc	12, cr15, [ip], {28}
   183fc:	1c1c3c1c 	ldcne	12, cr3, [ip], {28}
   18400:	1c1c1c1c 	ldcne	12, cr1, [ip], {28}
	...
   1840c:	f007e003 			; <UNDEFINED> instruction: 0xf007e003
   18410:	1c1c380e 	ldcne	8, cr3, [ip], {14}
   18414:	1c1c1c1c 	ldcne	12, cr1, [ip], {28}
   18418:	1c1c1c1c 	ldcne	12, cr1, [ip], {28}
   1841c:	380e1c1c 	stmdacc	lr, {r2, r3, r4, sl, fp, ip}
   18420:	e003f007 	and	pc, r3, r7
	...
   1842c:	380ef01f 	stmdacc	lr, {r0, r1, r2, r3, r4, ip, sp, lr, pc}
   18430:	380e380e 	stmdacc	lr, {r1, r2, r3, fp, ip, sp}
   18434:	f00f380e 			; <UNDEFINED> instruction: 0xf00f380e
   18438:	000ef00f 	andeq	pc, lr, pc
   1843c:	000e000e 	andeq	r0, lr, lr
   18440:	001f000e 	andseq	r0, pc, lr
	...
   1844c:	780fe003 	stmdavc	pc, {r0, r1, sp, lr, pc}	; <UNPREDICTABLE>
   18450:	1c1c380e 	ldcne	8, cr3, [ip], {14}
   18454:	1c1c1c1c 	ldcne	12, cr1, [ip], {28}
   18458:	7c1c1c1c 	ldcvc	12, cr1, [ip], {28}
   1845c:	f80ffc1c 			; <UNDEFINED> instruction: 0xf80ffc1c
   18460:	3800f80f 	stmdacc	r0, {r0, r1, r2, r3, fp, ip, sp, lr, pc}
   18464:	0000fc00 	andeq	pc, r0, r0, lsl #24
   18468:	00000000 	andeq	r0, r0, r0
   1846c:	380ef01f 	stmdacc	lr, {r0, r1, r2, r3, r4, ip, sp, lr, pc}
   18470:	380e380e 	stmdacc	lr, {r1, r2, r3, fp, ip, sp}
   18474:	f00f380e 			; <UNDEFINED> instruction: 0xf00f380e
   18478:	700ef00f 	andvc	pc, lr, pc
   1847c:	380e380e 	stmdacc	lr, {r1, r2, r3, fp, ip, sp}
   18480:	381e380e 	ldmdacc	lr, {r1, r2, r3, fp, ip, sp}
	...
   1848c:	381cf00f 	ldmdacc	ip, {r0, r1, r2, r3, ip, sp, lr, pc}
   18490:	381c381c 	ldmdacc	ip, {r2, r3, r4, fp, ip, sp}
   18494:	e00f001c 	and	r0, pc, ip, lsl r0	; <UNPREDICTABLE>
   18498:	3800f007 	stmdacc	r0, {r0, r1, r2, ip, sp, lr, pc}
   1849c:	381c381c 	ldmdacc	ip, {r2, r3, r4, fp, ip, sp}
   184a0:	f00f381c 			; <UNDEFINED> instruction: 0xf00f381c
	...
   184ac:	cc19fc1f 	ldcgt	12, cr15, [r9], {31}
   184b0:	c001c411 	andgt	ip, r1, r1, lsl r4
   184b4:	c001c001 	andgt	ip, r1, r1
   184b8:	c001c001 	andgt	ip, r1, r1
   184bc:	c001c001 	andgt	ip, r1, r1
   184c0:	f007c001 			; <UNDEFINED> instruction: 0xf007c001
	...
   184cc:	701c701c 	andsvc	r7, ip, ip, lsl r0
   184d0:	701c701c 	andsvc	r7, ip, ip, lsl r0
   184d4:	701c701c 	andsvc	r7, ip, ip, lsl r0
   184d8:	701c701c 	andsvc	r7, ip, ip, lsl r0
   184dc:	701c701c 	andsvc	r7, ip, ip, lsl r0
   184e0:	e00f701c 	and	r7, pc, ip, lsl r0	; <UNPREDICTABLE>
	...
   184ec:	701c701c 	andsvc	r7, ip, ip, lsl r0
   184f0:	701c701c 	andsvc	r7, ip, ip, lsl r0
   184f4:	701c701c 	andsvc	r7, ip, ip, lsl r0
   184f8:	701c701c 	andsvc	r7, ip, ip, lsl r0
   184fc:	e00e701c 	and	r7, lr, ip, lsl r0
   18500:	8003c007 	andhi	ip, r3, r7
	...
   1850c:	1c1c1c1c 	ldcne	12, cr1, [ip], {28}
   18510:	1c1c1c1c 	ldcne	12, cr1, [ip], {28}
   18514:	9c1c1c1c 	ldcls	12, cr1, [ip], {28}
   18518:	9c1c9c1c 	ldcls	12, cr9, [ip], {28}
   1851c:	f80ff80f 			; <UNDEFINED> instruction: 0xf80ff80f
   18520:	70077007 	andvc	r7, r7, r7
	...
   1852c:	701c701c 	andsvc	r7, ip, ip, lsl r0
   18530:	e00e701c 	and	r7, lr, ip, lsl r0
   18534:	8003c007 	andhi	ip, r3, r7
   18538:	c0078003 	andgt	r8, r7, r3
   1853c:	701ce00e 	andsvc	lr, ip, lr
   18540:	701c701c 	andsvc	r7, ip, ip, lsl r0
	...
   1854c:	701c701c 	andsvc	r7, ip, ip, lsl r0
   18550:	701c701c 	andsvc	r7, ip, ip, lsl r0
   18554:	e00e701c 	and	r7, lr, ip, lsl r0
   18558:	8003c007 	andhi	ip, r3, r7
   1855c:	80038003 	andhi	r8, r3, r3
   18560:	e00f8003 	and	r8, pc, r3
	...
   1856c:	381cf81f 	ldmdacc	ip, {r0, r1, r2, r3, r4, fp, ip, sp, lr, pc}
   18570:	70103818 	andsvc	r3, r0, r8, lsl r8
   18574:	c001e000 	andgt	lr, r1, r0
   18578:	00078003 	andeq	r8, r7, r3
   1857c:	181c080e 	ldmdane	ip, {r1, r2, r3, fp}
   18580:	f81f381c 			; <UNDEFINED> instruction: 0xf81f381c
	...
   1858c:	0007f007 	andeq	pc, r7, r7
   18590:	00070007 	andeq	r0, r7, r7
   18594:	00070007 	andeq	r0, r7, r7
   18598:	00070007 	andeq	r0, r7, r7
   1859c:	00070007 	andeq	r0, r7, r7
   185a0:	f0070007 			; <UNDEFINED> instruction: 0xf0070007
	...
   185ac:	00180010 	andseq	r0, r8, r0, lsl r0
   185b0:	000e001c 	andeq	r0, lr, ip, lsl r0
   185b4:	80030007 	andhi	r0, r3, r7
   185b8:	e000c001 	and	ip, r0, r1
   185bc:	38007000 	stmdacc	r0, {ip, sp, lr}
   185c0:	07001c00 	streq	r1, [r0, -r0, lsl #24]
	...
   185cc:	7000f007 	andvc	pc, r0, r7
   185d0:	70007000 	andvc	r7, r0, r0
   185d4:	70007000 	andvc	r7, r0, r0
   185d8:	70007000 	andvc	r7, r0, r0
   185dc:	70007000 	andvc	r7, r0, r0
   185e0:	f0077000 			; <UNDEFINED> instruction: 0xf0077000
   185e4:	00000000 	andeq	r0, r0, r0
   185e8:	80010000 	andhi	r0, r1, r0
   185ec:	e007c003 	and	ip, r7, r3
   185f0:	381c700e 	ldmdacc	ip, {r1, r2, r3, ip, sp, lr}
	...
   18624:	ff7fff7f 			; <UNDEFINED> instruction: 0xff7fff7f
   18628:	00000000 	andeq	r0, r0, r0
   1862c:	001c001c 	andseq	r0, ip, ip, lsl r0
   18630:	00070007 	andeq	r0, r7, r7
	...
   18654:	7000e00f 	andvc	lr, r0, pc
   18658:	f00f7000 			; <UNDEFINED> instruction: 0xf00f7000
   1865c:	701c701c 	andsvc	r7, ip, ip, lsl r0
   18660:	d80f701c 	stmdale	pc, {r2, r3, r4, ip, sp, lr}	; <UNPREDICTABLE>
	...
   1866c:	000e001e 	andeq	r0, lr, lr, lsl r0
   18670:	000e000e 	andeq	r0, lr, lr
   18674:	380ef00f 	stmdacc	lr, {r0, r1, r2, r3, ip, sp, lr, pc}
   18678:	380e380e 	stmdacc	lr, {r1, r2, r3, fp, ip, sp}
   1867c:	380e380e 	stmdacc	lr, {r1, r2, r3, fp, ip, sp}
   18680:	f01b380e 			; <UNDEFINED> instruction: 0xf01b380e
	...
   18694:	701ce00f 	andsvc	lr, ip, pc
   18698:	001c701c 	andseq	r7, ip, ip, lsl r0
   1869c:	701c001c 	andsvc	r0, ip, ip, lsl r0
   186a0:	e00f701c 	and	r7, pc, ip, lsl r0	; <UNPREDICTABLE>
	...
   186ac:	7000f800 	andvc	pc, r0, r0, lsl #16
   186b0:	70007000 	andvc	r7, r0, r0
   186b4:	701cf00f 	andsvc	pc, ip, pc
   186b8:	701c701c 	andsvc	r7, ip, ip, lsl r0
   186bc:	701c701c 	andsvc	r7, ip, ip, lsl r0
   186c0:	d80f701c 	stmdale	pc, {r2, r3, r4, ip, sp, lr}	; <UNPREDICTABLE>
	...
   186d4:	701ce00f 	andsvc	lr, ip, pc
   186d8:	f01f701c 			; <UNDEFINED> instruction: 0xf01f701c
   186dc:	701c001c 	andsvc	r0, ip, ip, lsl r0
   186e0:	e00f701c 	and	r7, pc, ip, lsl r0	; <UNPREDICTABLE>
	...
   186ec:	7007e003 	andvc	lr, r7, r3
   186f0:	00077007 	andeq	r7, r7, r7
   186f4:	e01f0007 	ands	r0, pc, r7
   186f8:	0007e01f 	andeq	lr, r7, pc, lsl r0
   186fc:	00070007 	andeq	r0, r7, r7
   18700:	c01f0007 	andsgt	r0, pc, r7
	...
   18714:	701cd80f 	andsvc	sp, ip, pc, lsl #16
   18718:	701c701c 	andsvc	r7, ip, ip, lsl r0
   1871c:	f00f701c 			; <UNDEFINED> instruction: 0xf00f701c
   18720:	7000f007 	andvc	pc, r0, r7
   18724:	e00f701c 	and	r7, pc, ip, lsl r0	; <UNPREDICTABLE>
   18728:	00000000 	andeq	r0, r0, r0
   1872c:	000e001e 	andeq	r0, lr, lr, lsl r0
   18730:	000e000e 	andeq	r0, lr, lr
   18734:	380ff00e 	stmdacc	pc, {r1, r2, r3, ip, sp, lr, pc}	; <UNPREDICTABLE>
   18738:	380e380f 	stmdacc	lr, {r0, r1, r2, r3, fp, ip, sp}
   1873c:	380e380e 	stmdacc	lr, {r1, r2, r3, fp, ip, sp}
   18740:	381e380e 	ldmdacc	lr, {r1, r2, r3, fp, ip, sp}
	...
   1874c:	c001c001 	andgt	ip, r1, r1
   18750:	0000c001 	andeq	ip, r0, r1
   18754:	c001c00f 	andgt	ip, r1, pc
   18758:	c001c001 	andgt	ip, r1, r1
   1875c:	c001c001 	andgt	ip, r1, r1
   18760:	f80fc001 			; <UNDEFINED> instruction: 0xf80fc001
	...
   1876c:	70007000 	andvc	r7, r0, r0
   18770:	00007000 	andeq	r7, r0, r0
   18774:	7000f003 	andvc	pc, r0, r3
   18778:	70007000 	andvc	r7, r0, r0
   1877c:	70007000 	andvc	r7, r0, r0
   18780:	701c7000 	andsvc	r7, ip, r0
   18784:	e007f00c 	and	pc, r7, ip
   18788:	00000000 	andeq	r0, r0, r0
   1878c:	000e001e 	andeq	r0, lr, lr, lsl r0
   18790:	000e000e 	andeq	r0, lr, lr
   18794:	700e380e 	andvc	r3, lr, lr, lsl #16
   18798:	c00fe00e 	andgt	lr, pc, lr
   1879c:	700ee00e 	andvc	lr, lr, lr
   187a0:	381e380e 	ldmdacc	lr, {r1, r2, r3, fp, ip, sp}
	...
   187ac:	c001c00f 	andgt	ip, r1, pc
   187b0:	c001c001 	andgt	ip, r1, r1
   187b4:	c001c001 	andgt	ip, r1, r1
   187b8:	c001c001 	andgt	ip, r1, r1
   187bc:	c001c001 	andgt	ip, r1, r1
   187c0:	f80fc001 			; <UNDEFINED> instruction: 0xf80fc001
	...
   187d4:	9c1cf81f 	ldcls	8, cr15, [ip], {31}
   187d8:	9c1c9c1c 	ldcls	12, cr9, [ip], {28}
   187dc:	9c1c9c1c 	ldcls	12, cr9, [ip], {28}
   187e0:	9c1c9c1c 	ldcls	12, cr9, [ip], {28}
	...
   187f4:	701ce01f 	andsvc	lr, ip, pc, lsl r0
   187f8:	701c701c 	andsvc	r7, ip, ip, lsl r0
   187fc:	701c701c 	andsvc	r7, ip, ip, lsl r0
   18800:	701c701c 	andsvc	r7, ip, ip, lsl r0
	...
   18814:	701ce00f 	andsvc	lr, ip, pc
   18818:	701c701c 	andsvc	r7, ip, ip, lsl r0
   1881c:	701c701c 	andsvc	r7, ip, ip, lsl r0
   18820:	e00f701c 	and	r7, pc, ip, lsl r0	; <UNPREDICTABLE>
	...
   18834:	380ef01b 	stmdacc	lr, {r0, r1, r3, r4, ip, sp, lr, pc}
   18838:	380e380e 	stmdacc	lr, {r1, r2, r3, fp, ip, sp}
   1883c:	380e380e 	stmdacc	lr, {r1, r2, r3, fp, ip, sp}
   18840:	000ef00f 	andeq	pc, lr, pc
   18844:	001f000e 	andseq	r0, pc, lr
	...
   18854:	e038b01f 	eors	fp, r8, pc, lsl r0
   18858:	e038e038 	eors	lr, r8, r8, lsr r0
   1885c:	e038e038 	eors	lr, r8, r8, lsr r0
   18860:	e000e01f 	and	lr, r0, pc, lsl r0
   18864:	f001e000 			; <UNDEFINED> instruction: 0xf001e000
	...
   18874:	f80ff01e 			; <UNDEFINED> instruction: 0xf80ff01e
   18878:	000e380f 	andeq	r3, lr, pc, lsl #16
   1887c:	000e000e 	andeq	r0, lr, lr
   18880:	001f000e 	andseq	r0, pc, lr
	...
   18894:	301ce00f 	andscc	lr, ip, pc
   18898:	800f301c 	andhi	r3, pc, ip, lsl r0	; <UNPREDICTABLE>
   1889c:	7018e003 	andsvc	lr, r8, r3
   188a0:	e00f7018 	and	r7, pc, r8, lsl r0	; <UNPREDICTABLE>
	...
   188ac:	00010000 	andeq	r0, r1, r0
   188b0:	00070003 	andeq	r0, r7, r3
   188b4:	0007f01f 	andeq	pc, r7, pc, lsl r0	; <UNPREDICTABLE>
   188b8:	00070007 	andeq	r0, r7, r7
   188bc:	70070007 	andvc	r0, r7, r7
   188c0:	e0037007 	and	r7, r3, r7
	...
   188d4:	701c701c 	andsvc	r7, ip, ip, lsl r0
   188d8:	701c701c 	andsvc	r7, ip, ip, lsl r0
   188dc:	701c701c 	andsvc	r7, ip, ip, lsl r0
   188e0:	d80f701c 	stmdale	pc, {r2, r3, r4, ip, sp, lr}	; <UNPREDICTABLE>
	...
   188f4:	701c701c 	andsvc	r7, ip, ip, lsl r0
   188f8:	701c701c 	andsvc	r7, ip, ip, lsl r0
   188fc:	e00e701c 	and	r7, lr, ip, lsl r0
   18900:	8003c007 	andhi	ip, r3, r7
	...
   18914:	1c1c1c1c 	ldcne	12, cr1, [ip], {28}
   18918:	9c1c1c1c 	ldcls	12, cr1, [ip], {28}
   1891c:	f80f9c1c 			; <UNDEFINED> instruction: 0xf80f9c1c
   18920:	70077007 	andvc	r7, r7, r7
	...
   18934:	e01ce01c 	ands	lr, ip, ip, lsl r0
   18938:	8007c00f 	andhi	ip, r7, pc
   1893c:	c00f8007 	andgt	r8, pc, r7
   18940:	e01ce01c 	ands	lr, ip, ip, lsl r0
	...
   18954:	380e380e 	stmdacc	lr, {r1, r2, r3, fp, ip, sp}
   18958:	380e380e 	stmdacc	lr, {r1, r2, r3, fp, ip, sp}
   1895c:	f007380e 			; <UNDEFINED> instruction: 0xf007380e
   18960:	e000e003 	and	lr, r0, r3
   18964:	801fc001 	andshi	ip, pc, r1
	...
   18974:	e018e01f 	ands	lr, r8, pc, lsl r0
   18978:	8003c011 	andhi	ip, r3, r1, lsl r0
   1897c:	200e0007 	andcs	r0, lr, r7
   18980:	e01f601c 	ands	r6, pc, ip, lsl r0	; <UNPREDICTABLE>
	...
   1898c:	8003f801 	andhi	pc, r3, r1, lsl #16
   18990:	80038003 	andhi	r8, r3, r3
   18994:	001c0007 	andseq	r0, ip, r7
   18998:	0007001c 	andeq	r0, r7, ip, lsl r0
   1899c:	80038003 	andhi	r8, r3, r3
   189a0:	f8018003 			; <UNDEFINED> instruction: 0xf8018003
   189a4:	00000000 	andeq	r0, r0, r0
   189a8:	c0010000 	andgt	r0, r1, r0
   189ac:	c001c001 	andgt	ip, r1, r1
   189b0:	c001c001 	andgt	ip, r1, r1
   189b4:	c001c001 	andgt	ip, r1, r1
   189b8:	c001c001 	andgt	ip, r1, r1
   189bc:	c001c001 	andgt	ip, r1, r1
   189c0:	c001c001 	andgt	ip, r1, r1
   189c4:	0000c001 	andeq	ip, r0, r1
   189c8:	00000000 	andeq	r0, r0, r0
   189cc:	c001801f 	andgt	r8, r1, pc, lsl r0
   189d0:	c001c001 	andgt	ip, r1, r1
   189d4:	3800e000 	stmdacc	r0, {sp, lr, pc}
   189d8:	e0003800 	and	r3, r0, r0, lsl #16
   189dc:	c001c001 	andgt	ip, r1, r1
   189e0:	801fc001 	andshi	ip, pc, r1
	...
   189ec:	9c3b1c1f 	ldcls	12, cr1, [fp], #-124	; 0xffffff84
   189f0:	f838dc39 			; <UNDEFINED> instruction: 0xf838dc39
	...
   18a0c:	9c3b1c1f 	ldcls	12, cr1, [fp], #-124	; 0xffffff84
   18a10:	f838dc39 			; <UNDEFINED> instruction: 0xf838dc39
	...
   18a2c:	9c3b1c1f 	ldcls	12, cr1, [fp], #-124	; 0xffffff84
   18a30:	f838dc39 			; <UNDEFINED> instruction: 0xf838dc39
	...
   18a4c:	9c3b1c1f 	ldcls	12, cr1, [fp], #-124	; 0xffffff84
   18a50:	f838dc39 			; <UNDEFINED> instruction: 0xf838dc39
	...
   18a6c:	ff0f0000 			; <UNDEFINED> instruction: 0xff0f0000
   18a70:	0f330318 	svceq	0x00330318
   18a74:	f3c09b61 			; <UNDEFINED> instruction: 0xf3c09b61
   18a78:	9b61f3c0 	blls	1895980 <__bss_end+0x1877980>
   18a7c:	03180f33 	tsteq	r8, #51, 30	; 0xcc
   18a80:	0000ff0f 	andeq	pc, r0, pc, lsl #30
	...
   18a8c:	06000600 	streq	r0, [r0], -r0, lsl #12
   18a90:	0c000600 	stceq	6, cr0, [r0], {-0}
   18a94:	30101800 	andscc	r1, r0, r0, lsl #16
   18a98:	c0706030 	rsbsgt	r6, r0, r0, lsr r0
   18a9c:	00ff80ff 	ldrshteq	r8, [pc], #15
   18aa0:	00300070 	eorseq	r0, r0, r0, ror r0
   18aa4:	00000010 	andeq	r0, r0, r0, lsl r0

00018aa8 <FONT_8x8>:
	...
   18ab0:	30787830 	rsbscc	r7, r8, r0, lsr r8
   18ab4:	00300030 	eorseq	r0, r0, r0, lsr r0
   18ab8:	006c6c6c 	rsbeq	r6, ip, ip, ror #24
   18abc:	00000000 	andeq	r0, r0, r0
   18ac0:	6cfe6c6c 	ldclvs	12, cr6, [lr], #432	; 0x1b0
   18ac4:	006c6cfe 	strdeq	r6, [ip], #-206	; 0xffffff32	; <UNPREDICTABLE>
   18ac8:	3c603e18 	stclcc	14, cr3, [r0], #-96	; 0xffffffa0
   18acc:	00187c06 	andseq	r7, r8, r6, lsl #24
   18ad0:	0c666300 	stcleq	3, cr6, [r6], #-0
   18ad4:	00633318 	rsbeq	r3, r3, r8, lsl r3
   18ad8:	3b1c361c 	blcc	726350 <__bss_end+0x708350>
   18adc:	003b666e 	eorseq	r6, fp, lr, ror #12
   18ae0:	00603030 	rsbeq	r3, r0, r0, lsr r0
   18ae4:	00000000 	andeq	r0, r0, r0
   18ae8:	3030180c 	eorscc	r1, r0, ip, lsl #16
   18aec:	000c1830 	andeq	r1, ip, r0, lsr r8
   18af0:	0c0c1830 	stceq	8, cr1, [ip], {48}	; 0x30
   18af4:	0030180c 	eorseq	r1, r0, ip, lsl #16
   18af8:	ff3c6600 			; <UNDEFINED> instruction: 0xff3c6600
   18afc:	0000663c 	andeq	r6, r0, ip, lsr r6
   18b00:	fc303000 	ldc2	0, cr3, [r0], #-0
   18b04:	00003030 	andeq	r3, r0, r0, lsr r0
   18b08:	00000000 	andeq	r0, r0, r0
   18b0c:	30181800 	andscc	r1, r8, r0, lsl #16
   18b10:	7e000000 	cdpvc	0, 0, cr0, cr0, cr0, {0}
	...
   18b1c:	00181800 	andseq	r1, r8, r0, lsl #16
   18b20:	180c0603 	stmdane	ip, {r0, r1, r9, sl}
   18b24:	00406030 	subeq	r6, r0, r0, lsr r0
   18b28:	6b63633e 	blvs	18f1828 <__bss_end+0x18d3828>
   18b2c:	003e6363 	eorseq	r6, lr, r3, ror #6
   18b30:	18583818 	ldmdane	r8, {r3, r4, fp, ip, sp}^
   18b34:	007e1818 	rsbseq	r1, lr, r8, lsl r8
   18b38:	1c06663c 	stcne	6, cr6, [r6], {60}	; 0x3c
   18b3c:	007e6630 	rsbseq	r6, lr, r0, lsr r6
   18b40:	1c06663c 	stcne	6, cr6, [r6], {60}	; 0x3c
   18b44:	003c6606 	eorseq	r6, ip, r6, lsl #12
   18b48:	66361e0e 	ldrtvs	r1, [r6], -lr, lsl #28
   18b4c:	000f067f 	andeq	r0, pc, pc, ror r6	; <UNPREDICTABLE>
   18b50:	067c607e 			; <UNDEFINED> instruction: 0x067c607e
   18b54:	003c6606 	eorseq	r6, ip, r6, lsl #12
   18b58:	7c60301c 	stclvc	0, cr3, [r0], #-112	; 0xffffff90
   18b5c:	003c6666 	eorseq	r6, ip, r6, ror #12
   18b60:	0c06667e 	stceq	6, cr6, [r6], {126}	; 0x7e
   18b64:	00181818 	andseq	r1, r8, r8, lsl r8
   18b68:	3c66663c 	stclcc	6, cr6, [r6], #-240	; 0xffffff10
   18b6c:	003c6666 	eorseq	r6, ip, r6, ror #12
   18b70:	3e66663c 	mcrcc	6, 3, r6, cr6, cr12, {1}
   18b74:	00380c06 	eorseq	r0, r8, r6, lsl #24
   18b78:	00181800 	andseq	r1, r8, r0, lsl #16
   18b7c:	00181800 	andseq	r1, r8, r0, lsl #16
   18b80:	00181800 	andseq	r1, r8, r0, lsl #16
   18b84:	30181800 	andscc	r1, r8, r0, lsl #16
   18b88:	6030180c 	eorsvs	r1, r0, ip, lsl #16
   18b8c:	000c1830 	andeq	r1, ip, r0, lsr r8
   18b90:	007e0000 	rsbseq	r0, lr, r0
   18b94:	00007e00 	andeq	r7, r0, r0, lsl #28
   18b98:	060c1830 			; <UNDEFINED> instruction: 0x060c1830
   18b9c:	0030180c 	eorseq	r1, r0, ip, lsl #16
   18ba0:	0c06663c 	stceq	6, cr6, [r6], {60}	; 0x3c
   18ba4:	00180018 	andseq	r0, r8, r8, lsl r0
   18ba8:	696f633e 	stmdbvs	pc!, {r1, r2, r3, r4, r5, r8, r9, sp, lr}^	; <UNPREDICTABLE>
   18bac:	003e606f 	eorseq	r6, lr, pc, rrx
   18bb0:	66663c18 			; <UNDEFINED> instruction: 0x66663c18
   18bb4:	0066667e 	rsbeq	r6, r6, lr, ror r6
   18bb8:	3e33337e 	mrccc	3, 1, r3, cr3, cr14, {3}
   18bbc:	007e3333 	rsbseq	r3, lr, r3, lsr r3
   18bc0:	6060331e 	rsbvs	r3, r0, lr, lsl r3
   18bc4:	001e3360 	andseq	r3, lr, r0, ror #6
   18bc8:	3333367c 	teqcc	r3, #124, 12	; 0x7c00000
   18bcc:	007c3633 	rsbseq	r3, ip, r3, lsr r6
   18bd0:	3c34317f 	ldfccs	f3, [r4], #-508	; 0xfffffe04
   18bd4:	007f3134 	rsbseq	r3, pc, r4, lsr r1	; <UNPREDICTABLE>
   18bd8:	3c34317f 	ldfccs	f3, [r4], #-508	; 0xfffffe04
   18bdc:	00783034 	rsbseq	r3, r8, r4, lsr r0
   18be0:	6060331e 	rsbvs	r3, r0, lr, lsl r3
   18be4:	001f3367 	andseq	r3, pc, r7, ror #6
   18be8:	7e666666 	cdpvc	6, 6, cr6, cr6, cr6, {3}
   18bec:	00666666 	rsbeq	r6, r6, r6, ror #12
   18bf0:	1818183c 	ldmdane	r8, {r2, r3, r4, r5, fp, ip}
   18bf4:	003c1818 	eorseq	r1, ip, r8, lsl r8
   18bf8:	0606060f 	streq	r0, [r6], -pc, lsl #12
   18bfc:	003c6666 	eorseq	r6, ip, r6, ror #12
   18c00:	3c363373 	ldccc	3, cr3, [r6], #-460	; 0xfffffe34
   18c04:	00733336 	rsbseq	r3, r3, r6, lsr r3
   18c08:	30303078 	eorscc	r3, r0, r8, ror r0
   18c0c:	007f3331 	rsbseq	r3, pc, r1, lsr r3	; <UNPREDICTABLE>
   18c10:	7f7f7763 	svcvc	0x007f7763
   18c14:	0063636b 	rsbeq	r6, r3, fp, ror #6
   18c18:	6f7b7363 	svcvs	0x007b7363
   18c1c:	00636367 	rsbeq	r6, r3, r7, ror #6
   18c20:	6363633e 	cmnvs	r3, #-134217728	; 0xf8000000
   18c24:	003e6363 	eorseq	r6, lr, r3, ror #6
   18c28:	3e33337e 	mrccc	3, 1, r3, cr3, cr14, {3}
   18c2c:	00783030 	rsbseq	r3, r8, r0, lsr r0
   18c30:	6666663c 			; <UNDEFINED> instruction: 0x6666663c
   18c34:	000e3c6e 	andeq	r3, lr, lr, ror #24
   18c38:	3e33337e 	mrccc	3, 1, r3, cr3, cr14, {3}
   18c3c:	00733336 	rsbseq	r3, r3, r6, lsr r3
   18c40:	1830663c 	ldmdane	r0!, {r2, r3, r4, r5, r9, sl, sp, lr}
   18c44:	003c660c 	eorseq	r6, ip, ip, lsl #12
   18c48:	18185a7e 	ldmdane	r8, {r1, r2, r3, r4, r5, r6, r9, fp, ip, lr}
   18c4c:	003c1818 	eorseq	r1, ip, r8, lsl r8
   18c50:	66666666 	strbtvs	r6, [r6], -r6, ror #12
   18c54:	007e6666 	rsbseq	r6, lr, r6, ror #12
   18c58:	66666666 	strbtvs	r6, [r6], -r6, ror #12
   18c5c:	00183c66 	andseq	r3, r8, r6, ror #24
   18c60:	6b636363 	blvs	18f19f4 <__bss_end+0x18d39f4>
   18c64:	0063777f 	rsbeq	r7, r3, pc, ror r7
   18c68:	1c366363 	ldcne	3, cr6, [r6], #-396	; 0xfffffe74
   18c6c:	0063361c 	rsbeq	r3, r3, ip, lsl r6
   18c70:	3c666666 	stclcc	6, cr6, [r6], #-408	; 0xfffffe68
   18c74:	003c1818 	eorseq	r1, ip, r8, lsl r8
   18c78:	0c46637f 	mcrreq	3, 7, r6, r6, cr15
   18c7c:	007f3319 	rsbseq	r3, pc, r9, lsl r3	; <UNPREDICTABLE>
   18c80:	3030303c 	eorscc	r3, r0, ip, lsr r0
   18c84:	003c3030 	eorseq	r3, ip, r0, lsr r0
   18c88:	0c183060 	ldceq	0, cr3, [r8], {96}	; 0x60
   18c8c:	00010306 	andeq	r0, r1, r6, lsl #6
   18c90:	0c0c0c3c 	stceq	12, cr0, [ip], {60}	; 0x3c
   18c94:	003c0c0c 	eorseq	r0, ip, ip, lsl #24
   18c98:	63361c08 	teqvs	r6, #8, 24	; 0x800
	...
   18ca4:	ff000000 			; <UNDEFINED> instruction: 0xff000000
   18ca8:	000c1818 	andeq	r1, ip, r8, lsl r8
   18cac:	00000000 	andeq	r0, r0, r0
   18cb0:	063c0000 	ldrteq	r0, [ip], -r0
   18cb4:	003b663e 	eorseq	r6, fp, lr, lsr r6
   18cb8:	333e3070 	teqcc	lr, #112	; 0x70
   18cbc:	006e3333 	rsbeq	r3, lr, r3, lsr r3
   18cc0:	663c0000 	ldrtvs	r0, [ip], -r0
   18cc4:	003c6660 	eorseq	r6, ip, r0, ror #12
   18cc8:	663e060e 	ldrtvs	r0, [lr], -lr, lsl #12
   18ccc:	003b6666 	eorseq	r6, fp, r6, ror #12
   18cd0:	663c0000 	ldrtvs	r0, [ip], -r0
   18cd4:	003c607e 	eorseq	r6, ip, lr, ror r0
   18cd8:	7830361c 	ldmdavc	r0!, {r2, r3, r4, r9, sl, ip, sp}
   18cdc:	00783030 	rsbseq	r3, r8, r0, lsr r0
   18ce0:	663b0000 	ldrtvs	r0, [fp], -r0
   18ce4:	7c063e66 	stcvc	14, cr3, [r6], {102}	; 0x66
   18ce8:	3b363070 	blcc	da4eb0 <__bss_end+0xd86eb0>
   18cec:	00733333 	rsbseq	r3, r3, r3, lsr r3
   18cf0:	18380018 	ldmdane	r8!, {r3, r4}
   18cf4:	003c1818 	eorseq	r1, ip, r8, lsl r8
   18cf8:	06060006 	streq	r0, [r6], -r6
   18cfc:	3c666606 	stclcc	6, cr6, [r6], #-24	; 0xffffffe8
   18d00:	36333070 			; <UNDEFINED> instruction: 0x36333070
   18d04:	0073363c 	rsbseq	r3, r3, ip, lsr r6
   18d08:	18181838 	ldmdane	r8, {r3, r4, r5, fp, ip}
   18d0c:	003c1818 	eorseq	r1, ip, r8, lsl r8
   18d10:	7f660000 	svcvc	0x00660000
   18d14:	00636b7f 	rsbeq	r6, r3, pc, ror fp
   18d18:	667c0000 	ldrbtvs	r0, [ip], -r0
   18d1c:	00666666 	rsbeq	r6, r6, r6, ror #12
   18d20:	663c0000 	ldrtvs	r0, [ip], -r0
   18d24:	003c6666 	eorseq	r6, ip, r6, ror #12
   18d28:	336e0000 	cmncc	lr, #0
   18d2c:	78303e33 	ldmdavc	r0!, {r0, r1, r4, r5, r9, sl, fp, ip, sp}
   18d30:	663b0000 	ldrtvs	r0, [fp], -r0
   18d34:	0f063e66 	svceq	0x00063e66
   18d38:	3b6e0000 	blcc	1b98d40 <__bss_end+0x1b7ad40>
   18d3c:	00783033 	rsbseq	r3, r8, r3, lsr r0
   18d40:	603e0000 	eorsvs	r0, lr, r0
   18d44:	007c063c 	rsbseq	r0, ip, ip, lsr r6
   18d48:	183e1808 	ldmdane	lr!, {r3, fp, ip}
   18d4c:	000c1a18 	andeq	r1, ip, r8, lsl sl
   18d50:	66660000 	strbtvs	r0, [r6], -r0
   18d54:	003b6666 	eorseq	r6, fp, r6, ror #12
   18d58:	66660000 	strbtvs	r0, [r6], -r0
   18d5c:	00183c66 	andseq	r3, r8, r6, ror #24
   18d60:	6b630000 	blvs	18d8d68 <__bss_end+0x18bad68>
   18d64:	00367f7f 	eorseq	r7, r6, pc, ror pc
   18d68:	36630000 	strbtcc	r0, [r3], -r0
   18d6c:	0063361c 	rsbeq	r3, r3, ip, lsl r6
   18d70:	66660000 	strbtvs	r0, [r6], -r0
   18d74:	7c063e66 	stcvc	14, cr3, [r6], {102}	; 0x66
   18d78:	4c7e0000 	ldclmi	0, cr0, [lr], #-0
   18d7c:	007e3218 	rsbseq	r3, lr, r8, lsl r2
   18d80:	7018180e 	andsvc	r1, r8, lr, lsl #16
   18d84:	000e1818 	andeq	r1, lr, r8, lsl r8
   18d88:	000c0c0c 	andeq	r0, ip, ip, lsl #24
   18d8c:	000c0c0c 	andeq	r0, ip, ip, lsl #24
   18d90:	0e181870 	mrceq	8, 0, r1, cr8, cr0, {3}
   18d94:	00701818 	rsbseq	r1, r0, r8, lsl r8
   18d98:	00006e3b 	andeq	r6, r0, fp, lsr lr
   18d9c:	00000000 	andeq	r0, r0, r0
   18da0:	1c36361c 	ldcne	6, cr3, [r6], #-112	; 0xffffff90
   18da4:	00000000 	andeq	r0, r0, r0
   18da8:	60909060 	addsvs	r9, r0, r0, rrx
   18dac:	00000000 	andeq	r0, r0, r0
   18db0:	7f7f7722 	svcvc	0x007f7722
   18db4:	00081c3e 	andeq	r1, r8, lr, lsr ip
   18db8:	00000000 	andeq	r0, r0, r0
   18dbc:	00fefe00 	rscseq	pc, lr, r0, lsl #28

00018dc0 <fcorcur>:
   18dc0:	0000ffff 	strdeq	pc, [r0], -pc	; <UNPREDICTABLE>

00018dc4 <fcor>:
   18dc4:	0000ffff 	strdeq	pc, [r0], -pc	; <UNPREDICTABLE>

00018dc8 <vtipofimkey>:
   18dc8:	00000001 	andeq	r0, r0, r1

00018dcc <pBaseVideoMem>:
   18dcc:	1fc00000 	svcne	0x00c00000

00018dd0 <pmode>:
   18dd0:	00000001 	andeq	r0, r0, r1

00018dd4 <y_max>:
   18dd4:	0000013f 	andeq	r0, r0, pc, lsr r1

00018dd8 <x_max>:
   18dd8:	000000ef 	andeq	r0, r0, pc, ror #1

Disassembly of section .got:

00018ddc <.got>:
   18ddc:	0001cac4 	andeq	ip, r1, r4, asr #21
   18de0:	000192bc 			; <UNDEFINED> instruction: 0x000192bc
   18de4:	000192c0 	andeq	r9, r1, r0, asr #5
   18de8:	0001cac8 	andeq	ip, r1, r8, asr #21
   18dec:	0001c794 	muleq	r1, r4, r7
   18df0:	0001c798 	muleq	r1, r8, r7
   18df4:	0001c79c 	muleq	r1, ip, r7
   18df8:	0001cacc 	andeq	ip, r1, ip, asr #21
   18dfc:	000192c4 	andeq	r9, r1, r4, asr #5
   18e00:	0001c7a0 	andeq	ip, r1, r0, lsr #15
   18e04:	000170a0 	andeq	r7, r1, r0, lsr #1
   18e08:	0001929c 	muleq	r1, ip, r2
   18e0c:	0001c7a8 	andeq	ip, r1, r8, lsr #15
   18e10:	0001d3cc 	andeq	sp, r1, ip, asr #7
   18e14:	00017e28 	andeq	r7, r1, r8, lsr #28
   18e18:	0001c7b0 			; <UNDEFINED> instruction: 0x0001c7b0
   18e1c:	00018dc8 	andeq	r8, r1, r8, asr #27
   18e20:	0001c7b4 			; <UNDEFINED> instruction: 0x0001c7b4
   18e24:	0001c7b8 			; <UNDEFINED> instruction: 0x0001c7b8
   18e28:	0001d3d4 	ldrdeq	sp, [r1], -r4
   18e2c:	0001c7bc 			; <UNDEFINED> instruction: 0x0001c7bc
   18e30:	00019294 	muleq	r1, r4, r2
   18e34:	000192ac 	andeq	r9, r1, ip, lsr #5
   18e38:	0001c7c0 	andeq	ip, r1, r0, asr #15
   18e3c:	0001927c 	andeq	r9, r1, ip, ror r2
   18e40:	0001d3d8 	ldrdeq	sp, [r1], -r8
   18e44:	0001c7c4 	andeq	ip, r1, r4, asr #15
   18e48:	00019270 	andeq	r9, r1, r0, ror r2
   18e4c:	00019308 	andeq	r9, r1, r8, lsl #6
   18e50:	0001c308 	andeq	ip, r1, r8, lsl #6
   18e54:	0001c7c8 	andeq	ip, r1, r8, asr #15
   18e58:	0001c7cc 	andeq	ip, r1, ip, asr #15
   18e5c:	0001d3dc 	ldrdeq	sp, [r1], -ip
   18e60:	0001ca28 	andeq	ip, r1, r8, lsr #20
   18e64:	00018dcc 	andeq	r8, r1, ip, asr #27
   18e68:	0001c7d0 	ldrdeq	ip, [r1], -r0
   18e6c:	0001c7d4 	ldrdeq	ip, [r1], -r4
   18e70:	0001928c 	andeq	r9, r1, ip, lsl #5
   18e74:	000192b0 			; <UNDEFINED> instruction: 0x000192b0
   18e78:	0001c848 	andeq	ip, r1, r8, asr #16
   18e7c:	0001d3ec 	andeq	sp, r1, ip, ror #7
   18e80:	0001c84c 	andeq	ip, r1, ip, asr #16
   18e84:	0001d434 	andeq	sp, r1, r4, lsr r4
   18e88:	00019254 	andeq	r9, r1, r4, asr r2
   18e8c:	0001ca30 	andeq	ip, r1, r0, lsr sl
   18e90:	0000c144 	andeq	ip, r0, r4, asr #2
   18e94:	0001c84d 	andeq	ip, r1, sp, asr #16
   18e98:	0001c850 	andeq	ip, r1, r0, asr r8
   18e9c:	0001c30c 	andeq	ip, r1, ip, lsl #6
   18ea0:	0001c854 	andeq	ip, r1, r4, asr r8
   18ea4:	00017024 	andeq	r7, r1, r4, lsr #32
   18ea8:	0001c858 	andeq	ip, r1, r8, asr r8
   18eac:	00018dd4 	ldrdeq	r8, [r1], -r4
   18eb0:	00018dc0 	andeq	r8, r1, r0, asr #27
   18eb4:	0001c860 	andeq	ip, r1, r0, ror #16
   18eb8:	00019295 	muleq	r1, r5, r2
   18ebc:	0001d475 	andeq	sp, r1, r5, ror r4
   18ec0:	0001c864 	andeq	ip, r1, r4, ror #16
   18ec4:	00019290 	muleq	r1, r0, r2
   18ec8:	0001c38c 	andeq	ip, r1, ip, lsl #7
   18ecc:	0001d478 	andeq	sp, r1, r8, ror r4
   18ed0:	0001d47c 	andeq	sp, r1, ip, ror r4
   18ed4:	0001c868 	andeq	ip, r1, r8, ror #16
   18ed8:	0001e000 	andeq	lr, r1, r0
   18edc:	0001c40c 	andeq	ip, r1, ip, lsl #8
   18ee0:	0001c86c 	andeq	ip, r1, ip, ror #16
   18ee4:	0001d480 	andeq	sp, r1, r0, lsl #9
   18ee8:	00019258 	andeq	r9, r1, r8, asr r2
   18eec:	0001d484 	andeq	sp, r1, r4, lsl #9
   18ef0:	00019278 	andeq	r9, r1, r8, ror r2
   18ef4:	00018dc4 	andeq	r8, r1, r4, asr #27
   18ef8:	00018aa8 	andeq	r8, r1, r8, lsr #21
   18efc:	0001d488 	andeq	sp, r1, r8, lsl #9
   18f00:	00019264 	andeq	r9, r1, r4, ror #4
   18f04:	0001926c 	andeq	r9, r1, ip, ror #4
   18f08:	0001c614 	andeq	ip, r1, r4, lsl r6
   18f0c:	000192ad 	andeq	r9, r1, sp, lsr #5
   18f10:	0001ca38 	andeq	ip, r1, r8, lsr sl
   18f14:	0001d518 	andeq	sp, r1, r8, lsl r5
   18f18:	0001d51c 	andeq	sp, r1, ip, lsl r5
   18f1c:	0001d51d 	andeq	sp, r1, sp, lsl r5
   18f20:	00019288 	andeq	r9, r1, r8, lsl #5
   18f24:	00016314 	andeq	r6, r1, r4, lsl r3
   18f28:	00019274 	andeq	r9, r1, r4, ror r2
   18f2c:	0001ca50 	andeq	ip, r1, r0, asr sl
   18f30:	0001ca6c 	andeq	ip, r1, ip, ror #20
   18f34:	0001c880 	andeq	ip, r1, r0, lsl #17
   18f38:	0001c714 	andeq	ip, r1, r4, lsl r7
   18f3c:	00019280 	andeq	r9, r1, r0, lsl #5
   18f40:	0001c884 	andeq	ip, r1, r4, lsl #17
   18f44:	000192ab 	andeq	r9, r1, fp, lsr #5
   18f48:	0001c888 	andeq	ip, r1, r8, lsl #17
   18f4c:	0001ca24 	andeq	ip, r1, r4, lsr #20
   18f50:	0001c88c 	andeq	ip, r1, ip, lsl #17
   18f54:	0001d520 	andeq	sp, r1, r0, lsr #10
   18f58:	0000f4c8 	andeq	pc, r0, r8, asr #9
   18f5c:	000192a8 	andeq	r9, r1, r8, lsr #5
   18f60:	0001d524 	andeq	sp, r1, r4, lsr #10
   18f64:	000192a9 	andeq	r9, r1, r9, lsr #5
   18f68:	00017000 	andeq	r7, r1, r0
   18f6c:	000192a4 	andeq	r9, r1, r4, lsr #5
   18f70:	00018dd8 	ldrdeq	r8, [r1], -r8	; <UNPREDICTABLE>
   18f74:	000192ae 	andeq	r9, r1, lr, lsr #5
   18f78:	0001d52c 	andeq	sp, r1, ip, lsr #10
   18f7c:	0001d550 	andeq	sp, r1, r0, asr r5
   18f80:	0001c89c 	muleq	r1, ip, r8
   18f84:	0001c8a0 	andeq	ip, r1, r0, lsr #17
   18f88:	0001c9a0 	andeq	ip, r1, r0, lsr #19
   18f8c:	0001d554 	andeq	sp, r1, r4, asr r5
   18f90:	0001d558 	andeq	sp, r1, r8, asr r5
   18f94:	0001c9a4 	andeq	ip, r1, r4, lsr #19
   18f98:	0001c9a8 	andeq	ip, r1, r8, lsr #19
   18f9c:	0001925c 	andeq	r9, r1, ip, asr r2
   18fa0:	0001c9ac 	andeq	ip, r1, ip, lsr #19
   18fa4:	0001d559 	andeq	sp, r1, r9, asr r5
   18fa8:	000192a0 	andeq	r9, r1, r0, lsr #5
   18fac:	0001c9b0 			; <UNDEFINED> instruction: 0x0001c9b0
   18fb0:	0001ca14 	andeq	ip, r1, r4, lsl sl
   18fb4:	00019260 	andeq	r9, r1, r0, ror #4
   18fb8:	00019298 	muleq	r1, r8, r2
   18fbc:	000192aa 	andeq	r9, r1, sl, lsr #5
   18fc0:	00019268 	andeq	r9, r1, r8, ror #4
   18fc4:	0001d560 	andeq	sp, r1, r0, ror #10
   18fc8:	0001ca1c 	andeq	ip, r1, ip, lsl sl
   18fcc:	0001d561 	andeq	sp, r1, r1, ror #10
   18fd0:	0001ca20 	andeq	ip, r1, r0, lsr #20
   18fd4:	0001d564 	andeq	sp, r1, r4, ror #10

Disassembly of section .got.plt:

00018fd8 <_GLOBAL_OFFSET_TABLE_>:
	...

Disassembly of section .data.rel:

00018fe4 <keysend2>:
   18fe4:	0001d3dc 	ldrdeq	sp, [r1], -ip

00018fe8 <keysend>:
   18fe8:	0001d3dc 	ldrdeq	sp, [r1], -ip

00018fec <keyPntr>:
   18fec:	0001d3dc 	ldrdeq	sp, [r1], -ip

Disassembly of section .bss:

00019000 <__bss_start>:
   19000:	00000000 	andeq	r0, r0, r0

00019004 <handlers>:
	...

00019124 <clearers>:
	...

00019244 <num_pages>:
   19244:	00000000 	andeq	r0, r0, r0

00019248 <all_pages_array>:
   19248:	00000000 	andeq	r0, r0, r0

0001924c <heap_segment_list_head>:
   1924c:	00000000 	andeq	r0, r0, r0

00019250 <spi1_speed>:
   19250:	00000000 	andeq	r0, r0, r0

00019254 <bcm2835_spi1>:
   19254:	00000000 	andeq	r0, r0, r0

00019258 <bcm2835_aux>:
   19258:	00000000 	andeq	r0, r0, r0

0001925c <bcm2835_st>:
   1925c:	00000000 	andeq	r0, r0, r0

00019260 <bcm2835_bsc1>:
   19260:	00000000 	andeq	r0, r0, r0

00019264 <bcm2835_bsc0>:
   19264:	00000000 	andeq	r0, r0, r0

00019268 <bcm2835_spi0>:
   19268:	00000000 	andeq	r0, r0, r0

0001926c <bcm2835_pads>:
   1926c:	00000000 	andeq	r0, r0, r0

00019270 <bcm2835_clk>:
   19270:	00000000 	andeq	r0, r0, r0

00019274 <bcm2835_pwm>:
   19274:	00000000 	andeq	r0, r0, r0

00019278 <bcm2835_gpio>:
   19278:	00000000 	andeq	r0, r0, r0

0001927c <bcm2835_peripherals>:
   1927c:	00000000 	andeq	r0, r0, r0

00019280 <count>:
   19280:	00000000 	andeq	r0, r0, r0

00019284 <tBlack>:
   19284:	00000000 	andeq	r0, r0, r0

00019288 <KBD_DATARDY>:
   19288:	00000000 	andeq	r0, r0, r0

0001928c <icountp>:
   1928c:	00000000 	andeq	r0, r0, r0

00019290 <icount>:
   19290:	00000000 	andeq	r0, r0, r0

00019294 <vfirstshowkey>:
	...

00019295 <vcur>:
   19295:	 	andeq	r0, r0, r0

00019298 <vcurcont>:
   19298:	00000000 	andeq	r0, r0, r0

0001929c <fcorgraf>:
   1929c:	00000000 	andeq	r0, r0, r0

000192a0 <bcorcur>:
   192a0:	00000000 	andeq	r0, r0, r0

000192a4 <bcor>:
   192a4:	00000000 	andeq	r0, r0, r0

000192a8 <irqTchOn>:
	...

000192a9 <vkeyteste>:
	...

000192aa <vkeyrep>:
	...

000192ab <vtipokey>:
	...

000192ac <vcapson>:
	...

000192ad <pshowkeyontouch>:
	...

000192ae <pkeyativo>:
	...

000192b0 <free_pages>:
	...

000192bc <vcorwf>:
   192bc:	00000000 	andeq	r0, r0, r0

000192c0 <vFinalOS>:
   192c0:	00000000 	andeq	r0, r0, r0

000192c4 <arrvbuf>:
	...

00019304 <errno>:
   19304:	00000000 	andeq	r0, r0, r0

00019308 <arrmcfgfile>:
	...

0001c308 <vcorwb>:
   1c308:	00000000 	andeq	r0, r0, r0

0001c30c <arrvdiratup>:
	...

0001c38c <arrvdiratu>:
	...

0001c40c <arrgDataBuffer>:
	...

0001c614 <paramVDG>:
	...

0001c714 <arrvbufkptr>:
	...

0001c794 <verro>:
   1c794:	00000000 	andeq	r0, r0, r0

0001c798 <vbuttonwiny>:
   1c798:	00000000 	andeq	r0, r0, r0

0001c79c <inten>:
   1c79c:	00000000 	andeq	r0, r0, r0

0001c7a0 <voverx>:
   1c7a0:	00000000 	andeq	r0, r0, r0

0001c7a4 <xpos>:
   1c7a4:	00000000 	andeq	r0, r0, r0

0001c7a8 <gDataBuffer>:
   1c7a8:	00000000 	andeq	r0, r0, r0

0001c7ac <vmtaskatu>:
   1c7ac:	00000000 	andeq	r0, r0, r0

0001c7b0 <vcorb>:
   1c7b0:	00000000 	andeq	r0, r0, r0

0001c7b4 <vcol>:
   1c7b4:	00000000 	andeq	r0, r0, r0

0001c7b8 <vxmax>:
   1c7b8:	00000000 	andeq	r0, r0, r0

0001c7bc <vkeyopen>:
   1c7bc:	00000000 	andeq	r0, r0, r0

0001c7c0 <mcfgfile>:
   1c7c0:	00000000 	andeq	r0, r0, r0

0001c7c4 <vdir>:
   1c7c4:	00000000 	andeq	r0, r0, r0

0001c7c8 <vposty>:
   1c7c8:	00000000 	andeq	r0, r0, r0

0001c7cc <vdisk>:
   1c7cc:	00000000 	andeq	r0, r0, r0

0001c7d0 <vbufkptr>:
   1c7d0:	00000000 	andeq	r0, r0, r0

0001c7d4 <vparam>:
	...

0001c848 <pposy>:
   1c848:	00000000 	andeq	r0, r0, r0

0001c84c <vbbutton>:
	...

0001c84d <vbytetec>:
   1c84d:	 	andeq	r0, r0, r0

0001c850 <vymax>:
   1c850:	00000000 	andeq	r0, r0, r0

0001c854 <next_pos>:
	...

0001c855 <vmtask>:
   1c855:	 	andeq	r0, r0, r0

0001c858 <vovery>:
   1c858:	00000000 	andeq	r0, r0, r0

0001c85c <vbufkmove>:
   1c85c:	00000000 	andeq	r0, r0, r0

0001c860 <viconef>:
   1c860:	00000000 	andeq	r0, r0, r0

0001c864 <vcorf>:
   1c864:	00000000 	andeq	r0, r0, r0

0001c868 <vygmax>:
   1c868:	00000000 	andeq	r0, r0, r0

0001c86c <vtotmem>:
   1c86c:	00000000 	andeq	r0, r0, r0

0001c870 <intpos>:
   1c870:	00000000 	andeq	r0, r0, r0

0001c874 <vclusteros>:
   1c874:	00000000 	andeq	r0, r0, r0

0001c878 <vbufk>:
   1c878:	00000000 	andeq	r0, r0, r0

0001c87c <vmtaskup>:
   1c87c:	00000000 	andeq	r0, r0, r0

0001c880 <voutput>:
   1c880:	00000000 	andeq	r0, r0, r0

0001c884 <pposx>:
   1c884:	00000000 	andeq	r0, r0, r0

0001c888 <vxgmax>:
   1c888:	00000000 	andeq	r0, r0, r0

0001c88c <vclusterdir>:
   1c88c:	00000000 	andeq	r0, r0, r0

0001c890 <ypos>:
   1c890:	00000000 	andeq	r0, r0, r0

0001c894 <vbufkbios>:
   1c894:	00000000 	andeq	r0, r0, r0

0001c898 <v10ms>:
   1c898:	00000000 	andeq	r0, r0, r0

0001c89c <vinip>:
   1c89c:	00000000 	andeq	r0, r0, r0

0001c8a0 <vparamstr>:
	...

0001c9a0 <vxmaxold>:
   1c9a0:	00000000 	andeq	r0, r0, r0

0001c9a4 <vlin>:
   1c9a4:	00000000 	andeq	r0, r0, r0

0001c9a8 <vdiratup>:
   1c9a8:	00000000 	andeq	r0, r0, r0

0001c9ac <vpostx>:
   1c9ac:	00000000 	andeq	r0, r0, r0

0001c9b0 <vbuttonwin>:
	...

0001ca14 <vdiratu>:
   1ca14:	00000000 	andeq	r0, r0, r0

0001ca18 <vbufkatu>:
   1ca18:	00000000 	andeq	r0, r0, r0

0001ca1c <vymaxold>:
   1ca1c:	00000000 	andeq	r0, r0, r0

0001ca20 <vbuf>:
   1ca20:	00000000 	andeq	r0, r0, r0

0001ca24 <gp_buf>:
   1ca24:	00000000 	andeq	r0, r0, r0

0001ca28 <screen>:
	...

0001ca30 <display>:
	...

0001ca38 <ScreenSample>:
	...

0001ca50 <matrix>:
	...

0001ca6c <DisplaySample>:
	...

0001ca84 <ptext>:
	...

0001cac4 <pBaseVideoAddr>:
   1cac4:	00000000 	andeq	r0, r0, r0

0001cac8 <keyvxx>:
   1cac8:	00000000 	andeq	r0, r0, r0

0001cacc <pvideo>:
	...

0001d3cc <screen_cal>:
	...

0001d3d4 <vycur>:
   1d3d4:	00000000 	andeq	r0, r0, r0

0001d3d8 <iz>:
   1d3d8:	00000000 	andeq	r0, r0, r0

0001d3dc <keyBuffer>:
	...

0001d3ec <pxxxreturn>:
	...

0001d42c <D_ORIENTATION>:
   1d42c:	00000000 	andeq	r0, r0, r0

0001d430 <pconv2>:
   1d430:	00000000 	andeq	r0, r0, r0

0001d434 <pyyyreturn>:
	...

0001d474 <vmove>:
	...

0001d475 <preadycs>:
   1d475:	 	andeq	r0, r0, r0

0001d478 <vtimetec>:
   1d478:	00000000 	andeq	r0, r0, r0

0001d47c <vxx>:
   1d47c:	00000000 	andeq	r0, r0, r0

0001d480 <ptec>:
   1d480:	00000000 	andeq	r0, r0, r0

0001d484 <iy>:
   1d484:	00000000 	andeq	r0, r0, r0

0001d488 <vlayx>:
	...

0001d518 <vyyf>:
   1d518:	00000000 	andeq	r0, r0, r0

0001d51c <pbytecountr>:
	...

0001d51d <cchar>:
   1d51d:	 	andeq	r0, r0, r0

0001d520 <vyy>:
   1d520:	00000000 	andeq	r0, r0, r0

0001d524 <vxxf>:
   1d524:	00000000 	andeq	r0, r0, r0

0001d528 <pDataRdy>:
   1d528:	00000000 	andeq	r0, r0, r0

0001d52c <vlaytec>:
	...

0001d550 <ix>:
   1d550:	00000000 	andeq	r0, r0, r0

0001d554 <keyvyy>:
   1d554:	00000000 	andeq	r0, r0, r0

0001d558 <pbytecountw>:
	...

0001d559 <preadywr>:
   1d559:	 	andeq	r0, r0, r0

0001d55c <pconv1>:
   1d55c:	00000000 	andeq	r0, r0, r0

0001d560 <preadyrd>:
	...

0001d561 <dfont>:
   1d561:	 	andeq	r0, r0, r0

0001d564 <vxcur>:
   1d564:	00000000 	andeq	r0, r0, r0

Disassembly of section .ARM.attributes:

00000000 <.ARM.attributes>:
   0:	00003741 	andeq	r3, r0, r1, asr #14
   4:	61656100 	cmnvs	r5, r0, lsl #2
   8:	01006962 	tsteq	r0, r2, ror #18
   c:	0000002d 	andeq	r0, r0, sp, lsr #32
  10:	4d524105 	ldfmie	f4, [r2, #-20]	; 0xffffffec
  14:	36373131 			; <UNDEFINED> instruction: 0x36373131
  18:	2d465a4a 	vstrcs	s11, [r6, #-296]	; 0xfffffed8
  1c:	07060053 	smlsdeq	r6, r3, r0, r0
  20:	01090108 	tsteq	r9, r8, lsl #2
  24:	0412020a 	ldreq	r0, [r2], #-522	; 0xfffffdf6
  28:	01150114 	tsteq	r5, r4, lsl r1
  2c:	01180317 	tsteq	r8, r7, lsl r3
  30:	011c011a 	tsteq	ip, sl, lsl r1
  34:	01440122 	cmpeq	r4, r2, lsr #2

Disassembly of section .comment:

00000000 <.comment>:
   0:	3a434347 	bcc	10d0d24 <__bss_end+0x10b2d24>
   4:	4e472820 	cdpmi	8, 4, cr2, cr7, cr0, {1}
   8:	6f542055 	svcvs	0x00542055
   c:	20736c6f 	rsbscs	r6, r3, pc, ror #24
  10:	20726f66 	rsbscs	r6, r2, r6, ror #30
  14:	206d7241 	rsbcs	r7, sp, r1, asr #4
  18:	65626d45 	strbvs	r6, [r2, #-3397]!	; 0xfffff2bb
  1c:	64656464 	strbtvs	r6, [r5], #-1124	; 0xfffffb9c
  20:	6f725020 	svcvs	0x00725020
  24:	73736563 	cmnvc	r3, #415236096	; 0x18c00000
  28:	2073726f 	rsbscs	r7, r3, pc, ror #4
  2c:	30322d37 	eorscc	r2, r2, r7, lsr sp
  30:	712d3831 			; <UNDEFINED> instruction: 0x712d3831
  34:	70752d32 	rsbsvc	r2, r5, r2, lsr sp
  38:	65746164 	ldrbvs	r6, [r4, #-356]!	; 0xfffffe9c
  3c:	2e372029 	cdpcs	0, 3, cr2, cr7, cr9, {1}
  40:	20312e33 	eorscs	r2, r1, r3, lsr lr
  44:	38313032 	ldmdacc	r1!, {r1, r4, r5, ip, sp}
  48:	32323630 	eorscc	r3, r2, #48, 12	; 0x3000000
  4c:	65722820 	ldrbvs	r2, [r2, #-2080]!	; 0xfffff7e0
  50:	7361656c 	cmnvc	r1, #108, 10	; 0x1b000000
  54:	5b202965 	blpl	80a5f0 <__bss_end+0x7ec5f0>
  58:	2f4d5241 	svccs	0x004d5241
  5c:	65626d65 	strbvs	r6, [r2, #-3429]!	; 0xfffff29b
  60:	64656464 	strbtvs	r6, [r5], #-1124	; 0xfffffb9c
  64:	622d372d 	eorvs	r3, sp, #11796480	; 0xb40000
  68:	636e6172 	cmnvs	lr, #-2147483620	; 0x8000001c
  6c:	65722068 	ldrbvs	r2, [r2, #-104]!	; 0xffffff98
  70:	69736976 	ldmdbvs	r3!, {r1, r2, r4, r5, r6, r8, fp, sp, lr}^
  74:	32206e6f 	eorcc	r6, r0, #1776	; 0x6f0
  78:	30393136 	eorscc	r3, r9, r6, lsr r1
  7c:	Address 0x0000007c is out of bounds.

