
mmsjos.elf:     file format elf32-littlearm


Disassembly of section .text:

00008000 <__start>:
    8000:	ee110f51 	mrc	15, 0, r0, cr1, cr1, {2}
    8004:	e3500b03 	cmp	r0, #3072	; 0xc00
    8008:	0a000001 	beq	8014 <.free_to_enable_fpu1>
    800c:	e3800b03 	orr	r0, r0, #3072	; 0xc00
    8010:	ee010f51 	mcr	15, 0, r0, cr1, cr1, {2}

00008014 <.free_to_enable_fpu1>:
    8014:	ee110f50 	mrc	15, 0, r0, cr1, cr0, {2}
    8018:	e380060f 	orr	r0, r0, #15728640	; 0xf00000
    801c:	ee010f50 	mcr	15, 0, r0, cr1, cr0, {2}
    8020:	e3a00101 	mov	r0, #1073741824	; 0x40000000
    8024:	eee80a10 	vmsr	fpexc, r0
    8028:	ee110f10 	mrc	15, 0, r0, cr1, cr0, {0}
    802c:	e3800b02 	orr	r0, r0, #2048	; 0x800
    8030:	e3800004 	orr	r0, r0, #4
    8034:	e3800a01 	orr	r0, r0, #4096	; 0x1000
    8038:	ee010f10 	mcr	15, 0, r0, cr1, cr0, {0}
    803c:	ee106f10 	mrc	15, 0, r6, cr0, cr0, {0}
    8040:	e59f1048 	ldr	r1, [pc, #72]	; 8090 <dummy+0x4>
    8044:	e5816000 	str	r6, [r1]
    8048:	e3a0d902 	mov	sp, #32768	; 0x8000
    804c:	e59f4040 	ldr	r4, [pc, #64]	; 8094 <dummy+0x8>
    8050:	e59f9040 	ldr	r9, [pc, #64]	; 8098 <dummy+0xc>
    8054:	e3a05000 	mov	r5, #0
    8058:	e3a06000 	mov	r6, #0
    805c:	e3a07000 	mov	r7, #0
    8060:	e3a08000 	mov	r8, #0
    8064:	ea000000 	b	806c <.free_to_enable_fpu1+0x58>
    8068:	e8a401e0 	stmia	r4!, {r5, r6, r7, r8}
    806c:	e1540009 	cmp	r4, r9
    8070:	3afffffc 	bcc	8068 <.free_to_enable_fpu1+0x54>
    8074:	e3a02c01 	mov	r2, #256	; 0x100
    8078:	e59f301c 	ldr	r3, [pc, #28]	; 809c <dummy+0x10>
    807c:	e12fff33 	blx	r3
    8080:	eaffffff 	b	8084 <halt>

00008084 <halt>:
    8084:	e320f002 	wfe
    8088:	eafffffd 	b	8084 <halt>

0000808c <dummy>:
    808c:	e12fff1e 	bx	lr
    8090:	0001adb0 			; <UNDEFINED> instruction: 0x0001adb0
    8094:	00020000 	andeq	r0, r2, r0
    8098:	00368000 	eorseq	r8, r6, r0
    809c:	0000ef28 	andeq	lr, r0, r8, lsr #30

000080a0 <__aeabi_idivmod>:
    80a0:	e92d5003 	push	{r0, r1, ip, lr}
    80a4:	eb002212 	bl	108f4 <__aeabi_idiv>
    80a8:	e8bd5006 	pop	{r1, r2, ip, lr}
    80ac:	e0030290 	mul	r3, r0, r2
    80b0:	e0411003 	sub	r1, r1, r3
    80b4:	e1a0f00e 	mov	pc, lr
	...

000080c0 <__aeabi_uidivmod>:
    80c0:	e92d5003 	push	{r0, r1, ip, lr}
    80c4:	eb00221e 	bl	10944 <__aeabi_uidiv>
    80c8:	e8bd5006 	pop	{r1, r2, ip, lr}
    80cc:	e0030290 	mul	r3, r0, r2
    80d0:	e0411003 	sub	r1, r1, r3
    80d4:	e1a0f00e 	mov	pc, lr

000080d8 <exception_vector>:
    80d8:	e59ff018 	ldr	pc, [pc, #24]	; 80f8 <reset_handler_abs_addr>
    80dc:	e59ff018 	ldr	pc, [pc, #24]	; 80fc <undefined_instruction_handler_abs_addr>
    80e0:	e59ff018 	ldr	pc, [pc, #24]	; 8100 <software_interrupt_handler_abs_addr>
    80e4:	e59ff018 	ldr	pc, [pc, #24]	; 8104 <prefetch_abort_handler_abs_addr>
    80e8:	e59ff018 	ldr	pc, [pc, #24]	; 8108 <data_abort_handler_abs_addr>
    80ec:	e320f000 	nop	{0}
    80f0:	e59ff014 	ldr	pc, [pc, #20]	; 810c <irq_handler_abs_addr>
    80f4:	e59ff014 	ldr	pc, [pc, #20]	; 8110 <fast_irq_handler_abs_addr>

000080f8 <reset_handler_abs_addr>:
    80f8:	0000867c 	andeq	r8, r0, ip, ror r6

000080fc <undefined_instruction_handler_abs_addr>:
    80fc:	00008688 	andeq	r8, r0, r8, lsl #13

00008100 <software_interrupt_handler_abs_addr>:
    8100:	0000868c 	andeq	r8, r0, ip, lsl #13

00008104 <prefetch_abort_handler_abs_addr>:
    8104:	00008680 	andeq	r8, r0, r0, lsl #13

00008108 <data_abort_handler_abs_addr>:
    8108:	00008684 	andeq	r8, r0, r4, lsl #13

0000810c <irq_handler_abs_addr>:
    810c:	00008138 	andeq	r8, r0, r8, lsr r1

00008110 <fast_irq_handler_abs_addr>:
    8110:	00008690 	muleq	r0, r0, r6

00008114 <move_exception_vector>:
    8114:	e92d03f0 	push	{r4, r5, r6, r7, r8, r9}
    8118:	e59f0048 	ldr	r0, [pc, #72]	; 8168 <irq_handler_asm_wrapper+0x30>
    811c:	e3a01000 	mov	r1, #0
    8120:	e8b003fc 	ldm	r0!, {r2, r3, r4, r5, r6, r7, r8, r9}
    8124:	e8a103fc 	stmia	r1!, {r2, r3, r4, r5, r6, r7, r8, r9}
    8128:	e8b001fc 	ldm	r0!, {r2, r3, r4, r5, r6, r7, r8}
    812c:	e8a101fc 	stmia	r1!, {r2, r3, r4, r5, r6, r7, r8}
    8130:	e8bd03f0 	pop	{r4, r5, r6, r7, r8, r9}
    8134:	e12fff3e 	blx	lr

00008138 <irq_handler_asm_wrapper>:
    8138:	e24ee004 	sub	lr, lr, #4
    813c:	f96d0513 	srsdb	sp!, #19
    8140:	f10e00d3 	cpsid	if,#19
    8144:	e92d500f 	push	{r0, r1, r2, r3, ip, lr}
    8148:	e20d1004 	and	r1, sp, #4
    814c:	e04dd001 	sub	sp, sp, r1
    8150:	e52d1004 	push	{r1}		; (str r1, [sp, #-4]!)
    8154:	eb000118 	bl	85bc <irq_handler>
    8158:	e49d1004 	pop	{r1}		; (ldr r1, [sp], #4)
    815c:	e08dd001 	add	sp, sp, r1
    8160:	e8bd500f 	pop	{r0, r1, r2, r3, ip, lr}
    8164:	f8bd0a00 	rfeia	sp!
    8168:	000080d8 	ldrdeq	r8, [r0], -r8	; <UNPREDICTABLE>

0000816c <memcpy32>:
    816c:	e92d47f0 	push	{r4, r5, r6, r7, r8, r9, sl, lr}
    8170:	e8b107f8 	ldm	r1!, {r3, r4, r5, r6, r7, r8, r9, sl}
    8174:	e8a007f8 	stmia	r0!, {r3, r4, r5, r6, r7, r8, r9, sl}
    8178:	e2522001 	subs	r2, r2, #1
    817c:	1afffffb 	bne	8170 <memcpy32+0x4>
    8180:	e8bd87f0 	pop	{r4, r5, r6, r7, r8, r9, sl, pc}

00008184 <get_mem_size>:
    8184:	e5901004 	ldr	r1, [r0, #4]
    8188:	e3510000 	cmp	r1, #0
    818c:	0a00000f 	beq	81d0 <get_mem_size+0x4c>
    8190:	e59fc048 	ldr	ip, [pc, #72]	; 81e0 <get_mem_size+0x5c>
    8194:	e151000c 	cmp	r1, ip
    8198:	0a00000e 	beq	81d8 <get_mem_size+0x54>
    819c:	e3a03001 	mov	r3, #1
    81a0:	ea000002 	b	81b0 <get_mem_size+0x2c>
    81a4:	e152000c 	cmp	r2, ip
    81a8:	e2833001 	add	r3, r3, #1
    81ac:	0a000009 	beq	81d8 <get_mem_size+0x54>
    81b0:	e5902000 	ldr	r2, [r0]
    81b4:	e0800102 	add	r0, r0, r2, lsl #2
    81b8:	e5902004 	ldr	r2, [r0, #4]
    81bc:	e353000b 	cmp	r3, #11
    81c0:	13520000 	cmpne	r2, #0
    81c4:	13a01001 	movne	r1, #1
    81c8:	03a01000 	moveq	r1, #0
    81cc:	1afffff4 	bne	81a4 <get_mem_size+0x20>
    81d0:	e1a00001 	mov	r0, r1
    81d4:	e12fff1e 	bx	lr
    81d8:	e5900008 	ldr	r0, [r0, #8]
    81dc:	e12fff1e 	bx	lr
    81e0:	54410002 	strbpl	r0, [r1], #-2

000081e4 <get_info_arm>:
    81e4:	e92d4ff0 	push	{r4, r5, r6, r7, r8, r9, sl, fp, lr}
    81e8:	e1a06001 	mov	r6, r1
    81ec:	e3a05a07 	mov	r5, #28672	; 0x7000
    81f0:	e3a01030 	mov	r1, #48	; 0x30
    81f4:	e3a0c000 	mov	ip, #0
    81f8:	e59fe27c 	ldr	lr, [pc, #636]	; 847c <get_info_arm+0x298>
    81fc:	e5851000 	str	r1, [r5]
    8200:	e156000e 	cmp	r6, lr
    8204:	e585c004 	str	ip, [r5, #4]
    8208:	e24dd01c 	sub	sp, sp, #28
    820c:	e1a04000 	mov	r4, r0
    8210:	e5856008 	str	r6, [r5, #8]
    8214:	0a00006a 	beq	83c4 <get_info_arm+0x1e0>
    8218:	9a000042 	bls	8328 <get_info_arm+0x144>
    821c:	e59f125c 	ldr	r1, [pc, #604]	; 8480 <get_info_arm+0x29c>
    8220:	e1560001 	cmp	r6, r1
    8224:	0a000029 	beq	82d0 <get_info_arm+0xec>
    8228:	e2811002 	add	r1, r1, #2
    822c:	e1560001 	cmp	r6, r1
    8230:	93a01008 	movls	r1, #8
    8234:	9585100c 	strls	r1, [r5, #12]
    8238:	e3a05a07 	mov	r5, #28672	; 0x7000
    823c:	e3a00000 	mov	r0, #0
    8240:	e1cd20f0 	strd	r2, [sp]
    8244:	e1a01005 	mov	r1, r5
    8248:	e5850010 	str	r0, [r5, #16]
    824c:	e5850014 	str	r0, [r5, #20]
    8250:	e5850018 	str	r0, [r5, #24]
    8254:	e585001c 	str	r0, [r5, #28]
    8258:	e5850020 	str	r0, [r5, #32]
    825c:	e5850024 	str	r0, [r5, #36]	; 0x24
    8260:	e5850028 	str	r0, [r5, #40]	; 0x28
    8264:	e585002c 	str	r0, [r5, #44]	; 0x2c
    8268:	e3a00008 	mov	r0, #8
    826c:	eb001f28 	bl	ff14 <mbox_write>
    8270:	e3a00008 	mov	r0, #8
    8274:	eb001f10 	bl	febc <mbox_read>
    8278:	e1cd20d0 	ldrd	r2, [sp]
    827c:	e5951004 	ldr	r1, [r5, #4]
    8280:	e3510102 	cmp	r1, #-2147483648	; 0x80000000
    8284:	0a000030 	beq	834c <get_info_arm+0x168>
    8288:	e3a0b000 	mov	fp, #0
    828c:	e1a00004 	mov	r0, r4
    8290:	e1a0200b 	mov	r2, fp
    8294:	e1a0300b 	mov	r3, fp
    8298:	e1a0e00b 	mov	lr, fp
    829c:	e584b000 	str	fp, [r4]
    82a0:	e584b004 	str	fp, [r4, #4]
    82a4:	e584b008 	str	fp, [r4, #8]
    82a8:	e1c421f0 	strd	r2, [r4, #16]
    82ac:	e5c4b018 	strb	fp, [r4, #24]
    82b0:	e5c4b019 	strb	fp, [r4, #25]
    82b4:	e5c4b01a 	strb	fp, [r4, #26]
    82b8:	e5c4b01b 	strb	fp, [r4, #27]
    82bc:	e5c4b01c 	strb	fp, [r4, #28]
    82c0:	e5c4b01d 	strb	fp, [r4, #29]
    82c4:	e5c4b020 	strb	fp, [r4, #32]
    82c8:	e28dd01c 	add	sp, sp, #28
    82cc:	e8bd8ff0 	pop	{r4, r5, r6, r7, r8, r9, sl, fp, pc}
    82d0:	e3a06008 	mov	r6, #8
    82d4:	e1a01005 	mov	r1, r5
    82d8:	e585600c 	str	r6, [r5, #12]
    82dc:	e1a00006 	mov	r0, r6
    82e0:	e585c010 	str	ip, [r5, #16]
    82e4:	e585c014 	str	ip, [r5, #20]
    82e8:	e585c018 	str	ip, [r5, #24]
    82ec:	e585c01c 	str	ip, [r5, #28]
    82f0:	e585c020 	str	ip, [r5, #32]
    82f4:	e585c024 	str	ip, [r5, #36]	; 0x24
    82f8:	e585c028 	str	ip, [r5, #40]	; 0x28
    82fc:	e585c02c 	str	ip, [r5, #44]	; 0x2c
    8300:	eb001f03 	bl	ff14 <mbox_write>
    8304:	e1a00006 	mov	r0, r6
    8308:	eb001eeb 	bl	febc <mbox_read>
    830c:	e5953004 	ldr	r3, [r5, #4]
    8310:	e3530102 	cmp	r3, #-2147483648	; 0x80000000
    8314:	1affffdb 	bne	8288 <get_info_arm+0xa4>
    8318:	e3a02a07 	mov	r2, #28672	; 0x7000
    831c:	e3a03000 	mov	r3, #0
    8320:	e5922014 	ldr	r2, [r2, #20]
    8324:	ea000013 	b	8378 <get_info_arm+0x194>
    8328:	e3560001 	cmp	r6, #1
    832c:	0a000002 	beq	833c <get_info_arm+0x158>
    8330:	3affffc0 	bcc	8238 <get_info_arm+0x54>
    8334:	e3560801 	cmp	r6, #65536	; 0x10000
    8338:	9affffbe 	bls	8238 <get_info_arm+0x54>
    833c:	e3a01a07 	mov	r1, #28672	; 0x7000
    8340:	e3a00004 	mov	r0, #4
    8344:	e581000c 	str	r0, [r1, #12]
    8348:	eaffffba 	b	8238 <get_info_arm+0x54>
    834c:	e59f1128 	ldr	r1, [pc, #296]	; 847c <get_info_arm+0x298>
    8350:	e1560001 	cmp	r6, r1
    8354:	0a00002e 	beq	8414 <get_info_arm+0x230>
    8358:	9a00003f 	bls	845c <get_info_arm+0x278>
    835c:	e59f111c 	ldr	r1, [pc, #284]	; 8480 <get_info_arm+0x29c>
    8360:	e1560001 	cmp	r6, r1
    8364:	0affffeb 	beq	8318 <get_info_arm+0x134>
    8368:	e2811002 	add	r1, r1, #2
    836c:	e1560001 	cmp	r6, r1
    8370:	9595b018 	ldrls	fp, [r5, #24]
    8374:	9595a01c 	ldrls	sl, [r5, #28]
    8378:	e3a01001 	mov	r1, #1
    837c:	e1a00004 	mov	r0, r4
    8380:	e1c421f0 	strd	r2, [r4, #16]
    8384:	e59d300c 	ldr	r3, [sp, #12]
    8388:	e584b000 	str	fp, [r4]
    838c:	e5c4301a 	strb	r3, [r4, #26]
    8390:	e59d3008 	ldr	r3, [sp, #8]
    8394:	e584a004 	str	sl, [r4, #4]
    8398:	e5c4301b 	strb	r3, [r4, #27]
    839c:	e59d3010 	ldr	r3, [sp, #16]
    83a0:	e5849008 	str	r9, [r4, #8]
    83a4:	e5c4301c 	strb	r3, [r4, #28]
    83a8:	e59d3014 	ldr	r3, [sp, #20]
    83ac:	e5c48018 	strb	r8, [r4, #24]
    83b0:	e5c47019 	strb	r7, [r4, #25]
    83b4:	e5c4301d 	strb	r3, [r4, #29]
    83b8:	e5c41020 	strb	r1, [r4, #32]
    83bc:	e28dd01c 	add	sp, sp, #28
    83c0:	e8bd8ff0 	pop	{r4, r5, r6, r7, r8, r9, sl, fp, pc}
    83c4:	e3a00006 	mov	r0, #6
    83c8:	e1cd20f0 	strd	r2, [sp]
    83cc:	e1a01005 	mov	r1, r5
    83d0:	e585000c 	str	r0, [r5, #12]
    83d4:	e585c010 	str	ip, [r5, #16]
    83d8:	e3a00008 	mov	r0, #8
    83dc:	e585c014 	str	ip, [r5, #20]
    83e0:	e585c018 	str	ip, [r5, #24]
    83e4:	e585c01c 	str	ip, [r5, #28]
    83e8:	e585c020 	str	ip, [r5, #32]
    83ec:	e585c024 	str	ip, [r5, #36]	; 0x24
    83f0:	e585c028 	str	ip, [r5, #40]	; 0x28
    83f4:	e585c02c 	str	ip, [r5, #44]	; 0x2c
    83f8:	eb001ec5 	bl	ff14 <mbox_write>
    83fc:	e3a00008 	mov	r0, #8
    8400:	eb001ead 	bl	febc <mbox_read>
    8404:	e1cd20d0 	ldrd	r2, [sp]
    8408:	e5951004 	ldr	r1, [r5, #4]
    840c:	e3510102 	cmp	r1, #-2147483648	; 0x80000000
    8410:	1affff9c 	bne	8288 <get_info_arm+0xa4>
    8414:	e3a01a07 	mov	r1, #28672	; 0x7000
    8418:	e5918014 	ldr	r8, [r1, #20]
    841c:	e5917018 	ldr	r7, [r1, #24]
    8420:	e591e01c 	ldr	lr, [r1, #28]
    8424:	e591c020 	ldr	ip, [r1, #32]
    8428:	e5910024 	ldr	r0, [r1, #36]	; 0x24
    842c:	e5911028 	ldr	r1, [r1, #40]	; 0x28
    8430:	e6efe07e 	uxtb	lr, lr
    8434:	e6efc07c 	uxtb	ip, ip
    8438:	e6ef0070 	uxtb	r0, r0
    843c:	e6ef1071 	uxtb	r1, r1
    8440:	e6ef8078 	uxtb	r8, r8
    8444:	e6ef7077 	uxtb	r7, r7
    8448:	e58de00c 	str	lr, [sp, #12]
    844c:	e58dc008 	str	ip, [sp, #8]
    8450:	e58d0010 	str	r0, [sp, #16]
    8454:	e58d1014 	str	r1, [sp, #20]
    8458:	eaffffc6 	b	8378 <get_info_arm+0x194>
    845c:	e3560001 	cmp	r6, #1
    8460:	0a000002 	beq	8470 <get_info_arm+0x28c>
    8464:	3affffc3 	bcc	8378 <get_info_arm+0x194>
    8468:	e3560801 	cmp	r6, #65536	; 0x10000
    846c:	9affffc1 	bls	8378 <get_info_arm+0x194>
    8470:	e3a01a07 	mov	r1, #28672	; 0x7000
    8474:	e5919014 	ldr	r9, [r1, #20]
    8478:	eaffffbe 	b	8378 <get_info_arm+0x194>
    847c:	00010003 	andeq	r0, r1, r3
    8480:	00010004 	andeq	r0, r1, r4

00008484 <get_clock_hz>:
    8484:	e92d4070 	push	{r4, r5, r6, lr}
    8488:	e3a02004 	mov	r2, #4
    848c:	e3a04a07 	mov	r4, #28672	; 0x7000
    8490:	e3a05000 	mov	r5, #0
    8494:	e3a06008 	mov	r6, #8
    8498:	e3a03003 	mov	r3, #3
    849c:	e3a01020 	mov	r1, #32
    84a0:	e5841000 	str	r1, [r4]
    84a4:	e5845004 	str	r5, [r4, #4]
    84a8:	e1a01004 	mov	r1, r4
    84ac:	e5840008 	str	r0, [r4, #8]
    84b0:	e584600c 	str	r6, [r4, #12]
    84b4:	e1a00006 	mov	r0, r6
    84b8:	e5842010 	str	r2, [r4, #16]
    84bc:	e5843014 	str	r3, [r4, #20]
    84c0:	e5845018 	str	r5, [r4, #24]
    84c4:	e584501c 	str	r5, [r4, #28]
    84c8:	eb001e91 	bl	ff14 <mbox_write>
    84cc:	e1a00006 	mov	r0, r6
    84d0:	eb001e79 	bl	febc <mbox_read>
    84d4:	e5943004 	ldr	r3, [r4, #4]
    84d8:	e3530102 	cmp	r3, #-2147483648	; 0x80000000
    84dc:	05940018 	ldreq	r0, [r4, #24]
    84e0:	11a00005 	movne	r0, r5
    84e4:	e8bd8070 	pop	{r4, r5, r6, pc}

000084e8 <set_clock_hz>:
    84e8:	e92d4070 	push	{r4, r5, r6, lr}
    84ec:	e3a0c024 	mov	ip, #36	; 0x24
    84f0:	e3a04a07 	mov	r4, #28672	; 0x7000
    84f4:	e3a05000 	mov	r5, #0
    84f8:	e3a06008 	mov	r6, #8
    84fc:	e3a02003 	mov	r2, #3
    8500:	e3a03001 	mov	r3, #1
    8504:	e3a01012 	mov	r1, #18
    8508:	e584c000 	str	ip, [r4]
    850c:	e59fc044 	ldr	ip, [pc, #68]	; 8558 <set_clock_hz+0x70>
    8510:	e5845004 	str	r5, [r4, #4]
    8514:	e584c008 	str	ip, [r4, #8]
    8518:	e584600c 	str	r6, [r4, #12]
    851c:	e5841010 	str	r1, [r4, #16]
    8520:	e5842014 	str	r2, [r4, #20]
    8524:	e1a01004 	mov	r1, r4
    8528:	e5840018 	str	r0, [r4, #24]
    852c:	e584301c 	str	r3, [r4, #28]
    8530:	e1a00006 	mov	r0, r6
    8534:	e5845020 	str	r5, [r4, #32]
    8538:	eb001e75 	bl	ff14 <mbox_write>
    853c:	e1a00006 	mov	r0, r6
    8540:	eb001e5d 	bl	febc <mbox_read>
    8544:	e5943004 	ldr	r3, [r4, #4]
    8548:	e3530102 	cmp	r3, #-2147483648	; 0x80000000
    854c:	05940018 	ldreq	r0, [r4, #24]
    8550:	11a00005 	movne	r0, r5
    8554:	e8bd8070 	pop	{r4, r5, r6, pc}
    8558:	00038002 	andeq	r8, r3, r2

0000855c <interrupts_init>:
    855c:	e92d4010 	push	{r4, lr}
    8560:	e59f404c 	ldr	r4, [pc, #76]	; 85b4 <interrupts_init+0x58>
    8564:	e59f304c 	ldr	r3, [pc, #76]	; 85b8 <interrupts_init+0x5c>
    8568:	e08f4004 	add	r4, pc, r4
    856c:	e1a00004 	mov	r0, r4
    8570:	e3a01e12 	mov	r1, #288	; 0x120
    8574:	e4803004 	str	r3, [r0], #4
    8578:	eb00212b 	bl	10a2c <bzero>
    857c:	e2840f49 	add	r0, r4, #292	; 0x124
    8580:	e3a01e12 	mov	r1, #288	; 0x120
    8584:	eb002128 	bl	10a2c <bzero>
    8588:	e3e02000 	mvn	r2, #0
    858c:	e5943000 	ldr	r3, [r4]
    8590:	e5832024 	str	r2, [r3, #36]	; 0x24
    8594:	e583201c 	str	r2, [r3, #28]
    8598:	e5832020 	str	r2, [r3, #32]
    859c:	ebfffedc 	bl	8114 <move_exception_vector>
    85a0:	e10f3000 	mrs	r3, CPSR
    85a4:	e3130080 	tst	r3, #128	; 0x80
    85a8:	08bd8010 	popeq	{r4, pc}
    85ac:	f1080080 	cpsie	i
    85b0:	e8bd8010 	pop	{r4, pc}
    85b4:	00017a90 	muleq	r1, r0, sl
    85b8:	2000b200 	andcs	fp, r0, r0, lsl #4

000085bc <irq_handler>:
    85bc:	e92d4070 	push	{r4, r5, r6, lr}
    85c0:	e59f20ac 	ldr	r2, [pc, #172]	; 8674 <irq_handler+0xb8>
    85c4:	e59f60ac 	ldr	r6, [pc, #172]	; 8678 <irq_handler+0xbc>
    85c8:	e08f2002 	add	r2, pc, r2
    85cc:	e08f6006 	add	r6, pc, r6
    85d0:	e3a03000 	mov	r3, #0
    85d4:	e3a00001 	mov	r0, #1
    85d8:	e5921000 	ldr	r1, [r2]
    85dc:	e286c004 	add	ip, r6, #4
    85e0:	ea000002 	b	85f0 <irq_handler+0x34>
    85e4:	e2833001 	add	r3, r3, #1
    85e8:	e3530048 	cmp	r3, #72	; 0x48
    85ec:	08bd8070 	popeq	{r4, r5, r6, pc}
    85f0:	e353003f 	cmp	r3, #63	; 0x3f
    85f4:	e2432020 	sub	r2, r3, #32
    85f8:	ca000014 	bgt	8650 <irq_handler+0x94>
    85fc:	e352001f 	cmp	r2, #31
    8600:	9a000017 	bls	8664 <irq_handler+0xa8>
    8604:	e353001f 	cmp	r3, #31
    8608:	cafffff5 	bgt	85e4 <irq_handler+0x28>
    860c:	e5912004 	ldr	r2, [r1, #4]
    8610:	e0122310 	ands	r2, r2, r0, lsl r3
    8614:	0afffff2 	beq	85e4 <irq_handler+0x28>
    8618:	e79c2103 	ldr	r2, [ip, r3, lsl #2]
    861c:	e1a0e103 	lsl	lr, r3, #2
    8620:	e3520000 	cmp	r2, #0
    8624:	0affffee 	beq	85e4 <irq_handler+0x28>
    8628:	e086600e 	add	r6, r6, lr
    862c:	e5963124 	ldr	r3, [r6, #292]	; 0x124
    8630:	e12fff33 	blx	r3
    8634:	e5963004 	ldr	r3, [r6, #4]
    8638:	e12fff33 	blx	r3
    863c:	e10f3000 	mrs	r3, CPSR
    8640:	e3130080 	tst	r3, #128	; 0x80
    8644:	18bd8070 	popne	{r4, r5, r6, pc}
    8648:	f10c0080 	cpsid	i
    864c:	e8bd8070 	pop	{r4, r5, r6, pc}
    8650:	e5914000 	ldr	r4, [r1]
    8654:	e2435040 	sub	r5, r3, #64	; 0x40
    8658:	e014e510 	ands	lr, r4, r0, lsl r5
    865c:	1affffed 	bne	8618 <irq_handler+0x5c>
    8660:	eaffffe5 	b	85fc <irq_handler+0x40>
    8664:	e591e008 	ldr	lr, [r1, #8]
    8668:	e01e2210 	ands	r2, lr, r0, lsl r2
    866c:	1affffe9 	bne	8618 <irq_handler+0x5c>
    8670:	eaffffdb 	b	85e4 <irq_handler+0x28>
    8674:	00017a30 	andeq	r7, r1, r0, lsr sl
    8678:	00017a2c 	andeq	r7, r1, ip, lsr #20

0000867c <reset_handler>:
    867c:	e25ef004 	subs	pc, lr, #4

00008680 <prefetch_abort_handler>:
    8680:	e25ef004 	subs	pc, lr, #4

00008684 <data_abort_handler>:
    8684:	e25ef004 	subs	pc, lr, #4

00008688 <undefined_instruction_handler>:
    8688:	e1b0f00e 	movs	pc, lr

0000868c <software_interrupt_handler>:
    868c:	e1b0f00e 	movs	pc, lr

00008690 <fast_irq_handler>:
    8690:	e25ef004 	subs	pc, lr, #4

00008694 <register_irq_handler>:
    8694:	e59f3084 	ldr	r3, [pc, #132]	; 8720 <register_irq_handler+0x8c>
    8698:	e350003f 	cmp	r0, #63	; 0x3f
    869c:	e08f3003 	add	r3, pc, r3
    86a0:	e92d4030 	push	{r4, r5, lr}
    86a4:	e593e000 	ldr	lr, [r3]
    86a8:	8a000013 	bhi	86fc <register_irq_handler+0x68>
    86ac:	e240c020 	sub	ip, r0, #32
    86b0:	e6ef407c 	uxtb	r4, ip
    86b4:	e354001f 	cmp	r4, #31
    86b8:	9a000007 	bls	86dc <register_irq_handler+0x48>
    86bc:	e3a05001 	mov	r5, #1
    86c0:	e59e4010 	ldr	r4, [lr, #16]
    86c4:	e083c100 	add	ip, r3, r0, lsl #2
    86c8:	e1843015 	orr	r3, r4, r5, lsl r0
    86cc:	e58c1004 	str	r1, [ip, #4]
    86d0:	e58c2124 	str	r2, [ip, #292]	; 0x124
    86d4:	e58e3010 	str	r3, [lr, #16]
    86d8:	e8bd8030 	pop	{r4, r5, pc}
    86dc:	e3a04001 	mov	r4, #1
    86e0:	e0833100 	add	r3, r3, r0, lsl #2
    86e4:	e59e0014 	ldr	r0, [lr, #20]
    86e8:	e5831004 	str	r1, [r3, #4]
    86ec:	e180cc14 	orr	ip, r0, r4, lsl ip
    86f0:	e5832124 	str	r2, [r3, #292]	; 0x124
    86f4:	e58ec014 	str	ip, [lr, #20]
    86f8:	e8bd8030 	pop	{r4, r5, pc}
    86fc:	e3a04001 	mov	r4, #1
    8700:	e59ec018 	ldr	ip, [lr, #24]
    8704:	e0833100 	add	r3, r3, r0, lsl #2
    8708:	e2400040 	sub	r0, r0, #64	; 0x40
    870c:	e18c0014 	orr	r0, ip, r4, lsl r0
    8710:	e5831004 	str	r1, [r3, #4]
    8714:	e5832124 	str	r2, [r3, #292]	; 0x124
    8718:	e58e0018 	str	r0, [lr, #24]
    871c:	e8bd8030 	pop	{r4, r5, pc}
    8720:	0001795c 	andeq	r7, r1, ip, asr r9

00008724 <unregister_irq_handler>:
    8724:	e59f3088 	ldr	r3, [pc, #136]	; 87b4 <unregister_irq_handler+0x90>
    8728:	e350003f 	cmp	r0, #63	; 0x3f
    872c:	e08f3003 	add	r3, pc, r3
    8730:	e92d4010 	push	{r4, lr}
    8734:	e593c000 	ldr	ip, [r3]
    8738:	8a000013 	bhi	878c <unregister_irq_handler+0x68>
    873c:	e2402020 	sub	r2, r0, #32
    8740:	e6ef1072 	uxtb	r1, r2
    8744:	e351001f 	cmp	r1, #31
    8748:	e3a04001 	mov	r4, #1
    874c:	e3a0e000 	mov	lr, #0
    8750:	9a000006 	bls	8770 <unregister_irq_handler+0x4c>
    8754:	e59c101c 	ldr	r1, [ip, #28]
    8758:	e0832100 	add	r2, r3, r0, lsl #2
    875c:	e1813014 	orr	r3, r1, r4, lsl r0
    8760:	e582e004 	str	lr, [r2, #4]
    8764:	e582e124 	str	lr, [r2, #292]	; 0x124
    8768:	e58c301c 	str	r3, [ip, #28]
    876c:	e8bd8010 	pop	{r4, pc}
    8770:	e59c1020 	ldr	r1, [ip, #32]
    8774:	e0833100 	add	r3, r3, r0, lsl #2
    8778:	e1812214 	orr	r2, r1, r4, lsl r2
    877c:	e583e004 	str	lr, [r3, #4]
    8780:	e583e124 	str	lr, [r3, #292]	; 0x124
    8784:	e58c2020 	str	r2, [ip, #32]
    8788:	e8bd8010 	pop	{r4, pc}
    878c:	e3a0e001 	mov	lr, #1
    8790:	e3a01000 	mov	r1, #0
    8794:	e59c2024 	ldr	r2, [ip, #36]	; 0x24
    8798:	e0833100 	add	r3, r3, r0, lsl #2
    879c:	e2400040 	sub	r0, r0, #64	; 0x40
    87a0:	e182001e 	orr	r0, r2, lr, lsl r0
    87a4:	e5831004 	str	r1, [r3, #4]
    87a8:	e5831124 	str	r1, [r3, #292]	; 0x124
    87ac:	e58c0024 	str	r0, [ip, #36]	; 0x24
    87b0:	e8bd8010 	pop	{r4, pc}
    87b4:	000178cc 	andeq	r7, r1, ip, asr #17

000087b8 <append_page_list>:
    87b8:	e3a0c000 	mov	ip, #0
    87bc:	e5903008 	ldr	r3, [r0, #8]
    87c0:	e52de004 	push	{lr}		; (str lr, [sp, #-4]!)
    87c4:	e590e000 	ldr	lr, [r0]
    87c8:	e5902004 	ldr	r2, [r0, #4]
    87cc:	e2833001 	add	r3, r3, #1
    87d0:	e15e000c 	cmp	lr, ip
    87d4:	e5821008 	str	r1, [r2, #8]
    87d8:	e581200c 	str	r2, [r1, #12]
    87dc:	e5801004 	str	r1, [r0, #4]
    87e0:	e581c008 	str	ip, [r1, #8]
    87e4:	e5803008 	str	r3, [r0, #8]
    87e8:	05801000 	streq	r1, [r0]
    87ec:	e49df004 	pop	{pc}		; (ldr pc, [sp], #4)

000087f0 <push_page_list>:
    87f0:	e3a02000 	mov	r2, #0
    87f4:	e5903008 	ldr	r3, [r0, #8]
    87f8:	e52de004 	push	{lr}		; (str lr, [sp, #-4]!)
    87fc:	e8905000 	ldm	r0, {ip, lr}
    8800:	e2833001 	add	r3, r3, #1
    8804:	e15e0002 	cmp	lr, r2
    8808:	e581c008 	str	ip, [r1, #8]
    880c:	e581200c 	str	r2, [r1, #12]
    8810:	e5801000 	str	r1, [r0]
    8814:	e5803008 	str	r3, [r0, #8]
    8818:	05801004 	streq	r1, [r0, #4]
    881c:	e49df004 	pop	{pc}		; (ldr pc, [sp], #4)

00008820 <peek_page_list>:
    8820:	e5900000 	ldr	r0, [r0]
    8824:	e12fff1e 	bx	lr

00008828 <pop_page_list>:
    8828:	e1a03000 	mov	r3, r0
    882c:	e3a0c000 	mov	ip, #0
    8830:	e5900000 	ldr	r0, [r0]
    8834:	e5932008 	ldr	r2, [r3, #8]
    8838:	e5901008 	ldr	r1, [r0, #8]
    883c:	e2422001 	sub	r2, r2, #1
    8840:	e5831000 	str	r1, [r3]
    8844:	e581c00c 	str	ip, [r1, #12]
    8848:	e5832008 	str	r2, [r3, #8]
    884c:	e12fff1e 	bx	lr

00008850 <size_page_list>:
    8850:	e5900008 	ldr	r0, [r0, #8]
    8854:	e12fff1e 	bx	lr

00008858 <next_page_list>:
    8858:	e5900008 	ldr	r0, [r0, #8]
    885c:	e12fff1e 	bx	lr

00008860 <mem_init>:
    8860:	e92d47f0 	push	{r4, r5, r6, r7, r8, r9, sl, lr}
    8864:	e3a04000 	mov	r4, #0
    8868:	e24dd028 	sub	sp, sp, #40	; 0x28
    886c:	e59f114c 	ldr	r1, [pc, #332]	; 89c0 <mem_init+0x160>
    8870:	e1a0000d 	mov	r0, sp
    8874:	ebfffe5a 	bl	81e4 <get_info_arm>
    8878:	e59d7000 	ldr	r7, [sp]
    887c:	e59f9140 	ldr	r9, [pc, #320]	; 89c4 <mem_init+0x164>
    8880:	e2477502 	sub	r7, r7, #8388608	; 0x800000
    8884:	e59f513c 	ldr	r5, [pc, #316]	; 89c8 <mem_init+0x168>
    8888:	e08f9009 	add	r9, pc, r9
    888c:	e59f3138 	ldr	r3, [pc, #312]	; 89cc <mem_init+0x16c>
    8890:	e1a06627 	lsr	r6, r7, #12
    8894:	e08f5005 	add	r5, pc, r5
    8898:	e5896000 	str	r6, [r9]
    889c:	e7958003 	ldr	r8, [r5, r3]
    88a0:	e1a06206 	lsl	r6, r6, #4
    88a4:	e1a00008 	mov	r0, r8
    88a8:	e1a01006 	mov	r1, r6
    88ac:	e5898004 	str	r8, [r9, #4]
    88b0:	eb00205d 	bl	10a2c <bzero>
    88b4:	e59f3114 	ldr	r3, [pc, #276]	; 89d0 <mem_init+0x170>
    88b8:	e1a0e628 	lsr	lr, r8, #12
    88bc:	e7955003 	ldr	r5, [r5, r3]
    88c0:	e15e0004 	cmp	lr, r4
    88c4:	e28ecc01 	add	ip, lr, #256	; 0x100
    88c8:	e5854004 	str	r4, [r5, #4]
    88cc:	e5854000 	str	r4, [r5]
    88d0:	e5854008 	str	r4, [r5, #8]
    88d4:	e5990004 	ldr	r0, [r9, #4]
    88d8:	0a000036 	beq	89b8 <mem_init+0x158>
    88dc:	e1a03000 	mov	r3, r0
    88e0:	e5d32004 	ldrb	r2, [r3, #4]
    88e4:	e1a01604 	lsl	r1, r4, #12
    88e8:	e7801204 	str	r1, [r0, r4, lsl #4]
    88ec:	e2844001 	add	r4, r4, #1
    88f0:	e3822003 	orr	r2, r2, #3
    88f4:	e15e0004 	cmp	lr, r4
    88f8:	e5c32004 	strb	r2, [r3, #4]
    88fc:	e2833010 	add	r3, r3, #16
    8900:	1afffff6 	bne	88e0 <mem_init+0x80>
    8904:	e15c0004 	cmp	ip, r4
    8908:	9a00000a 	bls	8938 <mem_init+0xd8>
    890c:	e1a01604 	lsl	r1, r4, #12
    8910:	e0803204 	add	r3, r0, r4, lsl #4
    8914:	e5d32004 	ldrb	r2, [r3, #4]
    8918:	e7801204 	str	r1, [r0, r4, lsl #4]
    891c:	e2844001 	add	r4, r4, #1
    8920:	e3822005 	orr	r2, r2, #5
    8924:	e15c0004 	cmp	ip, r4
    8928:	e5c32004 	strb	r2, [r3, #4]
    892c:	e2811a01 	add	r1, r1, #4096	; 0x1000
    8930:	e2833010 	add	r3, r3, #16
    8934:	8afffff6 	bhi	8914 <mem_init+0xb4>
    8938:	e59fa094 	ldr	sl, [pc, #148]	; 89d4 <mem_init+0x174>
    893c:	e08fa00a 	add	sl, pc, sl
    8940:	e59a3000 	ldr	r3, [sl]
    8944:	e1530004 	cmp	r3, r4
    8948:	9a00000d 	bls	8984 <mem_init+0x124>
    894c:	e1a09204 	lsl	r9, r4, #4
    8950:	e59a3004 	ldr	r3, [sl, #4]
    8954:	e1a00005 	mov	r0, r5
    8958:	e0833009 	add	r3, r3, r9
    895c:	e5d32004 	ldrb	r2, [r3, #4]
    8960:	e1a01003 	mov	r1, r3
    8964:	e3c22001 	bic	r2, r2, #1
    8968:	e5c32004 	strb	r2, [r3, #4]
    896c:	ebffff91 	bl	87b8 <append_page_list>
    8970:	e59a3000 	ldr	r3, [sl]
    8974:	e2844001 	add	r4, r4, #1
    8978:	e1530004 	cmp	r3, r4
    897c:	e2899010 	add	r9, r9, #16
    8980:	8afffff2 	bhi	8950 <mem_init+0xf0>
    8984:	e59f404c 	ldr	r4, [pc, #76]	; 89d8 <mem_init+0x178>
    8988:	e0886006 	add	r6, r8, r6
    898c:	e08f4004 	add	r4, pc, r4
    8990:	e1a00006 	mov	r0, r6
    8994:	e3a01010 	mov	r1, #16
    8998:	e5846008 	str	r6, [r4, #8]
    899c:	eb002022 	bl	10a2c <bzero>
    89a0:	e3a02601 	mov	r2, #1048576	; 0x100000
    89a4:	e1a00007 	mov	r0, r7
    89a8:	e5943008 	ldr	r3, [r4, #8]
    89ac:	e583200c 	str	r2, [r3, #12]
    89b0:	e28dd028 	add	sp, sp, #40	; 0x28
    89b4:	e8bd87f0 	pop	{r4, r5, r6, r7, r8, r9, sl, pc}
    89b8:	e1a0400e 	mov	r4, lr
    89bc:	eaffffd2 	b	890c <mem_init+0xac>
    89c0:	00010005 	andeq	r0, r1, r5
    89c4:	000179b4 			; <UNDEFINED> instruction: 0x000179b4
    89c8:	000165e4 	andeq	r6, r1, r4, ror #11
    89cc:	00000130 	andeq	r0, r0, r0, lsr r1
    89d0:	000000ac 	andeq	r0, r0, ip, lsr #1
    89d4:	00017900 	andeq	r7, r1, r0, lsl #18
    89d8:	000178b0 			; <UNDEFINED> instruction: 0x000178b0

000089dc <alloc_page>:
    89dc:	e92d4070 	push	{r4, r5, r6, lr}
    89e0:	e59f3054 	ldr	r3, [pc, #84]	; 8a3c <alloc_page+0x60>
    89e4:	e59f2054 	ldr	r2, [pc, #84]	; 8a40 <alloc_page+0x64>
    89e8:	e08f3003 	add	r3, pc, r3
    89ec:	e7935002 	ldr	r5, [r3, r2]
    89f0:	e1a00005 	mov	r0, r5
    89f4:	ebffff95 	bl	8850 <size_page_list>
    89f8:	e2504000 	subs	r4, r0, #0
    89fc:	0a00000c 	beq	8a34 <alloc_page+0x58>
    8a00:	e1a00005 	mov	r0, r5
    8a04:	ebffff87 	bl	8828 <pop_page_list>
    8a08:	e59f2034 	ldr	r2, [pc, #52]	; 8a44 <alloc_page+0x68>
    8a0c:	e5d03004 	ldrb	r3, [r0, #4]
    8a10:	e08f2002 	add	r2, pc, r2
    8a14:	e5924004 	ldr	r4, [r2, #4]
    8a18:	e3833003 	orr	r3, r3, #3
    8a1c:	e0404004 	sub	r4, r0, r4
    8a20:	e1a04404 	lsl	r4, r4, #8
    8a24:	e5c03004 	strb	r3, [r0, #4]
    8a28:	e3a01a01 	mov	r1, #4096	; 0x1000
    8a2c:	e1a00004 	mov	r0, r4
    8a30:	eb001ffd 	bl	10a2c <bzero>
    8a34:	e1a00004 	mov	r0, r4
    8a38:	e8bd8070 	pop	{r4, r5, r6, pc}
    8a3c:	00016490 	muleq	r1, r0, r4
    8a40:	000000ac 	andeq	r0, r0, ip, lsr #1
    8a44:	0001782c 	andeq	r7, r1, ip, lsr #16

00008a48 <free_page>:
    8a48:	e59f302c 	ldr	r3, [pc, #44]	; 8a7c <free_page+0x34>
    8a4c:	e1a00620 	lsr	r0, r0, #12
    8a50:	e08f3003 	add	r3, pc, r3
    8a54:	e5931004 	ldr	r1, [r3, #4]
    8a58:	e59f3020 	ldr	r3, [pc, #32]	; 8a80 <free_page+0x38>
    8a5c:	e0811200 	add	r1, r1, r0, lsl #4
    8a60:	e5d10004 	ldrb	r0, [r1, #4]
    8a64:	e59f2018 	ldr	r2, [pc, #24]	; 8a84 <free_page+0x3c>
    8a68:	e3c00001 	bic	r0, r0, #1
    8a6c:	e08f3003 	add	r3, pc, r3
    8a70:	e5c10004 	strb	r0, [r1, #4]
    8a74:	e7930002 	ldr	r0, [r3, r2]
    8a78:	eaffff4e 	b	87b8 <append_page_list>
    8a7c:	000177ec 	andeq	r7, r1, ip, ror #15
    8a80:	0001640c 	andeq	r6, r1, ip, lsl #8
    8a84:	000000ac 	andeq	r0, r0, ip, lsr #1

00008a88 <kmalloc>:
    8a88:	e92d4070 	push	{r4, r5, r6, lr}
    8a8c:	e2805010 	add	r5, r0, #16
    8a90:	e215300f 	ands	r3, r5, #15
    8a94:	12800020 	addne	r0, r0, #32
    8a98:	10405003 	subne	r5, r0, r3
    8a9c:	e59f30b0 	ldr	r3, [pc, #176]	; 8b54 <kmalloc+0xcc>
    8aa0:	e08f3003 	add	r3, pc, r3
    8aa4:	e5930008 	ldr	r0, [r3, #8]
    8aa8:	e3500000 	cmp	r0, #0
    8aac:	08bd8070 	popeq	{r4, r5, r6, pc}
    8ab0:	e3e01102 	mvn	r1, #-2147483648	; 0x80000000
    8ab4:	e3a04000 	mov	r4, #0
    8ab8:	e1c020d8 	ldrd	r2, [r0, #8]
    8abc:	e3520000 	cmp	r2, #0
    8ac0:	e0433005 	sub	r3, r3, r5
    8ac4:	1a000007 	bne	8ae8 <kmalloc+0x60>
    8ac8:	e1530001 	cmp	r3, r1
    8acc:	b3a02001 	movlt	r2, #1
    8ad0:	a3a02000 	movge	r2, #0
    8ad4:	e3530000 	cmp	r3, #0
    8ad8:	b3a02000 	movlt	r2, #0
    8adc:	e3520000 	cmp	r2, #0
    8ae0:	11a01003 	movne	r1, r3
    8ae4:	11a04000 	movne	r4, r0
    8ae8:	e5900000 	ldr	r0, [r0]
    8aec:	e3500000 	cmp	r0, #0
    8af0:	1afffff0 	bne	8ab8 <kmalloc+0x30>
    8af4:	e3540000 	cmp	r4, #0
    8af8:	0a000013 	beq	8b4c <kmalloc+0xc4>
    8afc:	e3510020 	cmp	r1, #32
    8b00:	ca000003 	bgt	8b14 <kmalloc+0x8c>
    8b04:	e3a03001 	mov	r3, #1
    8b08:	e2840010 	add	r0, r4, #16
    8b0c:	e5843008 	str	r3, [r4, #8]
    8b10:	e8bd8070 	pop	{r4, r5, r6, pc}
    8b14:	e0846005 	add	r6, r4, r5
    8b18:	e1a00006 	mov	r0, r6
    8b1c:	e3a01010 	mov	r1, #16
    8b20:	eb001fc1 	bl	10a2c <bzero>
    8b24:	e5942000 	ldr	r2, [r4]
    8b28:	e594300c 	ldr	r3, [r4, #12]
    8b2c:	e5846000 	str	r6, [r4]
    8b30:	e7842005 	str	r2, [r4, r5]
    8b34:	e5942000 	ldr	r2, [r4]
    8b38:	e0433005 	sub	r3, r3, r5
    8b3c:	e5824004 	str	r4, [r2, #4]
    8b40:	e582300c 	str	r3, [r2, #12]
    8b44:	e584500c 	str	r5, [r4, #12]
    8b48:	eaffffed 	b	8b04 <kmalloc+0x7c>
    8b4c:	e1a00004 	mov	r0, r4
    8b50:	e8bd8070 	pop	{r4, r5, r6, pc}
    8b54:	0001779c 	muleq	r1, ip, r7

00008b58 <kfree>:
    8b58:	e3500000 	cmp	r0, #0
    8b5c:	012fff1e 	bxeq	lr
    8b60:	e3a03000 	mov	r3, #0
    8b64:	e510200c 	ldr	r2, [r0, #-12]
    8b68:	e5003008 	str	r3, [r0, #-8]
    8b6c:	e1520003 	cmp	r2, r3
    8b70:	e2403010 	sub	r3, r0, #16
    8b74:	0a000012 	beq	8bc4 <kfree+0x6c>
    8b78:	e5921008 	ldr	r1, [r2, #8]
    8b7c:	e3510000 	cmp	r1, #0
    8b80:	1a00000f 	bne	8bc4 <kfree+0x6c>
    8b84:	e5101004 	ldr	r1, [r0, #-4]
    8b88:	ea000002 	b	8b98 <kfree+0x40>
    8b8c:	e5920008 	ldr	r0, [r2, #8]
    8b90:	e3500000 	cmp	r0, #0
    8b94:	1a00000a 	bne	8bc4 <kfree+0x6c>
    8b98:	e5930000 	ldr	r0, [r3]
    8b9c:	e5820000 	str	r0, [r2]
    8ba0:	e5930000 	ldr	r0, [r3]
    8ba4:	e5802004 	str	r2, [r0, #4]
    8ba8:	e5933004 	ldr	r3, [r3, #4]
    8bac:	e593000c 	ldr	r0, [r3, #12]
    8bb0:	e5932004 	ldr	r2, [r3, #4]
    8bb4:	e0811000 	add	r1, r1, r0
    8bb8:	e3520000 	cmp	r2, #0
    8bbc:	e583100c 	str	r1, [r3, #12]
    8bc0:	1afffff1 	bne	8b8c <kfree+0x34>
    8bc4:	e5932000 	ldr	r2, [r3]
    8bc8:	e3520000 	cmp	r2, #0
    8bcc:	012fff1e 	bxeq	lr
    8bd0:	e5921008 	ldr	r1, [r2, #8]
    8bd4:	e3510000 	cmp	r1, #0
    8bd8:	112fff1e 	bxne	lr
    8bdc:	e593100c 	ldr	r1, [r3, #12]
    8be0:	e5922000 	ldr	r2, [r2]
    8be4:	e592c00c 	ldr	ip, [r2, #12]
    8be8:	e5920008 	ldr	r0, [r2, #8]
    8bec:	e081100c 	add	r1, r1, ip
    8bf0:	e3500000 	cmp	r0, #0
    8bf4:	e5823004 	str	r3, [r2, #4]
    8bf8:	e5832000 	str	r2, [r3]
    8bfc:	e583100c 	str	r1, [r3, #12]
    8c00:	0afffff6 	beq	8be0 <kfree+0x88>
    8c04:	e12fff1e 	bx	lr

00008c08 <__locale_ctype_ptr>:
    8c08:	e3a00000 	mov	r0, #0
    8c0c:	e12fff1e 	bx	lr

00008c10 <funcKey>:
    8c10:	e59fc0bc 	ldr	ip, [pc, #188]	; 8cd4 <funcKey+0xc4>
    8c14:	e92d40f0 	push	{r4, r5, r6, r7, lr}
    8c18:	e3500000 	cmp	r0, #0
    8c1c:	e08fc00c 	add	ip, pc, ip
    8c20:	e59de014 	ldr	lr, [sp, #20]
    8c24:	e59d0018 	ldr	r0, [sp, #24]
    8c28:	1a000021 	bne	8cb4 <funcKey+0xa4>
    8c2c:	e59f40a4 	ldr	r4, [pc, #164]	; 8cd8 <funcKey+0xc8>
    8c30:	e59f00a4 	ldr	r0, [pc, #164]	; 8cdc <funcKey+0xcc>
    8c34:	e79c4004 	ldr	r4, [ip, r4]
    8c38:	e79c0000 	ldr	r0, [ip, r0]
    8c3c:	e5944000 	ldr	r4, [r4]
    8c40:	e5900000 	ldr	r0, [r0]
    8c44:	e244400a 	sub	r4, r4, #10
    8c48:	e1540000 	cmp	r4, r0
    8c4c:	82800001 	addhi	r0, r0, #1
    8c50:	90800100 	addls	r0, r0, r0, lsl #2
    8c54:	80800100 	addhi	r0, r0, r0, lsl #2
    8c58:	91a00080 	lslls	r0, r0, #1
    8c5c:	81a00080 	lslhi	r0, r0, #1
    8c60:	9240006e 	subls	r0, r0, #110	; 0x6e
    8c64:	e3a07009 	mov	r7, #9
    8c68:	e3e06024 	mvn	r6, #36	; 0x24
    8c6c:	e3a05000 	mov	r5, #0
    8c70:	e59f4068 	ldr	r4, [pc, #104]	; 8ce0 <funcKey+0xd0>
    8c74:	e79cc004 	ldr	ip, [ip, r4]
    8c78:	e1a0442e 	lsr	r4, lr, #8
    8c7c:	e5cce003 	strb	lr, [ip, #3]
    8c80:	e1a0e420 	lsr	lr, r0, #8
    8c84:	e5cc0005 	strb	r0, [ip, #5]
    8c88:	e5cc1006 	strb	r1, [ip, #6]
    8c8c:	e5cc2007 	strb	r2, [ip, #7]
    8c90:	e5cc3009 	strb	r3, [ip, #9]
    8c94:	e5cc4002 	strb	r4, [ip, #2]
    8c98:	e5cce004 	strb	lr, [ip, #4]
    8c9c:	e5cc7000 	strb	r7, [ip]
    8ca0:	e5cc6001 	strb	r6, [ip, #1]
    8ca4:	e5cc5008 	strb	r5, [ip, #8]
    8ca8:	e1a0000c 	mov	r0, ip
    8cac:	e8bd40f0 	pop	{r4, r5, r6, r7, lr}
    8cb0:	ea002f14 	b	14908 <commVDG>
    8cb4:	e59f4028 	ldr	r4, [pc, #40]	; 8ce4 <funcKey+0xd4>
    8cb8:	e79c4004 	ldr	r4, [ip, r4]
    8cbc:	e5944000 	ldr	r4, [r4]
    8cc0:	e2444064 	sub	r4, r4, #100	; 0x64
    8cc4:	e1540000 	cmp	r4, r0
    8cc8:	82800001 	addhi	r0, r0, #1
    8ccc:	92400064 	subls	r0, r0, #100	; 0x64
    8cd0:	eaffffe3 	b	8c64 <funcKey+0x54>
    8cd4:	0001625c 	andeq	r6, r1, ip, asr r2
    8cd8:	000000e4 	andeq	r0, r0, r4, ror #1
    8cdc:	0000020c 	andeq	r0, r0, ip, lsl #4
    8ce0:	00000164 	andeq	r0, r0, r4, ror #2
    8ce4:	0000012c 	andeq	r0, r0, ip, lsr #2

00008ce8 <fsMountDisk>:
    8ce8:	e92d41f0 	push	{r4, r5, r6, r7, r8, lr}
    8cec:	e59f6178 	ldr	r6, [pc, #376]	; 8e6c <fsMountDisk+0x184>
    8cf0:	e59f3178 	ldr	r3, [pc, #376]	; 8e70 <fsMountDisk+0x188>
    8cf4:	e08f6006 	add	r6, pc, r6
    8cf8:	e7965003 	ldr	r5, [r6, r3]
    8cfc:	e5d50000 	ldrb	r0, [r5]
    8d00:	eb00448f 	bl	19f44 <disk_initialize>
    8d04:	e2108001 	ands	r8, r0, #1
    8d08:	13a080e3 	movne	r8, #227	; 0xe3
    8d0c:	1a00000d 	bne	8d48 <fsMountDisk+0x60>
    8d10:	e3a04004 	mov	r4, #4
    8d14:	e59f3158 	ldr	r3, [pc, #344]	; 8e74 <fsMountDisk+0x18c>
    8d18:	e7967003 	ldr	r7, [r6, r3]
    8d1c:	e3a03001 	mov	r3, #1
    8d20:	e3a02000 	mov	r2, #0
    8d24:	e5971000 	ldr	r1, [r7]
    8d28:	e5d50000 	ldrb	r0, [r5]
    8d2c:	eb004496 	bl	19f8c <disk_read>
    8d30:	e3500000 	cmp	r0, #0
    8d34:	e2443001 	sub	r3, r4, #1
    8d38:	0a000004 	beq	8d50 <fsMountDisk+0x68>
    8d3c:	e21340ff 	ands	r4, r3, #255	; 0xff
    8d40:	1afffff5 	bne	8d1c <fsMountDisk+0x34>
    8d44:	e3a080e1 	mov	r8, #225	; 0xe1
    8d48:	e1a00008 	mov	r0, r8
    8d4c:	e8bd81f0 	pop	{r4, r5, r6, r7, r8, pc}
    8d50:	e59f2120 	ldr	r2, [pc, #288]	; 8e78 <fsMountDisk+0x190>
    8d54:	e5973000 	ldr	r3, [r7]
    8d58:	e7964002 	ldr	r4, [r6, r2]
    8d5c:	e5d321c9 	ldrb	r2, [r3, #457]	; 0x1c9
    8d60:	e5940000 	ldr	r0, [r4]
    8d64:	e1a02c02 	lsl	r2, r2, #24
    8d68:	e5802000 	str	r2, [r0]
    8d6c:	e5d3c1c8 	ldrb	ip, [r3, #456]	; 0x1c8
    8d70:	e1a01003 	mov	r1, r3
    8d74:	e182280c 	orr	r2, r2, ip, lsl #16
    8d78:	e5802000 	str	r2, [r0]
    8d7c:	e5d3c1c7 	ldrb	ip, [r3, #455]	; 0x1c7
    8d80:	e182240c 	orr	r2, r2, ip, lsl #8
    8d84:	e5802000 	str	r2, [r0]
    8d88:	e5d3c1c6 	ldrb	ip, [r3, #454]	; 0x1c6
    8d8c:	e3a03001 	mov	r3, #1
    8d90:	e18c2002 	orr	r2, ip, r2
    8d94:	e5802000 	str	r2, [r0]
    8d98:	e5d50000 	ldrb	r0, [r5]
    8d9c:	eb00447a 	bl	19f8c <disk_read>
    8da0:	e3500000 	cmp	r0, #0
    8da4:	1affffe6 	bne	8d44 <fsMountDisk+0x5c>
    8da8:	e5943000 	ldr	r3, [r4]
    8dac:	e5972000 	ldr	r2, [r7]
    8db0:	e5c30020 	strb	r0, [r3, #32]
    8db4:	e5d2e00e 	ldrb	lr, [r2, #14]
    8db8:	e5931000 	ldr	r1, [r3]
    8dbc:	e5c3e020 	strb	lr, [r3, #32]
    8dc0:	e081100e 	add	r1, r1, lr
    8dc4:	e5831004 	str	r1, [r3, #4]
    8dc8:	e5d2100c 	ldrb	r1, [r2, #12]
    8dcc:	e3a00003 	mov	r0, #3
    8dd0:	e1a01401 	lsl	r1, r1, #8
    8dd4:	e5831018 	str	r1, [r3, #24]
    8dd8:	e5d2c00b 	ldrb	ip, [r2, #11]
    8ddc:	e18c1001 	orr	r1, ip, r1
    8de0:	e5831018 	str	r1, [r3, #24]
    8de4:	e5d2100d 	ldrb	r1, [r2, #13]
    8de8:	e5c31021 	strb	r1, [r3, #33]	; 0x21
    8dec:	e5d21027 	ldrb	r1, [r2, #39]	; 0x27
    8df0:	e1a01c01 	lsl	r1, r1, #24
    8df4:	e583101c 	str	r1, [r3, #28]
    8df8:	e5d2c026 	ldrb	ip, [r2, #38]	; 0x26
    8dfc:	e181180c 	orr	r1, r1, ip, lsl #16
    8e00:	e583101c 	str	r1, [r3, #28]
    8e04:	e5d2c025 	ldrb	ip, [r2, #37]	; 0x25
    8e08:	e181140c 	orr	r1, r1, ip, lsl #8
    8e0c:	e583101c 	str	r1, [r3, #28]
    8e10:	e5d2c024 	ldrb	ip, [r2, #36]	; 0x24
    8e14:	e18cc001 	orr	ip, ip, r1
    8e18:	e583c01c 	str	ip, [r3, #28]
    8e1c:	e5d2102f 	ldrb	r1, [r2, #47]	; 0x2f
    8e20:	e08ec08c 	add	ip, lr, ip, lsl #1
    8e24:	e1a01c01 	lsl	r1, r1, #24
    8e28:	e5831008 	str	r1, [r3, #8]
    8e2c:	e5d2e02e 	ldrb	lr, [r2, #46]	; 0x2e
    8e30:	e181180e 	orr	r1, r1, lr, lsl #16
    8e34:	e5831008 	str	r1, [r3, #8]
    8e38:	e5d2e02d 	ldrb	lr, [r2, #45]	; 0x2d
    8e3c:	e181140e 	orr	r1, r1, lr, lsl #8
    8e40:	e5831008 	str	r1, [r3, #8]
    8e44:	e5d2202c 	ldrb	r2, [r2, #44]	; 0x2c
    8e48:	e59fe02c 	ldr	lr, [pc, #44]	; 8e7c <fsMountDisk+0x194>
    8e4c:	e1821001 	orr	r1, r2, r1
    8e50:	e583c00c 	str	ip, [r3, #12]
    8e54:	e5831008 	str	r1, [r3, #8]
    8e58:	e5c30022 	strb	r0, [r3, #34]	; 0x22
    8e5c:	e796300e 	ldr	r3, [r6, lr]
    8e60:	e1a00008 	mov	r0, r8
    8e64:	e5831000 	str	r1, [r3]
    8e68:	e8bd81f0 	pop	{r4, r5, r6, r7, r8, pc}
    8e6c:	00016184 	andeq	r6, r1, r4, lsl #3
    8e70:	0000003c 	andeq	r0, r0, ip, lsr r0
    8e74:	0000002c 	andeq	r0, r0, ip, lsr #32
    8e78:	0000008c 	andeq	r0, r0, ip, lsl #1
    8e7c:	000001bc 			; <UNDEFINED> instruction: 0x000001bc

00008e80 <fsSetClusterDir>:
    8e80:	e59f3010 	ldr	r3, [pc, #16]	; 8e98 <fsSetClusterDir+0x18>
    8e84:	e59f2010 	ldr	r2, [pc, #16]	; 8e9c <fsSetClusterDir+0x1c>
    8e88:	e08f3003 	add	r3, pc, r3
    8e8c:	e7933002 	ldr	r3, [r3, r2]
    8e90:	e5830000 	str	r0, [r3]
    8e94:	e12fff1e 	bx	lr
    8e98:	00015ff0 	strdeq	r5, [r1], -r0
    8e9c:	000001bc 			; <UNDEFINED> instruction: 0x000001bc

00008ea0 <fsGetClusterDir>:
    8ea0:	e59f3010 	ldr	r3, [pc, #16]	; 8eb8 <fsGetClusterDir+0x18>
    8ea4:	e59f2010 	ldr	r2, [pc, #16]	; 8ebc <fsGetClusterDir+0x1c>
    8ea8:	e08f3003 	add	r3, pc, r3
    8eac:	e7933002 	ldr	r3, [r3, r2]
    8eb0:	e5930000 	ldr	r0, [r3]
    8eb4:	e12fff1e 	bx	lr
    8eb8:	00015fd0 	ldrdeq	r5, [r1], -r0
    8ebc:	000001bc 			; <UNDEFINED> instruction: 0x000001bc

00008ec0 <fsPwdDir>:
    8ec0:	e59f303c 	ldr	r3, [pc, #60]	; 8f04 <fsPwdDir+0x44>
    8ec4:	e59f103c 	ldr	r1, [pc, #60]	; 8f08 <fsPwdDir+0x48>
    8ec8:	e08f3003 	add	r3, pc, r3
    8ecc:	e7931001 	ldr	r1, [r3, r1]
    8ed0:	e59f2034 	ldr	r2, [pc, #52]	; 8f0c <fsPwdDir+0x4c>
    8ed4:	e5911000 	ldr	r1, [r1]
    8ed8:	e7932002 	ldr	r2, [r3, r2]
    8edc:	e5911008 	ldr	r1, [r1, #8]
    8ee0:	e5922000 	ldr	r2, [r2]
    8ee4:	e3a03000 	mov	r3, #0
    8ee8:	e1510002 	cmp	r1, r2
    8eec:	03a0202f 	moveq	r2, #47	; 0x2f
    8ef0:	13a0206f 	movne	r2, #111	; 0x6f
    8ef4:	e5c03001 	strb	r3, [r0, #1]
    8ef8:	e5c02000 	strb	r2, [r0]
    8efc:	e3a00000 	mov	r0, #0
    8f00:	e12fff1e 	bx	lr
    8f04:	00015fb0 			; <UNDEFINED> instruction: 0x00015fb0
    8f08:	0000008c 	andeq	r0, r0, ip, lsl #1
    8f0c:	000001bc 			; <UNDEFINED> instruction: 0x000001bc

00008f10 <fsSectorRead>:
    8f10:	e92d4010 	push	{r4, lr}
    8f14:	e59f303c 	ldr	r3, [pc, #60]	; 8f58 <fsSectorRead+0x48>
    8f18:	e59fc03c 	ldr	ip, [pc, #60]	; 8f5c <fsSectorRead+0x4c>
    8f1c:	e08f3003 	add	r3, pc, r3
    8f20:	e1a02000 	mov	r2, r0
    8f24:	e793000c 	ldr	r0, [r3, ip]
    8f28:	e3a03001 	mov	r3, #1
    8f2c:	e5d00000 	ldrb	r0, [r0]
    8f30:	eb004415 	bl	19f8c <disk_read>
    8f34:	e2501000 	subs	r1, r0, #0
    8f38:	1a000001 	bne	8f44 <fsSectorRead+0x34>
    8f3c:	e3a00001 	mov	r0, #1
    8f40:	e8bd8010 	pop	{r4, pc}
    8f44:	e59f0014 	ldr	r0, [pc, #20]	; 8f60 <fsSectorRead+0x50>
    8f48:	e08f0000 	add	r0, pc, r0
    8f4c:	eb001d95 	bl	105a8 <printf>
    8f50:	e3a00000 	mov	r0, #0
    8f54:	e8bd8010 	pop	{r4, pc}
    8f58:	00015f5c 	andeq	r5, r1, ip, asr pc
    8f5c:	0000003c 	andeq	r0, r0, ip, lsr r0
    8f60:	000127d8 	ldrdeq	r2, [r1], -r8

00008f64 <fsSectorWrite>:
    8f64:	e92d4010 	push	{r4, lr}
    8f68:	e59f303c 	ldr	r3, [pc, #60]	; 8fac <fsSectorWrite+0x48>
    8f6c:	e59fc03c 	ldr	ip, [pc, #60]	; 8fb0 <fsSectorWrite+0x4c>
    8f70:	e08f3003 	add	r3, pc, r3
    8f74:	e1a02000 	mov	r2, r0
    8f78:	e793000c 	ldr	r0, [r3, ip]
    8f7c:	e3a03001 	mov	r3, #1
    8f80:	e5d00000 	ldrb	r0, [r0]
    8f84:	eb00441a 	bl	19ff4 <disk_write>
    8f88:	e2501000 	subs	r1, r0, #0
    8f8c:	1a000001 	bne	8f98 <fsSectorWrite+0x34>
    8f90:	e3a00001 	mov	r0, #1
    8f94:	e8bd8010 	pop	{r4, pc}
    8f98:	e59f0014 	ldr	r0, [pc, #20]	; 8fb4 <fsSectorWrite+0x50>
    8f9c:	e08f0000 	add	r0, pc, r0
    8fa0:	eb001d80 	bl	105a8 <printf>
    8fa4:	e3a00000 	mov	r0, #0
    8fa8:	e8bd8010 	pop	{r4, pc}
    8fac:	00015f08 	andeq	r5, r1, r8, lsl #30
    8fb0:	0000003c 	andeq	r0, r0, ip, lsr r0
    8fb4:	000127a0 	andeq	r2, r1, r0, lsr #15

00008fb8 <fsUpdateDir>:
    8fb8:	e92d4070 	push	{r4, r5, r6, lr}
    8fbc:	e59f3188 	ldr	r3, [pc, #392]	; 914c <fsUpdateDir+0x194>
    8fc0:	e59f1188 	ldr	r1, [pc, #392]	; 9150 <fsUpdateDir+0x198>
    8fc4:	e08f3003 	add	r3, pc, r3
    8fc8:	e7935001 	ldr	r5, [r3, r1]
    8fcc:	e59f2180 	ldr	r2, [pc, #384]	; 9154 <fsUpdateDir+0x19c>
    8fd0:	e7934002 	ldr	r4, [r3, r2]
    8fd4:	e5952000 	ldr	r2, [r5]
    8fd8:	e5941000 	ldr	r1, [r4]
    8fdc:	e592002c 	ldr	r0, [r2, #44]	; 0x2c
    8fe0:	ebffffca 	bl	8f10 <fsSectorRead>
    8fe4:	e3500000 	cmp	r0, #0
    8fe8:	0a000055 	beq	9144 <fsUpdateDir+0x18c>
    8fec:	e5950000 	ldr	r0, [r5]
    8ff0:	e3a03000 	mov	r3, #0
    8ff4:	e5901030 	ldr	r1, [r0, #48]	; 0x30
    8ff8:	ea000000 	b	9000 <fsUpdateDir+0x48>
    8ffc:	e5950000 	ldr	r0, [r5]
    9000:	e5942000 	ldr	r2, [r4]
    9004:	e7d00003 	ldrb	r0, [r0, r3]
    9008:	e0822003 	add	r2, r2, r3
    900c:	e2833001 	add	r3, r3, #1
    9010:	e3530008 	cmp	r3, #8
    9014:	e7c20001 	strb	r0, [r2, r1]
    9018:	1afffff7 	bne	8ffc <fsUpdateDir+0x44>
    901c:	e3a03000 	mov	r3, #0
    9020:	e281c008 	add	ip, r1, #8
    9024:	e5950000 	ldr	r0, [r5]
    9028:	e5942000 	ldr	r2, [r4]
    902c:	e0800003 	add	r0, r0, r3
    9030:	e0822003 	add	r2, r2, r3
    9034:	e5d00009 	ldrb	r0, [r0, #9]
    9038:	e2833001 	add	r3, r3, #1
    903c:	e3530003 	cmp	r3, #3
    9040:	e7c2000c 	strb	r0, [r2, ip]
    9044:	1afffff6 	bne	9024 <fsUpdateDir+0x6c>
    9048:	e5952000 	ldr	r2, [r5]
    904c:	e5943000 	ldr	r3, [r4]
    9050:	e5922018 	ldr	r2, [r2, #24]
    9054:	e0833001 	add	r3, r3, r1
    9058:	e5c32012 	strb	r2, [r3, #18]
    905c:	e5952000 	ldr	r2, [r5]
    9060:	e5943000 	ldr	r3, [r4]
    9064:	e5922018 	ldr	r2, [r2, #24]
    9068:	e0833001 	add	r3, r3, r1
    906c:	e1a02422 	lsr	r2, r2, #8
    9070:	e5c32013 	strb	r2, [r3, #19]
    9074:	e5952000 	ldr	r2, [r5]
    9078:	e5943000 	ldr	r3, [r4]
    907c:	e5922020 	ldr	r2, [r2, #32]
    9080:	e0833001 	add	r3, r3, r1
    9084:	e5c32016 	strb	r2, [r3, #22]
    9088:	e5952000 	ldr	r2, [r5]
    908c:	e5943000 	ldr	r3, [r4]
    9090:	e5922020 	ldr	r2, [r2, #32]
    9094:	e0833001 	add	r3, r3, r1
    9098:	e1a02422 	lsr	r2, r2, #8
    909c:	e5c32017 	strb	r2, [r3, #23]
    90a0:	e5952000 	ldr	r2, [r5]
    90a4:	e5943000 	ldr	r3, [r4]
    90a8:	e592201c 	ldr	r2, [r2, #28]
    90ac:	e0833001 	add	r3, r3, r1
    90b0:	e5c32018 	strb	r2, [r3, #24]
    90b4:	e5952000 	ldr	r2, [r5]
    90b8:	e5943000 	ldr	r3, [r4]
    90bc:	e592201c 	ldr	r2, [r2, #28]
    90c0:	e0833001 	add	r3, r3, r1
    90c4:	e1a02422 	lsr	r2, r2, #8
    90c8:	e5c32019 	strb	r2, [r3, #25]
    90cc:	e5952000 	ldr	r2, [r5]
    90d0:	e5943000 	ldr	r3, [r4]
    90d4:	e5922028 	ldr	r2, [r2, #40]	; 0x28
    90d8:	e0833001 	add	r3, r3, r1
    90dc:	e5c3201c 	strb	r2, [r3, #28]
    90e0:	e5952000 	ldr	r2, [r5]
    90e4:	e5943000 	ldr	r3, [r4]
    90e8:	e5922028 	ldr	r2, [r2, #40]	; 0x28
    90ec:	e0833001 	add	r3, r3, r1
    90f0:	e1a02422 	lsr	r2, r2, #8
    90f4:	e5c3201d 	strb	r2, [r3, #29]
    90f8:	e5943000 	ldr	r3, [r4]
    90fc:	e5952000 	ldr	r2, [r5]
    9100:	e0833001 	add	r3, r3, r1
    9104:	e1d202ba 	ldrh	r0, [r2, #42]	; 0x2a
    9108:	e3a02000 	mov	r2, #0
    910c:	e5c3001e 	strb	r0, [r3, #30]
    9110:	e5950000 	ldr	r0, [r5]
    9114:	e5943000 	ldr	r3, [r4]
    9118:	e5d0002b 	ldrb	r0, [r0, #43]	; 0x2b
    911c:	e0831001 	add	r1, r3, r1
    9120:	e5c1001f 	strb	r0, [r1, #31]
    9124:	e5953000 	ldr	r3, [r5]
    9128:	e5941000 	ldr	r1, [r4]
    912c:	e593002c 	ldr	r0, [r3, #44]	; 0x2c
    9130:	ebffff8b 	bl	8f64 <fsSectorWrite>
    9134:	e3500000 	cmp	r0, #0
    9138:	13a00000 	movne	r0, #0
    913c:	03a000e2 	moveq	r0, #226	; 0xe2
    9140:	e8bd8070 	pop	{r4, r5, r6, pc}
    9144:	e3a000e1 	mov	r0, #225	; 0xe1
    9148:	e8bd8070 	pop	{r4, r5, r6, pc}
    914c:	00015eb4 			; <UNDEFINED> instruction: 0x00015eb4
    9150:	00000070 	andeq	r0, r0, r0, ror r0
    9154:	0000002c 	andeq	r0, r0, ip, lsr #32

00009158 <fsFindNextCluster>:
    9158:	e92d41f0 	push	{r4, r5, r6, r7, r8, lr}
    915c:	e1a04000 	mov	r4, r0
    9160:	e59f30f8 	ldr	r3, [pc, #248]	; 9260 <fsFindNextCluster+0x108>
    9164:	e59f00f8 	ldr	r0, [pc, #248]	; 9264 <fsFindNextCluster+0x10c>
    9168:	e08f3003 	add	r3, pc, r3
    916c:	e7930000 	ldr	r0, [r3, r0]
    9170:	e59f20f0 	ldr	r2, [pc, #240]	; 9268 <fsFindNextCluster+0x110>
    9174:	e1a06001 	mov	r6, r1
    9178:	e7935002 	ldr	r5, [r3, r2]
    917c:	e5902000 	ldr	r2, [r0]
    9180:	e5951000 	ldr	r1, [r5]
    9184:	e5927004 	ldr	r7, [r2, #4]
    9188:	e08773a4 	add	r7, r7, r4, lsr #7
    918c:	e1a00007 	mov	r0, r7
    9190:	ebffff5e 	bl	8f10 <fsSectorRead>
    9194:	e3500000 	cmp	r0, #0
    9198:	03e0400e 	mvneq	r4, #14
    919c:	0a000023 	beq	9230 <fsFindNextCluster+0xd8>
    91a0:	e204307f 	and	r3, r4, #127	; 0x7f
    91a4:	e5951000 	ldr	r1, [r5]
    91a8:	e1a02103 	lsl	r2, r3, #2
    91ac:	e2820003 	add	r0, r2, #3
    91b0:	e282c002 	add	ip, r2, #2
    91b4:	e7d14000 	ldrb	r4, [r1, r0]
    91b8:	e7d1e00c 	ldrb	lr, [r1, ip]
    91bc:	e7d18103 	ldrb	r8, [r1, r3, lsl #2]
    91c0:	e1a04c04 	lsl	r4, r4, #24
    91c4:	e2823001 	add	r3, r2, #1
    91c8:	e184480e 	orr	r4, r4, lr, lsl #16
    91cc:	e7d1e003 	ldrb	lr, [r1, r3]
    91d0:	e1844008 	orr	r4, r4, r8
    91d4:	e3560005 	cmp	r6, #5
    91d8:	e0812002 	add	r2, r1, r2
    91dc:	e184440e 	orr	r4, r4, lr, lsl #8
    91e0:	0a000012 	beq	9230 <fsFindNextCluster+0xd8>
    91e4:	e3560003 	cmp	r6, #3
    91e8:	0a000012 	beq	9238 <fsFindNextCluster+0xe0>
    91ec:	e3560004 	cmp	r6, #4
    91f0:	1a000009 	bne	921c <fsFindNextCluster+0xc4>
    91f4:	e3e01000 	mvn	r1, #0
    91f8:	e3a0e00f 	mov	lr, #15
    91fc:	e5c21000 	strb	r1, [r2]
    9200:	e5952000 	ldr	r2, [r5]
    9204:	e7c21003 	strb	r1, [r2, r3]
    9208:	e5953000 	ldr	r3, [r5]
    920c:	e7c3100c 	strb	r1, [r3, ip]
    9210:	e5953000 	ldr	r3, [r5]
    9214:	e7c3e000 	strb	lr, [r3, r0]
    9218:	e5951000 	ldr	r1, [r5]
    921c:	e1a00007 	mov	r0, r7
    9220:	e3a02000 	mov	r2, #0
    9224:	ebffff4e 	bl	8f64 <fsSectorWrite>
    9228:	e3500000 	cmp	r0, #0
    922c:	03e0400d 	mvneq	r4, #13
    9230:	e1a00004 	mov	r0, r4
    9234:	e8bd81f0 	pop	{r4, r5, r6, r7, r8, pc}
    9238:	e3a01000 	mov	r1, #0
    923c:	e5c21000 	strb	r1, [r2]
    9240:	e5952000 	ldr	r2, [r5]
    9244:	e7c21003 	strb	r1, [r2, r3]
    9248:	e5953000 	ldr	r3, [r5]
    924c:	e7c3100c 	strb	r1, [r3, ip]
    9250:	e5953000 	ldr	r3, [r5]
    9254:	e7c31000 	strb	r1, [r3, r0]
    9258:	e5951000 	ldr	r1, [r5]
    925c:	eaffffee 	b	921c <fsFindNextCluster+0xc4>
    9260:	00015d10 	andeq	r5, r1, r0, lsl sp
    9264:	0000008c 	andeq	r0, r0, ip, lsl #1
    9268:	0000002c 	andeq	r0, r0, ip, lsr #32

0000926c <fsFindClusterFree>:
    926c:	e92d4ff0 	push	{r4, r5, r6, r7, r8, r9, sl, fp, lr}
    9270:	e3a09000 	mov	r9, #0
    9274:	e1a04009 	mov	r4, r9
    9278:	e59f312c 	ldr	r3, [pc, #300]	; 93ac <fsFindClusterFree+0x140>
    927c:	e24dd00c 	sub	sp, sp, #12
    9280:	e59f1128 	ldr	r1, [pc, #296]	; 93b0 <fsFindClusterFree+0x144>
    9284:	e08f3003 	add	r3, pc, r3
    9288:	e58d0004 	str	r0, [sp, #4]
    928c:	e59f2120 	ldr	r2, [pc, #288]	; 93b4 <fsFindClusterFree+0x148>
    9290:	e7936001 	ldr	r6, [r3, r1]
    9294:	e7935002 	ldr	r5, [r3, r2]
    9298:	e5962000 	ldr	r2, [r6]
    929c:	e5927004 	ldr	r7, [r2, #4]
    92a0:	e0878009 	add	r8, r7, r9
    92a4:	e1a00008 	mov	r0, r8
    92a8:	e5951000 	ldr	r1, [r5]
    92ac:	ebffff17 	bl	8f10 <fsSectorRead>
    92b0:	e3500000 	cmp	r0, #0
    92b4:	0a000038 	beq	939c <fsFindClusterFree+0x130>
    92b8:	e596b000 	ldr	fp, [r6]
    92bc:	e59b0018 	ldr	r0, [fp, #24]
    92c0:	e3500000 	cmp	r0, #0
    92c4:	0a000015 	beq	9320 <fsFindClusterFree+0xb4>
    92c8:	e3a03000 	mov	r3, #0
    92cc:	e5951000 	ldr	r1, [r5]
    92d0:	e5d12000 	ldrb	r2, [r1]
    92d4:	e283c001 	add	ip, r3, #1
    92d8:	e3520000 	cmp	r2, #0
    92dc:	1a00000a 	bne	930c <fsFindClusterFree+0xa0>
    92e0:	e5d12001 	ldrb	r2, [r1, #1]
    92e4:	e283e002 	add	lr, r3, #2
    92e8:	e3520000 	cmp	r2, #0
    92ec:	1a000006 	bne	930c <fsFindClusterFree+0xa0>
    92f0:	e5d12002 	ldrb	r2, [r1, #2]
    92f4:	e283a003 	add	sl, r3, #3
    92f8:	e3520000 	cmp	r2, #0
    92fc:	1a000002 	bne	930c <fsFindClusterFree+0xa0>
    9300:	e5d12003 	ldrb	r2, [r1, #3]
    9304:	e3520000 	cmp	r2, #0
    9308:	0a00000c 	beq	9340 <fsFindClusterFree+0xd4>
    930c:	e2833004 	add	r3, r3, #4
    9310:	e1500003 	cmp	r0, r3
    9314:	e2844001 	add	r4, r4, #1
    9318:	e2811004 	add	r1, r1, #4
    931c:	8affffeb 	bhi	92d0 <fsFindClusterFree+0x64>
    9320:	e59b301c 	ldr	r3, [fp, #28]
    9324:	e2899001 	add	r9, r9, #1
    9328:	e1530009 	cmp	r3, r9
    932c:	2affffdb 	bcs	92a0 <fsFindClusterFree+0x34>
    9330:	e3e0400b 	mvn	r4, #11
    9334:	e1a00004 	mov	r0, r4
    9338:	e28dd00c 	add	sp, sp, #12
    933c:	e8bd8ff0 	pop	{r4, r5, r6, r7, r8, r9, sl, fp, pc}
    9340:	e59b301c 	ldr	r3, [fp, #28]
    9344:	e1530009 	cmp	r3, r9
    9348:	3afffff8 	bcc	9330 <fsFindClusterFree+0xc4>
    934c:	e59d3004 	ldr	r3, [sp, #4]
    9350:	e3530002 	cmp	r3, #2
    9354:	1afffff6 	bne	9334 <fsFindClusterFree+0xc8>
    9358:	e3e03000 	mvn	r3, #0
    935c:	e3a0600f 	mov	r6, #15
    9360:	e5c13000 	strb	r3, [r1]
    9364:	e5951000 	ldr	r1, [r5]
    9368:	e1a00008 	mov	r0, r8
    936c:	e7c1300c 	strb	r3, [r1, ip]
    9370:	e5951000 	ldr	r1, [r5]
    9374:	e7c1300e 	strb	r3, [r1, lr]
    9378:	e5953000 	ldr	r3, [r5]
    937c:	e7c3600a 	strb	r6, [r3, sl]
    9380:	e5951000 	ldr	r1, [r5]
    9384:	ebfffef6 	bl	8f64 <fsSectorWrite>
    9388:	e3500000 	cmp	r0, #0
    938c:	03e0400d 	mvneq	r4, #13
    9390:	e1a00004 	mov	r0, r4
    9394:	e28dd00c 	add	sp, sp, #12
    9398:	e8bd8ff0 	pop	{r4, r5, r6, r7, r8, r9, sl, fp, pc}
    939c:	e3e0400e 	mvn	r4, #14
    93a0:	e1a00004 	mov	r0, r4
    93a4:	e28dd00c 	add	sp, sp, #12
    93a8:	e8bd8ff0 	pop	{r4, r5, r6, r7, r8, r9, sl, fp, pc}
    93ac:	00015bf4 	strdeq	r5, [r1], -r4
    93b0:	0000008c 	andeq	r0, r0, ip, lsl #1
    93b4:	0000002c 	andeq	r0, r0, ip, lsr #32

000093b8 <fsRWFile>:
    93b8:	e92d4ff0 	push	{r4, r5, r6, r7, r8, r9, sl, fp, lr}
    93bc:	e59fb228 	ldr	fp, [pc, #552]	; 95ec <fsRWFile+0x234>
    93c0:	e59fc228 	ldr	ip, [pc, #552]	; 95f0 <fsRWFile+0x238>
    93c4:	e08fb00b 	add	fp, pc, fp
    93c8:	e79b900c 	ldr	r9, [fp, ip]
    93cc:	e24dd014 	sub	sp, sp, #20
    93d0:	e5995000 	ldr	r5, [r9]
    93d4:	e1a07000 	mov	r7, r0
    93d8:	e1a00001 	mov	r0, r1
    93dc:	e5951018 	ldr	r1, [r5, #24]
    93e0:	e1a0a002 	mov	sl, r2
    93e4:	e1a06003 	mov	r6, r3
    93e8:	eb001d55 	bl	10944 <__aeabi_uidiv>
    93ec:	e5d53021 	ldrb	r3, [r5, #33]	; 0x21
    93f0:	e58d000c 	str	r0, [sp, #12]
    93f4:	e1a01003 	mov	r1, r3
    93f8:	e58d3004 	str	r3, [sp, #4]
    93fc:	eb001d50 	bl	10944 <__aeabi_uidiv>
    9400:	e2508000 	subs	r8, r0, #0
    9404:	e59d3004 	ldr	r3, [sp, #4]
    9408:	0a000075 	beq	95e4 <fsRWFile+0x22c>
    940c:	e3a05000 	mov	r5, #0
    9410:	ea00000c 	b	9448 <fsRWFile+0x90>
    9414:	e3a01005 	mov	r1, #5
    9418:	e1a00007 	mov	r0, r7
    941c:	ebffff4d 	bl	9158 <fsFindNextCluster>
    9420:	e3560001 	cmp	r6, #1
    9424:	0370021f 	cmneq	r0, #-268435455	; 0xf0000001
    9428:	e1a04000 	mov	r4, r0
    942c:	0a000067 	beq	95d0 <fsRWFile+0x218>
    9430:	e3560003 	cmp	r6, #3
    9434:	0a00001d 	beq	94b0 <fsRWFile+0xf8>
    9438:	e2855001 	add	r5, r5, #1
    943c:	e1580005 	cmp	r8, r5
    9440:	e1a07004 	mov	r7, r4
    9444:	9a00004a 	bls	9574 <fsRWFile+0x1bc>
    9448:	e3560002 	cmp	r6, #2
    944c:	1afffff0 	bne	9414 <fsRWFile+0x5c>
    9450:	e5993000 	ldr	r3, [r9]
    9454:	e3a02000 	mov	r2, #0
    9458:	e5930004 	ldr	r0, [r3, #4]
    945c:	e1a0100a 	mov	r1, sl
    9460:	e2400001 	sub	r0, r0, #1
    9464:	ebfffebe 	bl	8f64 <fsSectorWrite>
    9468:	e3500000 	cmp	r0, #0
    946c:	0a00000c 	beq	94a4 <fsRWFile+0xec>
    9470:	e3a01005 	mov	r1, #5
    9474:	e1a00007 	mov	r0, r7
    9478:	ebffff36 	bl	9158 <fsFindNextCluster>
    947c:	e370021f 	cmn	r0, #-268435455	; 0xf0000001
    9480:	e1a04000 	mov	r4, r0
    9484:	0a00000b 	beq	94b8 <fsRWFile+0x100>
    9488:	e5993000 	ldr	r3, [r9]
    948c:	e1a0100a 	mov	r1, sl
    9490:	e5930004 	ldr	r0, [r3, #4]
    9494:	e2400001 	sub	r0, r0, #1
    9498:	ebfffe9c 	bl	8f10 <fsSectorRead>
    949c:	e3500000 	cmp	r0, #0
    94a0:	1affffe4 	bne	9438 <fsRWFile+0x80>
    94a4:	e3a000e1 	mov	r0, #225	; 0xe1
    94a8:	e28dd014 	add	sp, sp, #20
    94ac:	e8bd8ff0 	pop	{r4, r5, r6, r7, r8, r9, sl, fp, pc}
    94b0:	e370021f 	cmn	r0, #-268435455	; 0xf0000001
    94b4:	1affffdf 	bne	9438 <fsRWFile+0x80>
    94b8:	e3a00002 	mov	r0, #2
    94bc:	ebffff6a 	bl	926c <fsFindClusterFree>
    94c0:	e370000c 	cmn	r0, #12
    94c4:	e1a04000 	mov	r4, r0
    94c8:	0a000043 	beq	95dc <fsRWFile+0x224>
    94cc:	e5992000 	ldr	r2, [r9]
    94d0:	e59f311c 	ldr	r3, [pc, #284]	; 95f4 <fsRWFile+0x23c>
    94d4:	e5922004 	ldr	r2, [r2, #4]
    94d8:	e79b3003 	ldr	r3, [fp, r3]
    94dc:	e08223a7 	add	r2, r2, r7, lsr #7
    94e0:	e1a00002 	mov	r0, r2
    94e4:	e5931000 	ldr	r1, [r3]
    94e8:	e58d2008 	str	r2, [sp, #8]
    94ec:	e58d3004 	str	r3, [sp, #4]
    94f0:	ebfffe86 	bl	8f10 <fsSectorRead>
    94f4:	e3500000 	cmp	r0, #0
    94f8:	0affffe9 	beq	94a4 <fsRWFile+0xec>
    94fc:	e59d3004 	ldr	r3, [sp, #4]
    9500:	e207507f 	and	r5, r7, #127	; 0x7f
    9504:	e5931000 	ldr	r1, [r3]
    9508:	e1a00424 	lsr	r0, r4, #8
    950c:	e7c14105 	strb	r4, [r1, r5, lsl #2]
    9510:	e5931000 	ldr	r1, [r3]
    9514:	e1a05105 	lsl	r5, r5, #2
    9518:	e0811005 	add	r1, r1, r5
    951c:	e5c10001 	strb	r0, [r1, #1]
    9520:	e5931000 	ldr	r1, [r3]
    9524:	e1a00824 	lsr	r0, r4, #16
    9528:	e0811005 	add	r1, r1, r5
    952c:	e5c10002 	strb	r0, [r1, #2]
    9530:	e5931000 	ldr	r1, [r3]
    9534:	e59d2008 	ldr	r2, [sp, #8]
    9538:	e1a00c24 	lsr	r0, r4, #24
    953c:	e0811005 	add	r1, r1, r5
    9540:	e5c10003 	strb	r0, [r1, #3]
    9544:	e5931000 	ldr	r1, [r3]
    9548:	e1a00002 	mov	r0, r2
    954c:	e3a02000 	mov	r2, #0
    9550:	ebfffe83 	bl	8f64 <fsSectorWrite>
    9554:	e3500000 	cmp	r0, #0
    9558:	0a000017 	beq	95bc <fsRWFile+0x204>
    955c:	e3560002 	cmp	r6, #2
    9560:	0affffc8 	beq	9488 <fsRWFile+0xd0>
    9564:	e2855001 	add	r5, r5, #1
    9568:	e1580005 	cmp	r8, r5
    956c:	e1a07004 	mov	r7, r4
    9570:	8affffb4 	bhi	9448 <fsRWFile+0x90>
    9574:	e5995000 	ldr	r5, [r9]
    9578:	e5d53021 	ldrb	r3, [r5, #33]	; 0x21
    957c:	e5952000 	ldr	r2, [r5]
    9580:	e2440002 	sub	r0, r4, #2
    9584:	e1a04082 	lsl	r4, r2, #1
    9588:	e0204093 	mla	r0, r3, r0, r4
    958c:	e0080893 	mul	r8, r3, r8
    9590:	e59d300c 	ldr	r3, [sp, #12]
    9594:	e20660fd 	and	r6, r6, #253	; 0xfd
    9598:	e0800003 	add	r0, r0, r3
    959c:	e3560001 	cmp	r6, #1
    95a0:	e1a0100a 	mov	r1, sl
    95a4:	e0400008 	sub	r0, r0, r8
    95a8:	0a000005 	beq	95c4 <fsRWFile+0x20c>
    95ac:	e3a02000 	mov	r2, #0
    95b0:	ebfffe6b 	bl	8f64 <fsSectorWrite>
    95b4:	e3500000 	cmp	r0, #0
    95b8:	1a000004 	bne	95d0 <fsRWFile+0x218>
    95bc:	e3a000e2 	mov	r0, #226	; 0xe2
    95c0:	ea000003 	b	95d4 <fsRWFile+0x21c>
    95c4:	ebfffe51 	bl	8f10 <fsSectorRead>
    95c8:	e3500000 	cmp	r0, #0
    95cc:	0affffb4 	beq	94a4 <fsRWFile+0xec>
    95d0:	e3a00000 	mov	r0, #0
    95d4:	e28dd014 	add	sp, sp, #20
    95d8:	e8bd8ff0 	pop	{r4, r5, r6, r7, r8, r9, sl, fp, pc}
    95dc:	e3a000eb 	mov	r0, #235	; 0xeb
    95e0:	eafffffb 	b	95d4 <fsRWFile+0x21c>
    95e4:	e1a04007 	mov	r4, r7
    95e8:	eaffffe3 	b	957c <fsRWFile+0x1c4>
    95ec:	00015ab4 			; <UNDEFINED> instruction: 0x00015ab4
    95f0:	0000008c 	andeq	r0, r0, ip, lsl #1
    95f4:	0000002c 	andeq	r0, r0, ip, lsr #32

000095f8 <fsFindInDir>:
    95f8:	e92d4ff0 	push	{r4, r5, r6, r7, r8, r9, sl, fp, lr}
    95fc:	e1a04000 	mov	r4, r0
    9600:	e24dd08c 	sub	sp, sp, #140	; 0x8c
    9604:	e28d307c 	add	r3, sp, #124	; 0x7c
    9608:	e1a00003 	mov	r0, r3
    960c:	e58d1004 	str	r1, [sp, #4]
    9610:	e3a02008 	mov	r2, #8
    9614:	e3a01020 	mov	r1, #32
    9618:	e28d5070 	add	r5, sp, #112	; 0x70
    961c:	e58d3060 	str	r3, [sp, #96]	; 0x60
    9620:	e58d5054 	str	r5, [sp, #84]	; 0x54
    9624:	eb001cee 	bl	109e4 <memset>
    9628:	e1a00005 	mov	r0, r5
    962c:	e3a02003 	mov	r2, #3
    9630:	e3a01020 	mov	r1, #32
    9634:	eb001cea 	bl	109e4 <memset>
    9638:	e59f3c7c 	ldr	r3, [pc, #3196]	; a2bc <fsFindInDir+0xcc4>
    963c:	e3540000 	cmp	r4, #0
    9640:	e08f3003 	add	r3, pc, r3
    9644:	e58d3058 	str	r3, [sp, #88]	; 0x58
    9648:	0a000020 	beq	96d0 <fsFindInDir+0xd8>
    964c:	e5d43000 	ldrb	r3, [r4]
    9650:	e353002e 	cmp	r3, #46	; 0x2e
    9654:	0a000265 	beq	9ff0 <fsFindInDir+0x9f8>
    9658:	e1a00004 	mov	r0, r4
    965c:	eb001d86 	bl	10c7c <strlen>
    9660:	e1a06004 	mov	r6, r4
    9664:	e3a05000 	mov	r5, #0
    9668:	e4d62001 	ldrb	r2, [r6], #1
    966c:	e3520000 	cmp	r2, #0
    9670:	0a000016 	beq	96d0 <fsFindInDir+0xd8>
    9674:	e352002e 	cmp	r2, #46	; 0x2e
    9678:	0a000176 	beq	9c58 <fsFindInDir+0x660>
    967c:	e59f3c3c 	ldr	r3, [pc, #3132]	; a2c0 <fsFindInDir+0xcc8>
    9680:	e59d1058 	ldr	r1, [sp, #88]	; 0x58
    9684:	e7913003 	ldr	r3, [r1, r3]
    9688:	e2830039 	add	r0, r3, #57	; 0x39
    968c:	ea000001 	b	9698 <fsFindInDir+0xa0>
    9690:	e1500003 	cmp	r0, r3
    9694:	0a00025b 	beq	a008 <fsFindInDir+0xa10>
    9698:	e4d31001 	ldrb	r1, [r3], #1
    969c:	e1520001 	cmp	r2, r1
    96a0:	1afffffa 	bne	9690 <fsFindInDir+0x98>
    96a4:	e3550007 	cmp	r5, #7
    96a8:	8a000249 	bhi	9fd4 <fsFindInDir+0x9dc>
    96ac:	e28d3088 	add	r3, sp, #136	; 0x88
    96b0:	e0833005 	add	r3, r3, r5
    96b4:	e543200c 	strb	r2, [r3, #-12]
    96b8:	e2855001 	add	r5, r5, #1
    96bc:	e1a00004 	mov	r0, r4
    96c0:	eb001d6d 	bl	10c7c <strlen>
    96c4:	e0463004 	sub	r3, r6, r4
    96c8:	e1500003 	cmp	r0, r3
    96cc:	2affffe5 	bcs	9668 <fsFindInDir+0x70>
    96d0:	e59d1058 	ldr	r1, [sp, #88]	; 0x58
    96d4:	e59f3be8 	ldr	r3, [pc, #3048]	; a2c4 <fsFindInDir+0xccc>
    96d8:	e59f2be8 	ldr	r2, [pc, #3048]	; a2c8 <fsFindInDir+0xcd0>
    96dc:	e7913003 	ldr	r3, [r1, r3]
    96e0:	e7919002 	ldr	r9, [r1, r2]
    96e4:	e1a02003 	mov	r2, r3
    96e8:	e58d306c 	str	r3, [sp, #108]	; 0x6c
    96ec:	e5993000 	ldr	r3, [r9]
    96f0:	e5921000 	ldr	r1, [r2]
    96f4:	e5932000 	ldr	r2, [r3]
    96f8:	e5d33021 	ldrb	r3, [r3, #33]	; 0x21
    96fc:	e58d1068 	str	r1, [sp, #104]	; 0x68
    9700:	e1a02082 	lsl	r2, r2, #1
    9704:	e2411002 	sub	r1, r1, #2
    9708:	e0222193 	mla	r2, r3, r1, r2
    970c:	e372021f 	cmn	r2, #-268435455	; 0xf0000001
    9710:	e58d2008 	str	r2, [sp, #8]
    9714:	0a00014c 	beq	9c4c <fsFindInDir+0x654>
    9718:	e3a02000 	mov	r2, #0
    971c:	e58d205c 	str	r2, [sp, #92]	; 0x5c
    9720:	e3e02000 	mvn	r2, #0
    9724:	e59d1058 	ldr	r1, [sp, #88]	; 0x58
    9728:	e58d204c 	str	r2, [sp, #76]	; 0x4c
    972c:	e59f2b98 	ldr	r2, [pc, #2968]	; a2cc <fsFindInDir+0xcd4>
    9730:	e7912002 	ldr	r2, [r1, r2]
    9734:	e58d9010 	str	r9, [sp, #16]
    9738:	e58d200c 	str	r2, [sp, #12]
    973c:	e3530000 	cmp	r3, #0
    9740:	159d305c 	ldrne	r3, [sp, #92]	; 0x5c
    9744:	158d3050 	strne	r3, [sp, #80]	; 0x50
    9748:	0a0000ae 	beq	9a08 <fsFindInDir+0x410>
    974c:	e59d300c 	ldr	r3, [sp, #12]
    9750:	e59d0008 	ldr	r0, [sp, #8]
    9754:	e5931000 	ldr	r1, [r3]
    9758:	ebfffdec 	bl	8f10 <fsSectorRead>
    975c:	e3500000 	cmp	r0, #0
    9760:	0a00021f 	beq	9fe4 <fsFindInDir+0x9ec>
    9764:	e59d3010 	ldr	r3, [sp, #16]
    9768:	e5933000 	ldr	r3, [r3]
    976c:	e5933018 	ldr	r3, [r3, #24]
    9770:	e3530000 	cmp	r3, #0
    9774:	0a00008d 	beq	99b0 <fsFindInDir+0x3b8>
    9778:	e3a04000 	mov	r4, #0
    977c:	e59f3b4c 	ldr	r3, [pc, #2892]	; a2d0 <fsFindInDir+0xcd8>
    9780:	e59d2058 	ldr	r2, [sp, #88]	; 0x58
    9784:	e7923003 	ldr	r3, [r2, r3]
    9788:	e58d3064 	str	r3, [sp, #100]	; 0x64
    978c:	e5933000 	ldr	r3, [r3]
    9790:	e59d200c 	ldr	r2, [sp, #12]
    9794:	e2431001 	sub	r1, r3, #1
    9798:	e5922000 	ldr	r2, [r2]
    979c:	e2835007 	add	r5, r3, #7
    97a0:	e0820004 	add	r0, r2, r4
    97a4:	e1a0c000 	mov	ip, r0
    97a8:	e4dce001 	ldrb	lr, [ip], #1
    97ac:	e5e1e001 	strb	lr, [r1, #1]!
    97b0:	e1550001 	cmp	r5, r1
    97b4:	1afffffb 	bne	97a8 <fsFindInDir+0x1b0>
    97b8:	e5d01008 	ldrb	r1, [r0, #8]
    97bc:	e284c00b 	add	ip, r4, #11
    97c0:	e5c31009 	strb	r1, [r3, #9]
    97c4:	e5d01009 	ldrb	r1, [r0, #9]
    97c8:	e284e00f 	add	lr, r4, #15
    97cc:	e5c3100a 	strb	r1, [r3, #10]
    97d0:	e5d0100a 	ldrb	r1, [r0, #10]
    97d4:	e284600e 	add	r6, r4, #14
    97d8:	e5c3100b 	strb	r1, [r3, #11]
    97dc:	e7d2500c 	ldrb	r5, [r2, ip]
    97e0:	e58dc040 	str	ip, [sp, #64]	; 0x40
    97e4:	e5c3500d 	strb	r5, [r3, #13]
    97e8:	e7d2100e 	ldrb	r1, [r2, lr]
    97ec:	e2847011 	add	r7, r4, #17
    97f0:	e1a01401 	lsl	r1, r1, #8
    97f4:	e5831014 	str	r1, [r3, #20]
    97f8:	e7d2c006 	ldrb	ip, [r2, r6]
    97fc:	e58de01c 	str	lr, [sp, #28]
    9800:	e18c1001 	orr	r1, ip, r1
    9804:	e5831014 	str	r1, [r3, #20]
    9808:	e7d21007 	ldrb	r1, [r2, r7]
    980c:	e284e010 	add	lr, r4, #16
    9810:	e1a01401 	lsl	r1, r1, #8
    9814:	e5831010 	str	r1, [r3, #16]
    9818:	e58de024 	str	lr, [sp, #36]	; 0x24
    981c:	e7d2e00e 	ldrb	lr, [r2, lr]
    9820:	e58d6044 	str	r6, [sp, #68]	; 0x44
    9824:	e18e1001 	orr	r1, lr, r1
    9828:	e5831010 	str	r1, [r3, #16]
    982c:	e2846013 	add	r6, r4, #19
    9830:	e7d21006 	ldrb	r1, [r2, r6]
    9834:	e58d7020 	str	r7, [sp, #32]
    9838:	e1a01401 	lsl	r1, r1, #8
    983c:	e5831018 	str	r1, [r3, #24]
    9840:	e2847012 	add	r7, r4, #18
    9844:	e58d6028 	str	r6, [sp, #40]	; 0x28
    9848:	e7d26007 	ldrb	r6, [r2, r7]
    984c:	e284c017 	add	ip, r4, #23
    9850:	e1861001 	orr	r1, r6, r1
    9854:	e5831018 	str	r1, [r3, #24]
    9858:	e7d2100c 	ldrb	r1, [r2, ip]
    985c:	e2848019 	add	r8, r4, #25
    9860:	e1a01401 	lsl	r1, r1, #8
    9864:	e2849018 	add	r9, r4, #24
    9868:	e5831020 	str	r1, [r3, #32]
    986c:	e284e016 	add	lr, r4, #22
    9870:	e58dc048 	str	ip, [sp, #72]	; 0x48
    9874:	e58d8030 	str	r8, [sp, #48]	; 0x30
    9878:	e58d9034 	str	r9, [sp, #52]	; 0x34
    987c:	e58d702c 	str	r7, [sp, #44]	; 0x2c
    9880:	e7d2700e 	ldrb	r7, [r2, lr]
    9884:	e284a015 	add	sl, r4, #21
    9888:	e1871001 	orr	r1, r7, r1
    988c:	e5831020 	str	r1, [r3, #32]
    9890:	e7d21008 	ldrb	r1, [r2, r8]
    9894:	e2846014 	add	r6, r4, #20
    9898:	e1a01401 	lsl	r1, r1, #8
    989c:	e583101c 	str	r1, [r3, #28]
    98a0:	e7d27009 	ldrb	r7, [r2, r9]
    98a4:	e284901b 	add	r9, r4, #27
    98a8:	e1871001 	orr	r1, r7, r1
    98ac:	e583101c 	str	r1, [r3, #28]
    98b0:	e7d2100a 	ldrb	r1, [r2, sl]
    98b4:	e58d9018 	str	r9, [sp, #24]
    98b8:	e1a01c01 	lsl	r1, r1, #24
    98bc:	e5831024 	str	r1, [r3, #36]	; 0x24
    98c0:	e7d28006 	ldrb	r8, [r2, r6]
    98c4:	e284701a 	add	r7, r4, #26
    98c8:	e1811808 	orr	r1, r1, r8, lsl #16
    98cc:	e5831024 	str	r1, [r3, #36]	; 0x24
    98d0:	e7d29009 	ldrb	r9, [r2, r9]
    98d4:	e58da014 	str	sl, [sp, #20]
    98d8:	e1811409 	orr	r1, r1, r9, lsl #8
    98dc:	e5831024 	str	r1, [r3, #36]	; 0x24
    98e0:	e7d2a007 	ldrb	sl, [r2, r7]
    98e4:	e284b01f 	add	fp, r4, #31
    98e8:	e18aa001 	orr	sl, sl, r1
    98ec:	e583a024 	str	sl, [r3, #36]	; 0x24
    98f0:	e7d2100b 	ldrb	r1, [r2, fp]
    98f4:	e284801e 	add	r8, r4, #30
    98f8:	e1a01c01 	lsl	r1, r1, #24
    98fc:	e5831028 	str	r1, [r3, #40]	; 0x28
    9900:	e58db038 	str	fp, [sp, #56]	; 0x38
    9904:	e7d2b008 	ldrb	fp, [r2, r8]
    9908:	e284901d 	add	r9, r4, #29
    990c:	e181180b 	orr	r1, r1, fp, lsl #16
    9910:	e5831028 	str	r1, [r3, #40]	; 0x28
    9914:	e7d2b009 	ldrb	fp, [r2, r9]
    9918:	e59dc004 	ldr	ip, [sp, #4]
    991c:	e181140b 	orr	r1, r1, fp, lsl #8
    9920:	e5831028 	str	r1, [r3, #40]	; 0x28
    9924:	e35c0008 	cmp	ip, #8
    9928:	e284c01c 	add	ip, r4, #28
    992c:	e7d2b00c 	ldrb	fp, [r2, ip]
    9930:	e59d2008 	ldr	r2, [sp, #8]
    9934:	e18b1001 	orr	r1, fp, r1
    9938:	e583202c 	str	r2, [r3, #44]	; 0x2c
    993c:	e58dc03c 	str	ip, [sp, #60]	; 0x3c
    9940:	e5831028 	str	r1, [r3, #40]	; 0x28
    9944:	e5834030 	str	r4, [r3, #48]	; 0x30
    9948:	e5d32000 	ldrb	r2, [r3]
    994c:	0a00006a 	beq	9afc <fsFindInDir+0x504>
    9950:	e59d1004 	ldr	r1, [sp, #4]
    9954:	e2411003 	sub	r1, r1, #3
    9958:	e3510002 	cmp	r1, #2
    995c:	9a000053 	bls	9ab0 <fsFindInDir+0x4b8>
    9960:	e25210e5 	subs	r1, r2, #229	; 0xe5
    9964:	13a01001 	movne	r1, #1
    9968:	e3520000 	cmp	r2, #0
    996c:	03a01000 	moveq	r1, #0
    9970:	e355000f 	cmp	r5, #15
    9974:	03a01000 	moveq	r1, #0
    9978:	12011001 	andne	r1, r1, #1
    997c:	e3550016 	cmp	r5, #22
    9980:	03a01000 	moveq	r1, #0
    9984:	12011001 	andne	r1, r1, #1
    9988:	e3510000 	cmp	r1, #0
    998c:	1a000064 	bne	9b24 <fsFindInDir+0x52c>
    9990:	e3520000 	cmp	r2, #0
    9994:	0a000055 	beq	9af0 <fsFindInDir+0x4f8>
    9998:	e59d2010 	ldr	r2, [sp, #16]
    999c:	e2844020 	add	r4, r4, #32
    99a0:	e5922000 	ldr	r2, [r2]
    99a4:	e5922018 	ldr	r2, [r2, #24]
    99a8:	e1520004 	cmp	r2, r4
    99ac:	8affff77 	bhi	9790 <fsFindInDir+0x198>
    99b0:	e59d0008 	ldr	r0, [sp, #8]
    99b4:	e59d304c 	ldr	r3, [sp, #76]	; 0x4c
    99b8:	e370021f 	cmn	r0, #-268435455	; 0xf0000001
    99bc:	13730011 	cmnne	r3, #17
    99c0:	9a00004a 	bls	9af0 <fsFindInDir+0x4f8>
    99c4:	e59d3010 	ldr	r3, [sp, #16]
    99c8:	e59d105c 	ldr	r1, [sp, #92]	; 0x5c
    99cc:	e5932000 	ldr	r2, [r3]
    99d0:	e59d3050 	ldr	r3, [sp, #80]	; 0x50
    99d4:	e5d22021 	ldrb	r2, [r2, #33]	; 0x21
    99d8:	e2833001 	add	r3, r3, #1
    99dc:	e58d3050 	str	r3, [sp, #80]	; 0x50
    99e0:	e0433001 	sub	r3, r3, r1
    99e4:	e6ef3073 	uxtb	r3, r3
    99e8:	e1520003 	cmp	r2, r3
    99ec:	e2803001 	add	r3, r0, #1
    99f0:	e58d3008 	str	r3, [sp, #8]
    99f4:	8affff54 	bhi	974c <fsFindInDir+0x154>
    99f8:	e373021f 	cmn	r3, #-268435455	; 0xf0000001
    99fc:	0a00003b 	beq	9af0 <fsFindInDir+0x4f8>
    9a00:	e59d3050 	ldr	r3, [sp, #80]	; 0x50
    9a04:	e58d305c 	str	r3, [sp, #92]	; 0x5c
    9a08:	e59d9010 	ldr	r9, [sp, #16]
    9a0c:	e59d5068 	ldr	r5, [sp, #104]	; 0x68
    9a10:	e5993000 	ldr	r3, [r9]
    9a14:	e59d600c 	ldr	r6, [sp, #12]
    9a18:	e5934004 	ldr	r4, [r3, #4]
    9a1c:	e5961000 	ldr	r1, [r6]
    9a20:	e08443a5 	add	r4, r4, r5, lsr #7
    9a24:	e1a00004 	mov	r0, r4
    9a28:	ebfffd38 	bl	8f10 <fsSectorRead>
    9a2c:	e3500000 	cmp	r0, #0
    9a30:	0a00016b 	beq	9fe4 <fsFindInDir+0x9ec>
    9a34:	e205807f 	and	r8, r5, #127	; 0x7f
    9a38:	e5962000 	ldr	r2, [r6]
    9a3c:	e1a05108 	lsl	r5, r8, #2
    9a40:	e2857003 	add	r7, r5, #3
    9a44:	e7d23007 	ldrb	r3, [r2, r7]
    9a48:	e2856002 	add	r6, r5, #2
    9a4c:	e7d20006 	ldrb	r0, [r2, r6]
    9a50:	e7d21108 	ldrb	r1, [r2, r8, lsl #2]
    9a54:	e1a03c03 	lsl	r3, r3, #24
    9a58:	e2855001 	add	r5, r5, #1
    9a5c:	e1833800 	orr	r3, r3, r0, lsl #16
    9a60:	e7d22005 	ldrb	r2, [r2, r5]
    9a64:	e1833001 	orr	r3, r3, r1
    9a68:	e1833402 	orr	r3, r3, r2, lsl #8
    9a6c:	e373021f 	cmn	r3, #-268435455	; 0xf0000001
    9a70:	e58d3068 	str	r3, [sp, #104]	; 0x68
    9a74:	0a000166 	beq	a014 <fsFindInDir+0xa1c>
    9a78:	e5991000 	ldr	r1, [r9]
    9a7c:	e2432002 	sub	r2, r3, #2
    9a80:	e5913000 	ldr	r3, [r1]
    9a84:	e5d11021 	ldrb	r1, [r1, #33]	; 0x21
    9a88:	e1a03083 	lsl	r3, r3, #1
    9a8c:	e0233291 	mla	r3, r1, r2, r3
    9a90:	e58d3008 	str	r3, [sp, #8]
    9a94:	e59d3008 	ldr	r3, [sp, #8]
    9a98:	e373021f 	cmn	r3, #-268435455	; 0xf0000001
    9a9c:	0a000013 	beq	9af0 <fsFindInDir+0x4f8>
    9aa0:	e59d3010 	ldr	r3, [sp, #16]
    9aa4:	e5933000 	ldr	r3, [r3]
    9aa8:	e5d33021 	ldrb	r3, [r3, #33]	; 0x21
    9aac:	eaffff22 	b	973c <fsFindInDir+0x144>
    9ab0:	e35200e5 	cmp	r2, #229	; 0xe5
    9ab4:	13520000 	cmpne	r2, #0
    9ab8:	1affffb6 	bne	9998 <fsFindInDir+0x3a0>
    9abc:	e59d3004 	ldr	r3, [sp, #4]
    9ac0:	e58d705c 	str	r7, [sp, #92]	; 0x5c
    9ac4:	e3530003 	cmp	r3, #3
    9ac8:	e58d8064 	str	r8, [sp, #100]	; 0x64
    9acc:	e59db040 	ldr	fp, [sp, #64]	; 0x40
    9ad0:	e59d8044 	ldr	r8, [sp, #68]	; 0x44
    9ad4:	e58de058 	str	lr, [sp, #88]	; 0x58
    9ad8:	e58d9044 	str	r9, [sp, #68]	; 0x44
    9adc:	e59d7018 	ldr	r7, [sp, #24]
    9ae0:	e59d9010 	ldr	r9, [sp, #16]
    9ae4:	1a00005d 	bne	9c60 <fsFindInDir+0x668>
    9ae8:	e59d3050 	ldr	r3, [sp, #80]	; 0x50
    9aec:	e58d304c 	str	r3, [sp, #76]	; 0x4c
    9af0:	e59d004c 	ldr	r0, [sp, #76]	; 0x4c
    9af4:	e28dd08c 	add	sp, sp, #140	; 0x8c
    9af8:	e8bd8ff0 	pop	{r4, r5, r6, r7, r8, r9, sl, fp, pc}
    9afc:	e35200e5 	cmp	r2, #229	; 0xe5
    9b00:	13520000 	cmpne	r2, #0
    9b04:	0affffa1 	beq	9990 <fsFindInDir+0x398>
    9b08:	e355000f 	cmp	r5, #15
    9b0c:	13550016 	cmpne	r5, #22
    9b10:	0affffa0 	beq	9998 <fsFindInDir+0x3a0>
    9b14:	e58da04c 	str	sl, [sp, #76]	; 0x4c
    9b18:	e59d004c 	ldr	r0, [sp, #76]	; 0x4c
    9b1c:	e28dd08c 	add	sp, sp, #140	; 0x8c
    9b20:	e8bd8ff0 	pop	{r4, r5, r6, r7, r8, r9, sl, fp, pc}
    9b24:	e3a02000 	mov	r2, #0
    9b28:	e59de060 	ldr	lr, [sp, #96]	; 0x60
    9b2c:	ea000006 	b	9b4c <fsFindInDir+0x554>
    9b30:	e7dec002 	ldrb	ip, [lr, r2]
    9b34:	e7d31002 	ldrb	r1, [r3, r2]
    9b38:	e15c0001 	cmp	ip, r1
    9b3c:	1affff95 	bne	9998 <fsFindInDir+0x3a0>
    9b40:	e2822001 	add	r2, r2, #1
    9b44:	e352000b 	cmp	r2, #11
    9b48:	0a00000b 	beq	9b7c <fsFindInDir+0x584>
    9b4c:	e3520007 	cmp	r2, #7
    9b50:	9afffff6 	bls	9b30 <fsFindInDir+0x538>
    9b54:	e59d1054 	ldr	r1, [sp, #84]	; 0x54
    9b58:	e081c002 	add	ip, r1, r2
    9b5c:	e0831002 	add	r1, r3, r2
    9b60:	e55cc008 	ldrb	ip, [ip, #-8]
    9b64:	e5d11001 	ldrb	r1, [r1, #1]
    9b68:	e15c0001 	cmp	ip, r1
    9b6c:	1affff89 	bne	9998 <fsFindInDir+0x3a0>
    9b70:	e2822001 	add	r2, r2, #1
    9b74:	e352000b 	cmp	r2, #11
    9b78:	1afffff3 	bne	9b4c <fsFindInDir+0x554>
    9b7c:	e59d2004 	ldr	r2, [sp, #4]
    9b80:	e35200ff 	cmp	r2, #255	; 0xff
    9b84:	0a000007 	beq	9ba8 <fsFindInDir+0x5b0>
    9b88:	e59d2004 	ldr	r2, [sp, #4]
    9b8c:	e3520002 	cmp	r2, #2
    9b90:	0a000006 	beq	9bb0 <fsFindInDir+0x5b8>
    9b94:	e59d2004 	ldr	r2, [sp, #4]
    9b98:	e3520001 	cmp	r2, #1
    9b9c:	1a000006 	bne	9bbc <fsFindInDir+0x5c4>
    9ba0:	e3550010 	cmp	r5, #16
    9ba4:	1affff7b 	bne	9998 <fsFindInDir+0x3a0>
    9ba8:	e58da04c 	str	sl, [sp, #76]	; 0x4c
    9bac:	eaffff7f 	b	99b0 <fsFindInDir+0x3b8>
    9bb0:	e3550010 	cmp	r5, #16
    9bb4:	0affff77 	beq	9998 <fsFindInDir+0x3a0>
    9bb8:	eafffffa 	b	9ba8 <fsFindInDir+0x5b0>
    9bbc:	e59d2004 	ldr	r2, [sp, #4]
    9bc0:	e3520009 	cmp	r2, #9
    9bc4:	03a02008 	moveq	r2, #8
    9bc8:	058d2004 	streq	r2, [sp, #4]
    9bcc:	0affff71 	beq	9998 <fsFindInDir+0x3a0>
    9bd0:	e2422006 	sub	r2, r2, #6
    9bd4:	e3520001 	cmp	r2, #1
    9bd8:	8affff6e 	bhi	9998 <fsFindInDir+0x3a0>
    9bdc:	e3e0201a 	mvn	r2, #26
    9be0:	e3a03000 	mov	r3, #0
    9be4:	e59dc00c 	ldr	ip, [sp, #12]
    9be8:	e5c02000 	strb	r2, [r0]
    9bec:	e59c2000 	ldr	r2, [ip]
    9bf0:	e59de018 	ldr	lr, [sp, #24]
    9bf4:	e7c23007 	strb	r3, [r2, r7]
    9bf8:	e59c1000 	ldr	r1, [ip]
    9bfc:	e59d0008 	ldr	r0, [sp, #8]
    9c00:	e7c1300e 	strb	r3, [r1, lr]
    9c04:	e59c1000 	ldr	r1, [ip]
    9c08:	e59de014 	ldr	lr, [sp, #20]
    9c0c:	e7c13006 	strb	r3, [r1, r6]
    9c10:	e59c1000 	ldr	r1, [ip]
    9c14:	e1a02003 	mov	r2, r3
    9c18:	e7c1300e 	strb	r3, [r1, lr]
    9c1c:	e59c1000 	ldr	r1, [ip]
    9c20:	ebfffccf 	bl	8f64 <fsSectorWrite>
    9c24:	e3500000 	cmp	r0, #0
    9c28:	0a0000e6 	beq	9fc8 <fsFindInDir+0x9d0>
    9c2c:	e1a0000a 	mov	r0, sl
    9c30:	ea000001 	b	9c3c <fsFindInDir+0x644>
    9c34:	e370021f 	cmn	r0, #-268435455	; 0xf0000001
    9c38:	0a000198 	beq	a2a0 <fsFindInDir+0xca8>
    9c3c:	e3a01003 	mov	r1, #3
    9c40:	ebfffd44 	bl	9158 <fsFindNextCluster>
    9c44:	e3700011 	cmn	r0, #17
    9c48:	9afffff9 	bls	9c34 <fsFindInDir+0x63c>
    9c4c:	e3e03000 	mvn	r3, #0
    9c50:	e58d304c 	str	r3, [sp, #76]	; 0x4c
    9c54:	eaffffa5 	b	9af0 <fsFindInDir+0x4f8>
    9c58:	e3a05008 	mov	r5, #8
    9c5c:	eafffe96 	b	96bc <fsFindInDir+0xc4>
    9c60:	e3a00002 	mov	r0, #2
    9c64:	ebfffd80 	bl	926c <fsFindClusterFree>
    9c68:	e3700011 	cmn	r0, #17
    9c6c:	e58d004c 	str	r0, [sp, #76]	; 0x4c
    9c70:	8afffff5 	bhi	9c4c <fsFindInDir+0x654>
    9c74:	e59da00c 	ldr	sl, [sp, #12]
    9c78:	e59d0008 	ldr	r0, [sp, #8]
    9c7c:	e59a1000 	ldr	r1, [sl]
    9c80:	ebfffca2 	bl	8f10 <fsSectorRead>
    9c84:	e3500000 	cmp	r0, #0
    9c88:	0a0000d5 	beq	9fe4 <fsFindInDir+0x9ec>
    9c8c:	e3a03000 	mov	r3, #0
    9c90:	e1a0c00a 	mov	ip, sl
    9c94:	e59d5014 	ldr	r5, [sp, #20]
    9c98:	e59de060 	ldr	lr, [sp, #96]	; 0x60
    9c9c:	e3530007 	cmp	r3, #7
    9ca0:	859d0054 	ldrhi	r0, [sp, #84]	; 0x54
    9ca4:	97de0003 	ldrbls	r0, [lr, r3]
    9ca8:	80800003 	addhi	r0, r0, r3
    9cac:	e0842003 	add	r2, r4, r3
    9cb0:	85500008 	ldrbhi	r0, [r0, #-8]
    9cb4:	e59c1000 	ldr	r1, [ip]
    9cb8:	e2833001 	add	r3, r3, #1
    9cbc:	e353000b 	cmp	r3, #11
    9cc0:	e7c10002 	strb	r0, [r1, r2]
    9cc4:	1afffff4 	bne	9c9c <fsFindInDir+0x6a4>
    9cc8:	e59d3004 	ldr	r3, [sp, #4]
    9ccc:	e3a01000 	mov	r1, #0
    9cd0:	e3530004 	cmp	r3, #4
    9cd4:	03a02000 	moveq	r2, #0
    9cd8:	13a02010 	movne	r2, #16
    9cdc:	e59d300c 	ldr	r3, [sp, #12]
    9ce0:	e1a0a001 	mov	sl, r1
    9ce4:	e5933000 	ldr	r3, [r3]
    9ce8:	e58d1060 	str	r1, [sp, #96]	; 0x60
    9cec:	e7c3200b 	strb	r2, [r3, fp]
    9cf0:	e28db074 	add	fp, sp, #116	; 0x74
    9cf4:	e1a0000b 	mov	r0, fp
    9cf8:	e5cd1074 	strb	r1, [sp, #116]	; 0x74
    9cfc:	e5cd1075 	strb	r1, [sp, #117]	; 0x75
    9d00:	e58d1050 	str	r1, [sp, #80]	; 0x50
    9d04:	e5cd1076 	strb	r1, [sp, #118]	; 0x76
    9d08:	e58d5014 	str	r5, [sp, #20]
    9d0c:	eb001bd6 	bl	10c6c <atoi>
    9d10:	e3a03000 	mov	r3, #0
    9d14:	e58d0010 	str	r0, [sp, #16]
    9d18:	e1a0000b 	mov	r0, fp
    9d1c:	e1a05003 	mov	r5, r3
    9d20:	e5cd3074 	strb	r3, [sp, #116]	; 0x74
    9d24:	e5cd3075 	strb	r3, [sp, #117]	; 0x75
    9d28:	e5cda076 	strb	sl, [sp, #118]	; 0x76
    9d2c:	eb001bce 	bl	10c6c <atoi>
    9d30:	e58d0018 	str	r0, [sp, #24]
    9d34:	e1a0000b 	mov	r0, fp
    9d38:	e5cd5074 	strb	r5, [sp, #116]	; 0x74
    9d3c:	e5cda078 	strb	sl, [sp, #120]	; 0x78
    9d40:	e5cda075 	strb	sl, [sp, #117]	; 0x75
    9d44:	e58da054 	str	sl, [sp, #84]	; 0x54
    9d48:	e5cda076 	strb	sl, [sp, #118]	; 0x76
    9d4c:	e5cda077 	strb	sl, [sp, #119]	; 0x77
    9d50:	eb001bc5 	bl	10c6c <atoi>
    9d54:	e59d1060 	ldr	r1, [sp, #96]	; 0x60
    9d58:	e59d2050 	ldr	r2, [sp, #80]	; 0x50
    9d5c:	e58d0040 	str	r0, [sp, #64]	; 0x40
    9d60:	e1a0000b 	mov	r0, fp
    9d64:	e5cd1074 	strb	r1, [sp, #116]	; 0x74
    9d68:	e5cd2075 	strb	r2, [sp, #117]	; 0x75
    9d6c:	e5cda076 	strb	sl, [sp, #118]	; 0x76
    9d70:	eb001bbd 	bl	10c6c <atoi>
    9d74:	e3a03000 	mov	r3, #0
    9d78:	e1a05000 	mov	r5, r0
    9d7c:	e1a0000b 	mov	r0, fp
    9d80:	e5cd3074 	strb	r3, [sp, #116]	; 0x74
    9d84:	e5cd3075 	strb	r3, [sp, #117]	; 0x75
    9d88:	e5cda076 	strb	sl, [sp, #118]	; 0x76
    9d8c:	eb001bb6 	bl	10c6c <atoi>
    9d90:	e3a03000 	mov	r3, #0
    9d94:	e5cd3074 	strb	r3, [sp, #116]	; 0x74
    9d98:	e59d3054 	ldr	r3, [sp, #84]	; 0x54
    9d9c:	e58d0050 	str	r0, [sp, #80]	; 0x50
    9da0:	e1a0000b 	mov	r0, fp
    9da4:	e5cd3075 	strb	r3, [sp, #117]	; 0x75
    9da8:	e5cda076 	strb	sl, [sp, #118]	; 0x76
    9dac:	eb001bae 	bl	10c6c <atoi>
    9db0:	e59d1050 	ldr	r1, [sp, #80]	; 0x50
    9db4:	e6ef2070 	uxtb	r2, r0
    9db8:	e6ef1071 	uxtb	r1, r1
    9dbc:	e3a03002 	mov	r3, #2
    9dc0:	e6ef0075 	uxtb	r0, r5
    9dc4:	eb0017f4 	bl	fd9c <datetimetodir>
    9dc8:	e1a0b000 	mov	fp, r0
    9dcc:	e5dd2040 	ldrb	r2, [sp, #64]	; 0x40
    9dd0:	e5dd1018 	ldrb	r1, [sp, #24]
    9dd4:	e3a03001 	mov	r3, #1
    9dd8:	e5dd0010 	ldrb	r0, [sp, #16]
    9ddc:	eb0017ee 	bl	fd9c <datetimetodir>
    9de0:	e1a0c00b 	mov	ip, fp
    9de4:	e59d100c 	ldr	r1, [sp, #12]
    9de8:	e6efb07b 	uxtb	fp, fp
    9dec:	e5913000 	ldr	r3, [r1]
    9df0:	e59d5028 	ldr	r5, [sp, #40]	; 0x28
    9df4:	e0833004 	add	r3, r3, r4
    9df8:	e5c3a00c 	strb	sl, [r3, #12]
    9dfc:	e5912000 	ldr	r2, [r1]
    9e00:	e1a0342c 	lsr	r3, ip, #8
    9e04:	e0824004 	add	r4, r2, r4
    9e08:	e5c4a00d 	strb	sl, [r4, #13]
    9e0c:	e5912000 	ldr	r2, [r1]
    9e10:	e6efc073 	uxtb	ip, r3
    9e14:	e7c2b008 	strb	fp, [r2, r8]
    9e18:	e5913000 	ldr	r3, [r1]
    9e1c:	e59d201c 	ldr	r2, [sp, #28]
    9e20:	e6ef4070 	uxtb	r4, r0
    9e24:	e7c3c002 	strb	ip, [r3, r2]
    9e28:	e5913000 	ldr	r3, [r1]
    9e2c:	e59d2024 	ldr	r2, [sp, #36]	; 0x24
    9e30:	e1a00420 	lsr	r0, r0, #8
    9e34:	e7c34002 	strb	r4, [r3, r2]
    9e38:	e5913000 	ldr	r3, [r1]
    9e3c:	e59d2020 	ldr	r2, [sp, #32]
    9e40:	e6ef8070 	uxtb	r8, r0
    9e44:	e7c38002 	strb	r8, [r3, r2]
    9e48:	e5913000 	ldr	r3, [r1]
    9e4c:	e59d202c 	ldr	r2, [sp, #44]	; 0x2c
    9e50:	e59d004c 	ldr	r0, [sp, #76]	; 0x4c
    9e54:	e7c34002 	strb	r4, [r3, r2]
    9e58:	e5912000 	ldr	r2, [r1]
    9e5c:	e1a03420 	lsr	r3, r0, #8
    9e60:	e7c28005 	strb	r8, [r2, r5]
    9e64:	e5912000 	ldr	r2, [r1]
    9e68:	e59d5058 	ldr	r5, [sp, #88]	; 0x58
    9e6c:	e6efe070 	uxtb	lr, r0
    9e70:	e7c2b005 	strb	fp, [r2, r5]
    9e74:	e5912000 	ldr	r2, [r1]
    9e78:	e59d5048 	ldr	r5, [sp, #72]	; 0x48
    9e7c:	e6ef3073 	uxtb	r3, r3
    9e80:	e7c2c005 	strb	ip, [r2, r5]
    9e84:	e58dc040 	str	ip, [sp, #64]	; 0x40
    9e88:	e58de020 	str	lr, [sp, #32]
    9e8c:	e58d3010 	str	r3, [sp, #16]
    9e90:	e5912000 	ldr	r2, [r1]
    9e94:	e59d5034 	ldr	r5, [sp, #52]	; 0x34
    9e98:	e1a03820 	lsr	r3, r0, #16
    9e9c:	e7c24005 	strb	r4, [r2, r5]
    9ea0:	e1a02001 	mov	r2, r1
    9ea4:	e6ef3073 	uxtb	r3, r3
    9ea8:	e58d3018 	str	r3, [sp, #24]
    9eac:	e5913000 	ldr	r3, [r1]
    9eb0:	e1a01c20 	lsr	r1, r0, #24
    9eb4:	e58d101c 	str	r1, [sp, #28]
    9eb8:	e1a01002 	mov	r1, r2
    9ebc:	e59d0030 	ldr	r0, [sp, #48]	; 0x30
    9ec0:	e59d505c 	ldr	r5, [sp, #92]	; 0x5c
    9ec4:	e7c38000 	strb	r8, [r3, r0]
    9ec8:	e5923000 	ldr	r3, [r2]
    9ecc:	e59dc010 	ldr	ip, [sp, #16]
    9ed0:	e7c3e005 	strb	lr, [r3, r5]
    9ed4:	e5923000 	ldr	r3, [r2]
    9ed8:	e59de014 	ldr	lr, [sp, #20]
    9edc:	e7c3c007 	strb	ip, [r3, r7]
    9ee0:	e5913000 	ldr	r3, [r1]
    9ee4:	e59dc018 	ldr	ip, [sp, #24]
    9ee8:	e59d0008 	ldr	r0, [sp, #8]
    9eec:	e7c3c006 	strb	ip, [r3, r6]
    9ef0:	e5913000 	ldr	r3, [r1]
    9ef4:	e59dc01c 	ldr	ip, [sp, #28]
    9ef8:	e1a0200a 	mov	r2, sl
    9efc:	e7c3c00e 	strb	ip, [r3, lr]
    9f00:	e5913000 	ldr	r3, [r1]
    9f04:	e59dc03c 	ldr	ip, [sp, #60]	; 0x3c
    9f08:	e7c3a00c 	strb	sl, [r3, ip]
    9f0c:	e5913000 	ldr	r3, [r1]
    9f10:	e59dc044 	ldr	ip, [sp, #68]	; 0x44
    9f14:	e7c3a00c 	strb	sl, [r3, ip]
    9f18:	e5913000 	ldr	r3, [r1]
    9f1c:	e59dc064 	ldr	ip, [sp, #100]	; 0x64
    9f20:	e7c3a00c 	strb	sl, [r3, ip]
    9f24:	e5913000 	ldr	r3, [r1]
    9f28:	e59dc038 	ldr	ip, [sp, #56]	; 0x38
    9f2c:	e7c3a00c 	strb	sl, [r3, ip]
    9f30:	e5911000 	ldr	r1, [r1]
    9f34:	ebfffc0a 	bl	8f64 <fsSectorWrite>
    9f38:	e150000a 	cmp	r0, sl
    9f3c:	0a000021 	beq	9fc8 <fsFindInDir+0x9d0>
    9f40:	e59d3004 	ldr	r3, [sp, #4]
    9f44:	e3530005 	cmp	r3, #5
    9f48:	1afffee8 	bne	9af0 <fsFindInDir+0x4f8>
    9f4c:	e5992000 	ldr	r2, [r9]
    9f50:	e59d004c 	ldr	r0, [sp, #76]	; 0x4c
    9f54:	e5923000 	ldr	r3, [r2]
    9f58:	e2407002 	sub	r7, r0, #2
    9f5c:	e59d000c 	ldr	r0, [sp, #12]
    9f60:	e5d2c021 	ldrb	ip, [r2, #33]	; 0x21
    9f64:	e1a03083 	lsl	r3, r3, #1
    9f68:	e5922018 	ldr	r2, [r2, #24]
    9f6c:	e1a0100a 	mov	r1, sl
    9f70:	e5900000 	ldr	r0, [r0]
    9f74:	e0253c97 	mla	r5, r7, ip, r3
    9f78:	eb001a99 	bl	109e4 <memset>
    9f7c:	e5992000 	ldr	r2, [r9]
    9f80:	e5d23021 	ldrb	r3, [r2, #33]	; 0x21
    9f84:	e3530000 	cmp	r3, #0
    9f88:	0a000062 	beq	a118 <fsFindInDir+0xb20>
    9f8c:	e1a06005 	mov	r6, r5
    9f90:	ea000003 	b	9fa4 <fsFindInDir+0x9ac>
    9f94:	e5992000 	ldr	r2, [r9]
    9f98:	e5d23021 	ldrb	r3, [r2, #33]	; 0x21
    9f9c:	e1530001 	cmp	r3, r1
    9fa0:	9a00005c 	bls	a118 <fsFindInDir+0xb20>
    9fa4:	e59d300c 	ldr	r3, [sp, #12]
    9fa8:	e1a00006 	mov	r0, r6
    9fac:	e5931000 	ldr	r1, [r3]
    9fb0:	e3a02000 	mov	r2, #0
    9fb4:	ebfffbea 	bl	8f64 <fsSectorWrite>
    9fb8:	e2866001 	add	r6, r6, #1
    9fbc:	e3500000 	cmp	r0, #0
    9fc0:	e0461005 	sub	r1, r6, r5
    9fc4:	1afffff2 	bne	9f94 <fsFindInDir+0x99c>
    9fc8:	e3e0300d 	mvn	r3, #13
    9fcc:	e58d304c 	str	r3, [sp, #76]	; 0x4c
    9fd0:	eafffec6 	b	9af0 <fsFindInDir+0x4f8>
    9fd4:	e28d3088 	add	r3, sp, #136	; 0x88
    9fd8:	e0833005 	add	r3, r3, r5
    9fdc:	e5432020 	strb	r2, [r3, #-32]	; 0xffffffe0
    9fe0:	eafffdb4 	b	96b8 <fsFindInDir+0xc0>
    9fe4:	e3e0300e 	mvn	r3, #14
    9fe8:	e58d304c 	str	r3, [sp, #76]	; 0x4c
    9fec:	eafffebf 	b	9af0 <fsFindInDir+0x4f8>
    9ff0:	e5d42001 	ldrb	r2, [r4, #1]
    9ff4:	e352002e 	cmp	r2, #46	; 0x2e
    9ff8:	02833c2e 	addeq	r3, r3, #11776	; 0x2e00
    9ffc:	01cd37bc 	strheq	r3, [sp, #124]	; 0x7c
    a000:	15cd307c 	strbne	r3, [sp, #124]	; 0x7c
    a004:	eafffdb1 	b	96d0 <fsFindInDir+0xd8>
    a008:	e3e0300a 	mvn	r3, #10
    a00c:	e58d304c 	str	r3, [sp, #76]	; 0x4c
    a010:	eafffeb6 	b	9af0 <fsFindInDir+0x4f8>
    a014:	e59d3004 	ldr	r3, [sp, #4]
    a018:	e2433003 	sub	r3, r3, #3
    a01c:	e3530002 	cmp	r3, #2
    a020:	8afffeb2 	bhi	9af0 <fsFindInDir+0x4f8>
    a024:	e3a00002 	mov	r0, #2
    a028:	ebfffc8f 	bl	926c <fsFindClusterFree>
    a02c:	e3700011 	cmn	r0, #17
    a030:	e58d0068 	str	r0, [sp, #104]	; 0x68
    a034:	8affff04 	bhi	9c4c <fsFindInDir+0x654>
    a038:	e59d900c 	ldr	r9, [sp, #12]
    a03c:	e1a00004 	mov	r0, r4
    a040:	e5991000 	ldr	r1, [r9]
    a044:	ebfffbb1 	bl	8f10 <fsSectorRead>
    a048:	e3500000 	cmp	r0, #0
    a04c:	0affffe4 	beq	9fe4 <fsFindInDir+0x9ec>
    a050:	e59d1068 	ldr	r1, [sp, #104]	; 0x68
    a054:	e5993000 	ldr	r3, [r9]
    a058:	e1a02421 	lsr	r2, r1, #8
    a05c:	e7c31108 	strb	r1, [r3, r8, lsl #2]
    a060:	e5993000 	ldr	r3, [r9]
    a064:	e1a00004 	mov	r0, r4
    a068:	e7c32005 	strb	r2, [r3, r5]
    a06c:	e5993000 	ldr	r3, [r9]
    a070:	e1a02821 	lsr	r2, r1, #16
    a074:	e7c32006 	strb	r2, [r3, r6]
    a078:	e5993000 	ldr	r3, [r9]
    a07c:	e1a02c21 	lsr	r2, r1, #24
    a080:	e7c32007 	strb	r2, [r3, r7]
    a084:	e1a05001 	mov	r5, r1
    a088:	e3a02000 	mov	r2, #0
    a08c:	e5991000 	ldr	r1, [r9]
    a090:	ebfffbb3 	bl	8f64 <fsSectorWrite>
    a094:	e3500000 	cmp	r0, #0
    a098:	0affffca 	beq	9fc8 <fsFindInDir+0x9d0>
    a09c:	e59d3010 	ldr	r3, [sp, #16]
    a0a0:	e2455002 	sub	r5, r5, #2
    a0a4:	e5932000 	ldr	r2, [r3]
    a0a8:	e3a01000 	mov	r1, #0
    a0ac:	e5923000 	ldr	r3, [r2]
    a0b0:	e5d2c021 	ldrb	ip, [r2, #33]	; 0x21
    a0b4:	e1a03083 	lsl	r3, r3, #1
    a0b8:	e5922018 	ldr	r2, [r2, #24]
    a0bc:	e5990000 	ldr	r0, [r9]
    a0c0:	e0243c95 	mla	r4, r5, ip, r3
    a0c4:	e3a06000 	mov	r6, #0
    a0c8:	eb001a45 	bl	109e4 <memset>
    a0cc:	e59d3010 	ldr	r3, [sp, #16]
    a0d0:	e0860004 	add	r0, r6, r4
    a0d4:	e5932000 	ldr	r2, [r3]
    a0d8:	e5d23021 	ldrb	r3, [r2, #33]	; 0x21
    a0dc:	e1530006 	cmp	r3, r6
    a0e0:	9a000007 	bls	a104 <fsFindInDir+0xb0c>
    a0e4:	e59d300c 	ldr	r3, [sp, #12]
    a0e8:	e3a02000 	mov	r2, #0
    a0ec:	e5931000 	ldr	r1, [r3]
    a0f0:	ebfffb9b 	bl	8f64 <fsSectorWrite>
    a0f4:	e3500000 	cmp	r0, #0
    a0f8:	0affffb2 	beq	9fc8 <fsFindInDir+0x9d0>
    a0fc:	e2866001 	add	r6, r6, #1
    a100:	eafffff1 	b	a0cc <fsFindInDir+0xad4>
    a104:	e0030593 	mul	r3, r3, r5
    a108:	e5922000 	ldr	r2, [r2]
    a10c:	e0833082 	add	r3, r3, r2, lsl #1
    a110:	e58d3008 	str	r3, [sp, #8]
    a114:	eafffe5e 	b	9a94 <fsFindInDir+0x49c>
    a118:	e0030397 	mul	r3, r7, r3
    a11c:	e59d600c 	ldr	r6, [sp, #12]
    a120:	e5925000 	ldr	r5, [r2]
    a124:	e3a01000 	mov	r1, #0
    a128:	e5922018 	ldr	r2, [r2, #24]
    a12c:	e5960000 	ldr	r0, [r6]
    a130:	e0835085 	add	r5, r3, r5, lsl #1
    a134:	eb001a2a 	bl	109e4 <memset>
    a138:	e3a0102e 	mov	r1, #46	; 0x2e
    a13c:	e3a02020 	mov	r2, #32
    a140:	e3a0a010 	mov	sl, #16
    a144:	e3a0c000 	mov	ip, #0
    a148:	e5963000 	ldr	r3, [r6]
    a14c:	e59de020 	ldr	lr, [sp, #32]
    a150:	e5c31000 	strb	r1, [r3]
    a154:	e5963000 	ldr	r3, [r6]
    a158:	e59d9040 	ldr	r9, [sp, #64]	; 0x40
    a15c:	e5c32001 	strb	r2, [r3, #1]
    a160:	e5963000 	ldr	r3, [r6]
    a164:	e1a00005 	mov	r0, r5
    a168:	e5c32002 	strb	r2, [r3, #2]
    a16c:	e5963000 	ldr	r3, [r6]
    a170:	e5c32003 	strb	r2, [r3, #3]
    a174:	e5963000 	ldr	r3, [r6]
    a178:	e5c3e01a 	strb	lr, [r3, #26]
    a17c:	e59de010 	ldr	lr, [sp, #16]
    a180:	e5c32004 	strb	r2, [r3, #4]
    a184:	e5c3e01b 	strb	lr, [r3, #27]
    a188:	e59de018 	ldr	lr, [sp, #24]
    a18c:	e5c32005 	strb	r2, [r3, #5]
    a190:	e5c32006 	strb	r2, [r3, #6]
    a194:	e5c32007 	strb	r2, [r3, #7]
    a198:	e5c32008 	strb	r2, [r3, #8]
    a19c:	e5c32009 	strb	r2, [r3, #9]
    a1a0:	e5c3200a 	strb	r2, [r3, #10]
    a1a4:	e5c3b00e 	strb	fp, [r3, #14]
    a1a8:	e5c3900f 	strb	r9, [r3, #15]
    a1ac:	e5c34010 	strb	r4, [r3, #16]
    a1b0:	e5c38011 	strb	r8, [r3, #17]
    a1b4:	e5c34012 	strb	r4, [r3, #18]
    a1b8:	e5c38013 	strb	r8, [r3, #19]
    a1bc:	e5c3b016 	strb	fp, [r3, #22]
    a1c0:	e5c39017 	strb	r9, [r3, #23]
    a1c4:	e5c34018 	strb	r4, [r3, #24]
    a1c8:	e5c38019 	strb	r8, [r3, #25]
    a1cc:	e5c3e014 	strb	lr, [r3, #20]
    a1d0:	e59de01c 	ldr	lr, [sp, #28]
    a1d4:	e5c31020 	strb	r1, [r3, #32]
    a1d8:	e5c3e015 	strb	lr, [r3, #21]
    a1dc:	e59de06c 	ldr	lr, [sp, #108]	; 0x6c
    a1e0:	e5c31021 	strb	r1, [r3, #33]	; 0x21
    a1e4:	e59ee000 	ldr	lr, [lr]
    a1e8:	e5c32022 	strb	r2, [r3, #34]	; 0x22
    a1ec:	e1a0742e 	lsr	r7, lr, #8
    a1f0:	e1a06a3e 	lsr	r6, lr, sl
    a1f4:	e1a05c2e 	lsr	r5, lr, #24
    a1f8:	e5c32023 	strb	r2, [r3, #35]	; 0x23
    a1fc:	e5c32024 	strb	r2, [r3, #36]	; 0x24
    a200:	e5c32025 	strb	r2, [r3, #37]	; 0x25
    a204:	e5c32026 	strb	r2, [r3, #38]	; 0x26
    a208:	e5c32027 	strb	r2, [r3, #39]	; 0x27
    a20c:	e5c32028 	strb	r2, [r3, #40]	; 0x28
    a210:	e5c32029 	strb	r2, [r3, #41]	; 0x29
    a214:	e5c3202a 	strb	r2, [r3, #42]	; 0x2a
    a218:	e5c3a00b 	strb	sl, [r3, #11]
    a21c:	e5c3c00c 	strb	ip, [r3, #12]
    a220:	e5c3c00d 	strb	ip, [r3, #13]
    a224:	e5c3c01c 	strb	ip, [r3, #28]
    a228:	e5c3c01d 	strb	ip, [r3, #29]
    a22c:	e5c3c01e 	strb	ip, [r3, #30]
    a230:	e5c3c01f 	strb	ip, [r3, #31]
    a234:	e5c3a02b 	strb	sl, [r3, #43]	; 0x2b
    a238:	e5c3c02c 	strb	ip, [r3, #44]	; 0x2c
    a23c:	e5c3c02d 	strb	ip, [r3, #45]	; 0x2d
    a240:	e5c3b02e 	strb	fp, [r3, #46]	; 0x2e
    a244:	e5c3902f 	strb	r9, [r3, #47]	; 0x2f
    a248:	e5c34030 	strb	r4, [r3, #48]	; 0x30
    a24c:	e5c38031 	strb	r8, [r3, #49]	; 0x31
    a250:	e5c34032 	strb	r4, [r3, #50]	; 0x32
    a254:	e5c38033 	strb	r8, [r3, #51]	; 0x33
    a258:	e5c3b036 	strb	fp, [r3, #54]	; 0x36
    a25c:	e1a01003 	mov	r1, r3
    a260:	e5c39037 	strb	r9, [r3, #55]	; 0x37
    a264:	e1a0200c 	mov	r2, ip
    a268:	e5c34038 	strb	r4, [r3, #56]	; 0x38
    a26c:	e5c38039 	strb	r8, [r3, #57]	; 0x39
    a270:	e5c3e03a 	strb	lr, [r3, #58]	; 0x3a
    a274:	e5c3703b 	strb	r7, [r3, #59]	; 0x3b
    a278:	e5c36034 	strb	r6, [r3, #52]	; 0x34
    a27c:	e5c35035 	strb	r5, [r3, #53]	; 0x35
    a280:	e5c3c03c 	strb	ip, [r3, #60]	; 0x3c
    a284:	e5c3c03d 	strb	ip, [r3, #61]	; 0x3d
    a288:	e5c3c03e 	strb	ip, [r3, #62]	; 0x3e
    a28c:	e5c3c03f 	strb	ip, [r3, #63]	; 0x3f
    a290:	ebfffb33 	bl	8f64 <fsSectorWrite>
    a294:	e3500000 	cmp	r0, #0
    a298:	1afffe14 	bne	9af0 <fsFindInDir+0x4f8>
    a29c:	eaffff49 	b	9fc8 <fsFindInDir+0x9d0>
    a2a0:	e59d3064 	ldr	r3, [sp, #100]	; 0x64
    a2a4:	e58d0068 	str	r0, [sp, #104]	; 0x68
    a2a8:	e5933000 	ldr	r3, [r3]
    a2ac:	e58d004c 	str	r0, [sp, #76]	; 0x4c
    a2b0:	e58d0008 	str	r0, [sp, #8]
    a2b4:	e5d32000 	ldrb	r2, [r3]
    a2b8:	eafffdb4 	b	9990 <fsFindInDir+0x398>
    a2bc:	00015838 	andeq	r5, r1, r8, lsr r8
    a2c0:	000000f4 	strdeq	r0, [r0], -r4
    a2c4:	000001bc 			; <UNDEFINED> instruction: 0x000001bc
    a2c8:	0000008c 	andeq	r0, r0, ip, lsl #1
    a2cc:	0000002c 	andeq	r0, r0, ip, lsr #32
    a2d0:	00000070 	andeq	r0, r0, r0, ror r0

0000a2d4 <fsCreateFile>:
    a2d4:	e92d4010 	push	{r4, lr}
    a2d8:	e3a010ff 	mov	r1, #255	; 0xff
    a2dc:	e1a04000 	mov	r4, r0
    a2e0:	ebfffcc4 	bl	95f8 <fsFindInDir>
    a2e4:	e3700011 	cmn	r0, #17
    a2e8:	9a000006 	bls	a308 <fsCreateFile+0x34>
    a2ec:	e1a00004 	mov	r0, r4
    a2f0:	e3a01004 	mov	r1, #4
    a2f4:	ebfffcbf 	bl	95f8 <fsFindInDir>
    a2f8:	e3700011 	cmn	r0, #17
    a2fc:	83a000e6 	movhi	r0, #230	; 0xe6
    a300:	93a00000 	movls	r0, #0
    a304:	e8bd8010 	pop	{r4, pc}
    a308:	e3a000e8 	mov	r0, #232	; 0xe8
    a30c:	e8bd8010 	pop	{r4, pc}

0000a310 <fsOpenFile>:
    a310:	e92d41f0 	push	{r4, r5, r6, r7, r8, lr}
    a314:	e3a01002 	mov	r1, #2
    a318:	e24dd018 	sub	sp, sp, #24
    a31c:	ebfffcb5 	bl	95f8 <fsFindInDir>
    a320:	e59f40bc 	ldr	r4, [pc, #188]	; a3e4 <fsOpenFile+0xd4>
    a324:	e3700011 	cmn	r0, #17
    a328:	e08f4004 	add	r4, pc, r4
    a32c:	83a000e0 	movhi	r0, #224	; 0xe0
    a330:	8a000029 	bhi	a3dc <fsOpenFile+0xcc>
    a334:	e3a05000 	mov	r5, #0
    a338:	e5dd200c 	ldrb	r2, [sp, #12]
    a33c:	e5dd300d 	ldrb	r3, [sp, #13]
    a340:	e28d6004 	add	r6, sp, #4
    a344:	e1a00006 	mov	r0, r6
    a348:	e5cd2004 	strb	r2, [sp, #4]
    a34c:	e5cd3005 	strb	r3, [sp, #5]
    a350:	e5cd5006 	strb	r5, [sp, #6]
    a354:	eb001a44 	bl	10c6c <atoi>
    a358:	e5dd200f 	ldrb	r2, [sp, #15]
    a35c:	e5dd3010 	ldrb	r3, [sp, #16]
    a360:	e1a07000 	mov	r7, r0
    a364:	e1a00006 	mov	r0, r6
    a368:	e5cd2004 	strb	r2, [sp, #4]
    a36c:	e5cd3005 	strb	r3, [sp, #5]
    a370:	e5cd5006 	strb	r5, [sp, #6]
    a374:	eb001a3c 	bl	10c6c <atoi>
    a378:	e5dd3012 	ldrb	r3, [sp, #18]
    a37c:	e5dd1013 	ldrb	r1, [sp, #19]
    a380:	e5dd2014 	ldrb	r2, [sp, #20]
    a384:	e5cd3004 	strb	r3, [sp, #4]
    a388:	e5dd3015 	ldrb	r3, [sp, #21]
    a38c:	e1a08000 	mov	r8, r0
    a390:	e1a00006 	mov	r0, r6
    a394:	e5cd1005 	strb	r1, [sp, #5]
    a398:	e5cd2006 	strb	r2, [sp, #6]
    a39c:	e5cd3007 	strb	r3, [sp, #7]
    a3a0:	e5cd5008 	strb	r5, [sp, #8]
    a3a4:	eb001a30 	bl	10c6c <atoi>
    a3a8:	e6ef1078 	uxtb	r1, r8
    a3ac:	e6ef2070 	uxtb	r2, r0
    a3b0:	e3a03001 	mov	r3, #1
    a3b4:	e6ef0077 	uxtb	r0, r7
    a3b8:	eb001677 	bl	fd9c <datetimetodir>
    a3bc:	e59f3024 	ldr	r3, [pc, #36]	; a3e8 <fsOpenFile+0xd8>
    a3c0:	e7943003 	ldr	r3, [r4, r3]
    a3c4:	e5933000 	ldr	r3, [r3]
    a3c8:	e5830018 	str	r0, [r3, #24]
    a3cc:	ebfffaf9 	bl	8fb8 <fsUpdateDir>
    a3d0:	e1500005 	cmp	r0, r5
    a3d4:	13a000e9 	movne	r0, #233	; 0xe9
    a3d8:	01a00005 	moveq	r0, r5
    a3dc:	e28dd018 	add	sp, sp, #24
    a3e0:	e8bd81f0 	pop	{r4, r5, r6, r7, r8, pc}
    a3e4:	00014b50 	andeq	r4, r1, r0, asr fp
    a3e8:	00000070 	andeq	r0, r0, r0, ror r0

0000a3ec <fsCloseFile>:
    a3ec:	e92d4ff0 	push	{r4, r5, r6, r7, r8, r9, sl, fp, lr}
    a3f0:	e1a05001 	mov	r5, r1
    a3f4:	e24dd01c 	sub	sp, sp, #28
    a3f8:	e3a01002 	mov	r1, #2
    a3fc:	ebfffc7d 	bl	95f8 <fsFindInDir>
    a400:	e59f4130 	ldr	r4, [pc, #304]	; a538 <fsCloseFile+0x14c>
    a404:	e3700011 	cmn	r0, #17
    a408:	e08f4004 	add	r4, pc, r4
    a40c:	83a000ff 	movhi	r0, #255	; 0xff
    a410:	8a000002 	bhi	a420 <fsCloseFile+0x34>
    a414:	e3550000 	cmp	r5, #0
    a418:	1a000002 	bne	a428 <fsCloseFile+0x3c>
    a41c:	e3a00000 	mov	r0, #0
    a420:	e28dd01c 	add	sp, sp, #28
    a424:	e8bd8ff0 	pop	{r4, r5, r6, r7, r8, r9, sl, fp, pc}
    a428:	e3a02000 	mov	r2, #0
    a42c:	e28d6010 	add	r6, sp, #16
    a430:	e1a00006 	mov	r0, r6
    a434:	e1a0b002 	mov	fp, r2
    a438:	e1a05002 	mov	r5, r2
    a43c:	e1a09002 	mov	r9, r2
    a440:	e5cd2010 	strb	r2, [sp, #16]
    a444:	e58d200c 	str	r2, [sp, #12]
    a448:	e5cd2011 	strb	r2, [sp, #17]
    a44c:	e5cd2012 	strb	r2, [sp, #18]
    a450:	eb001a05 	bl	10c6c <atoi>
    a454:	e1a0a000 	mov	sl, r0
    a458:	e1a00006 	mov	r0, r6
    a45c:	e5cdb012 	strb	fp, [sp, #18]
    a460:	e5cdb010 	strb	fp, [sp, #16]
    a464:	e5cdb011 	strb	fp, [sp, #17]
    a468:	eb0019ff 	bl	10c6c <atoi>
    a46c:	e58d0000 	str	r0, [sp]
    a470:	e1a00006 	mov	r0, r6
    a474:	e5cdb014 	strb	fp, [sp, #20]
    a478:	e5cdb010 	strb	fp, [sp, #16]
    a47c:	e5cdb011 	strb	fp, [sp, #17]
    a480:	e58db008 	str	fp, [sp, #8]
    a484:	e5cdb012 	strb	fp, [sp, #18]
    a488:	e5cdb013 	strb	fp, [sp, #19]
    a48c:	eb0019f6 	bl	10c6c <atoi>
    a490:	e59d200c 	ldr	r2, [sp, #12]
    a494:	e58d0004 	str	r0, [sp, #4]
    a498:	e1a00006 	mov	r0, r6
    a49c:	e5cd2010 	strb	r2, [sp, #16]
    a4a0:	e5cdb011 	strb	fp, [sp, #17]
    a4a4:	e5cdb012 	strb	fp, [sp, #18]
    a4a8:	eb0019ef 	bl	10c6c <atoi>
    a4ac:	e1a0b000 	mov	fp, r0
    a4b0:	e1a00006 	mov	r0, r6
    a4b4:	e5cd5010 	strb	r5, [sp, #16]
    a4b8:	e5cd5011 	strb	r5, [sp, #17]
    a4bc:	e5cd5012 	strb	r5, [sp, #18]
    a4c0:	eb0019e9 	bl	10c6c <atoi>
    a4c4:	e59d3008 	ldr	r3, [sp, #8]
    a4c8:	e1a08000 	mov	r8, r0
    a4cc:	e1a00006 	mov	r0, r6
    a4d0:	e5cd5010 	strb	r5, [sp, #16]
    a4d4:	e5cd3011 	strb	r3, [sp, #17]
    a4d8:	e5cd5012 	strb	r5, [sp, #18]
    a4dc:	eb0019e2 	bl	10c6c <atoi>
    a4e0:	e6ef1078 	uxtb	r1, r8
    a4e4:	e6ef2070 	uxtb	r2, r0
    a4e8:	e3a03002 	mov	r3, #2
    a4ec:	e6ef007b 	uxtb	r0, fp
    a4f0:	eb001629 	bl	fd9c <datetimetodir>
    a4f4:	e5dd2004 	ldrb	r2, [sp, #4]
    a4f8:	e1a05000 	mov	r5, r0
    a4fc:	e5dd1000 	ldrb	r1, [sp]
    a500:	e3a03001 	mov	r3, #1
    a504:	e6ef007a 	uxtb	r0, sl
    a508:	eb001623 	bl	fd9c <datetimetodir>
    a50c:	e59f3028 	ldr	r3, [pc, #40]	; a53c <fsCloseFile+0x150>
    a510:	e7943003 	ldr	r3, [r4, r3]
    a514:	e5933000 	ldr	r3, [r3]
    a518:	e5835020 	str	r5, [r3, #32]
    a51c:	e5830018 	str	r0, [r3, #24]
    a520:	e583001c 	str	r0, [r3, #28]
    a524:	ebfffaa3 	bl	8fb8 <fsUpdateDir>
    a528:	e1500009 	cmp	r0, r9
    a52c:	13a000e9 	movne	r0, #233	; 0xe9
    a530:	0affffb9 	beq	a41c <fsCloseFile+0x30>
    a534:	eaffffb9 	b	a420 <fsCloseFile+0x34>
    a538:	00014a70 	andeq	r4, r1, r0, ror sl
    a53c:	00000070 	andeq	r0, r0, r0, ror r0

0000a540 <fsInfoFile>:
    a540:	e92d4010 	push	{r4, lr}
    a544:	e1a04001 	mov	r4, r1
    a548:	e3a01002 	mov	r1, #2
    a54c:	ebfffc29 	bl	95f8 <fsFindInDir>
    a550:	e59f3090 	ldr	r3, [pc, #144]	; a5e8 <fsInfoFile+0xa8>
    a554:	e3700011 	cmn	r0, #17
    a558:	e08f3003 	add	r3, pc, r3
    a55c:	8a000007 	bhi	a580 <fsInfoFile+0x40>
    a560:	e2441001 	sub	r1, r4, #1
    a564:	e3510003 	cmp	r1, #3
    a568:	908ff101 	addls	pc, pc, r1, lsl #2
    a56c:	ea000003 	b	a580 <fsInfoFile+0x40>
    a570:	ea000009 	b	a59c <fsInfoFile+0x5c>
    a574:	ea00000d 	b	a5b0 <fsInfoFile+0x70>
    a578:	ea000013 	b	a5cc <fsInfoFile+0x8c>
    a57c:	ea000001 	b	a588 <fsInfoFile+0x48>
    a580:	e3e00000 	mvn	r0, #0
    a584:	e8bd8010 	pop	{r4, pc}
    a588:	e59f205c 	ldr	r2, [pc, #92]	; a5ec <fsInfoFile+0xac>
    a58c:	e7933002 	ldr	r3, [r3, r2]
    a590:	e5933000 	ldr	r3, [r3]
    a594:	e5930018 	ldr	r0, [r3, #24]
    a598:	e8bd8010 	pop	{r4, pc}
    a59c:	e59f2048 	ldr	r2, [pc, #72]	; a5ec <fsInfoFile+0xac>
    a5a0:	e7933002 	ldr	r3, [r3, r2]
    a5a4:	e5933000 	ldr	r3, [r3]
    a5a8:	e5930028 	ldr	r0, [r3, #40]	; 0x28
    a5ac:	e8bd8010 	pop	{r4, pc}
    a5b0:	e59f2034 	ldr	r2, [pc, #52]	; a5ec <fsInfoFile+0xac>
    a5b4:	e7933002 	ldr	r3, [r3, r2]
    a5b8:	e5933000 	ldr	r3, [r3]
    a5bc:	e5932010 	ldr	r2, [r3, #16]
    a5c0:	e5930014 	ldr	r0, [r3, #20]
    a5c4:	e1800802 	orr	r0, r0, r2, lsl #16
    a5c8:	e8bd8010 	pop	{r4, pc}
    a5cc:	e59f2018 	ldr	r2, [pc, #24]	; a5ec <fsInfoFile+0xac>
    a5d0:	e7933002 	ldr	r3, [r3, r2]
    a5d4:	e5933000 	ldr	r3, [r3]
    a5d8:	e593201c 	ldr	r2, [r3, #28]
    a5dc:	e5930020 	ldr	r0, [r3, #32]
    a5e0:	e1800802 	orr	r0, r0, r2, lsl #16
    a5e4:	e8bd8010 	pop	{r4, pc}
    a5e8:	00014920 	andeq	r4, r1, r0, lsr #18
    a5ec:	00000070 	andeq	r0, r0, r0, ror r0

0000a5f0 <fsDelFile>:
    a5f0:	e92d4010 	push	{r4, lr}
    a5f4:	e3a01006 	mov	r1, #6
    a5f8:	ebfffbfe 	bl	95f8 <fsFindInDir>
    a5fc:	e3700011 	cmn	r0, #17
    a600:	83a000e7 	movhi	r0, #231	; 0xe7
    a604:	93a00000 	movls	r0, #0
    a608:	e8bd8010 	pop	{r4, pc}

0000a60c <fsRenameFile>:
    a60c:	e92d41f0 	push	{r4, r5, r6, r7, r8, lr}
    a610:	e1a06001 	mov	r6, r1
    a614:	e1a05000 	mov	r5, r0
    a618:	e3a010ff 	mov	r1, #255	; 0xff
    a61c:	e1a00006 	mov	r0, r6
    a620:	ebfffbf4 	bl	95f8 <fsFindInDir>
    a624:	e59f40c4 	ldr	r4, [pc, #196]	; a6f0 <fsRenameFile+0xe4>
    a628:	e3700011 	cmn	r0, #17
    a62c:	e08f4004 	add	r4, pc, r4
    a630:	9a00002c 	bls	a6e8 <fsRenameFile+0xdc>
    a634:	e1a00005 	mov	r0, r5
    a638:	e3a01002 	mov	r1, #2
    a63c:	ebfffbed 	bl	95f8 <fsFindInDir>
    a640:	e3700011 	cmn	r0, #17
    a644:	8a000025 	bhi	a6e0 <fsRenameFile+0xd4>
    a648:	e3a05000 	mov	r5, #0
    a64c:	e59f30a0 	ldr	r3, [pc, #160]	; a6f4 <fsRenameFile+0xe8>
    a650:	e3a02008 	mov	r2, #8
    a654:	e7947003 	ldr	r7, [r4, r3]
    a658:	e3a01020 	mov	r1, #32
    a65c:	e5970000 	ldr	r0, [r7]
    a660:	eb0018df 	bl	109e4 <memset>
    a664:	e5970000 	ldr	r0, [r7]
    a668:	e3a02003 	mov	r2, #3
    a66c:	e2800009 	add	r0, r0, #9
    a670:	e3a01020 	mov	r1, #32
    a674:	eb0018da 	bl	109e4 <memset>
    a678:	e1a04005 	mov	r4, r5
    a67c:	ea00000d 	b	a6b8 <fsRenameFile+0xac>
    a680:	e7d63003 	ldrb	r3, [r6, r3]
    a684:	e3530000 	cmp	r3, #0
    a688:	0a00000f 	beq	a6cc <fsRenameFile+0xc0>
    a68c:	e353002e 	cmp	r3, #46	; 0x2e
    a690:	03a04008 	moveq	r4, #8
    a694:	0a000006 	beq	a6b4 <fsRenameFile+0xa8>
    a698:	e5972000 	ldr	r2, [r7]
    a69c:	e3540007 	cmp	r4, #7
    a6a0:	80822004 	addhi	r2, r2, r4
    a6a4:	97c23004 	strbls	r3, [r2, r4]
    a6a8:	e2844001 	add	r4, r4, #1
    a6ac:	85c23001 	strbhi	r3, [r2, #1]
    a6b0:	e6ef4074 	uxtb	r4, r4
    a6b4:	e2855001 	add	r5, r5, #1
    a6b8:	e1a00006 	mov	r0, r6
    a6bc:	eb00196e 	bl	10c7c <strlen>
    a6c0:	e6ef3075 	uxtb	r3, r5
    a6c4:	e1530000 	cmp	r3, r0
    a6c8:	daffffec 	ble	a680 <fsRenameFile+0x74>
    a6cc:	ebfffa39 	bl	8fb8 <fsUpdateDir>
    a6d0:	e3500000 	cmp	r0, #0
    a6d4:	13a000e9 	movne	r0, #233	; 0xe9
    a6d8:	03a00000 	moveq	r0, #0
    a6dc:	e8bd81f0 	pop	{r4, r5, r6, r7, r8, pc}
    a6e0:	e3a000e0 	mov	r0, #224	; 0xe0
    a6e4:	e8bd81f0 	pop	{r4, r5, r6, r7, r8, pc}
    a6e8:	e3a000e8 	mov	r0, #232	; 0xe8
    a6ec:	e8bd81f0 	pop	{r4, r5, r6, r7, r8, pc}
    a6f0:	0001484c 	andeq	r4, r1, ip, asr #16
    a6f4:	00000070 	andeq	r0, r0, r0, ror r0

0000a6f8 <fsReadFile>:
    a6f8:	e92d4ff0 	push	{r4, r5, r6, r7, r8, r9, sl, fp, lr}
    a6fc:	e1a08001 	mov	r8, r1
    a700:	e24dd014 	sub	sp, sp, #20
    a704:	e3a01002 	mov	r1, #2
    a708:	e58d2008 	str	r2, [sp, #8]
    a70c:	e58d3000 	str	r3, [sp]
    a710:	ebfffbb8 	bl	95f8 <fsFindInDir>
    a714:	e59f6148 	ldr	r6, [pc, #328]	; a864 <fsReadFile+0x16c>
    a718:	e3700011 	cmn	r0, #17
    a71c:	e58d0004 	str	r0, [sp, #4]
    a720:	e08f6006 	add	r6, pc, r6
    a724:	8a00004a 	bhi	a854 <fsReadFile+0x15c>
    a728:	e59f3138 	ldr	r3, [pc, #312]	; a868 <fsReadFile+0x170>
    a72c:	e796b003 	ldr	fp, [r6, r3]
    a730:	e59b3000 	ldr	r3, [fp]
    a734:	e5933028 	ldr	r3, [r3, #40]	; 0x28
    a738:	e1530008 	cmp	r3, r8
    a73c:	3a000044 	bcc	a854 <fsReadFile+0x15c>
    a740:	e59f3124 	ldr	r3, [pc, #292]	; a86c <fsReadFile+0x174>
    a744:	e1a00008 	mov	r0, r8
    a748:	e796a003 	ldr	sl, [r6, r3]
    a74c:	e3a09000 	mov	r9, #0
    a750:	e59a3000 	ldr	r3, [sl]
    a754:	e1a05009 	mov	r5, r9
    a758:	e5934018 	ldr	r4, [r3, #24]
    a75c:	e1a07009 	mov	r7, r9
    a760:	e1a01004 	mov	r1, r4
    a764:	ebfff655 	bl	80c0 <__aeabi_uidivmod>
    a768:	e59d3000 	ldr	r3, [sp]
    a76c:	e0811003 	add	r1, r1, r3
    a770:	e1540001 	cmp	r4, r1
    a774:	23a01000 	movcs	r1, #0
    a778:	33a01001 	movcc	r1, #1
    a77c:	e2812001 	add	r2, r1, #1
    a780:	e1a01004 	mov	r1, r4
    a784:	e59f30e4 	ldr	r3, [pc, #228]	; a870 <fsReadFile+0x178>
    a788:	e58d200c 	str	r2, [sp, #12]
    a78c:	e7966003 	ldr	r6, [r6, r3]
    a790:	e1a00008 	mov	r0, r8
    a794:	ebfff649 	bl	80c0 <__aeabi_uidivmod>
    a798:	e3a03001 	mov	r3, #1
    a79c:	e1a04001 	mov	r4, r1
    a7a0:	e5962000 	ldr	r2, [r6]
    a7a4:	e1a01008 	mov	r1, r8
    a7a8:	e59d0004 	ldr	r0, [sp, #4]
    a7ac:	ebfffb01 	bl	93b8 <fsRWFile>
    a7b0:	e3500000 	cmp	r0, #0
    a7b4:	1a000027 	bne	a858 <fsReadFile+0x160>
    a7b8:	e59a2000 	ldr	r2, [sl]
    a7bc:	e59d0000 	ldr	r0, [sp]
    a7c0:	e5921018 	ldr	r1, [r2, #24]
    a7c4:	e0803004 	add	r3, r0, r4
    a7c8:	e1530001 	cmp	r3, r1
    a7cc:	e59b3000 	ldr	r3, [fp]
    a7d0:	90401005 	subls	r1, r0, r5
    a7d4:	80411004 	subhi	r1, r1, r4
    a7d8:	e6ef1071 	uxtb	r1, r1
    a7dc:	e5933028 	ldr	r3, [r3, #40]	; 0x28
    a7e0:	e0817007 	add	r7, r1, r7
    a7e4:	e6ef7077 	uxtb	r7, r7
    a7e8:	e0433008 	sub	r3, r3, r8
    a7ec:	e1570003 	cmp	r7, r3
    a7f0:	86ef7073 	uxtbhi	r7, r3
    a7f4:	e3510000 	cmp	r1, #0
    a7f8:	0a00000c 	beq	a830 <fsReadFile+0x138>
    a7fc:	e59d2008 	ldr	r2, [sp, #8]
    a800:	e2410001 	sub	r0, r1, #1
    a804:	e2843001 	add	r3, r4, #1
    a808:	e0825005 	add	r5, r2, r5
    a80c:	e6e30070 	uxtab	r0, r3, r0
    a810:	ea000000 	b	a818 <fsReadFile+0x120>
    a814:	e2833001 	add	r3, r3, #1
    a818:	e5962000 	ldr	r2, [r6]
    a81c:	e1500003 	cmp	r0, r3
    a820:	e7d22004 	ldrb	r2, [r2, r4]
    a824:	e1a04003 	mov	r4, r3
    a828:	e4c52001 	strb	r2, [r5], #1
    a82c:	1afffff8 	bne	a814 <fsReadFile+0x11c>
    a830:	e59d300c 	ldr	r3, [sp, #12]
    a834:	e2899001 	add	r9, r9, #1
    a838:	e1590003 	cmp	r9, r3
    a83c:	e0888001 	add	r8, r8, r1
    a840:	0a000004 	beq	a858 <fsReadFile+0x160>
    a844:	e59a3000 	ldr	r3, [sl]
    a848:	e1a05001 	mov	r5, r1
    a84c:	e5931018 	ldr	r1, [r3, #24]
    a850:	eaffffce 	b	a790 <fsReadFile+0x98>
    a854:	e3a07000 	mov	r7, #0
    a858:	e1a00007 	mov	r0, r7
    a85c:	e28dd014 	add	sp, sp, #20
    a860:	e8bd8ff0 	pop	{r4, r5, r6, r7, r8, r9, sl, fp, pc}
    a864:	00014758 	andeq	r4, r1, r8, asr r7
    a868:	00000070 	andeq	r0, r0, r0, ror r0
    a86c:	0000008c 	andeq	r0, r0, ip, lsl #1
    a870:	0000002c 	andeq	r0, r0, ip, lsr #32

0000a874 <loadFile>:
    a874:	e92d41f0 	push	{r4, r5, r6, r7, r8, lr}
    a878:	e3a05000 	mov	r5, #0
    a87c:	e59f308c 	ldr	r3, [pc, #140]	; a910 <loadFile+0x9c>
    a880:	e59f208c 	ldr	r2, [pc, #140]	; a914 <loadFile+0xa0>
    a884:	e08f3003 	add	r3, pc, r3
    a888:	e7934002 	ldr	r4, [r3, r2]
    a88c:	e24dd080 	sub	sp, sp, #128	; 0x80
    a890:	e1a07001 	mov	r7, r1
    a894:	e1a06000 	mov	r6, r0
    a898:	e5845000 	str	r5, [r4]
    a89c:	ebfffe9b 	bl	a310 <fsOpenFile>
    a8a0:	e3500000 	cmp	r0, #0
    a8a4:	13a03001 	movne	r3, #1
    a8a8:	15843000 	strne	r3, [r4]
    a8ac:	1a000014 	bne	a904 <loadFile+0x90>
    a8b0:	e1a05000 	mov	r5, r0
    a8b4:	e1a0800d 	mov	r8, sp
    a8b8:	e2477001 	sub	r7, r7, #1
    a8bc:	e28d407f 	add	r4, sp, #127	; 0x7f
    a8c0:	e1a01005 	mov	r1, r5
    a8c4:	e3a03080 	mov	r3, #128	; 0x80
    a8c8:	e1a02008 	mov	r2, r8
    a8cc:	e1a00006 	mov	r0, r6
    a8d0:	ebffff88 	bl	a6f8 <fsReadFile>
    a8d4:	e2501000 	subs	r1, r0, #0
    a8d8:	0a000007 	beq	a8fc <loadFile+0x88>
    a8dc:	e24d3001 	sub	r3, sp, #1
    a8e0:	e0872005 	add	r2, r7, r5
    a8e4:	e5f31001 	ldrb	r1, [r3, #1]!
    a8e8:	e1530004 	cmp	r3, r4
    a8ec:	e5e21001 	strb	r1, [r2, #1]!
    a8f0:	1afffffb 	bne	a8e4 <loadFile+0x70>
    a8f4:	e2855080 	add	r5, r5, #128	; 0x80
    a8f8:	eafffff0 	b	a8c0 <loadFile+0x4c>
    a8fc:	e1a00006 	mov	r0, r6
    a900:	ebfffeb9 	bl	a3ec <fsCloseFile>
    a904:	e1a00005 	mov	r0, r5
    a908:	e28dd080 	add	sp, sp, #128	; 0x80
    a90c:	e8bd81f0 	pop	{r4, r5, r6, r7, r8, pc}
    a910:	000145f4 	strdeq	r4, [r1], -r4	; <UNPREDICTABLE>
    a914:	00000008 	andeq	r0, r0, r8

0000a918 <fsWriteFile>:
    a918:	e92d4ff0 	push	{r4, r5, r6, r7, r8, r9, sl, fp, lr}
    a91c:	e1a09001 	mov	r9, r1
    a920:	e24dd01c 	sub	sp, sp, #28
    a924:	e3a01002 	mov	r1, #2
    a928:	e1a08002 	mov	r8, r2
    a92c:	e1a06003 	mov	r6, r3
    a930:	e58d3004 	str	r3, [sp, #4]
    a934:	ebfffb2f 	bl	95f8 <fsFindInDir>
    a938:	e59f4188 	ldr	r4, [pc, #392]	; aac8 <fsWriteFile+0x1b0>
    a93c:	e3700011 	cmn	r0, #17
    a940:	e08f4004 	add	r4, pc, r4
    a944:	e58d0000 	str	r0, [sp]
    a948:	e58d4014 	str	r4, [sp, #20]
    a94c:	83a050e0 	movhi	r5, #224	; 0xe0
    a950:	8a000051 	bhi	aa9c <fsWriteFile+0x184>
    a954:	e59f3170 	ldr	r3, [pc, #368]	; aacc <fsWriteFile+0x1b4>
    a958:	e1a00009 	mov	r0, r9
    a95c:	e794b003 	ldr	fp, [r4, r3]
    a960:	e3a0a000 	mov	sl, #0
    a964:	e59b3000 	ldr	r3, [fp]
    a968:	e1a0700a 	mov	r7, sl
    a96c:	e5935018 	ldr	r5, [r3, #24]
    a970:	e1a01005 	mov	r1, r5
    a974:	e58d5008 	str	r5, [sp, #8]
    a978:	ebfff5d0 	bl	80c0 <__aeabi_uidivmod>
    a97c:	e0813006 	add	r3, r1, r6
    a980:	e1550003 	cmp	r5, r3
    a984:	23a02000 	movcs	r2, #0
    a988:	33a02001 	movcc	r2, #1
    a98c:	e1a01005 	mov	r1, r5
    a990:	e58d300c 	str	r3, [sp, #12]
    a994:	e2822001 	add	r2, r2, #1
    a998:	e59f3130 	ldr	r3, [pc, #304]	; aad0 <fsWriteFile+0x1b8>
    a99c:	e58d2010 	str	r2, [sp, #16]
    a9a0:	e7946003 	ldr	r6, [r4, r3]
    a9a4:	e1a00009 	mov	r0, r9
    a9a8:	ebfff5c4 	bl	80c0 <__aeabi_uidivmod>
    a9ac:	e3a03003 	mov	r3, #3
    a9b0:	e1a05001 	mov	r5, r1
    a9b4:	e5962000 	ldr	r2, [r6]
    a9b8:	e1a01009 	mov	r1, r9
    a9bc:	e59d0000 	ldr	r0, [sp]
    a9c0:	ebfffa7c 	bl	93b8 <fsRWFile>
    a9c4:	e3500000 	cmp	r0, #0
    a9c8:	1a000036 	bne	aaa8 <fsWriteFile+0x190>
    a9cc:	e59b2000 	ldr	r2, [fp]
    a9d0:	e59d1004 	ldr	r1, [sp, #4]
    a9d4:	e5924018 	ldr	r4, [r2, #24]
    a9d8:	e0813005 	add	r3, r1, r5
    a9dc:	e1530004 	cmp	r3, r4
    a9e0:	90414007 	subls	r4, r1, r7
    a9e4:	80444005 	subhi	r4, r4, r5
    a9e8:	e3540000 	cmp	r4, #0
    a9ec:	0a00000a 	beq	aa1c <fsWriteFile+0x104>
    a9f0:	e3a03000 	mov	r3, #0
    a9f4:	e0881003 	add	r1, r8, r3
    a9f8:	e5962000 	ldr	r2, [r6]
    a9fc:	e2800001 	add	r0, r0, #1
    aa00:	e6ef0070 	uxtb	r0, r0
    aa04:	e7d11007 	ldrb	r1, [r1, r7]
    aa08:	e0823003 	add	r3, r2, r3
    aa0c:	e1500004 	cmp	r0, r4
    aa10:	e7c31005 	strb	r1, [r3, r5]
    aa14:	e1a03000 	mov	r3, r0
    aa18:	3afffff5 	bcc	a9f4 <fsWriteFile+0xdc>
    aa1c:	e3a03002 	mov	r3, #2
    aa20:	e5962000 	ldr	r2, [r6]
    aa24:	e1a01009 	mov	r1, r9
    aa28:	e59d0000 	ldr	r0, [sp]
    aa2c:	ebfffa61 	bl	93b8 <fsRWFile>
    aa30:	e3500000 	cmp	r0, #0
    aa34:	1a00001f 	bne	aab8 <fsWriteFile+0x1a0>
    aa38:	e59d3008 	ldr	r3, [sp, #8]
    aa3c:	e59d200c 	ldr	r2, [sp, #12]
    aa40:	e28aa001 	add	sl, sl, #1
    aa44:	e1530002 	cmp	r3, r2
    aa48:	e59d3010 	ldr	r3, [sp, #16]
    aa4c:	30899004 	addcc	r9, r9, r4
    aa50:	e153000a 	cmp	r3, sl
    aa54:	159b3000 	ldrne	r3, [fp]
    aa58:	11a07004 	movne	r7, r4
    aa5c:	15931018 	ldrne	r1, [r3, #24]
    aa60:	1affffcf 	bne	a9a4 <fsWriteFile+0x8c>
    aa64:	e59d2004 	ldr	r2, [sp, #4]
    aa68:	e59f3064 	ldr	r3, [pc, #100]	; aad4 <fsWriteFile+0x1bc>
    aa6c:	e0829009 	add	r9, r2, r9
    aa70:	e59d2014 	ldr	r2, [sp, #20]
    aa74:	e1a05000 	mov	r5, r0
    aa78:	e7923003 	ldr	r3, [r2, r3]
    aa7c:	e5933000 	ldr	r3, [r3]
    aa80:	e5932028 	ldr	r2, [r3, #40]	; 0x28
    aa84:	e1590002 	cmp	r9, r2
    aa88:	9a000003 	bls	aa9c <fsWriteFile+0x184>
    aa8c:	e5839028 	str	r9, [r3, #40]	; 0x28
    aa90:	ebfff948 	bl	8fb8 <fsUpdateDir>
    aa94:	e3500000 	cmp	r0, #0
    aa98:	13a050e9 	movne	r5, #233	; 0xe9
    aa9c:	e1a00005 	mov	r0, r5
    aaa0:	e28dd01c 	add	sp, sp, #28
    aaa4:	e8bd8ff0 	pop	{r4, r5, r6, r7, r8, r9, sl, fp, pc}
    aaa8:	e3a050ec 	mov	r5, #236	; 0xec
    aaac:	e1a00005 	mov	r0, r5
    aab0:	e28dd01c 	add	sp, sp, #28
    aab4:	e8bd8ff0 	pop	{r4, r5, r6, r7, r8, r9, sl, fp, pc}
    aab8:	e3a050ed 	mov	r5, #237	; 0xed
    aabc:	e1a00005 	mov	r0, r5
    aac0:	e28dd01c 	add	sp, sp, #28
    aac4:	e8bd8ff0 	pop	{r4, r5, r6, r7, r8, r9, sl, fp, pc}
    aac8:	00014538 	andeq	r4, r1, r8, lsr r5
    aacc:	0000008c 	andeq	r0, r0, ip, lsl #1
    aad0:	0000002c 	andeq	r0, r0, ip, lsr #32
    aad4:	00000070 	andeq	r0, r0, r0, ror r0

0000aad8 <fsMakeDir>:
    aad8:	e92d4010 	push	{r4, lr}
    aadc:	e3a010ff 	mov	r1, #255	; 0xff
    aae0:	e1a04000 	mov	r4, r0
    aae4:	ebfffac3 	bl	95f8 <fsFindInDir>
    aae8:	e3700011 	cmn	r0, #17
    aaec:	9a000006 	bls	ab0c <fsMakeDir+0x34>
    aaf0:	e1a00004 	mov	r0, r4
    aaf4:	e3a01005 	mov	r1, #5
    aaf8:	ebfffabe 	bl	95f8 <fsFindInDir>
    aafc:	e3700011 	cmn	r0, #17
    ab00:	83a000ef 	movhi	r0, #239	; 0xef
    ab04:	93a00000 	movls	r0, #0
    ab08:	e8bd8010 	pop	{r4, pc}
    ab0c:	e3a000ee 	mov	r0, #238	; 0xee
    ab10:	e8bd8010 	pop	{r4, pc}

0000ab14 <fsChangeDir>:
    ab14:	e92d4010 	push	{r4, lr}
    ab18:	e5d03000 	ldrb	r3, [r0]
    ab1c:	e59f403c 	ldr	r4, [pc, #60]	; ab60 <fsChangeDir+0x4c>
    ab20:	e353002f 	cmp	r3, #47	; 0x2f
    ab24:	e08f4004 	add	r4, pc, r4
    ab28:	03a02002 	moveq	r2, #2
    ab2c:	1a000004 	bne	ab44 <fsChangeDir+0x30>
    ab30:	e59f302c 	ldr	r3, [pc, #44]	; ab64 <fsChangeDir+0x50>
    ab34:	e3a00000 	mov	r0, #0
    ab38:	e7943003 	ldr	r3, [r4, r3]
    ab3c:	e5832000 	str	r2, [r3]
    ab40:	e8bd8010 	pop	{r4, pc}
    ab44:	e3a01001 	mov	r1, #1
    ab48:	ebfffaaa 	bl	95f8 <fsFindInDir>
    ab4c:	e3700011 	cmn	r0, #17
    ab50:	e1a02000 	mov	r2, r0
    ab54:	9afffff5 	bls	ab30 <fsChangeDir+0x1c>
    ab58:	e3a000e5 	mov	r0, #229	; 0xe5
    ab5c:	e8bd8010 	pop	{r4, pc}
    ab60:	00014354 	andeq	r4, r1, r4, asr r3
    ab64:	000001bc 			; <UNDEFINED> instruction: 0x000001bc

0000ab68 <fsRemoveDir>:
    ab68:	e92d4010 	push	{r4, lr}
    ab6c:	e3a01007 	mov	r1, #7
    ab70:	ebfffaa0 	bl	95f8 <fsFindInDir>
    ab74:	e3700011 	cmn	r0, #17
    ab78:	83a000e5 	movhi	r0, #229	; 0xe5
    ab7c:	93a00000 	movls	r0, #0
    ab80:	e8bd8010 	pop	{r4, pc}

0000ab84 <fsFormat>:
    ab84:	e92d4ff0 	push	{r4, r5, r6, r7, r8, r9, sl, fp, lr}
    ab88:	e59f3594 	ldr	r3, [pc, #1428]	; b124 <fsFormat+0x5a0>
    ab8c:	e59f2594 	ldr	r2, [pc, #1428]	; b128 <fsFormat+0x5a4>
    ab90:	e08f3003 	add	r3, pc, r3
    ab94:	e7934002 	ldr	r4, [r3, r2]
    ab98:	e24dd00c 	sub	sp, sp, #12
    ab9c:	e5945000 	ldr	r5, [r4]
    aba0:	e1a06000 	mov	r6, r0
    aba4:	e1a0a001 	mov	sl, r1
    aba8:	e3a00000 	mov	r0, #0
    abac:	e1a01005 	mov	r1, r5
    abb0:	ebfff8d6 	bl	8f10 <fsSectorRead>
    abb4:	e3500000 	cmp	r0, #0
    abb8:	03a000e1 	moveq	r0, #225	; 0xe1
    abbc:	0a0000d9 	beq	af28 <fsFormat+0x3a4>
    abc0:	e3a0300b 	mov	r3, #11
    abc4:	e5941000 	ldr	r1, [r4]
    abc8:	e3a02001 	mov	r2, #1
    abcc:	e59171ca 	ldr	r7, [r1, #458]	; 0x1ca
    abd0:	e59181c6 	ldr	r8, [r1, #454]	; 0x1c6
    abd4:	e3a00000 	mov	r0, #0
    abd8:	e5c531c2 	strb	r3, [r5, #450]	; 0x1c2
    abdc:	ebfff8e0 	bl	8f64 <fsSectorWrite>
    abe0:	e3500000 	cmp	r0, #0
    abe4:	0a0000ce 	beq	af24 <fsFormat+0x3a0>
    abe8:	e59f353c 	ldr	r3, [pc, #1340]	; b12c <fsFormat+0x5a8>
    abec:	e59f253c 	ldr	r2, [pc, #1340]	; b130 <fsFormat+0x5ac>
    abf0:	e0873003 	add	r3, r7, r3
    abf4:	e1530002 	cmp	r3, r2
    abf8:	8a0000cc 	bhi	af30 <fsFormat+0x3ac>
    abfc:	e3a03008 	mov	r3, #8
    ac00:	e59f152c 	ldr	r1, [pc, #1324]	; b134 <fsFormat+0x5b0>
    ac04:	e58d3004 	str	r3, [sp, #4]
    ac08:	e2470026 	sub	r0, r7, #38	; 0x26
    ac0c:	eb00174c 	bl	10944 <__aeabi_uidiv>
    ac10:	e3e0b014 	mvn	fp, #20
    ac14:	e1a05000 	mov	r5, r0
    ac18:	e3a02c02 	mov	r2, #512	; 0x200
    ac1c:	e3a01000 	mov	r1, #0
    ac20:	e5940000 	ldr	r0, [r4]
    ac24:	eb00176e 	bl	109e4 <memset>
    ac28:	e3560000 	cmp	r6, #0
    ac2c:	e5949000 	ldr	r9, [r4]
    ac30:	e28600ff 	add	r0, r6, #255	; 0xff
    ac34:	a1a00006 	movge	r0, r6
    ac38:	e2861cff 	add	r1, r6, #65280	; 0xff00
    ac3c:	e5c9b000 	strb	fp, [r9]
    ac40:	e28110ff 	add	r1, r1, #255	; 0xff
    ac44:	e3a0903c 	mov	r9, #60	; 0x3c
    ac48:	a1a01006 	movge	r1, r6
    ac4c:	e1a0b440 	asr	fp, r0, #8
    ac50:	e5940000 	ldr	r0, [r4]
    ac54:	e3a0c04d 	mov	ip, #77	; 0x4d
    ac58:	e5c09001 	strb	r9, [r0, #1]
    ac5c:	e1a00841 	asr	r0, r1, #16
    ac60:	e3e0106f 	mvn	r1, #111	; 0x6f
    ac64:	e5949000 	ldr	r9, [r4]
    ac68:	e3a03000 	mov	r3, #0
    ac6c:	e5c91002 	strb	r1, [r9, #2]
    ac70:	e5941000 	ldr	r1, [r4]
    ac74:	e3a0e002 	mov	lr, #2
    ac78:	e5c1c003 	strb	ip, [r1, #3]
    ac7c:	e5941000 	ldr	r1, [r4]
    ac80:	e2862401 	add	r2, r6, #16777216	; 0x1000000
    ac84:	e5c1c004 	strb	ip, [r1, #4]
    ac88:	e59dc004 	ldr	ip, [sp, #4]
    ac8c:	e5c1300b 	strb	r3, [r1, #11]
    ac90:	e5c1c00d 	strb	ip, [r1, #13]
    ac94:	e3a0c053 	mov	ip, #83	; 0x53
    ac98:	e5c1c005 	strb	ip, [r1, #5]
    ac9c:	e3a0c04a 	mov	ip, #74	; 0x4a
    aca0:	e5c1c006 	strb	ip, [r1, #6]
    aca4:	e3a0c020 	mov	ip, #32
    aca8:	e5c1c007 	strb	ip, [r1, #7]
    acac:	e3a0c046 	mov	ip, #70	; 0x46
    acb0:	e5c1c008 	strb	ip, [r1, #8]
    acb4:	e3a0c041 	mov	ip, #65	; 0x41
    acb8:	e5c1c009 	strb	ip, [r1, #9]
    acbc:	e3a0c054 	mov	ip, #84	; 0x54
    acc0:	e5c1c00a 	strb	ip, [r1, #10]
    acc4:	e3a0c026 	mov	ip, #38	; 0x26
    acc8:	e5c1c00e 	strb	ip, [r1, #14]
    accc:	e3e0c007 	mvn	ip, #7
    acd0:	e5c1c015 	strb	ip, [r1, #21]
    acd4:	e3a0c03f 	mov	ip, #63	; 0x3f
    acd8:	e5c1c018 	strb	ip, [r1, #24]
    acdc:	e3e0c000 	mvn	ip, #0
    ace0:	e5c1c01a 	strb	ip, [r1, #26]
    ace4:	e1a0c428 	lsr	ip, r8, #8
    ace8:	e5c1300f 	strb	r3, [r1, #15]
    acec:	e5c13011 	strb	r3, [r1, #17]
    acf0:	e5c13012 	strb	r3, [r1, #18]
    acf4:	e5c13013 	strb	r3, [r1, #19]
    acf8:	e5c13014 	strb	r3, [r1, #20]
    acfc:	e5c13016 	strb	r3, [r1, #22]
    ad00:	e5c13017 	strb	r3, [r1, #23]
    ad04:	e5c13019 	strb	r3, [r1, #25]
    ad08:	e5c1e00c 	strb	lr, [r1, #12]
    ad0c:	e5c1e010 	strb	lr, [r1, #16]
    ad10:	e5c1c01d 	strb	ip, [r1, #29]
    ad14:	e1a0c828 	lsr	ip, r8, #16
    ad18:	e5c1c01e 	strb	ip, [r1, #30]
    ad1c:	e1a0cc28 	lsr	ip, r8, #24
    ad20:	e5c1c01f 	strb	ip, [r1, #31]
    ad24:	e1a0c427 	lsr	ip, r7, #8
    ad28:	e5c1c021 	strb	ip, [r1, #33]	; 0x21
    ad2c:	e1a0c827 	lsr	ip, r7, #16
    ad30:	e5c1c022 	strb	ip, [r1, #34]	; 0x22
    ad34:	e1a0c425 	lsr	ip, r5, #8
    ad38:	e5c1c025 	strb	ip, [r1, #37]	; 0x25
    ad3c:	e1a0c825 	lsr	ip, r5, #16
    ad40:	e5c1c026 	strb	ip, [r1, #38]	; 0x26
    ad44:	e3a0c001 	mov	ip, #1
    ad48:	e2422001 	sub	r2, r2, #1
    ad4c:	e5c17020 	strb	r7, [r1, #32]
    ad50:	a1a02006 	movge	r2, r6
    ad54:	e1a07c27 	lsr	r7, r7, #24
    ad58:	e5c1301b 	strb	r3, [r1, #27]
    ad5c:	e5c1801c 	strb	r8, [r1, #28]
    ad60:	e5c15024 	strb	r5, [r1, #36]	; 0x24
    ad64:	e5c13027 	strb	r3, [r1, #39]	; 0x27
    ad68:	e5c13028 	strb	r3, [r1, #40]	; 0x28
    ad6c:	e5c13029 	strb	r3, [r1, #41]	; 0x29
    ad70:	e5c1302a 	strb	r3, [r1, #42]	; 0x2a
    ad74:	e5c1302b 	strb	r3, [r1, #43]	; 0x2b
    ad78:	e5c1e02c 	strb	lr, [r1, #44]	; 0x2c
    ad7c:	e5c1302d 	strb	r3, [r1, #45]	; 0x2d
    ad80:	e5c1302e 	strb	r3, [r1, #46]	; 0x2e
    ad84:	e5c1302f 	strb	r3, [r1, #47]	; 0x2f
    ad88:	e5c13031 	strb	r3, [r1, #49]	; 0x31
    ad8c:	e5c13032 	strb	r3, [r1, #50]	; 0x32
    ad90:	e5c13033 	strb	r3, [r1, #51]	; 0x33
    ad94:	e5c13034 	strb	r3, [r1, #52]	; 0x34
    ad98:	e5c13035 	strb	r3, [r1, #53]	; 0x35
    ad9c:	e5c13036 	strb	r3, [r1, #54]	; 0x36
    ada0:	e5c13037 	strb	r3, [r1, #55]	; 0x37
    ada4:	e5c13038 	strb	r3, [r1, #56]	; 0x38
    ada8:	e5c13039 	strb	r3, [r1, #57]	; 0x39
    adac:	e5c1303a 	strb	r3, [r1, #58]	; 0x3a
    adb0:	e5c1303b 	strb	r3, [r1, #59]	; 0x3b
    adb4:	e5c17023 	strb	r7, [r1, #35]	; 0x23
    adb8:	e5c1c030 	strb	ip, [r1, #48]	; 0x30
    adbc:	e3a0c029 	mov	ip, #41	; 0x29
    adc0:	e1a02c42 	asr	r2, r2, #24
    adc4:	e15a0003 	cmp	sl, r3
    adc8:	e5c1303c 	strb	r3, [r1, #60]	; 0x3c
    adcc:	e5c1303d 	strb	r3, [r1, #61]	; 0x3d
    add0:	e5c1303e 	strb	r3, [r1, #62]	; 0x3e
    add4:	e5c1303f 	strb	r3, [r1, #63]	; 0x3f
    add8:	e5c13040 	strb	r3, [r1, #64]	; 0x40
    addc:	e5c13041 	strb	r3, [r1, #65]	; 0x41
    ade0:	e5c16043 	strb	r6, [r1, #67]	; 0x43
    ade4:	e5c1c042 	strb	ip, [r1, #66]	; 0x42
    ade8:	e5c1b044 	strb	fp, [r1, #68]	; 0x44
    adec:	e5c10045 	strb	r0, [r1, #69]	; 0x45
    adf0:	e5c12046 	strb	r2, [r1, #70]	; 0x46
    adf4:	0a000059 	beq	af60 <fsFormat+0x3dc>
    adf8:	e5da2000 	ldrb	r2, [sl]
    adfc:	e1520003 	cmp	r2, r3
    ae00:	0a00008c 	beq	b038 <fsFormat+0x4b4>
    ae04:	e1a0000a 	mov	r0, sl
    ae08:	e0811003 	add	r1, r1, r3
    ae0c:	e5c12047 	strb	r2, [r1, #71]	; 0x47
    ae10:	e5f02001 	ldrb	r2, [r0, #1]!
    ae14:	e2833001 	add	r3, r3, #1
    ae18:	e3520000 	cmp	r2, #0
    ae1c:	0a000057 	beq	af80 <fsFormat+0x3fc>
    ae20:	e353000b 	cmp	r3, #11
    ae24:	e5941000 	ldr	r1, [r4]
    ae28:	1afffff6 	bne	ae08 <fsFormat+0x284>
    ae2c:	e3a03020 	mov	r3, #32
    ae30:	e3a0e033 	mov	lr, #51	; 0x33
    ae34:	e3a0c032 	mov	ip, #50	; 0x32
    ae38:	e3a00055 	mov	r0, #85	; 0x55
    ae3c:	e3e02055 	mvn	r2, #85	; 0x55
    ae40:	e3a09046 	mov	r9, #70	; 0x46
    ae44:	e3a07041 	mov	r7, #65	; 0x41
    ae48:	e3a06054 	mov	r6, #84	; 0x54
    ae4c:	e5c101fe 	strb	r0, [r1, #510]	; 0x1fe
    ae50:	e5c121ff 	strb	r2, [r1, #511]	; 0x1ff
    ae54:	e5c19052 	strb	r9, [r1, #82]	; 0x52
    ae58:	e5c17053 	strb	r7, [r1, #83]	; 0x53
    ae5c:	e5c16054 	strb	r6, [r1, #84]	; 0x54
    ae60:	e5c1e055 	strb	lr, [r1, #85]	; 0x55
    ae64:	e5c1c056 	strb	ip, [r1, #86]	; 0x56
    ae68:	e5c13057 	strb	r3, [r1, #87]	; 0x57
    ae6c:	e5c13058 	strb	r3, [r1, #88]	; 0x58
    ae70:	e5c13059 	strb	r3, [r1, #89]	; 0x59
    ae74:	e3a02000 	mov	r2, #0
    ae78:	e1a00008 	mov	r0, r8
    ae7c:	ebfff838 	bl	8f64 <fsSectorWrite>
    ae80:	e3500000 	cmp	r0, #0
    ae84:	0a000026 	beq	af24 <fsFormat+0x3a0>
    ae88:	e3a02c02 	mov	r2, #512	; 0x200
    ae8c:	e3a01000 	mov	r1, #0
    ae90:	e5940000 	ldr	r0, [r4]
    ae94:	eb0016d2 	bl	109e4 <memset>
    ae98:	e3e00007 	mvn	r0, #7
    ae9c:	e3e03000 	mvn	r3, #0
    aea0:	e3a0200f 	mov	r2, #15
    aea4:	e5941000 	ldr	r1, [r4]
    aea8:	e2889026 	add	r9, r8, #38	; 0x26
    aeac:	e5c10000 	strb	r0, [r1]
    aeb0:	e5941000 	ldr	r1, [r4]
    aeb4:	e0899005 	add	r9, r9, r5
    aeb8:	e5c13001 	strb	r3, [r1, #1]
    aebc:	e5941000 	ldr	r1, [r4]
    aec0:	e1a06009 	mov	r6, r9
    aec4:	e5c13002 	strb	r3, [r1, #2]
    aec8:	e5941000 	ldr	r1, [r4]
    aecc:	e59f7264 	ldr	r7, [pc, #612]	; b138 <fsFormat+0x5b4>
    aed0:	e5c12003 	strb	r2, [r1, #3]
    aed4:	e5940000 	ldr	r0, [r4]
    aed8:	e5c0200b 	strb	r2, [r0, #11]
    aedc:	e5c03004 	strb	r3, [r0, #4]
    aee0:	e5c03005 	strb	r3, [r0, #5]
    aee4:	e5c03006 	strb	r3, [r0, #6]
    aee8:	e5c03007 	strb	r3, [r0, #7]
    aeec:	e5c03008 	strb	r3, [r0, #8]
    aef0:	e5c03009 	strb	r3, [r0, #9]
    aef4:	e5c0300a 	strb	r3, [r0, #10]
    aef8:	e1a01000 	mov	r1, r0
    aefc:	ea000003 	b	af10 <fsFormat+0x38c>
    af00:	e2577001 	subs	r7, r7, #1
    af04:	e0466005 	sub	r6, r6, r5
    af08:	e5941000 	ldr	r1, [r4]
    af0c:	0a000034 	beq	afe4 <fsFormat+0x460>
    af10:	e3a02000 	mov	r2, #0
    af14:	e1a00006 	mov	r0, r6
    af18:	ebfff811 	bl	8f64 <fsSectorWrite>
    af1c:	e3500000 	cmp	r0, #0
    af20:	1afffff6 	bne	af00 <fsFormat+0x37c>
    af24:	e3a000e2 	mov	r0, #226	; 0xe2
    af28:	e28dd00c 	add	sp, sp, #12
    af2c:	e8bd8ff0 	pop	{r4, r5, r6, r7, r8, r9, sl, fp, pc}
    af30:	e28734ff 	add	r3, r7, #-16777216	; 0xff000000
    af34:	e2433001 	sub	r3, r3, #1
    af38:	e3530401 	cmp	r3, #16777216	; 0x1000000
    af3c:	3a00001d 	bcc	afb8 <fsFormat+0x434>
    af40:	e28734fe 	add	r3, r7, #-33554432	; 0xfe000000
    af44:	e2433001 	sub	r3, r3, #1
    af48:	e3530402 	cmp	r3, #33554432	; 0x2000000
    af4c:	2a00001d 	bcs	afc8 <fsFormat+0x444>
    af50:	e3a03020 	mov	r3, #32
    af54:	e59f11e0 	ldr	r1, [pc, #480]	; b13c <fsFormat+0x5b8>
    af58:	e58d3004 	str	r3, [sp, #4]
    af5c:	eaffff29 	b	ac08 <fsFormat+0x84>
    af60:	e3a03047 	mov	r3, #71	; 0x47
    af64:	e1a0200a 	mov	r2, sl
    af68:	e7c12003 	strb	r2, [r1, r3]
    af6c:	e2833001 	add	r3, r3, #1
    af70:	e3530052 	cmp	r3, #82	; 0x52
    af74:	e5941000 	ldr	r1, [r4]
    af78:	1afffffa 	bne	af68 <fsFormat+0x3e4>
    af7c:	eaffffaa 	b	ae2c <fsFormat+0x2a8>
    af80:	e353000b 	cmp	r3, #11
    af84:	e5941000 	ldr	r1, [r4]
    af88:	0affffa7 	beq	ae2c <fsFormat+0x2a8>
    af8c:	e3a00020 	mov	r0, #32
    af90:	ea000001 	b	af9c <fsFormat+0x418>
    af94:	e1a03002 	mov	r3, r2
    af98:	e5941000 	ldr	r1, [r4]
    af9c:	e2832001 	add	r2, r3, #1
    afa0:	e352000b 	cmp	r2, #11
    afa4:	e0813003 	add	r3, r1, r3
    afa8:	e5c30047 	strb	r0, [r3, #71]	; 0x47
    afac:	1afffff8 	bne	af94 <fsFormat+0x410>
    afb0:	e5941000 	ldr	r1, [r4]
    afb4:	eaffff9c 	b	ae2c <fsFormat+0x2a8>
    afb8:	e3a03010 	mov	r3, #16
    afbc:	e59f117c 	ldr	r1, [pc, #380]	; b140 <fsFormat+0x5bc>
    afc0:	e58d3004 	str	r3, [sp, #4]
    afc4:	eaffff0f 	b	ac08 <fsFormat+0x84>
    afc8:	e3570301 	cmp	r7, #67108864	; 0x4000000
    afcc:	83a03040 	movhi	r3, #64	; 0x40
    afd0:	93a03000 	movls	r3, #0
    afd4:	e59f1168 	ldr	r1, [pc, #360]	; b144 <fsFormat+0x5c0>
    afd8:	e58d3004 	str	r3, [sp, #4]
    afdc:	93a01001 	movls	r1, #1
    afe0:	eaffff08 	b	ac08 <fsFormat+0x84>
    afe4:	e1a00001 	mov	r0, r1
    afe8:	e3a0200c 	mov	r2, #12
    afec:	e1a01007 	mov	r1, r7
    aff0:	e2888027 	add	r8, r8, #39	; 0x27
    aff4:	eb00167a 	bl	109e4 <memset>
    aff8:	e1580009 	cmp	r8, r9
    affc:	2a000013 	bcs	b050 <fsFormat+0x4cc>
    b000:	e0858008 	add	r8, r5, r8
    b004:	e1a06008 	mov	r6, r8
    b008:	e59f7128 	ldr	r7, [pc, #296]	; b138 <fsFormat+0x5b4>
    b00c:	ea000002 	b	b01c <fsFormat+0x498>
    b010:	e2577001 	subs	r7, r7, #1
    b014:	e0466005 	sub	r6, r6, r5
    b018:	0a000008 	beq	b040 <fsFormat+0x4bc>
    b01c:	e3a02000 	mov	r2, #0
    b020:	e5941000 	ldr	r1, [r4]
    b024:	e1a00006 	mov	r0, r6
    b028:	ebfff7cd 	bl	8f64 <fsSectorWrite>
    b02c:	e3500000 	cmp	r0, #0
    b030:	1afffff6 	bne	b010 <fsFormat+0x48c>
    b034:	eaffffba 	b	af24 <fsFormat+0x3a0>
    b038:	e1a03002 	mov	r3, r2
    b03c:	eaffffd2 	b	af8c <fsFormat+0x408>
    b040:	e2888001 	add	r8, r8, #1
    b044:	e0483005 	sub	r3, r8, r5
    b048:	e1530009 	cmp	r3, r9
    b04c:	3affffec 	bcc	b004 <fsFormat+0x480>
    b050:	e59d3004 	ldr	r3, [sp, #4]
    b054:	e0859009 	add	r9, r5, r9
    b058:	e0835009 	add	r5, r3, r9
    b05c:	e2896001 	add	r6, r9, #1
    b060:	ea000001 	b	b06c <fsFormat+0x4e8>
    b064:	e1560005 	cmp	r6, r5
    b068:	0a000007 	beq	b08c <fsFormat+0x508>
    b06c:	e1a00006 	mov	r0, r6
    b070:	e3a02000 	mov	r2, #0
    b074:	e5941000 	ldr	r1, [r4]
    b078:	ebfff7b9 	bl	8f64 <fsSectorWrite>
    b07c:	e3500000 	cmp	r0, #0
    b080:	e2866001 	add	r6, r6, #1
    b084:	1afffff6 	bne	b064 <fsFormat+0x4e0>
    b088:	eaffffa5 	b	af24 <fsFormat+0x3a0>
    b08c:	e5da2000 	ldrb	r2, [sl]
    b090:	e3520000 	cmp	r2, #0
    b094:	0a000020 	beq	b11c <fsFormat+0x598>
    b098:	e1a0100a 	mov	r1, sl
    b09c:	e3a03000 	mov	r3, #0
    b0a0:	ea000001 	b	b0ac <fsFormat+0x528>
    b0a4:	e353000b 	cmp	r3, #11
    b0a8:	0a00000d 	beq	b0e4 <fsFormat+0x560>
    b0ac:	e5940000 	ldr	r0, [r4]
    b0b0:	e7c02003 	strb	r2, [r0, r3]
    b0b4:	e5f12001 	ldrb	r2, [r1, #1]!
    b0b8:	e2833001 	add	r3, r3, #1
    b0bc:	e3520000 	cmp	r2, #0
    b0c0:	1afffff7 	bne	b0a4 <fsFormat+0x520>
    b0c4:	e353000b 	cmp	r3, #11
    b0c8:	0a000005 	beq	b0e4 <fsFormat+0x560>
    b0cc:	e3a01020 	mov	r1, #32
    b0d0:	e5942000 	ldr	r2, [r4]
    b0d4:	e7c21003 	strb	r1, [r2, r3]
    b0d8:	e2833001 	add	r3, r3, #1
    b0dc:	e353000b 	cmp	r3, #11
    b0e0:	1afffffa 	bne	b0d0 <fsFormat+0x54c>
    b0e4:	e3a03011 	mov	r3, #17
    b0e8:	e3a02008 	mov	r2, #8
    b0ec:	e5941000 	ldr	r1, [r4]
    b0f0:	e1a00009 	mov	r0, r9
    b0f4:	e5c1200b 	strb	r2, [r1, #11]
    b0f8:	e5c13011 	strb	r3, [r1, #17]
    b0fc:	e5c13013 	strb	r3, [r1, #19]
    b100:	e5c13017 	strb	r3, [r1, #23]
    b104:	e3a02000 	mov	r2, #0
    b108:	ebfff795 	bl	8f64 <fsSectorWrite>
    b10c:	e3500000 	cmp	r0, #0
    b110:	13a00000 	movne	r0, #0
    b114:	1affff83 	bne	af28 <fsFormat+0x3a4>
    b118:	eaffff81 	b	af24 <fsFormat+0x3a0>
    b11c:	e1a03002 	mov	r3, r2
    b120:	eaffffe9 	b	b0cc <fsFormat+0x548>
    b124:	000142e8 	andeq	r4, r1, r8, ror #5
    b128:	0000002c 	andeq	r0, r0, ip, lsr #32
    b12c:	fff11481 			; <UNDEFINED> instruction: 0xfff11481
    b130:	00f11481 	rscseq	r1, r1, r1, lsl #9
    b134:	00000401 	andeq	r0, r0, r1, lsl #8
    b138:	ffff0002 			; <UNDEFINED> instruction: 0xffff0002
    b13c:	00001001 	andeq	r1, r0, r1
    b140:	00000801 	andeq	r0, r0, r1, lsl #16
    b144:	00002001 	andeq	r2, r0, r1

0000b148 <writesxy>:
    b148:	e5d3c000 	ldrb	ip, [r3]
    b14c:	e92d41f0 	push	{r4, r5, r6, r7, r8, lr}
    b150:	e59f50bc 	ldr	r5, [pc, #188]	; b214 <writesxy+0xcc>
    b154:	e35c0000 	cmp	ip, #0
    b158:	e08f5005 	add	r5, pc, r5
    b15c:	e59d7018 	ldr	r7, [sp, #24]
    b160:	e59d601c 	ldr	r6, [sp, #28]
    b164:	08bd81f0 	popeq	{r4, r5, r6, r7, r8, pc}
    b168:	e1a04003 	mov	r4, r3
    b16c:	e3a0e00a 	mov	lr, #10
    b170:	e35c001f 	cmp	ip, #31
    b174:	e5f4c001 	ldrb	ip, [r4, #1]!
    b178:	828ee001 	addhi	lr, lr, #1
    b17c:	86efe07e 	uxtbhi	lr, lr
    b180:	e35c0000 	cmp	ip, #0
    b184:	1afffff9 	bne	b170 <writesxy+0x28>
    b188:	e35e000a 	cmp	lr, #10
    b18c:	98bd81f0 	popls	{r4, r5, r6, r7, r8, pc}
    b190:	e3e0802e 	mvn	r8, #46	; 0x2e
    b194:	e59f407c 	ldr	r4, [pc, #124]	; b218 <writesxy+0xd0>
    b198:	e7954004 	ldr	r4, [r5, r4]
    b19c:	e1a05420 	lsr	r5, r0, #8
    b1a0:	e5c4e000 	strb	lr, [r4]
    b1a4:	e5c40003 	strb	r0, [r4, #3]
    b1a8:	e1a0e421 	lsr	lr, r1, #8
    b1ac:	e5c41005 	strb	r1, [r4, #5]
    b1b0:	e1a00427 	lsr	r0, r7, #8
    b1b4:	e1a01426 	lsr	r1, r6, #8
    b1b8:	e5c42006 	strb	r2, [r4, #6]
    b1bc:	e5c47008 	strb	r7, [r4, #8]
    b1c0:	e5c4600a 	strb	r6, [r4, #10]
    b1c4:	e5c45002 	strb	r5, [r4, #2]
    b1c8:	e5c4e004 	strb	lr, [r4, #4]
    b1cc:	e5c40007 	strb	r0, [r4, #7]
    b1d0:	e5c41009 	strb	r1, [r4, #9]
    b1d4:	e5c48001 	strb	r8, [r4, #1]
    b1d8:	e5d32000 	ldrb	r2, [r3]
    b1dc:	e3520000 	cmp	r2, #0
    b1e0:	0a000008 	beq	b208 <writesxy+0xc0>
    b1e4:	e3a0100b 	mov	r1, #11
    b1e8:	e2420020 	sub	r0, r2, #32
    b1ec:	e350005f 	cmp	r0, #95	; 0x5f
    b1f0:	97c42001 	strbls	r2, [r4, r1]
    b1f4:	92811001 	addls	r1, r1, #1
    b1f8:	97c4c001 	strbls	ip, [r4, r1]
    b1fc:	e5f32001 	ldrb	r2, [r3, #1]!
    b200:	e3520000 	cmp	r2, #0
    b204:	1afffff7 	bne	b1e8 <writesxy+0xa0>
    b208:	e1a00004 	mov	r0, r4
    b20c:	e8bd41f0 	pop	{r4, r5, r6, r7, r8, lr}
    b210:	ea0025bc 	b	14908 <commVDG>
    b214:	00013d20 	andeq	r3, r1, r0, lsr #26
    b218:	00000164 	andeq	r0, r0, r4, ror #2

0000b21c <writecxy>:
    b21c:	e92d41f0 	push	{r4, r5, r6, r7, r8, lr}
    b220:	e3a0600b 	mov	r6, #11
    b224:	e3e0e02d 	mvn	lr, #45	; 0x2d
    b228:	e1a05000 	mov	r5, r0
    b22c:	e59f4090 	ldr	r4, [pc, #144]	; b2c4 <writecxy+0xa8>
    b230:	e59fc090 	ldr	ip, [pc, #144]	; b2c8 <writecxy+0xac>
    b234:	e08f4004 	add	r4, pc, r4
    b238:	e794c00c 	ldr	ip, [r4, ip]
    b23c:	e59f0088 	ldr	r0, [pc, #136]	; b2cc <writecxy+0xb0>
    b240:	e5cce001 	strb	lr, [ip, #1]
    b244:	e5cc6000 	strb	r6, [ip]
    b248:	e7946000 	ldr	r6, [r4, r0]
    b24c:	e59fe07c 	ldr	lr, [pc, #124]	; b2d0 <writecxy+0xb4>
    b250:	e5960000 	ldr	r0, [r6]
    b254:	e1a07422 	lsr	r7, r2, #8
    b258:	e5cc0003 	strb	r0, [ip, #3]
    b25c:	e1a00420 	lsr	r0, r0, #8
    b260:	e5cc0002 	strb	r0, [ip, #2]
    b264:	e794000e 	ldr	r0, [r4, lr]
    b268:	e1a0e423 	lsr	lr, r3, #8
    b26c:	e5900000 	ldr	r0, [r0]
    b270:	e5cc5006 	strb	r5, [ip, #6]
    b274:	e5cc0005 	strb	r0, [ip, #5]
    b278:	e1a00420 	lsr	r0, r0, #8
    b27c:	e5cc0004 	strb	r0, [ip, #4]
    b280:	e1a0000c 	mov	r0, ip
    b284:	e5cc2008 	strb	r2, [ip, #8]
    b288:	e5cc300a 	strb	r3, [ip, #10]
    b28c:	e5cc100b 	strb	r1, [ip, #11]
    b290:	e5cc7007 	strb	r7, [ip, #7]
    b294:	e5cce009 	strb	lr, [ip, #9]
    b298:	eb00259a 	bl	14908 <commVDG>
    b29c:	e5961000 	ldr	r1, [r6]
    b2a0:	e59f302c 	ldr	r3, [pc, #44]	; b2d4 <writecxy+0xb8>
    b2a4:	e0852001 	add	r2, r5, r1
    b2a8:	e5862000 	str	r2, [r6]
    b2ac:	e7943003 	ldr	r3, [r4, r3]
    b2b0:	e0855002 	add	r5, r5, r2
    b2b4:	e5933000 	ldr	r3, [r3]
    b2b8:	e1550003 	cmp	r5, r3
    b2bc:	85861000 	strhi	r1, [r6]
    b2c0:	e8bd81f0 	pop	{r4, r5, r6, r7, r8, pc}
    b2c4:	00013c44 	andeq	r3, r1, r4, asr #24
    b2c8:	00000164 	andeq	r0, r0, r4, ror #2
    b2cc:	000001a0 	andeq	r0, r0, r0, lsr #3
    b2d0:	000000b4 	strheq	r0, [r0], -r4
    b2d4:	000001ac 	andeq	r0, r0, ip, lsr #3

0000b2d8 <locatexy>:
    b2d8:	e59f301c 	ldr	r3, [pc, #28]	; b2fc <locatexy+0x24>
    b2dc:	e59fc01c 	ldr	ip, [pc, #28]	; b300 <locatexy+0x28>
    b2e0:	e08f3003 	add	r3, pc, r3
    b2e4:	e793c00c 	ldr	ip, [r3, ip]
    b2e8:	e59f2014 	ldr	r2, [pc, #20]	; b304 <locatexy+0x2c>
    b2ec:	e58c0000 	str	r0, [ip]
    b2f0:	e7933002 	ldr	r3, [r3, r2]
    b2f4:	e5831000 	str	r1, [r3]
    b2f8:	e12fff1e 	bx	lr
    b2fc:	00013b98 	muleq	r1, r8, fp
    b300:	000001a0 	andeq	r0, r0, r0, lsr #3
    b304:	000000b4 	strheq	r0, [r0], -r4

0000b308 <SaveScreen>:
    b308:	e92d4070 	push	{r4, r5, r6, lr}
    b30c:	e3a0500a 	mov	r5, #10
    b310:	e3e04015 	mvn	r4, #21
    b314:	e59fe054 	ldr	lr, [pc, #84]	; b370 <SaveScreen+0x68>
    b318:	e59fc054 	ldr	ip, [pc, #84]	; b374 <SaveScreen+0x6c>
    b31c:	e08fe00e 	add	lr, pc, lr
    b320:	e79ec00c 	ldr	ip, [lr, ip]
    b324:	e1a06421 	lsr	r6, r1, #8
    b328:	e59de010 	ldr	lr, [sp, #16]
    b32c:	e5cc6002 	strb	r6, [ip, #2]
    b330:	e5cc1003 	strb	r1, [ip, #3]
    b334:	e1a06420 	lsr	r6, r0, #8
    b338:	e1a01423 	lsr	r1, r3, #8
    b33c:	e5cc3007 	strb	r3, [ip, #7]
    b340:	e1a03422 	lsr	r3, r2, #8
    b344:	e5cc0005 	strb	r0, [ip, #5]
    b348:	e5cc2009 	strb	r2, [ip, #9]
    b34c:	e5cc6004 	strb	r6, [ip, #4]
    b350:	e5cc1006 	strb	r1, [ip, #6]
    b354:	e5cc3008 	strb	r3, [ip, #8]
    b358:	e5cc5000 	strb	r5, [ip]
    b35c:	e5cc4001 	strb	r4, [ip, #1]
    b360:	e5cce00a 	strb	lr, [ip, #10]
    b364:	e1a0000c 	mov	r0, ip
    b368:	e8bd4070 	pop	{r4, r5, r6, lr}
    b36c:	ea002565 	b	14908 <commVDG>
    b370:	00013b5c 	andeq	r3, r1, ip, asr fp
    b374:	00000164 	andeq	r0, r0, r4, ror #2

0000b378 <RestoreScreen>:
    b378:	e92d4070 	push	{r4, r5, r6, lr}
    b37c:	e3a0500a 	mov	r5, #10
    b380:	e3e04014 	mvn	r4, #20
    b384:	e59fe054 	ldr	lr, [pc, #84]	; b3e0 <RestoreScreen+0x68>
    b388:	e59fc054 	ldr	ip, [pc, #84]	; b3e4 <RestoreScreen+0x6c>
    b38c:	e08fe00e 	add	lr, pc, lr
    b390:	e79ec00c 	ldr	ip, [lr, ip]
    b394:	e1a06421 	lsr	r6, r1, #8
    b398:	e59de010 	ldr	lr, [sp, #16]
    b39c:	e5cc6002 	strb	r6, [ip, #2]
    b3a0:	e5cc1003 	strb	r1, [ip, #3]
    b3a4:	e1a06420 	lsr	r6, r0, #8
    b3a8:	e1a01423 	lsr	r1, r3, #8
    b3ac:	e5cc3007 	strb	r3, [ip, #7]
    b3b0:	e1a03422 	lsr	r3, r2, #8
    b3b4:	e5cc0005 	strb	r0, [ip, #5]
    b3b8:	e5cc2009 	strb	r2, [ip, #9]
    b3bc:	e5cc6004 	strb	r6, [ip, #4]
    b3c0:	e5cc1006 	strb	r1, [ip, #6]
    b3c4:	e5cc3008 	strb	r3, [ip, #8]
    b3c8:	e5cc5000 	strb	r5, [ip]
    b3cc:	e5cc4001 	strb	r4, [ip, #1]
    b3d0:	e5cce00a 	strb	lr, [ip, #10]
    b3d4:	e1a0000c 	mov	r0, ip
    b3d8:	e8bd4070 	pop	{r4, r5, r6, lr}
    b3dc:	ea002549 	b	14908 <commVDG>
    b3e0:	00013aec 	andeq	r3, r1, ip, ror #21
    b3e4:	00000164 	andeq	r0, r0, r4, ror #2

0000b3e8 <SetDot>:
    b3e8:	e92d4070 	push	{r4, r5, r6, lr}
    b3ec:	e3a05008 	mov	r5, #8
    b3f0:	e3e04028 	mvn	r4, #40	; 0x28
    b3f4:	e3a0e000 	mov	lr, #0
    b3f8:	e59fc044 	ldr	ip, [pc, #68]	; b444 <SetDot+0x5c>
    b3fc:	e59f3044 	ldr	r3, [pc, #68]	; b448 <SetDot+0x60>
    b400:	e08fc00c 	add	ip, pc, ip
    b404:	e79c3003 	ldr	r3, [ip, r3]
    b408:	e1a06530 	lsr	r6, r0, r5
    b40c:	e5c31005 	strb	r1, [r3, #5]
    b410:	e1a0c531 	lsr	ip, r1, r5
    b414:	e1a01532 	lsr	r1, r2, r5
    b418:	e5c30003 	strb	r0, [r3, #3]
    b41c:	e5c36002 	strb	r6, [r3, #2]
    b420:	e5c32008 	strb	r2, [r3, #8]
    b424:	e5c3c004 	strb	ip, [r3, #4]
    b428:	e5c31007 	strb	r1, [r3, #7]
    b42c:	e5c35000 	strb	r5, [r3]
    b430:	e5c34001 	strb	r4, [r3, #1]
    b434:	e5c3e006 	strb	lr, [r3, #6]
    b438:	e1a00003 	mov	r0, r3
    b43c:	e8bd4070 	pop	{r4, r5, r6, lr}
    b440:	ea002530 	b	14908 <commVDG>
    b444:	00013a78 	andeq	r3, r1, r8, ror sl
    b448:	00000164 	andeq	r0, r0, r4, ror #2

0000b44c <FillRect>:
    b44c:	e92d40f0 	push	{r4, r5, r6, r7, lr}
    b450:	e3a0500b 	mov	r5, #11
    b454:	e3e0402c 	mvn	r4, #44	; 0x2c
    b458:	e59fe064 	ldr	lr, [pc, #100]	; b4c4 <FillRect+0x78>
    b45c:	e59fc064 	ldr	ip, [pc, #100]	; b4c8 <FillRect+0x7c>
    b460:	e08fe00e 	add	lr, pc, lr
    b464:	e79ec00c 	ldr	ip, [lr, ip]
    b468:	e59d6014 	ldr	r6, [sp, #20]
    b46c:	e0802002 	add	r2, r0, r2
    b470:	e0813003 	add	r3, r1, r3
    b474:	e1a07422 	lsr	r7, r2, #8
    b478:	e5cc1005 	strb	r1, [ip, #5]
    b47c:	e5cc2007 	strb	r2, [ip, #7]
    b480:	e5cc3009 	strb	r3, [ip, #9]
    b484:	e1a02423 	lsr	r2, r3, #8
    b488:	e1a03426 	lsr	r3, r6, #8
    b48c:	e1a0e420 	lsr	lr, r0, #8
    b490:	e1a01421 	lsr	r1, r1, #8
    b494:	e5cc0003 	strb	r0, [ip, #3]
    b498:	e5cc7006 	strb	r7, [ip, #6]
    b49c:	e5cc2008 	strb	r2, [ip, #8]
    b4a0:	e5cce002 	strb	lr, [ip, #2]
    b4a4:	e5cc1004 	strb	r1, [ip, #4]
    b4a8:	e5cc5000 	strb	r5, [ip]
    b4ac:	e5cc4001 	strb	r4, [ip, #1]
    b4b0:	e5cc600b 	strb	r6, [ip, #11]
    b4b4:	e5cc300a 	strb	r3, [ip, #10]
    b4b8:	e1a0000c 	mov	r0, ip
    b4bc:	e8bd40f0 	pop	{r4, r5, r6, r7, lr}
    b4c0:	ea002510 	b	14908 <commVDG>
    b4c4:	00013a18 	andeq	r3, r1, r8, lsl sl
    b4c8:	00000164 	andeq	r0, r0, r4, ror #2

0000b4cc <DrawLine>:
    b4cc:	e92d4070 	push	{r4, r5, r6, lr}
    b4d0:	e3a0500b 	mov	r5, #11
    b4d4:	e3e0402b 	mvn	r4, #43	; 0x2b
    b4d8:	e59fe05c 	ldr	lr, [pc, #92]	; b53c <DrawLine+0x70>
    b4dc:	e59fc05c 	ldr	ip, [pc, #92]	; b540 <DrawLine+0x74>
    b4e0:	e08fe00e 	add	lr, pc, lr
    b4e4:	e79ec00c 	ldr	ip, [lr, ip]
    b4e8:	e59de010 	ldr	lr, [sp, #16]
    b4ec:	e1a06420 	lsr	r6, r0, #8
    b4f0:	e5cc0003 	strb	r0, [ip, #3]
    b4f4:	e5cc1005 	strb	r1, [ip, #5]
    b4f8:	e1a00421 	lsr	r0, r1, #8
    b4fc:	e5cc2007 	strb	r2, [ip, #7]
    b500:	e1a01422 	lsr	r1, r2, #8
    b504:	e5cc3009 	strb	r3, [ip, #9]
    b508:	e1a02423 	lsr	r2, r3, #8
    b50c:	e1a0342e 	lsr	r3, lr, #8
    b510:	e5cc0004 	strb	r0, [ip, #4]
    b514:	e5cc6002 	strb	r6, [ip, #2]
    b518:	e5cc1006 	strb	r1, [ip, #6]
    b51c:	e5cc2008 	strb	r2, [ip, #8]
    b520:	e5cc5000 	strb	r5, [ip]
    b524:	e5cc4001 	strb	r4, [ip, #1]
    b528:	e5cce00b 	strb	lr, [ip, #11]
    b52c:	e5cc300a 	strb	r3, [ip, #10]
    b530:	e1a0000c 	mov	r0, ip
    b534:	e8bd4070 	pop	{r4, r5, r6, lr}
    b538:	ea0024f2 	b	14908 <commVDG>
    b53c:	00013998 	muleq	r1, r8, r9
    b540:	00000164 	andeq	r0, r0, r4, ror #2

0000b544 <DrawRect>:
    b544:	e92d40f0 	push	{r4, r5, r6, r7, lr}
    b548:	e3a0500b 	mov	r5, #11
    b54c:	e3e0402a 	mvn	r4, #42	; 0x2a
    b550:	e59fe064 	ldr	lr, [pc, #100]	; b5bc <DrawRect+0x78>
    b554:	e59fc064 	ldr	ip, [pc, #100]	; b5c0 <DrawRect+0x7c>
    b558:	e08fe00e 	add	lr, pc, lr
    b55c:	e79ec00c 	ldr	ip, [lr, ip]
    b560:	e59d6014 	ldr	r6, [sp, #20]
    b564:	e0802002 	add	r2, r0, r2
    b568:	e0813003 	add	r3, r1, r3
    b56c:	e1a07422 	lsr	r7, r2, #8
    b570:	e5cc1005 	strb	r1, [ip, #5]
    b574:	e5cc2007 	strb	r2, [ip, #7]
    b578:	e5cc3009 	strb	r3, [ip, #9]
    b57c:	e1a02423 	lsr	r2, r3, #8
    b580:	e1a03426 	lsr	r3, r6, #8
    b584:	e1a0e420 	lsr	lr, r0, #8
    b588:	e1a01421 	lsr	r1, r1, #8
    b58c:	e5cc0003 	strb	r0, [ip, #3]
    b590:	e5cc7006 	strb	r7, [ip, #6]
    b594:	e5cc2008 	strb	r2, [ip, #8]
    b598:	e5cce002 	strb	lr, [ip, #2]
    b59c:	e5cc1004 	strb	r1, [ip, #4]
    b5a0:	e5cc5000 	strb	r5, [ip]
    b5a4:	e5cc4001 	strb	r4, [ip, #1]
    b5a8:	e5cc600b 	strb	r6, [ip, #11]
    b5ac:	e5cc300a 	strb	r3, [ip, #10]
    b5b0:	e1a0000c 	mov	r0, ip
    b5b4:	e8bd40f0 	pop	{r4, r5, r6, r7, lr}
    b5b8:	ea0024d2 	b	14908 <commVDG>
    b5bc:	00013920 	andeq	r3, r1, r0, lsr #18
    b5c0:	00000164 	andeq	r0, r0, r4, ror #2

0000b5c4 <DrawRoundRect>:
    b5c4:	e92d4ff0 	push	{r4, r5, r6, r7, r8, r9, sl, fp, lr}
    b5c8:	e59f31f4 	ldr	r3, [pc, #500]	; b7c4 <DrawRoundRect+0x200>
    b5cc:	e59f21f4 	ldr	r2, [pc, #500]	; b7c8 <DrawRoundRect+0x204>
    b5d0:	e08f3003 	add	r3, pc, r3
    b5d4:	e7933002 	ldr	r3, [r3, r2]
    b5d8:	e3a05000 	mov	r5, #0
    b5dc:	e5931004 	ldr	r1, [r3, #4]
    b5e0:	e5d36010 	ldrb	r6, [r3, #16]
    b5e4:	e5932000 	ldr	r2, [r3]
    b5e8:	e5930008 	ldr	r0, [r3, #8]
    b5ec:	e593c00c 	ldr	ip, [r3, #12]
    b5f0:	e5934014 	ldr	r4, [r3, #20]
    b5f4:	e1a03001 	mov	r3, r1
    b5f8:	e24dd03c 	sub	sp, sp, #60	; 0x3c
    b5fc:	e58d0028 	str	r0, [sp, #40]	; 0x28
    b600:	e58d1024 	str	r1, [sp, #36]	; 0x24
    b604:	e0820000 	add	r0, r2, r0
    b608:	e081100c 	add	r1, r1, ip
    b60c:	e1a0e086 	lsl	lr, r6, #1
    b610:	e58d2020 	str	r2, [sp, #32]
    b614:	e58d0030 	str	r0, [sp, #48]	; 0x30
    b618:	e58d1034 	str	r1, [sp, #52]	; 0x34
    b61c:	e0400006 	sub	r0, r0, r6
    b620:	e0411006 	sub	r1, r1, r6
    b624:	e0862002 	add	r2, r6, r2
    b628:	e0863003 	add	r3, r6, r3
    b62c:	e58dc02c 	str	ip, [sp, #44]	; 0x2c
    b630:	e58de01c 	str	lr, [sp, #28]
    b634:	e58d000c 	str	r0, [sp, #12]
    b638:	e26e7003 	rsb	r7, lr, #3
    b63c:	e58d1008 	str	r1, [sp, #8]
    b640:	e58d2014 	str	r2, [sp, #20]
    b644:	e58d3018 	str	r3, [sp, #24]
    b648:	e59dc018 	ldr	ip, [sp, #24]
    b64c:	e59d3014 	ldr	r3, [sp, #20]
    b650:	e04c9006 	sub	r9, ip, r6
    b654:	e043a005 	sub	sl, r3, r5
    b658:	e1a01009 	mov	r1, r9
    b65c:	e1a0000a 	mov	r0, sl
    b660:	e1a02004 	mov	r2, r4
    b664:	e04cb005 	sub	fp, ip, r5
    b668:	e0438006 	sub	r8, r3, r6
    b66c:	ebffff5d 	bl	b3e8 <SetDot>
    b670:	e59d300c 	ldr	r3, [sp, #12]
    b674:	e1a0100b 	mov	r1, fp
    b678:	e0833005 	add	r3, r3, r5
    b67c:	e1a00008 	mov	r0, r8
    b680:	e1a02004 	mov	r2, r4
    b684:	e58d3010 	str	r3, [sp, #16]
    b688:	ebffff56 	bl	b3e8 <SetDot>
    b68c:	e59d3010 	ldr	r3, [sp, #16]
    b690:	e1a01009 	mov	r1, r9
    b694:	e1a09003 	mov	r9, r3
    b698:	e1a00003 	mov	r0, r3
    b69c:	e59d300c 	ldr	r3, [sp, #12]
    b6a0:	e1a02004 	mov	r2, r4
    b6a4:	e0833006 	add	r3, r3, r6
    b6a8:	e58d3010 	str	r3, [sp, #16]
    b6ac:	ebffff4d 	bl	b3e8 <SetDot>
    b6b0:	e59d3010 	ldr	r3, [sp, #16]
    b6b4:	e1a0100b 	mov	r1, fp
    b6b8:	e1a00003 	mov	r0, r3
    b6bc:	e59d3008 	ldr	r3, [sp, #8]
    b6c0:	e1a02004 	mov	r2, r4
    b6c4:	e083b006 	add	fp, r3, r6
    b6c8:	ebffff46 	bl	b3e8 <SetDot>
    b6cc:	e59d3008 	ldr	r3, [sp, #8]
    b6d0:	e1a00009 	mov	r0, r9
    b6d4:	e1a0100b 	mov	r1, fp
    b6d8:	e1a02004 	mov	r2, r4
    b6dc:	e0839005 	add	r9, r3, r5
    b6e0:	ebffff40 	bl	b3e8 <SetDot>
    b6e4:	e59d3010 	ldr	r3, [sp, #16]
    b6e8:	e1a01009 	mov	r1, r9
    b6ec:	e1a00003 	mov	r0, r3
    b6f0:	e1a02004 	mov	r2, r4
    b6f4:	ebffff3b 	bl	b3e8 <SetDot>
    b6f8:	e1a02004 	mov	r2, r4
    b6fc:	e1a0100b 	mov	r1, fp
    b700:	e1a0000a 	mov	r0, sl
    b704:	ebffff37 	bl	b3e8 <SetDot>
    b708:	e1a02004 	mov	r2, r4
    b70c:	e1a01009 	mov	r1, r9
    b710:	e1a00008 	mov	r0, r8
    b714:	ebffff33 	bl	b3e8 <SetDot>
    b718:	e3570000 	cmp	r7, #0
    b71c:	a0453006 	subge	r3, r5, r6
    b720:	b0877105 	addlt	r7, r7, r5, lsl #2
    b724:	a287700a 	addge	r7, r7, #10
    b728:	a2466001 	subge	r6, r6, #1
    b72c:	e2855001 	add	r5, r5, #1
    b730:	b2877006 	addlt	r7, r7, #6
    b734:	a0877103 	addge	r7, r7, r3, lsl #2
    b738:	e1560005 	cmp	r6, r5
    b73c:	2affffc1 	bcs	b648 <DrawRoundRect+0x84>
    b740:	e59dc01c 	ldr	ip, [sp, #28]
    b744:	e59d3028 	ldr	r3, [sp, #40]	; 0x28
    b748:	e59d7014 	ldr	r7, [sp, #20]
    b74c:	e043500c 	sub	r5, r3, ip
    b750:	e59de02c 	ldr	lr, [sp, #44]	; 0x2c
    b754:	e59d1024 	ldr	r1, [sp, #36]	; 0x24
    b758:	e1a02005 	mov	r2, r5
    b75c:	e1a00007 	mov	r0, r7
    b760:	e58d4000 	str	r4, [sp]
    b764:	e3a03000 	mov	r3, #0
    b768:	e04e600c 	sub	r6, lr, ip
    b76c:	ebffff36 	bl	b44c <FillRect>
    b770:	e1a02005 	mov	r2, r5
    b774:	e59d1034 	ldr	r1, [sp, #52]	; 0x34
    b778:	e1a00007 	mov	r0, r7
    b77c:	e58d4000 	str	r4, [sp]
    b780:	e3a03000 	mov	r3, #0
    b784:	ebffff30 	bl	b44c <FillRect>
    b788:	e59d5018 	ldr	r5, [sp, #24]
    b78c:	e59d0020 	ldr	r0, [sp, #32]
    b790:	e1a03006 	mov	r3, r6
    b794:	e1a01005 	mov	r1, r5
    b798:	e58d4000 	str	r4, [sp]
    b79c:	e3a02000 	mov	r2, #0
    b7a0:	ebffff29 	bl	b44c <FillRect>
    b7a4:	e1a03006 	mov	r3, r6
    b7a8:	e58d4000 	str	r4, [sp]
    b7ac:	e1a01005 	mov	r1, r5
    b7b0:	e59d0030 	ldr	r0, [sp, #48]	; 0x30
    b7b4:	e3a02000 	mov	r2, #0
    b7b8:	ebffff23 	bl	b44c <FillRect>
    b7bc:	e28dd03c 	add	sp, sp, #60	; 0x3c
    b7c0:	e8bd8ff0 	pop	{r4, r5, r6, r7, r8, r9, sl, fp, pc}
    b7c4:	000138a8 	andeq	r3, r1, r8, lsr #17
    b7c8:	000000a4 	andeq	r0, r0, r4, lsr #1

0000b7cc <DrawCircle>:
    b7cc:	e92d40f0 	push	{r4, r5, r6, r7, lr}
    b7d0:	e3a0600a 	mov	r6, #10
    b7d4:	e3e05029 	mvn	r5, #41	; 0x29
    b7d8:	e3a04000 	mov	r4, #0
    b7dc:	e59fe050 	ldr	lr, [pc, #80]	; b834 <DrawCircle+0x68>
    b7e0:	e59fc050 	ldr	ip, [pc, #80]	; b838 <DrawCircle+0x6c>
    b7e4:	e08fe00e 	add	lr, pc, lr
    b7e8:	e79ec00c 	ldr	ip, [lr, ip]
    b7ec:	e59de014 	ldr	lr, [sp, #20]
    b7f0:	e1a07420 	lsr	r7, r0, #8
    b7f4:	e5cc1005 	strb	r1, [ip, #5]
    b7f8:	e5cc2006 	strb	r2, [ip, #6]
    b7fc:	e1a01421 	lsr	r1, r1, #8
    b800:	e1a0242e 	lsr	r2, lr, #8
    b804:	e5cc0003 	strb	r0, [ip, #3]
    b808:	e5cc7002 	strb	r7, [ip, #2]
    b80c:	e5cc3007 	strb	r3, [ip, #7]
    b810:	e5cc1004 	strb	r1, [ip, #4]
    b814:	e5cc6000 	strb	r6, [ip]
    b818:	e5cc5001 	strb	r5, [ip, #1]
    b81c:	e5cc4008 	strb	r4, [ip, #8]
    b820:	e5cce00a 	strb	lr, [ip, #10]
    b824:	e5cc2009 	strb	r2, [ip, #9]
    b828:	e1a0000c 	mov	r0, ip
    b82c:	e8bd40f0 	pop	{r4, r5, r6, r7, lr}
    b830:	ea002434 	b	14908 <commVDG>
    b834:	00013694 	muleq	r1, r4, r6
    b838:	00000164 	andeq	r0, r0, r4, ror #2

0000b83c <InvertRect>:
    b83c:	e92d40f0 	push	{r4, r5, r6, r7, lr}
    b840:	e3a05009 	mov	r5, #9
    b844:	e3e04013 	mvn	r4, #19
    b848:	e59fe04c 	ldr	lr, [pc, #76]	; b89c <InvertRect+0x60>
    b84c:	e59fc04c 	ldr	ip, [pc, #76]	; b8a0 <InvertRect+0x64>
    b850:	e08fe00e 	add	lr, pc, lr
    b854:	e79ec00c 	ldr	ip, [lr, ip]
    b858:	e1a07420 	lsr	r7, r0, #8
    b85c:	e1a06421 	lsr	r6, r1, #8
    b860:	e5cc1005 	strb	r1, [ip, #5]
    b864:	e1a01422 	lsr	r1, r2, #8
    b868:	e1a0e423 	lsr	lr, r3, #8
    b86c:	e5cc0003 	strb	r0, [ip, #3]
    b870:	e5cc7002 	strb	r7, [ip, #2]
    b874:	e5cc3007 	strb	r3, [ip, #7]
    b878:	e5cc2009 	strb	r2, [ip, #9]
    b87c:	e5cc6004 	strb	r6, [ip, #4]
    b880:	e5cce006 	strb	lr, [ip, #6]
    b884:	e5cc1008 	strb	r1, [ip, #8]
    b888:	e5cc5000 	strb	r5, [ip]
    b88c:	e5cc4001 	strb	r4, [ip, #1]
    b890:	e1a0000c 	mov	r0, ip
    b894:	e8bd40f0 	pop	{r4, r5, r6, r7, lr}
    b898:	ea00241a 	b	14908 <commVDG>
    b89c:	00013628 	andeq	r3, r1, r8, lsr #12
    b8a0:	00000164 	andeq	r0, r0, r4, ror #2

0000b8a4 <SelRect>:
    b8a4:	e3a0cb3e 	mov	ip, #63488	; 0xf800
    b8a8:	e52de004 	push	{lr}		; (str lr, [sp, #-4]!)
    b8ac:	e24dd00c 	sub	sp, sp, #12
    b8b0:	e2833002 	add	r3, r3, #2
    b8b4:	e2822002 	add	r2, r2, #2
    b8b8:	e2411001 	sub	r1, r1, #1
    b8bc:	e2400001 	sub	r0, r0, #1
    b8c0:	e58dc000 	str	ip, [sp]
    b8c4:	ebffff1e 	bl	b544 <DrawRect>
    b8c8:	e28dd00c 	add	sp, sp, #12
    b8cc:	e49df004 	pop	{pc}		; (ldr pc, [sp], #4)

0000b8d0 <PutImage>:
    b8d0:	e12fff1e 	bx	lr

0000b8d4 <PutIcone>:
    b8d4:	e92d4ff0 	push	{r4, r5, r6, r7, r8, r9, sl, fp, lr}
    b8d8:	e3e0c021 	mvn	ip, #33	; 0x21
    b8dc:	e3a0b000 	mov	fp, #0
    b8e0:	e3e0e07d 	mvn	lr, #125	; 0x7d
    b8e4:	e1a0a001 	mov	sl, r1
    b8e8:	e59f1108 	ldr	r1, [pc, #264]	; b9f8 <PutIcone+0x124>
    b8ec:	e24dd00c 	sub	sp, sp, #12
    b8f0:	e59f4104 	ldr	r4, [pc, #260]	; b9fc <PutIcone+0x128>
    b8f4:	e58d2004 	str	r2, [sp, #4]
    b8f8:	e08f1001 	add	r1, pc, r1
    b8fc:	e7915004 	ldr	r5, [r1, r4]
    b900:	e2807d12 	add	r7, r0, #1152	; 0x480
    b904:	e1a0600b 	mov	r6, fp
    b908:	e1a0200b 	mov	r2, fp
    b90c:	e1a0900e 	mov	r9, lr
    b910:	e1a0800c 	mov	r8, ip
    b914:	e3a03003 	mov	r3, #3
    b918:	e2877002 	add	r7, r7, #2
    b91c:	e2804002 	add	r4, r0, #2
    b920:	e5c5b002 	strb	fp, [r5, #2]
    b924:	e5c5e000 	strb	lr, [r5]
    b928:	e5c5c001 	strb	ip, [r5, #1]
    b92c:	ea000002 	b	b93c <PutIcone+0x68>
    b930:	e2844002 	add	r4, r4, #2
    b934:	e1540007 	cmp	r4, r7
    b938:	0a000017 	beq	b99c <PutIcone+0xc8>
    b93c:	e2822001 	add	r2, r2, #1
    b940:	e3560007 	cmp	r6, #7
    b944:	93520040 	cmpls	r2, #64	; 0x40
    b948:	e5540002 	ldrb	r0, [r4, #-2]
    b94c:	e2831001 	add	r1, r3, #1
    b950:	e7c50003 	strb	r0, [r5, r3]
    b954:	e5540001 	ldrb	r0, [r4, #-1]
    b958:	e6ef1071 	uxtb	r1, r1
    b95c:	e2833002 	add	r3, r3, #2
    b960:	e7c50001 	strb	r0, [r5, r1]
    b964:	16ef3073 	uxtbne	r3, r3
    b968:	1afffff0 	bne	b930 <PutIcone+0x5c>
    b96c:	e2866001 	add	r6, r6, #1
    b970:	e1a00005 	mov	r0, r5
    b974:	e2844002 	add	r4, r4, #2
    b978:	eb0023e2 	bl	14908 <commVDG>
    b97c:	e6ef6076 	uxtb	r6, r6
    b980:	e1540007 	cmp	r4, r7
    b984:	e3a03003 	mov	r3, #3
    b988:	e3a02000 	mov	r2, #0
    b98c:	e5c56002 	strb	r6, [r5, #2]
    b990:	e5c59000 	strb	r9, [r5]
    b994:	e5c58001 	strb	r8, [r5, #1]
    b998:	1affffe7 	bne	b93c <PutIcone+0x68>
    b99c:	e1a00005 	mov	r0, r5
    b9a0:	eb0023d8 	bl	14908 <commVDG>
    b9a4:	e3a01000 	mov	r1, #0
    b9a8:	e3a02018 	mov	r2, #24
    b9ac:	e3a0e009 	mov	lr, #9
    b9b0:	e3e0c020 	mvn	ip, #32
    b9b4:	e1a00005 	mov	r0, r5
    b9b8:	e59d3004 	ldr	r3, [sp, #4]
    b9bc:	e5c5a003 	strb	sl, [r5, #3]
    b9c0:	e5c53005 	strb	r3, [r5, #5]
    b9c4:	e1a0a42a 	lsr	sl, sl, #8
    b9c8:	e1a03423 	lsr	r3, r3, #8
    b9cc:	e5c5a002 	strb	sl, [r5, #2]
    b9d0:	e5c53004 	strb	r3, [r5, #4]
    b9d4:	e5c5e000 	strb	lr, [r5]
    b9d8:	e5c5c001 	strb	ip, [r5, #1]
    b9dc:	e5c51006 	strb	r1, [r5, #6]
    b9e0:	e5c51008 	strb	r1, [r5, #8]
    b9e4:	e5c52007 	strb	r2, [r5, #7]
    b9e8:	e5c52009 	strb	r2, [r5, #9]
    b9ec:	e28dd00c 	add	sp, sp, #12
    b9f0:	e8bd4ff0 	pop	{r4, r5, r6, r7, r8, r9, sl, fp, lr}
    b9f4:	ea0023c3 	b	14908 <commVDG>
    b9f8:	00013580 	andeq	r3, r1, r0, lsl #11
    b9fc:	00000164 	andeq	r0, r0, r4, ror #2

0000ba00 <MostraIcone>:
    ba00:	e92d41f0 	push	{r4, r5, r6, r7, r8, lr}
    ba04:	e59f60a8 	ldr	r6, [pc, #168]	; bab4 <MostraIcone+0xb4>
    ba08:	e59f30a8 	ldr	r3, [pc, #168]	; bab8 <MostraIcone+0xb8>
    ba0c:	e08f6006 	add	r6, pc, r6
    ba10:	e7967003 	ldr	r7, [r6, r3]
    ba14:	e3520031 	cmp	r2, #49	; 0x31
    ba18:	e1a05001 	mov	r5, r1
    ba1c:	e24dd010 	sub	sp, sp, #16
    ba20:	e1a04000 	mov	r4, r0
    ba24:	e5971000 	ldr	r1, [r7]
    ba28:	9a00000a 	bls	ba58 <MostraIcone+0x58>
    ba2c:	e2422032 	sub	r2, r2, #50	; 0x32
    ba30:	e6ef2072 	uxtb	r2, r2
    ba34:	e0822182 	add	r2, r2, r2, lsl #3
    ba38:	e1a00382 	lsl	r0, r2, #7
    ba3c:	e2800e41 	add	r0, r0, #1040	; 0x410
    ba40:	e0810000 	add	r0, r1, r0
    ba44:	e1a02005 	mov	r2, r5
    ba48:	e1a01004 	mov	r1, r4
    ba4c:	ebffffa0 	bl	b8d4 <PutIcone>
    ba50:	e28dd010 	add	sp, sp, #16
    ba54:	e8bd81f0 	pop	{r4, r5, r6, r7, r8, pc}
    ba58:	e3a0000a 	mov	r0, #10
    ba5c:	e0211290 	mla	r1, r0, r2, r1
    ba60:	e59f2054 	ldr	r2, [pc, #84]	; babc <MostraIcone+0xbc>
    ba64:	e28d8004 	add	r8, sp, #4
    ba68:	e2811d06 	add	r1, r1, #384	; 0x180
    ba6c:	e08f2002 	add	r2, pc, r2
    ba70:	e1a00008 	mov	r0, r8
    ba74:	eb0010aa 	bl	fd24 <_strcat>
    ba78:	e59f3040 	ldr	r3, [pc, #64]	; bac0 <MostraIcone+0xc0>
    ba7c:	e1a00008 	mov	r0, r8
    ba80:	e7961003 	ldr	r1, [r6, r3]
    ba84:	ebfffb7a 	bl	a874 <loadFile>
    ba88:	e59f3034 	ldr	r3, [pc, #52]	; bac4 <MostraIcone+0xc4>
    ba8c:	e7963003 	ldr	r3, [r6, r3]
    ba90:	e5933000 	ldr	r3, [r3]
    ba94:	e3530000 	cmp	r3, #0
    ba98:	15971000 	ldrne	r1, [r7]
    ba9c:	159f0024 	ldrne	r0, [pc, #36]	; bac8 <MostraIcone+0xc8>
    baa0:	1affffe6 	bne	ba40 <MostraIcone+0x40>
    baa4:	e59f3020 	ldr	r3, [pc, #32]	; bacc <MostraIcone+0xcc>
    baa8:	e7963003 	ldr	r3, [r6, r3]
    baac:	e5930000 	ldr	r0, [r3]
    bab0:	eaffffe3 	b	ba44 <MostraIcone+0x44>
    bab4:	0001346c 	andeq	r3, r1, ip, ror #8
    bab8:	0000001c 	andeq	r0, r0, ip, lsl r0
    babc:	0000fcec 	andeq	pc, r0, ip, ror #25
    bac0:	00000064 	andeq	r0, r0, r4, rrx
    bac4:	00000008 	andeq	r0, r0, r8
    bac8:	00002c90 	muleq	r0, r0, ip
    bacc:	00000108 	andeq	r0, r0, r8, lsl #2

0000bad0 <desenhaMenu>:
    bad0:	e92d4070 	push	{r4, r5, r6, lr}
    bad4:	e59f6068 	ldr	r6, [pc, #104]	; bb44 <desenhaMenu+0x74>
    bad8:	e24dd008 	sub	sp, sp, #8
    badc:	e3a05030 	mov	r5, #48	; 0x30
    bae0:	e3a04032 	mov	r4, #50	; 0x32
    bae4:	e08f6006 	add	r6, pc, r6
    bae8:	e1a02004 	mov	r2, r4
    baec:	e1a00005 	mov	r0, r5
    baf0:	e3a01004 	mov	r1, #4
    baf4:	e2855020 	add	r5, r5, #32
    baf8:	ebffffc0 	bl	ba00 <MostraIcone>
    bafc:	e2844001 	add	r4, r4, #1
    bb00:	e3550e11 	cmp	r5, #272	; 0x110
    bb04:	e6ef4074 	uxtb	r4, r4
    bb08:	1afffff6 	bne	bae8 <desenhaMenu+0x18>
    bb0c:	e59f3034 	ldr	r3, [pc, #52]	; bb48 <desenhaMenu+0x78>
    bb10:	e59f2034 	ldr	r2, [pc, #52]	; bb4c <desenhaMenu+0x7c>
    bb14:	e7963003 	ldr	r3, [r6, r3]
    bb18:	e7962002 	ldr	r2, [r6, r2]
    bb1c:	e5931000 	ldr	r1, [r3]
    bb20:	e59f3028 	ldr	r3, [pc, #40]	; bb50 <desenhaMenu+0x80>
    bb24:	e5922000 	ldr	r2, [r2]
    bb28:	e2411023 	sub	r1, r1, #35	; 0x23
    bb2c:	e58d3000 	str	r3, [sp]
    bb30:	e3a00000 	mov	r0, #0
    bb34:	e3a03023 	mov	r3, #35	; 0x23
    bb38:	ebfffe43 	bl	b44c <FillRect>
    bb3c:	e28dd008 	add	sp, sp, #8
    bb40:	e8bd8070 	pop	{r4, r5, r6, pc}
    bb44:	00013394 	muleq	r1, r4, r3
    bb48:	0000012c 	andeq	r0, r0, ip, lsr #2
    bb4c:	000001ac 	andeq	r0, r0, ip, lsr #3
    bb50:	00007bef 	andeq	r7, r0, pc, ror #23

0000bb54 <desenhaIconesUsuario>:
    bb54:	e3a00000 	mov	r0, #0
    bb58:	e92d47f0 	push	{r4, r5, r6, r7, r8, r9, sl, lr}
    bb5c:	e59f30e0 	ldr	r3, [pc, #224]	; bc44 <desenhaIconesUsuario+0xf0>
    bb60:	e59f10e0 	ldr	r1, [pc, #224]	; bc48 <desenhaIconesUsuario+0xf4>
    bb64:	e08f3003 	add	r3, pc, r3
    bb68:	e7939001 	ldr	r9, [r3, r1]
    bb6c:	e59f20d8 	ldr	r2, [pc, #216]	; bc4c <desenhaIconesUsuario+0xf8>
    bb70:	e5c90000 	strb	r0, [r9]
    bb74:	e7933002 	ldr	r3, [r3, r2]
    bb78:	e3a08028 	mov	r8, #40	; 0x28
    bb7c:	e5937000 	ldr	r7, [r3]
    bb80:	e1a04000 	mov	r4, r0
    bb84:	e2876020 	add	r6, r7, #32
    bb88:	e2875040 	add	r5, r7, #64	; 0x40
    bb8c:	e2877d06 	add	r7, r7, #384	; 0x180
    bb90:	ea000009 	b	bbbc <desenhaIconesUsuario+0x68>
    bb94:	e3a0301c 	mov	r3, #28
    bb98:	e3a01028 	mov	r1, #40	; 0x28
    bb9c:	e1008083 	smlabb	r0, r3, r0, r8
    bba0:	ebffff96 	bl	ba00 <MostraIcone>
    bba4:	e5d93000 	ldrb	r3, [r9]
    bba8:	e2833001 	add	r3, r3, #1
    bbac:	e5c93000 	strb	r3, [r9]
    bbb0:	e2844001 	add	r4, r4, #1
    bbb4:	e3540020 	cmp	r4, #32
    bbb8:	08bd87f0 	popeq	{r4, r5, r6, r7, r8, r9, sl, pc}
    bbbc:	e0843104 	add	r3, r4, r4, lsl #2
    bbc0:	e1a03083 	lsl	r3, r3, #1
    bbc4:	e7f72003 	ldrb	r2, [r7, r3]!
    bbc8:	e0866004 	add	r6, r6, r4
    bbcc:	e3520000 	cmp	r2, #0
    bbd0:	e0855003 	add	r5, r5, r3
    bbd4:	e6ef2074 	uxtb	r2, r4
    bbd8:	0afffff4 	beq	bbb0 <desenhaIconesUsuario+0x5c>
    bbdc:	e5d53000 	ldrb	r3, [r5]
    bbe0:	e3530000 	cmp	r3, #0
    bbe4:	0afffff1 	beq	bbb0 <desenhaIconesUsuario+0x5c>
    bbe8:	e5d60000 	ldrb	r0, [r6]
    bbec:	e3500007 	cmp	r0, #7
    bbf0:	9affffe7 	bls	bb94 <desenhaIconesUsuario+0x40>
    bbf4:	e350000f 	cmp	r0, #15
    bbf8:	8a000005 	bhi	bc14 <desenhaIconesUsuario+0xc0>
    bbfc:	e2400008 	sub	r0, r0, #8
    bc00:	e0600180 	rsb	r0, r0, r0, lsl #3
    bc04:	e1a00100 	lsl	r0, r0, #2
    bc08:	e2800028 	add	r0, r0, #40	; 0x28
    bc0c:	e3a01048 	mov	r1, #72	; 0x48
    bc10:	eaffffe2 	b	bba0 <desenhaIconesUsuario+0x4c>
    bc14:	e3500017 	cmp	r0, #23
    bc18:	92400008 	subls	r0, r0, #8
    bc1c:	82400010 	subhi	r0, r0, #16
    bc20:	90600180 	rsbls	r0, r0, r0, lsl #3
    bc24:	80600180 	rsbhi	r0, r0, r0, lsl #3
    bc28:	91a00100 	lslls	r0, r0, #2
    bc2c:	81a00100 	lslhi	r0, r0, #2
    bc30:	92800028 	addls	r0, r0, #40	; 0x28
    bc34:	93a01068 	movls	r1, #104	; 0x68
    bc38:	83a01088 	movhi	r1, #136	; 0x88
    bc3c:	82800028 	addhi	r0, r0, #40	; 0x28
    bc40:	eaffffd6 	b	bba0 <desenhaIconesUsuario+0x4c>
    bc44:	00013314 	andeq	r3, r1, r4, lsl r3
    bc48:	000000f0 	strdeq	r0, [r0], -r0	; <UNPREDICTABLE>
    bc4c:	0000001c 	andeq	r0, r0, ip, lsl r0

0000bc50 <VerifyTouchLcd>:
    bc50:	e3a0c000 	mov	ip, #0
    bc54:	e92d47f0 	push	{r4, r5, r6, r7, r8, r9, sl, lr}
    bc58:	e1a07000 	mov	r7, r0
    bc5c:	e3a05001 	mov	r5, #1
    bc60:	e3e06023 	mvn	r6, #35	; 0x23
    bc64:	e59f3090 	ldr	r3, [pc, #144]	; bcfc <VerifyTouchLcd+0xac>
    bc68:	e59f1090 	ldr	r1, [pc, #144]	; bd00 <VerifyTouchLcd+0xb0>
    bc6c:	e08f3003 	add	r3, pc, r3
    bc70:	e7938001 	ldr	r8, [r3, r1]
    bc74:	e59f2088 	ldr	r2, [pc, #136]	; bd04 <VerifyTouchLcd+0xb4>
    bc78:	e588c000 	str	ip, [r8]
    bc7c:	e7939002 	ldr	r9, [r3, r2]
    bc80:	e59f2080 	ldr	r2, [pc, #128]	; bd08 <VerifyTouchLcd+0xb8>
    bc84:	e589c000 	str	ip, [r9]
    bc88:	e7934002 	ldr	r4, [r3, r2]
    bc8c:	e1a00004 	mov	r0, r4
    bc90:	e5c45000 	strb	r5, [r4]
    bc94:	e5c46001 	strb	r6, [r4, #1]
    bc98:	eb00231a 	bl	14908 <commVDG>
    bc9c:	e5d42000 	ldrb	r2, [r4]
    bca0:	e35200ff 	cmp	r2, #255	; 0xff
    bca4:	0a000006 	beq	bcc4 <VerifyTouchLcd+0x74>
    bca8:	e2973000 	adds	r3, r7, #0
    bcac:	13a03001 	movne	r3, #1
    bcb0:	e3520000 	cmp	r2, #0
    bcb4:	13a03000 	movne	r3, #0
    bcb8:	e3530000 	cmp	r3, #0
    bcbc:	1afffff2 	bne	bc8c <VerifyTouchLcd+0x3c>
    bcc0:	e8bd87f0 	pop	{r4, r5, r6, r7, r8, r9, sl, pc}
    bcc4:	e3e03022 	mvn	r3, #34	; 0x22
    bcc8:	e1a00004 	mov	r0, r4
    bccc:	e5c43001 	strb	r3, [r4, #1]
    bcd0:	e5c45000 	strb	r5, [r4]
    bcd4:	eb00230b 	bl	14908 <commVDG>
    bcd8:	e5d40000 	ldrb	r0, [r4]
    bcdc:	e5d42001 	ldrb	r2, [r4, #1]
    bce0:	e5d41002 	ldrb	r1, [r4, #2]
    bce4:	e5d43003 	ldrb	r3, [r4, #3]
    bce8:	e0822400 	add	r2, r2, r0, lsl #8
    bcec:	e0833401 	add	r3, r3, r1, lsl #8
    bcf0:	e5892000 	str	r2, [r9]
    bcf4:	e5883000 	str	r3, [r8]
    bcf8:	e8bd87f0 	pop	{r4, r5, r6, r7, r8, r9, sl, pc}
    bcfc:	0001320c 	andeq	r3, r1, ip, lsl #4
    bd00:	00000218 	andeq	r0, r0, r8, lsl r2
    bd04:	00000084 	andeq	r0, r0, r4, lsl #1
    bd08:	00000164 	andeq	r0, r0, r4, ror #2

0000bd0c <new_icon>:
    bd0c:	e12fff1e 	bx	lr

0000bd10 <del_icon>:
    bd10:	e12fff1e 	bx	lr

0000bd14 <mgi_setup>:
    bd14:	e12fff1e 	bx	lr

0000bd18 <drawButtons>:
    bd18:	e92d43f0 	push	{r4, r5, r6, r7, r8, r9, lr}
    bd1c:	e3a0202a 	mov	r2, #42	; 0x2a
    bd20:	e3a0300a 	mov	r3, #10
    bd24:	e3a0e001 	mov	lr, #1
    bd28:	e3a08000 	mov	r8, #0
    bd2c:	e59f4218 	ldr	r4, [pc, #536]	; bf4c <drawButtons+0x234>
    bd30:	e59fc218 	ldr	ip, [pc, #536]	; bf50 <drawButtons+0x238>
    bd34:	e08f4004 	add	r4, pc, r4
    bd38:	e794c00c 	ldr	ip, [r4, ip]
    bd3c:	e59f7210 	ldr	r7, [pc, #528]	; bf54 <drawButtons+0x23c>
    bd40:	e24dd00c 	sub	sp, sp, #12
    bd44:	e58d7000 	str	r7, [sp]
    bd48:	e58c2008 	str	r2, [ip, #8]
    bd4c:	e58c300c 	str	r3, [ip, #12]
    bd50:	e58ce010 	str	lr, [ip, #16]
    bd54:	e1cc00f0 	strd	r0, [ip]
    bd58:	e58c8014 	str	r8, [ip, #20]
    bd5c:	e1a05000 	mov	r5, r0
    bd60:	e1a06001 	mov	r6, r1
    bd64:	ebfffdb8 	bl	b44c <FillRect>
    bd68:	ebfffe15 	bl	b5c4 <DrawRoundRect>
    bd6c:	e59f31e4 	ldr	r3, [pc, #484]	; bf58 <drawButtons+0x240>
    bd70:	e7949003 	ldr	r9, [r4, r3]
    bd74:	e5d93000 	ldrb	r3, [r9]
    bd78:	e2132001 	ands	r2, r3, #1
    bd7c:	1a000028 	bne	be24 <drawButtons+0x10c>
    bd80:	e2131020 	ands	r1, r3, #32
    bd84:	1a000017 	bne	bde8 <drawButtons+0xd0>
    bd88:	e2132040 	ands	r2, r3, #64	; 0x40
    bd8c:	1a000042 	bne	be9c <drawButtons+0x184>
    bd90:	e2131002 	ands	r1, r3, #2
    bd94:	1a00004f 	bne	bed8 <drawButtons+0x1c0>
    bd98:	e2132004 	ands	r2, r3, #4
    bd9c:	1a000030 	bne	be64 <drawButtons+0x14c>
    bda0:	e2131008 	ands	r1, r3, #8
    bda4:	1a00005a 	bne	bf14 <drawButtons+0x1fc>
    bda8:	e3130010 	tst	r3, #16
    bdac:	0a00001a 	beq	be1c <drawButtons+0x104>
    bdb0:	e59f31a4 	ldr	r3, [pc, #420]	; bf5c <drawButtons+0x244>
    bdb4:	e88d0082 	stm	sp, {r1, r7}
    bdb8:	e08f3003 	add	r3, pc, r3
    bdbc:	e3a02008 	mov	r2, #8
    bdc0:	e2861002 	add	r1, r6, #2
    bdc4:	e2850004 	add	r0, r5, #4
    bdc8:	ebfffcde 	bl	b148 <writesxy>
    bdcc:	e5d92000 	ldrb	r2, [r9]
    bdd0:	e59f3188 	ldr	r3, [pc, #392]	; bf60 <drawButtons+0x248>
    bdd4:	e3c22010 	bic	r2, r2, #16
    bdd8:	e5c92000 	strb	r2, [r9]
    bddc:	e7943003 	ldr	r3, [r4, r3]
    bde0:	e5c35005 	strb	r5, [r3, #5]
    bde4:	ea00000c 	b	be1c <drawButtons+0x104>
    bde8:	e59f3174 	ldr	r3, [pc, #372]	; bf64 <drawButtons+0x24c>
    bdec:	e88d0084 	stm	sp, {r2, r7}
    bdf0:	e08f3003 	add	r3, pc, r3
    bdf4:	e3a02008 	mov	r2, #8
    bdf8:	e2861002 	add	r1, r6, #2
    bdfc:	e2850001 	add	r0, r5, #1
    be00:	ebfffcd0 	bl	b148 <writesxy>
    be04:	e5d92000 	ldrb	r2, [r9]
    be08:	e59f3150 	ldr	r3, [pc, #336]	; bf60 <drawButtons+0x248>
    be0c:	e3c22020 	bic	r2, r2, #32
    be10:	e5c92000 	strb	r2, [r9]
    be14:	e7943003 	ldr	r3, [r4, r3]
    be18:	e5c35006 	strb	r5, [r3, #6]
    be1c:	e28dd00c 	add	sp, sp, #12
    be20:	e8bd83f0 	pop	{r4, r5, r6, r7, r8, r9, pc}
    be24:	e59f313c 	ldr	r3, [pc, #316]	; bf68 <drawButtons+0x250>
    be28:	e58d7004 	str	r7, [sp, #4]
    be2c:	e58d8000 	str	r8, [sp]
    be30:	e2861002 	add	r1, r6, #2
    be34:	e08f3003 	add	r3, pc, r3
    be38:	e3a02008 	mov	r2, #8
    be3c:	e285000a 	add	r0, r5, #10
    be40:	ebfffcc0 	bl	b148 <writesxy>
    be44:	e5d92000 	ldrb	r2, [r9]
    be48:	e59f3110 	ldr	r3, [pc, #272]	; bf60 <drawButtons+0x248>
    be4c:	e3c22001 	bic	r2, r2, #1
    be50:	e5c92000 	strb	r2, [r9]
    be54:	e7943003 	ldr	r3, [r4, r3]
    be58:	e5c35001 	strb	r5, [r3, #1]
    be5c:	e28dd00c 	add	sp, sp, #12
    be60:	e8bd83f0 	pop	{r4, r5, r6, r7, r8, r9, pc}
    be64:	e59f3100 	ldr	r3, [pc, #256]	; bf6c <drawButtons+0x254>
    be68:	e88d0082 	stm	sp, {r1, r7}
    be6c:	e08f3003 	add	r3, pc, r3
    be70:	e3a02008 	mov	r2, #8
    be74:	e2861002 	add	r1, r6, #2
    be78:	e2850007 	add	r0, r5, #7
    be7c:	ebfffcb1 	bl	b148 <writesxy>
    be80:	e5d92000 	ldrb	r2, [r9]
    be84:	e59f30d4 	ldr	r3, [pc, #212]	; bf60 <drawButtons+0x248>
    be88:	e3c22004 	bic	r2, r2, #4
    be8c:	e5c92000 	strb	r2, [r9]
    be90:	e7943003 	ldr	r3, [r4, r3]
    be94:	e5c35003 	strb	r5, [r3, #3]
    be98:	eaffffdf 	b	be1c <drawButtons+0x104>
    be9c:	e59f30cc 	ldr	r3, [pc, #204]	; bf70 <drawButtons+0x258>
    bea0:	e88d0082 	stm	sp, {r1, r7}
    bea4:	e08f3003 	add	r3, pc, r3
    bea8:	e2861002 	add	r1, r6, #2
    beac:	e3a02008 	mov	r2, #8
    beb0:	e2850001 	add	r0, r5, #1
    beb4:	ebfffca3 	bl	b148 <writesxy>
    beb8:	e5d92000 	ldrb	r2, [r9]
    bebc:	e59f309c 	ldr	r3, [pc, #156]	; bf60 <drawButtons+0x248>
    bec0:	e3c22040 	bic	r2, r2, #64	; 0x40
    bec4:	e5c92000 	strb	r2, [r9]
    bec8:	e7943003 	ldr	r3, [r4, r3]
    becc:	e5c35007 	strb	r5, [r3, #7]
    bed0:	e28dd00c 	add	sp, sp, #12
    bed4:	e8bd83f0 	pop	{r4, r5, r6, r7, r8, r9, pc}
    bed8:	e59f3094 	ldr	r3, [pc, #148]	; bf74 <drawButtons+0x25c>
    bedc:	e88d0084 	stm	sp, {r2, r7}
    bee0:	e2861002 	add	r1, r6, #2
    bee4:	e08f3003 	add	r3, pc, r3
    bee8:	e3a02008 	mov	r2, #8
    beec:	e2850004 	add	r0, r5, #4
    bef0:	ebfffc94 	bl	b148 <writesxy>
    bef4:	e5d92000 	ldrb	r2, [r9]
    bef8:	e59f3060 	ldr	r3, [pc, #96]	; bf60 <drawButtons+0x248>
    befc:	e3c22002 	bic	r2, r2, #2
    bf00:	e5c92000 	strb	r2, [r9]
    bf04:	e7943003 	ldr	r3, [r4, r3]
    bf08:	e5c35002 	strb	r5, [r3, #2]
    bf0c:	e28dd00c 	add	sp, sp, #12
    bf10:	e8bd83f0 	pop	{r4, r5, r6, r7, r8, r9, pc}
    bf14:	e59f305c 	ldr	r3, [pc, #92]	; bf78 <drawButtons+0x260>
    bf18:	e88d0084 	stm	sp, {r2, r7}
    bf1c:	e08f3003 	add	r3, pc, r3
    bf20:	e3a02008 	mov	r2, #8
    bf24:	e2861002 	add	r1, r6, #2
    bf28:	e285000a 	add	r0, r5, #10
    bf2c:	ebfffc85 	bl	b148 <writesxy>
    bf30:	e5d92000 	ldrb	r2, [r9]
    bf34:	e59f3024 	ldr	r3, [pc, #36]	; bf60 <drawButtons+0x248>
    bf38:	e3c22008 	bic	r2, r2, #8
    bf3c:	e5c92000 	strb	r2, [r9]
    bf40:	e7943003 	ldr	r3, [r4, r3]
    bf44:	e5c35004 	strb	r5, [r3, #4]
    bf48:	eaffffb3 	b	be1c <drawButtons+0x104>
    bf4c:	00013144 	andeq	r3, r1, r4, asr #2
    bf50:	000000a4 	andeq	r0, r0, r4, lsr #1
    bf54:	0000ffff 	strdeq	pc, [r0], -pc	; <UNPREDICTABLE>
    bf58:	000000bc 	strheq	r0, [r0], -ip
    bf5c:	0000f9cc 	andeq	pc, r0, ip, asr #19
    bf60:	00000224 	andeq	r0, r0, r4, lsr #4
    bf64:	0000f974 	andeq	pc, r0, r4, ror r9	; <UNPREDICTABLE>
    bf68:	0000f92c 	andeq	pc, r0, ip, lsr #18
    bf6c:	0000f910 	andeq	pc, r0, r0, lsl r9	; <UNPREDICTABLE>
    bf70:	0000f8c8 	andeq	pc, r0, r8, asr #17
    bf74:	0000f890 	muleq	r0, r0, r8
    bf78:	0000f864 	andeq	pc, r0, r4, ror #16

0000bf7c <message>:
    bf7c:	e3a03000 	mov	r3, #0
    bf80:	e92d4ff0 	push	{r4, r5, r6, r7, r8, r9, sl, fp, lr}
    bf84:	e1a04000 	mov	r4, r0
    bf88:	e59fe3ec 	ldr	lr, [pc, #1004]	; c37c <message+0x400>
    bf8c:	e24dd054 	sub	sp, sp, #84	; 0x54
    bf90:	e08fe00e 	add	lr, pc, lr
    bf94:	e58d000c 	str	r0, [sp, #12]
    bf98:	e59f03e0 	ldr	r0, [pc, #992]	; c380 <message+0x404>
    bf9c:	e58de020 	str	lr, [sp, #32]
    bfa0:	e5cd3041 	strb	r3, [sp, #65]	; 0x41
    bfa4:	e5cd3049 	strb	r3, [sp, #73]	; 0x49
    bfa8:	e79ec000 	ldr	ip, [lr, r0]
    bfac:	e58d1014 	str	r1, [sp, #20]
    bfb0:	e5cc3000 	strb	r3, [ip]
    bfb4:	e5cc3001 	strb	r3, [ip, #1]
    bfb8:	e5cc3002 	strb	r3, [ip, #2]
    bfbc:	e5cc3003 	strb	r3, [ip, #3]
    bfc0:	e5cc3004 	strb	r3, [ip, #4]
    bfc4:	e5cc3005 	strb	r3, [ip, #5]
    bfc8:	e5cc3006 	strb	r3, [ip, #6]
    bfcc:	e5cc3007 	strb	r3, [ip, #7]
    bfd0:	e58dc018 	str	ip, [sp, #24]
    bfd4:	e5d4c000 	ldrb	ip, [r4]
    bfd8:	e1a09002 	mov	r9, r2
    bfdc:	e15c0003 	cmp	ip, r3
    bfe0:	0a0000d6 	beq	c340 <message+0x3c4>
    bfe4:	e3a01001 	mov	r1, #1
    bfe8:	e1a02003 	mov	r2, r3
    bfec:	e59d000c 	ldr	r0, [sp, #12]
    bff0:	e1a03001 	mov	r3, r1
    bff4:	e1a04001 	mov	r4, r1
    bff8:	e1a08002 	mov	r8, r2
    bffc:	e1a0e000 	mov	lr, r0
    c000:	e3a0601a 	mov	r6, #26
    c004:	e5cd1041 	strb	r1, [sp, #65]	; 0x41
    c008:	e0417000 	sub	r7, r1, r0
    c00c:	e1520003 	cmp	r2, r3
    c010:	e28d0050 	add	r0, sp, #80	; 0x50
    c014:	31a02003 	movcc	r2, r3
    c018:	e35c000a 	cmp	ip, #10
    c01c:	e0800001 	add	r0, r0, r1
    c020:	0a00000b 	beq	c054 <message+0xd8>
    c024:	e5fec001 	ldrb	ip, [lr, #1]!
    c028:	e35c0000 	cmp	ip, #0
    c02c:	0a00001a 	beq	c09c <message+0x120>
    c030:	e5503010 	ldrb	r3, [r0, #-16]
    c034:	e1a04001 	mov	r4, r1
    c038:	e2833001 	add	r3, r3, #1
    c03c:	e6ef3073 	uxtb	r3, r3
    c040:	e353001a 	cmp	r3, #26
    c044:	83a0301a 	movhi	r3, #26
    c048:	85406010 	strbhi	r6, [r0, #-16]
    c04c:	95403010 	strbls	r3, [r0, #-16]
    c050:	eaffffed 	b	c00c <message+0x90>
    c054:	e2811001 	add	r1, r1, #1
    c058:	e6ef1071 	uxtb	r1, r1
    c05c:	e3510006 	cmp	r1, #6
    c060:	23a01006 	movcs	r1, #6
    c064:	e08e5007 	add	r5, lr, r7
    c068:	e5fec001 	ldrb	ip, [lr, #1]!
    c06c:	e28d0050 	add	r0, sp, #80	; 0x50
    c070:	e0804004 	add	r4, r0, r4
    c074:	e2433001 	sub	r3, r3, #1
    c078:	e0800001 	add	r0, r0, r1
    c07c:	e35c0000 	cmp	ip, #0
    c080:	e5443010 	strb	r3, [r4, #-16]
    c084:	e5405008 	strb	r5, [r0, #-8]
    c088:	e5408010 	strb	r8, [r0, #-16]
    c08c:	13a03001 	movne	r3, #1
    c090:	11a04001 	movne	r4, r1
    c094:	15403010 	strbne	r3, [r0, #-16]
    c098:	1affffdb 	bne	c00c <message+0x90>
    c09c:	e3510006 	cmp	r1, #6
    c0a0:	23a01006 	movcs	r1, #6
    c0a4:	e3a0c00a 	mov	ip, #10
    c0a8:	e3a00014 	mov	r0, #20
    c0ac:	e352001a 	cmp	r2, #26
    c0b0:	23a0201a 	movcs	r2, #26
    c0b4:	e3a03002 	mov	r3, #2
    c0b8:	e1a04001 	mov	r4, r1
    c0bc:	e101018c 	smlabb	r1, ip, r1, r0
    c0c0:	e0833182 	add	r3, r3, r2, lsl #3
    c0c4:	e58d3024 	str	r3, [sp, #36]	; 0x24
    c0c8:	e1a020a1 	lsr	r2, r1, #1
    c0cc:	e1a030a3 	lsr	r3, r3, #1
    c0d0:	e58d102c 	str	r1, [sp, #44]	; 0x2c
    c0d4:	e58d303c 	str	r3, [sp, #60]	; 0x3c
    c0d8:	e26310a1 	rsb	r1, r3, #161	; 0xa1
    c0dc:	e263509f 	rsb	r5, r3, #159	; 0x9f
    c0e0:	e2623077 	rsb	r3, r2, #119	; 0x77
    c0e4:	e58d201c 	str	r2, [sp, #28]
    c0e8:	e58d1028 	str	r1, [sp, #40]	; 0x28
    c0ec:	e58d3030 	str	r3, [sp, #48]	; 0x30
    c0f0:	e59db024 	ldr	fp, [sp, #36]	; 0x24
    c0f4:	e59d602c 	ldr	r6, [sp, #44]	; 0x2c
    c0f8:	e59d7030 	ldr	r7, [sp, #48]	; 0x30
    c0fc:	e59f8280 	ldr	r8, [pc, #640]	; c384 <message+0x408>
    c100:	e1a0300b 	mov	r3, fp
    c104:	e1a02007 	mov	r2, r7
    c108:	e59d1028 	ldr	r1, [sp, #40]	; 0x28
    c10c:	e3a00003 	mov	r0, #3
    c110:	e58d6000 	str	r6, [sp]
    c114:	ebfffc7b 	bl	b308 <SaveScreen>
    c118:	e1a0200b 	mov	r2, fp
    c11c:	e1a03006 	mov	r3, r6
    c120:	e1a01007 	mov	r1, r7
    c124:	e1a00005 	mov	r0, r5
    c128:	e58d8000 	str	r8, [sp]
    c12c:	ebfffcc6 	bl	b44c <FillRect>
    c130:	e3a01002 	mov	r1, #2
    c134:	e3a02000 	mov	r2, #0
    c138:	e28d0041 	add	r0, sp, #65	; 0x41
    c13c:	e59dc020 	ldr	ip, [sp, #32]
    c140:	e59f3240 	ldr	r3, [pc, #576]	; c388 <message+0x40c>
    c144:	e58d0034 	str	r0, [sp, #52]	; 0x34
    c148:	e79c3003 	ldr	r3, [ip, r3]
    c14c:	e59d001c 	ldr	r0, [sp, #28]
    c150:	e88308a0 	stm	r3, {r5, r7, fp}
    c154:	e260a079 	rsb	sl, r0, #121	; 0x79
    c158:	e583600c 	str	r6, [r3, #12]
    c15c:	e5831010 	str	r1, [r3, #16]
    c160:	e5832014 	str	r2, [r3, #20]
    c164:	ebfffd16 	bl	b5c4 <DrawRoundRect>
    c168:	e59d001c 	ldr	r0, [sp, #28]
    c16c:	e0844104 	add	r4, r4, r4, lsl #2
    c170:	e0604084 	rsb	r4, r0, r4, lsl #1
    c174:	e2843079 	add	r3, r4, #121	; 0x79
    c178:	e58d9038 	str	r9, [sp, #56]	; 0x38
    c17c:	e59d9034 	ldr	r9, [sp, #52]	; 0x34
    c180:	e58d3010 	str	r3, [sp, #16]
    c184:	e28db049 	add	fp, sp, #73	; 0x49
    c188:	e4d95001 	ldrb	r5, [r9], #1
    c18c:	e1a0100a 	mov	r1, sl
    c190:	e1a00105 	lsl	r0, r5, #2
    c194:	e260009f 	rsb	r0, r0, #159	; 0x9f
    c198:	ebfffc4e 	bl	b2d8 <locatexy>
    c19c:	e4db6001 	ldrb	r6, [fp], #1
    c1a0:	e59d300c 	ldr	r3, [sp, #12]
    c1a4:	e0855006 	add	r5, r5, r6
    c1a8:	e2455001 	sub	r5, r5, #1
    c1ac:	e1560005 	cmp	r6, r5
    c1b0:	e0837006 	add	r7, r3, r6
    c1b4:	8a000009 	bhi	c1e0 <message+0x264>
    c1b8:	e1a04007 	mov	r4, r7
    c1bc:	e4d41001 	ldrb	r1, [r4], #1
    c1c0:	e1a03008 	mov	r3, r8
    c1c4:	e3a02000 	mov	r2, #0
    c1c8:	e3a00008 	mov	r0, #8
    c1cc:	ebfffc12 	bl	b21c <writecxy>
    c1d0:	e0843006 	add	r3, r4, r6
    c1d4:	e0433007 	sub	r3, r3, r7
    c1d8:	e1550003 	cmp	r5, r3
    c1dc:	2afffff6 	bcs	c1bc <message+0x240>
    c1e0:	e59d3010 	ldr	r3, [sp, #16]
    c1e4:	e28aa00a 	add	sl, sl, #10
    c1e8:	e153000a 	cmp	r3, sl
    c1ec:	1affffe5 	bne	c188 <message+0x20c>
    c1f0:	e59f3194 	ldr	r3, [pc, #404]	; c38c <message+0x410>
    c1f4:	e59d1020 	ldr	r1, [sp, #32]
    c1f8:	e59d2014 	ldr	r2, [sp, #20]
    c1fc:	e7915003 	ldr	r5, [r1, r3]
    c200:	e3520000 	cmp	r2, #0
    c204:	e59d9038 	ldr	r9, [sp, #56]	; 0x38
    c208:	e5c52000 	strb	r2, [r5]
    c20c:	0a00000c 	beq	c244 <message+0x2c8>
    c210:	e59d301c 	ldr	r3, [sp, #28]
    c214:	e283406b 	add	r4, r3, #107	; 0x6b
    c218:	e59d303c 	ldr	r3, [sp, #60]	; 0x3c
    c21c:	e26360a1 	rsb	r6, r3, #161	; 0xa1
    c220:	e6ef3074 	uxtb	r3, r4
    c224:	e58d3014 	str	r3, [sp, #20]
    c228:	e1a00006 	mov	r0, r6
    c22c:	e1a01004 	mov	r1, r4
    c230:	ebfffeb8 	bl	bd18 <drawButtons>
    c234:	e5d53000 	ldrb	r3, [r5]
    c238:	e286602c 	add	r6, r6, #44	; 0x2c
    c23c:	e3530000 	cmp	r3, #0
    c240:	1afffff8 	bne	c228 <message+0x2ac>
    c244:	e3590000 	cmp	r9, #0
    c248:	1a000032 	bne	c318 <message+0x39c>
    c24c:	e59f313c 	ldr	r3, [pc, #316]	; c390 <message+0x414>
    c250:	e59d1020 	ldr	r1, [sp, #32]
    c254:	e59f2138 	ldr	r2, [pc, #312]	; c394 <message+0x418>
    c258:	e7914003 	ldr	r4, [r1, r3]
    c25c:	e59d3014 	ldr	r3, [sp, #20]
    c260:	e7915002 	ldr	r5, [r1, r2]
    c264:	e283600a 	add	r6, r3, #10
    c268:	e3a00001 	mov	r0, #1
    c26c:	ebfffe77 	bl	bc50 <VerifyTouchLcd>
    c270:	e59d1018 	ldr	r1, [sp, #24]
    c274:	e3a03001 	mov	r3, #1
    c278:	e5950000 	ldr	r0, [r5]
    c27c:	e594e000 	ldr	lr, [r4]
    c280:	ea000002 	b	c290 <message+0x314>
    c284:	e2833001 	add	r3, r3, #1
    c288:	e3530008 	cmp	r3, #8
    c28c:	0afffff5 	beq	c268 <message+0x2ec>
    c290:	e5f12001 	ldrb	r2, [r1, #1]!
    c294:	e3520000 	cmp	r2, #0
    c298:	0afffff9 	beq	c284 <message+0x308>
    c29c:	e1520000 	cmp	r2, r0
    c2a0:	e282c020 	add	ip, r2, #32
    c2a4:	8afffff6 	bhi	c284 <message+0x308>
    c2a8:	e150000c 	cmp	r0, ip
    c2ac:	8afffff4 	bhi	c284 <message+0x308>
    c2b0:	e59d2014 	ldr	r2, [sp, #20]
    c2b4:	e15e0002 	cmp	lr, r2
    c2b8:	3afffff1 	bcc	c284 <message+0x308>
    c2bc:	e15e0006 	cmp	lr, r6
    c2c0:	8affffef 	bhi	c284 <message+0x308>
    c2c4:	e2533001 	subs	r3, r3, #1
    c2c8:	0a000029 	beq	c374 <message+0x3f8>
    c2cc:	e3a02001 	mov	r2, #1
    c2d0:	e1a00002 	mov	r0, r2
    c2d4:	e2822001 	add	r2, r2, #1
    c2d8:	e1530002 	cmp	r3, r2
    c2dc:	e1a00080 	lsl	r0, r0, #1
    c2e0:	2afffffb 	bcs	c2d4 <message+0x358>
    c2e4:	e3500000 	cmp	r0, #0
    c2e8:	0affffde 	beq	c268 <message+0x2ec>
    c2ec:	e6ef4070 	uxtb	r4, r0
    c2f0:	e59d302c 	ldr	r3, [sp, #44]	; 0x2c
    c2f4:	e59d2030 	ldr	r2, [sp, #48]	; 0x30
    c2f8:	e58d3000 	str	r3, [sp]
    c2fc:	e59d1028 	ldr	r1, [sp, #40]	; 0x28
    c300:	e59d3024 	ldr	r3, [sp, #36]	; 0x24
    c304:	e3a00003 	mov	r0, #3
    c308:	ebfffc1a 	bl	b378 <RestoreScreen>
    c30c:	e1a00004 	mov	r0, r4
    c310:	e28dd054 	add	sp, sp, #84	; 0x54
    c314:	e8bd8ff0 	pop	{r4, r5, r6, r7, r8, r9, sl, fp, pc}
    c318:	e3a0400b 	mov	r4, #11
    c31c:	e3a03000 	mov	r3, #0
    c320:	e2833001 	add	r3, r3, #1
    c324:	e6ef3073 	uxtb	r3, r3
    c328:	e1530009 	cmp	r3, r9
    c32c:	9afffffb 	bls	c320 <message+0x3a4>
    c330:	e2444001 	sub	r4, r4, #1
    c334:	e21440ff 	ands	r4, r4, #255	; 0xff
    c338:	1afffff7 	bne	c31c <message+0x3a0>
    c33c:	eaffffeb 	b	c2f0 <message+0x374>
    c340:	e3a03068 	mov	r3, #104	; 0x68
    c344:	e58d3030 	str	r3, [sp, #48]	; 0x30
    c348:	e3a0300f 	mov	r3, #15
    c34c:	e3a04001 	mov	r4, #1
    c350:	e58d301c 	str	r3, [sp, #28]
    c354:	e3a06002 	mov	r6, #2
    c358:	e3a0301e 	mov	r3, #30
    c35c:	e3a070a0 	mov	r7, #160	; 0xa0
    c360:	e58d403c 	str	r4, [sp, #60]	; 0x3c
    c364:	e58d302c 	str	r3, [sp, #44]	; 0x2c
    c368:	e3a0509e 	mov	r5, #158	; 0x9e
    c36c:	e1cd62f4 	strd	r6, [sp, #36]	; 0x24
    c370:	eaffff5e 	b	c0f0 <message+0x174>
    c374:	e3a04001 	mov	r4, #1
    c378:	eaffffdc 	b	c2f0 <message+0x374>
    c37c:	00012ee8 	andeq	r2, r1, r8, ror #29
    c380:	00000224 	andeq	r0, r0, r4, lsr #4
    c384:	0000ffff 	strdeq	pc, [r0], -pc	; <UNPREDICTABLE>
    c388:	000000a4 	andeq	r0, r0, r4, lsr #1
    c38c:	000000bc 	strheq	r0, [r0], -ip
    c390:	00000084 	andeq	r0, r0, r4, lsl #1
    c394:	00000218 	andeq	r0, r0, r8, lsl r2

0000c398 <showWindow>:
    c398:	e92d4ff0 	push	{r4, r5, r6, r7, r8, r9, sl, fp, lr}
    c39c:	e59f613c 	ldr	r6, [pc, #316]	; c4e0 <showWindow+0x148>
    c3a0:	e59f213c 	ldr	r2, [pc, #316]	; c4e4 <showWindow+0x14c>
    c3a4:	e59f313c 	ldr	r3, [pc, #316]	; c4e8 <showWindow+0x150>
    c3a8:	e08f6006 	add	r6, pc, r6
    c3ac:	e796c002 	ldr	ip, [r6, r2]
    c3b0:	e796b003 	ldr	fp, [r6, r3]
    c3b4:	e59c8008 	ldr	r8, [ip, #8]
    c3b8:	e59c700c 	ldr	r7, [ip, #12]
    c3bc:	e59be000 	ldr	lr, [fp]
    c3c0:	e24dd014 	sub	sp, sp, #20
    c3c4:	e1cc40d0 	ldrd	r4, [ip]
    c3c8:	e1a02008 	mov	r2, r8
    c3cc:	e58de000 	str	lr, [sp]
    c3d0:	e1a00004 	mov	r0, r4
    c3d4:	e1a01005 	mov	r1, r5
    c3d8:	e1a03007 	mov	r3, r7
    c3dc:	e5dc9010 	ldrb	r9, [ip, #16]
    c3e0:	ebfffc19 	bl	b44c <FillRect>
    c3e4:	e59f2100 	ldr	r2, [pc, #256]	; c4ec <showWindow+0x154>
    c3e8:	e1a03007 	mov	r3, r7
    c3ec:	e796a002 	ldr	sl, [r6, r2]
    c3f0:	e1a01005 	mov	r1, r5
    c3f4:	e59ac000 	ldr	ip, [sl]
    c3f8:	e1a02008 	mov	r2, r8
    c3fc:	e1a00004 	mov	r0, r4
    c400:	e58dc000 	str	ip, [sp]
    c404:	ebfffc4e 	bl	b544 <DrawRect>
    c408:	e59f30e0 	ldr	r3, [pc, #224]	; c4f0 <showWindow+0x158>
    c40c:	e7963003 	ldr	r3, [r6, r3]
    c410:	e58d300c 	str	r3, [sp, #12]
    c414:	e5d33000 	ldrb	r3, [r3]
    c418:	e3530000 	cmp	r3, #0
    c41c:	1a00001e 	bne	c49c <showWindow+0x104>
    c420:	e3a02000 	mov	r2, #0
    c424:	e59f30c8 	ldr	r3, [pc, #200]	; c4f4 <showWindow+0x15c>
    c428:	e59f10c8 	ldr	r1, [pc, #200]	; c4f8 <showWindow+0x160>
    c42c:	e7963003 	ldr	r3, [r6, r3]
    c430:	e1590002 	cmp	r9, r2
    c434:	e5c32000 	strb	r2, [r3]
    c438:	e5c32001 	strb	r2, [r3, #1]
    c43c:	e5c32002 	strb	r2, [r3, #2]
    c440:	e5c32003 	strb	r2, [r3, #3]
    c444:	e5c32004 	strb	r2, [r3, #4]
    c448:	e5c32005 	strb	r2, [r3, #5]
    c44c:	e5c32006 	strb	r2, [r3, #6]
    c450:	e5c32007 	strb	r2, [r3, #7]
    c454:	e7968001 	ldr	r8, [r6, r1]
    c458:	e5c89000 	strb	r9, [r8]
    c45c:	0a00000c 	beq	c494 <showWindow+0xfc>
    c460:	e59f3094 	ldr	r3, [pc, #148]	; c4fc <showWindow+0x164>
    c464:	e0855007 	add	r5, r5, r7
    c468:	e7966003 	ldr	r6, [r6, r3]
    c46c:	e245500c 	sub	r5, r5, #12
    c470:	e2844002 	add	r4, r4, #2
    c474:	e1a00004 	mov	r0, r4
    c478:	e1a01005 	mov	r1, r5
    c47c:	e5865000 	str	r5, [r6]
    c480:	ebfffe24 	bl	bd18 <drawButtons>
    c484:	e5d83000 	ldrb	r3, [r8]
    c488:	e284402c 	add	r4, r4, #44	; 0x2c
    c48c:	e3530000 	cmp	r3, #0
    c490:	1afffff7 	bne	c474 <showWindow+0xdc>
    c494:	e28dd014 	add	sp, sp, #20
    c498:	e8bd8ff0 	pop	{r4, r5, r6, r7, r8, r9, sl, fp, pc}
    c49c:	e59a3000 	ldr	r3, [sl]
    c4a0:	e1a02008 	mov	r2, r8
    c4a4:	e58d3000 	str	r3, [sp]
    c4a8:	e1a01005 	mov	r1, r5
    c4ac:	e1a00004 	mov	r0, r4
    c4b0:	e3a0300c 	mov	r3, #12
    c4b4:	ebfffc22 	bl	b544 <DrawRect>
    c4b8:	e59b2000 	ldr	r2, [fp]
    c4bc:	e59a3000 	ldr	r3, [sl]
    c4c0:	e2851003 	add	r1, r5, #3
    c4c4:	e58d2004 	str	r2, [sp, #4]
    c4c8:	e58d3000 	str	r3, [sp]
    c4cc:	e3a02008 	mov	r2, #8
    c4d0:	e59d300c 	ldr	r3, [sp, #12]
    c4d4:	e2840002 	add	r0, r4, #2
    c4d8:	ebfffb1a 	bl	b148 <writesxy>
    c4dc:	eaffffcf 	b	c420 <showWindow+0x88>
    c4e0:	00012ad0 	ldrdeq	r2, [r1], -r0
    c4e4:	000000a4 	andeq	r0, r0, r4, lsr #1
    c4e8:	00000080 	andeq	r0, r0, r0, lsl #1
    c4ec:	00000000 	andeq	r0, r0, r0
    c4f0:	000001fc 	strdeq	r0, [r0], -ip
    c4f4:	00000224 	andeq	r0, r0, r4, lsr #4
    c4f8:	000000bc 	strheq	r0, [r0], -ip
    c4fc:	0000000c 	andeq	r0, r0, ip

0000c500 <verifyMGI>:
    c500:	e92d41f0 	push	{r4, r5, r6, r7, r8, lr}
    c504:	e59f40dc 	ldr	r4, [pc, #220]	; c5e8 <verifyMGI+0xe8>
    c508:	e59f30dc 	ldr	r3, [pc, #220]	; c5ec <verifyMGI+0xec>
    c50c:	e08f4004 	add	r4, pc, r4
    c510:	e7943003 	ldr	r3, [r4, r3]
    c514:	e5933000 	ldr	r3, [r3]
    c518:	e3530002 	cmp	r3, #2
    c51c:	18bd81f0 	popne	{r4, r5, r6, r7, r8, pc}
    c520:	e59f30c8 	ldr	r3, [pc, #200]	; c5f0 <verifyMGI+0xf0>
    c524:	e7942003 	ldr	r2, [r4, r3]
    c528:	e5923000 	ldr	r3, [r2]
    c52c:	e3530000 	cmp	r3, #0
    c530:	18bd81f0 	popne	{r4, r5, r6, r7, r8, pc}
    c534:	e3a07022 	mov	r7, #34	; 0x22
    c538:	e3a0600e 	mov	r6, #14
    c53c:	e3a00016 	mov	r0, #22
    c540:	e3a01024 	mov	r1, #36	; 0x24
    c544:	e59fc0a8 	ldr	ip, [pc, #168]	; c5f4 <verifyMGI+0xf4>
    c548:	e794e00c 	ldr	lr, [r4, ip]
    c54c:	e59ec000 	ldr	ip, [lr]
    c550:	e582c000 	str	ip, [r2]
    c554:	e59fc09c 	ldr	ip, [pc, #156]	; c5f8 <verifyMGI+0xf8>
    c558:	e59f209c 	ldr	r2, [pc, #156]	; c5fc <verifyMGI+0xfc>
    c55c:	e794c00c 	ldr	ip, [r4, ip]
    c560:	e7945002 	ldr	r5, [r4, r2]
    c564:	e58e7000 	str	r7, [lr]
    c568:	e59ce000 	ldr	lr, [ip]
    c56c:	e59f208c 	ldr	r2, [pc, #140]	; c600 <verifyMGI+0x100>
    c570:	e58c6000 	str	r6, [ip]
    c574:	e585e000 	str	lr, [r5]
    c578:	e794c002 	ldr	ip, [r4, r2]
    c57c:	e59f2080 	ldr	r2, [pc, #128]	; c604 <verifyMGI+0x104>
    c580:	e58c3000 	str	r3, [ip]
    c584:	e794c002 	ldr	ip, [r4, r2]
    c588:	e59f2078 	ldr	r2, [pc, #120]	; c608 <verifyMGI+0x108>
    c58c:	e58c3000 	str	r3, [ip]
    c590:	e7942002 	ldr	r2, [r4, r2]
    c594:	e59f3070 	ldr	r3, [pc, #112]	; c60c <verifyMGI+0x10c>
    c598:	e5820000 	str	r0, [r2]
    c59c:	e7942003 	ldr	r2, [r4, r3]
    c5a0:	e59f3068 	ldr	r3, [pc, #104]	; c610 <verifyMGI+0x110>
    c5a4:	e5821000 	str	r1, [r2]
    c5a8:	e59f1064 	ldr	r1, [pc, #100]	; c614 <verifyMGI+0x114>
    c5ac:	e7940003 	ldr	r0, [r4, r3]
    c5b0:	e08f1001 	add	r1, pc, r1
    c5b4:	eb0011c7 	bl	10cd8 <strcpy>
    c5b8:	e3a02014 	mov	r2, #20
    c5bc:	e3a0cf46 	mov	ip, #280	; 0x118
    c5c0:	e3a000b4 	mov	r0, #180	; 0xb4
    c5c4:	e3a01040 	mov	r1, #64	; 0x40
    c5c8:	e59f3048 	ldr	r3, [pc, #72]	; c618 <verifyMGI+0x118>
    c5cc:	e7943003 	ldr	r3, [r4, r3]
    c5d0:	e8bd41f0 	pop	{r4, r5, r6, r7, r8, lr}
    c5d4:	e583c008 	str	ip, [r3, #8]
    c5d8:	e1c300fc 	strd	r0, [r3, #12]
    c5dc:	e5832000 	str	r2, [r3]
    c5e0:	e5832004 	str	r2, [r3, #4]
    c5e4:	eaffff6b 	b	c398 <showWindow>
    c5e8:	0001296c 	andeq	r2, r1, ip, ror #18
    c5ec:	00000194 	muleq	r0, r4, r1
    c5f0:	00000200 	andeq	r0, r0, r0, lsl #4
    c5f4:	00000050 	andeq	r0, r0, r0, asr r0
    c5f8:	000000e4 	andeq	r0, r0, r4, ror #1
    c5fc:	00000244 	andeq	r0, r0, r4, asr #4
    c600:	0000004c 	andeq	r0, r0, ip, asr #32
    c604:	0000020c 	andeq	r0, r0, ip, lsl #4
    c608:	00000020 	andeq	r0, r0, r0, lsr #32
    c60c:	000000f8 	strdeq	r0, [r0], -r8
    c610:	000001fc 	strdeq	r0, [r0], -ip
    c614:	0000f1dc 	ldrdeq	pc, [r0], -ip
    c618:	000000a4 	andeq	r0, r0, r4, lsr #1

0000c61c <writec>:
    c61c:	e92d47f0 	push	{r4, r5, r6, r7, r8, r9, sl, lr}
    c620:	e59f51ec 	ldr	r5, [pc, #492]	; c814 <writec+0x1f8>
    c624:	e1a08003 	mov	r8, r3
    c628:	e1a04000 	mov	r4, r0
    c62c:	e1a07001 	mov	r7, r1
    c630:	e1a06002 	mov	r6, r2
    c634:	ebffffb1 	bl	c500 <verifyMGI>
    c638:	e59f31d8 	ldr	r3, [pc, #472]	; c818 <writec+0x1fc>
    c63c:	e08f5005 	add	r5, pc, r5
    c640:	e7953003 	ldr	r3, [r5, r3]
    c644:	e5933000 	ldr	r3, [r3]
    c648:	e3530002 	cmp	r3, #2
    c64c:	1a000005 	bne	c668 <writec+0x4c>
    c650:	e59f21c4 	ldr	r2, [pc, #452]	; c81c <writec+0x200>
    c654:	e59f31c4 	ldr	r3, [pc, #452]	; c820 <writec+0x204>
    c658:	e7952002 	ldr	r2, [r5, r2]
    c65c:	e7953003 	ldr	r3, [r5, r3]
    c660:	e5927000 	ldr	r7, [r2]
    c664:	e5936000 	ldr	r6, [r3]
    c668:	e354000a 	cmp	r4, #10
    c66c:	1354000d 	cmpne	r4, #13
    c670:	13a03001 	movne	r3, #1
    c674:	03a03000 	moveq	r3, #0
    c678:	1a000006 	bne	c698 <writec+0x7c>
    c67c:	e354000d 	cmp	r4, #13
    c680:	0a00004c 	beq	c7b8 <writec+0x19c>
    c684:	e354000a 	cmp	r4, #10
    c688:	0a00003b 	beq	c77c <writec+0x160>
    c68c:	e1a00004 	mov	r0, r4
    c690:	e8bd47f0 	pop	{r4, r5, r6, r7, r8, r9, sl, lr}
    c694:	ea003602 	b	19ea4 <putc>
    c698:	e3a0e00b 	mov	lr, #11
    c69c:	e3e0002d 	mvn	r0, #45	; 0x2d
    c6a0:	e3a0c008 	mov	ip, #8
    c6a4:	e59f3178 	ldr	r3, [pc, #376]	; c824 <writec+0x208>
    c6a8:	e59f1178 	ldr	r1, [pc, #376]	; c828 <writec+0x20c>
    c6ac:	e7953003 	ldr	r3, [r5, r3]
    c6b0:	e59f2174 	ldr	r2, [pc, #372]	; c82c <writec+0x210>
    c6b4:	e5c30001 	strb	r0, [r3, #1]
    c6b8:	e5c3e000 	strb	lr, [r3]
    c6bc:	e795a001 	ldr	sl, [r5, r1]
    c6c0:	e7952002 	ldr	r2, [r5, r2]
    c6c4:	e59a0000 	ldr	r0, [sl]
    c6c8:	e5922000 	ldr	r2, [r2]
    c6cc:	e59f115c 	ldr	r1, [pc, #348]	; c830 <writec+0x214>
    c6d0:	e0822180 	add	r2, r2, r0, lsl #3
    c6d4:	e1a00c32 	lsr	r0, r2, ip
    c6d8:	e5c32003 	strb	r2, [r3, #3]
    c6dc:	e5c30002 	strb	r0, [r3, #2]
    c6e0:	e59f214c 	ldr	r2, [pc, #332]	; c834 <writec+0x218>
    c6e4:	e7959001 	ldr	r9, [r5, r1]
    c6e8:	e7952002 	ldr	r2, [r5, r2]
    c6ec:	e5991000 	ldr	r1, [r9]
    c6f0:	e5922000 	ldr	r2, [r2]
    c6f4:	e0811101 	add	r1, r1, r1, lsl #2
    c6f8:	e0822081 	add	r2, r2, r1, lsl #1
    c6fc:	e1a00c32 	lsr	r0, r2, ip
    c700:	e5c32005 	strb	r2, [r3, #5]
    c704:	e1a01c37 	lsr	r1, r7, ip
    c708:	e5c30004 	strb	r0, [r3, #4]
    c70c:	e1a02c36 	lsr	r2, r6, ip
    c710:	e1a00003 	mov	r0, r3
    c714:	e5c37008 	strb	r7, [r3, #8]
    c718:	e5c3600a 	strb	r6, [r3, #10]
    c71c:	e5c3400b 	strb	r4, [r3, #11]
    c720:	e5c31007 	strb	r1, [r3, #7]
    c724:	e5c32009 	strb	r2, [r3, #9]
    c728:	e5c3c006 	strb	ip, [r3, #6]
    c72c:	eb002075 	bl	14908 <commVDG>
    c730:	e3580003 	cmp	r8, #3
    c734:	1affffd4 	bne	c68c <writec+0x70>
    c738:	e59a0000 	ldr	r0, [sl]
    c73c:	e59f30f4 	ldr	r3, [pc, #244]	; c838 <writec+0x21c>
    c740:	e2800001 	add	r0, r0, #1
    c744:	e58a0000 	str	r0, [sl]
    c748:	e7953003 	ldr	r3, [r5, r3]
    c74c:	e5991000 	ldr	r1, [r9]
    c750:	e5933000 	ldr	r3, [r3]
    c754:	e2432001 	sub	r2, r3, #1
    c758:	e1520001 	cmp	r2, r1
    c75c:	0a000021 	beq	c7e8 <writec+0x1cc>
    c760:	e6ef0070 	uxtb	r0, r0
    c764:	e6ef1071 	uxtb	r1, r1
    c768:	e3a02002 	mov	r2, #2
    c76c:	eb000041 	bl	c878 <locate>
    c770:	e1a00004 	mov	r0, r4
    c774:	e8bd47f0 	pop	{r4, r5, r6, r7, r8, r9, sl, lr}
    c778:	ea0035c9 	b	19ea4 <putc>
    c77c:	e59f10ac 	ldr	r1, [pc, #172]	; c830 <writec+0x214>
    c780:	e59f20a0 	ldr	r2, [pc, #160]	; c828 <writec+0x20c>
    c784:	e7950001 	ldr	r0, [r5, r1]
    c788:	e5901000 	ldr	r1, [r0]
    c78c:	e2811001 	add	r1, r1, #1
    c790:	e5801000 	str	r1, [r0]
    c794:	e795c002 	ldr	ip, [r5, r2]
    c798:	e1a00003 	mov	r0, r3
    c79c:	e6ef1071 	uxtb	r1, r1
    c7a0:	e3a02002 	mov	r2, #2
    c7a4:	e58c3000 	str	r3, [ip]
    c7a8:	eb000032 	bl	c878 <locate>
    c7ac:	e1a00004 	mov	r0, r4
    c7b0:	e8bd47f0 	pop	{r4, r5, r6, r7, r8, r9, sl, lr}
    c7b4:	ea0035ba 	b	19ea4 <putc>
    c7b8:	e59f1068 	ldr	r1, [pc, #104]	; c828 <writec+0x20c>
    c7bc:	e59f206c 	ldr	r2, [pc, #108]	; c830 <writec+0x214>
    c7c0:	e7951001 	ldr	r1, [r5, r1]
    c7c4:	e1a00003 	mov	r0, r3
    c7c8:	e5813000 	str	r3, [r1]
    c7cc:	e7953002 	ldr	r3, [r5, r2]
    c7d0:	e3a02002 	mov	r2, #2
    c7d4:	e5d31000 	ldrb	r1, [r3]
    c7d8:	eb000026 	bl	c878 <locate>
    c7dc:	e1a00004 	mov	r0, r4
    c7e0:	e8bd47f0 	pop	{r4, r5, r6, r7, r8, r9, sl, lr}
    c7e4:	ea0035ae 	b	19ea4 <putc>
    c7e8:	e59f204c 	ldr	r2, [pc, #76]	; c83c <writec+0x220>
    c7ec:	e7952002 	ldr	r2, [r5, r2]
    c7f0:	e5922000 	ldr	r2, [r2]
    c7f4:	e1500002 	cmp	r0, r2
    c7f8:	1affffd8 	bne	c760 <writec+0x144>
    c7fc:	e3a02000 	mov	r2, #0
    c800:	e1a01003 	mov	r1, r3
    c804:	e1a00002 	mov	r0, r2
    c808:	e5893000 	str	r3, [r9]
    c80c:	e58a2000 	str	r2, [sl]
    c810:	eaffffd3 	b	c764 <writec+0x148>
    c814:	0001283c 	andeq	r2, r1, ip, lsr r8
    c818:	00000194 	muleq	r0, r4, r1
    c81c:	00000000 	andeq	r0, r0, r0
    c820:	00000080 	andeq	r0, r0, r0, lsl #1
    c824:	00000164 	andeq	r0, r0, r4, ror #2
    c828:	0000004c 	andeq	r0, r0, ip, asr #32
    c82c:	00000020 	andeq	r0, r0, r0, lsr #32
    c830:	0000020c 	andeq	r0, r0, ip, lsl #4
    c834:	000000f8 	strdeq	r0, [r0], -r8
    c838:	000000e4 	andeq	r0, r0, r4, ror #1
    c83c:	00000050 	andeq	r0, r0, r0, asr r0

0000c840 <writechar>:
    c840:	e59fc024 	ldr	ip, [pc, #36]	; c86c <writechar+0x2c>
    c844:	e59f2024 	ldr	r2, [pc, #36]	; c870 <writechar+0x30>
    c848:	e59f3024 	ldr	r3, [pc, #36]	; c874 <writechar+0x34>
    c84c:	e08fc00c 	add	ip, pc, ip
    c850:	e79c3003 	ldr	r3, [ip, r3]
    c854:	e79c2002 	ldr	r2, [ip, r2]
    c858:	e5931000 	ldr	r1, [r3]
    c85c:	e6ef0070 	uxtb	r0, r0
    c860:	e5922000 	ldr	r2, [r2]
    c864:	e3a03003 	mov	r3, #3
    c868:	eaffff6b 	b	c61c <writec>
    c86c:	0001262c 	andeq	r2, r1, ip, lsr #12
    c870:	00000040 	andeq	r0, r0, r0, asr #32
    c874:	00000118 	andeq	r0, r0, r8, lsl r1

0000c878 <locate>:
    c878:	e92d4070 	push	{r4, r5, r6, lr}
    c87c:	e59f4134 	ldr	r4, [pc, #308]	; c9b8 <locate+0x140>
    c880:	e59f3134 	ldr	r3, [pc, #308]	; c9bc <locate+0x144>
    c884:	e08f4004 	add	r4, pc, r4
    c888:	e7943003 	ldr	r3, [r4, r3]
    c88c:	e24dd008 	sub	sp, sp, #8
    c890:	e5933000 	ldr	r3, [r3]
    c894:	e1500003 	cmp	r0, r3
    c898:	e59f3120 	ldr	r3, [pc, #288]	; c9c0 <locate+0x148>
    c89c:	82811001 	addhi	r1, r1, #1
    c8a0:	e7943003 	ldr	r3, [r4, r3]
    c8a4:	86ef1071 	uxtbhi	r1, r1
    c8a8:	e5936000 	ldr	r6, [r3]
    c8ac:	83a05001 	movhi	r5, #1
    c8b0:	83a00000 	movhi	r0, #0
    c8b4:	93a05000 	movls	r5, #0
    c8b8:	e1510006 	cmp	r1, r6
    c8bc:	9a000007 	bls	c8e0 <locate+0x68>
    c8c0:	e59f30fc 	ldr	r3, [pc, #252]	; c9c4 <locate+0x14c>
    c8c4:	e7943003 	ldr	r3, [r4, r3]
    c8c8:	e5935000 	ldr	r5, [r3]
    c8cc:	e3550001 	cmp	r5, #1
    c8d0:	13a01000 	movne	r1, #0
    c8d4:	13a05001 	movne	r5, #1
    c8d8:	11a00001 	movne	r0, r1
    c8dc:	0a000015 	beq	c938 <locate+0xc0>
    c8e0:	e59fc0e0 	ldr	ip, [pc, #224]	; c9c8 <locate+0x150>
    c8e4:	e59f30e0 	ldr	r3, [pc, #224]	; c9cc <locate+0x154>
    c8e8:	e794600c 	ldr	r6, [r4, ip]
    c8ec:	e3520001 	cmp	r2, #1
    c8f0:	e5860000 	str	r0, [r6]
    c8f4:	e7943003 	ldr	r3, [r4, r3]
    c8f8:	e5831000 	str	r1, [r3]
    c8fc:	0a000004 	beq	c914 <locate+0x9c>
    c900:	e3520002 	cmp	r2, #2
    c904:	13a02000 	movne	r2, #0
    c908:	02052001 	andeq	r2, r5, #1
    c90c:	e3520000 	cmp	r2, #0
    c910:	0a000006 	beq	c930 <locate+0xb8>
    c914:	e59f30a8 	ldr	r3, [pc, #168]	; c9c4 <locate+0x14c>
    c918:	e7943003 	ldr	r3, [r4, r3]
    c91c:	e5933000 	ldr	r3, [r3]
    c920:	e3530001 	cmp	r3, #1
    c924:	0a000018 	beq	c98c <locate+0x114>
    c928:	e2400001 	sub	r0, r0, #1
    c92c:	e5860000 	str	r0, [r6]
    c930:	e28dd008 	add	sp, sp, #8
    c934:	e8bd8070 	pop	{r4, r5, r6, pc}
    c938:	e3e01026 	mvn	r1, #38	; 0x26
    c93c:	e3a0c004 	mov	ip, #4
    c940:	e3a0000a 	mov	r0, #10
    c944:	e59f3084 	ldr	r3, [pc, #132]	; c9d0 <locate+0x158>
    c948:	e58d2004 	str	r2, [sp, #4]
    c94c:	e7943003 	ldr	r3, [r4, r3]
    c950:	e5c31001 	strb	r1, [r3, #1]
    c954:	e59f1078 	ldr	r1, [pc, #120]	; c9d4 <locate+0x15c>
    c958:	e5c30002 	strb	r0, [r3, #2]
    c95c:	e5c3c000 	strb	ip, [r3]
    c960:	e7941001 	ldr	r1, [r4, r1]
    c964:	e1a00003 	mov	r0, r3
    c968:	e5911000 	ldr	r1, [r1]
    c96c:	e5c31004 	strb	r1, [r3, #4]
    c970:	e1a01421 	lsr	r1, r1, #8
    c974:	e5c31003 	strb	r1, [r3, #3]
    c978:	eb001fe2 	bl	14908 <commVDG>
    c97c:	e6ef1076 	uxtb	r1, r6
    c980:	e3a00000 	mov	r0, #0
    c984:	e59d2004 	ldr	r2, [sp, #4]
    c988:	eaffffd4 	b	c8e0 <locate+0x68>
    c98c:	e59f2040 	ldr	r2, [pc, #64]	; c9d4 <locate+0x15c>
    c990:	e59f3040 	ldr	r3, [pc, #64]	; c9d8 <locate+0x160>
    c994:	e7942002 	ldr	r2, [r4, r2]
    c998:	e7943003 	ldr	r3, [r4, r3]
    c99c:	e3a00008 	mov	r0, #8
    c9a0:	e5931000 	ldr	r1, [r3]
    c9a4:	e5922000 	ldr	r2, [r2]
    c9a8:	e3a03003 	mov	r3, #3
    c9ac:	ebffff1a 	bl	c61c <writec>
    c9b0:	e5960000 	ldr	r0, [r6]
    c9b4:	eaffffdb 	b	c928 <locate+0xb0>
    c9b8:	000125f4 	strdeq	r2, [r1], -r4
    c9bc:	00000050 	andeq	r0, r0, r0, asr r0
    c9c0:	000000e4 	andeq	r0, r0, r4, ror #1
    c9c4:	00000194 	muleq	r0, r4, r1
    c9c8:	0000004c 	andeq	r0, r0, ip, asr #32
    c9cc:	0000020c 	andeq	r0, r0, ip, lsl #4
    c9d0:	00000164 	andeq	r0, r0, r4, ror #2
    c9d4:	00000040 	andeq	r0, r0, r0, asr #32
    c9d8:	00000118 	andeq	r0, r0, r8, lsl r1

0000c9dc <clearScr>:
    c9dc:	e92d4010 	push	{r4, lr}
    c9e0:	e1a01000 	mov	r1, r0
    c9e4:	e3a0e003 	mov	lr, #3
    c9e8:	e3e0c02f 	mvn	ip, #47	; 0x2f
    c9ec:	e59f2038 	ldr	r2, [pc, #56]	; ca2c <clearScr+0x50>
    c9f0:	e59f3038 	ldr	r3, [pc, #56]	; ca30 <clearScr+0x54>
    c9f4:	e08f2002 	add	r2, pc, r2
    c9f8:	e7923003 	ldr	r3, [r2, r3]
    c9fc:	e1a04420 	lsr	r4, r0, #8
    ca00:	e1a00003 	mov	r0, r3
    ca04:	e5c34002 	strb	r4, [r3, #2]
    ca08:	e5c31003 	strb	r1, [r3, #3]
    ca0c:	e5c3e000 	strb	lr, [r3]
    ca10:	e5c3c001 	strb	ip, [r3, #1]
    ca14:	eb001fbb 	bl	14908 <commVDG>
    ca18:	e8bd4010 	pop	{r4, lr}
    ca1c:	e3a01000 	mov	r1, #0
    ca20:	e3a02001 	mov	r2, #1
    ca24:	e1a00001 	mov	r0, r1
    ca28:	eaffff92 	b	c878 <locate>
    ca2c:	00012484 	andeq	r2, r1, r4, lsl #9
    ca30:	00000164 	andeq	r0, r0, r4, ror #2

0000ca34 <redrawMain>:
    ca34:	e92d4010 	push	{r4, lr}
    ca38:	e3a0001f 	mov	r0, #31
    ca3c:	ebffffe6 	bl	c9dc <clearScr>
    ca40:	ebfffc22 	bl	bad0 <desenhaMenu>
    ca44:	e8bd4010 	pop	{r4, lr}
    ca48:	eafffc41 	b	bb54 <desenhaIconesUsuario>

0000ca4c <putPrompt>:
    ca4c:	e3a02000 	mov	r2, #0
    ca50:	e92d4010 	push	{r4, lr}
    ca54:	e59f4080 	ldr	r4, [pc, #128]	; cadc <putPrompt+0x90>
    ca58:	e59f3080 	ldr	r3, [pc, #128]	; cae0 <putPrompt+0x94>
    ca5c:	e08f4004 	add	r4, pc, r4
    ca60:	e7943003 	ldr	r3, [r4, r3]
    ca64:	e3500000 	cmp	r0, #0
    ca68:	e5931000 	ldr	r1, [r3]
    ca6c:	e1a00002 	mov	r0, r2
    ca70:	12811001 	addne	r1, r1, #1
    ca74:	15831000 	strne	r1, [r3]
    ca78:	e6ef1071 	uxtb	r1, r1
    ca7c:	ebffff7d 	bl	c878 <locate>
    ca80:	e59f305c 	ldr	r3, [pc, #92]	; cae4 <putPrompt+0x98>
    ca84:	e59f005c 	ldr	r0, [pc, #92]	; cae8 <putPrompt+0x9c>
    ca88:	e7943003 	ldr	r3, [r4, r3]
    ca8c:	e08f0000 	add	r0, pc, r0
    ca90:	e5931000 	ldr	r1, [r3]
    ca94:	eb000ec3 	bl	105a8 <printf>
    ca98:	e3a0e002 	mov	lr, #2
    ca9c:	e3e0c027 	mvn	ip, #39	; 0x27
    caa0:	e3a01001 	mov	r1, #1
    caa4:	e59f2040 	ldr	r2, [pc, #64]	; caec <putPrompt+0xa0>
    caa8:	e59f3040 	ldr	r3, [pc, #64]	; caf0 <putPrompt+0xa4>
    caac:	e7940002 	ldr	r0, [r4, r2]
    cab0:	e7942003 	ldr	r2, [r4, r3]
    cab4:	e5900000 	ldr	r0, [r0]
    cab8:	e59f3034 	ldr	r3, [pc, #52]	; caf4 <putPrompt+0xa8>
    cabc:	e5c20000 	strb	r0, [r2]
    cac0:	e7943003 	ldr	r3, [r4, r3]
    cac4:	e5c3e000 	strb	lr, [r3]
    cac8:	e5c3c001 	strb	ip, [r3, #1]
    cacc:	e5c31002 	strb	r1, [r3, #2]
    cad0:	e1a00003 	mov	r0, r3
    cad4:	e8bd4010 	pop	{r4, lr}
    cad8:	ea001f8a 	b	14908 <commVDG>
    cadc:	0001241c 	andeq	r2, r1, ip, lsl r4
    cae0:	0000020c 	andeq	r0, r0, ip, lsl #4
    cae4:	00000228 	andeq	r0, r0, r8, lsr #4
    cae8:	0000ed08 	andeq	lr, r0, r8, lsl #26
    caec:	0000004c 	andeq	r0, r0, ip, asr #32
    caf0:	000001f8 	strdeq	r0, [r0], -r8
    caf4:	00000164 	andeq	r0, r0, r4, ror #2

0000caf8 <writes>:
    caf8:	e92d4ff0 	push	{r4, r5, r6, r7, r8, r9, sl, fp, lr}
    cafc:	e59f62f4 	ldr	r6, [pc, #756]	; cdf8 <writes+0x300>
    cb00:	e24dd014 	sub	sp, sp, #20
    cb04:	e1a09000 	mov	r9, r0
    cb08:	e88d0006 	stm	sp, {r1, r2}
    cb0c:	ebfffe7b 	bl	c500 <verifyMGI>
    cb10:	e59f32e4 	ldr	r3, [pc, #740]	; cdfc <writes+0x304>
    cb14:	e08f6006 	add	r6, pc, r6
    cb18:	e7963003 	ldr	r3, [r6, r3]
    cb1c:	e5933000 	ldr	r3, [r3]
    cb20:	e3530002 	cmp	r3, #2
    cb24:	1a000007 	bne	cb48 <writes+0x50>
    cb28:	e59f22d0 	ldr	r2, [pc, #720]	; ce00 <writes+0x308>
    cb2c:	e59f32d0 	ldr	r3, [pc, #720]	; ce04 <writes+0x30c>
    cb30:	e7962002 	ldr	r2, [r6, r2]
    cb34:	e7963003 	ldr	r3, [r6, r3]
    cb38:	e5922000 	ldr	r2, [r2]
    cb3c:	e5933000 	ldr	r3, [r3]
    cb40:	e58d2000 	str	r2, [sp]
    cb44:	e58d3004 	str	r3, [sp, #4]
    cb48:	e1a07009 	mov	r7, r9
    cb4c:	e1a04009 	mov	r4, r9
    cb50:	e3a0100a 	mov	r1, #10
    cb54:	e3a0a000 	mov	sl, #0
    cb58:	e59d3000 	ldr	r3, [sp]
    cb5c:	e1a02423 	lsr	r2, r3, #8
    cb60:	e59d3004 	ldr	r3, [sp, #4]
    cb64:	e6ef2072 	uxtb	r2, r2
    cb68:	e1a03423 	lsr	r3, r3, #8
    cb6c:	e6ef3073 	uxtb	r3, r3
    cb70:	e58d2008 	str	r2, [sp, #8]
    cb74:	e58d300c 	str	r3, [sp, #12]
    cb78:	e4d73001 	ldrb	r3, [r7], #1
    cb7c:	e3530000 	cmp	r3, #0
    cb80:	0a000071 	beq	cd4c <writes+0x254>
    cb84:	e353001f 	cmp	r3, #31
    cb88:	93a08001 	movls	r8, #1
    cb8c:	83a08000 	movhi	r8, #0
    cb90:	82811001 	addhi	r1, r1, #1
    cb94:	86ef1071 	uxtbhi	r1, r1
    cb98:	e59f2268 	ldr	r2, [pc, #616]	; ce08 <writes+0x310>
    cb9c:	e59f3268 	ldr	r3, [pc, #616]	; ce0c <writes+0x314>
    cba0:	e7965002 	ldr	r5, [r6, r2]
    cba4:	e796b003 	ldr	fp, [r6, r3]
    cba8:	e5952000 	ldr	r2, [r5]
    cbac:	e59b0000 	ldr	r0, [fp]
    cbb0:	e242300a 	sub	r3, r2, #10
    cbb4:	e0833001 	add	r3, r3, r1
    cbb8:	e1530000 	cmp	r3, r0
    cbbc:	8a00000c 	bhi	cbf4 <writes+0xfc>
    cbc0:	e5d73000 	ldrb	r3, [r7]
    cbc4:	e1983003 	orrs	r3, r8, r3
    cbc8:	0a000063 	beq	cd5c <writes+0x264>
    cbcc:	e3580000 	cmp	r8, #0
    cbd0:	0affffe8 	beq	cb78 <writes+0x80>
    cbd4:	e351000a 	cmp	r1, #10
    cbd8:	8a000008 	bhi	cc00 <writes+0x108>
    cbdc:	e59f322c 	ldr	r3, [pc, #556]	; ce10 <writes+0x318>
    cbe0:	e7960003 	ldr	r0, [r6, r3]
    cbe4:	e3a08001 	mov	r8, #1
    cbe8:	e0811008 	add	r1, r1, r8
    cbec:	e6ef1071 	uxtb	r1, r1
    cbf0:	ea000025 	b	cc8c <writes+0x194>
    cbf4:	e351000a 	cmp	r1, #10
    cbf8:	9a000069 	bls	cda4 <writes+0x2ac>
    cbfc:	e3a08002 	mov	r8, #2
    cc00:	e3e0e02e 	mvn	lr, #46	; 0x2e
    cc04:	e3a0c008 	mov	ip, #8
    cc08:	e59f3200 	ldr	r3, [pc, #512]	; ce10 <writes+0x318>
    cc0c:	e3580001 	cmp	r8, #1
    cc10:	e7960003 	ldr	r0, [r6, r3]
    cc14:	e59f31f8 	ldr	r3, [pc, #504]	; ce14 <writes+0x31c>
    cc18:	e5c01000 	strb	r1, [r0]
    cc1c:	e5c0e001 	strb	lr, [r0, #1]
    cc20:	e7963003 	ldr	r3, [r6, r3]
    cc24:	e5933000 	ldr	r3, [r3]
    cc28:	e0832182 	add	r2, r3, r2, lsl #3
    cc2c:	e1a03c32 	lsr	r3, r2, ip
    cc30:	e5c02003 	strb	r2, [r0, #3]
    cc34:	e59f21dc 	ldr	r2, [pc, #476]	; ce18 <writes+0x320>
    cc38:	e5c03002 	strb	r3, [r0, #2]
    cc3c:	e59f31d8 	ldr	r3, [pc, #472]	; ce1c <writes+0x324>
    cc40:	e7962002 	ldr	r2, [r6, r2]
    cc44:	e7963003 	ldr	r3, [r6, r3]
    cc48:	e5922000 	ldr	r2, [r2]
    cc4c:	e5933000 	ldr	r3, [r3]
    cc50:	e0822102 	add	r2, r2, r2, lsl #2
    cc54:	e0833082 	add	r3, r3, r2, lsl #1
    cc58:	e1a02c33 	lsr	r2, r3, ip
    cc5c:	e5c03005 	strb	r3, [r0, #5]
    cc60:	e59d3008 	ldr	r3, [sp, #8]
    cc64:	e5c02004 	strb	r2, [r0, #4]
    cc68:	e5c03007 	strb	r3, [r0, #7]
    cc6c:	e59d3000 	ldr	r3, [sp]
    cc70:	e5c0c006 	strb	ip, [r0, #6]
    cc74:	e5c03008 	strb	r3, [r0, #8]
    cc78:	e59d300c 	ldr	r3, [sp, #12]
    cc7c:	e5c03009 	strb	r3, [r0, #9]
    cc80:	e59d3004 	ldr	r3, [sp, #4]
    cc84:	e5c0300a 	strb	r3, [r0, #10]
    cc88:	0affffd5 	beq	cbe4 <writes+0xec>
    cc8c:	e5d4c000 	ldrb	ip, [r4]
    cc90:	e35c0000 	cmp	ip, #0
    cc94:	1351000a 	cmpne	r1, #10
    cc98:	9a000020 	bls	cd20 <writes+0x228>
    cc9c:	e3a0300b 	mov	r3, #11
    cca0:	ea00000f 	b	cce4 <writes+0x1ec>
    cca4:	e1a0e000 	mov	lr, r0
    cca8:	e5952000 	ldr	r2, [r5]
    ccac:	e7eec003 	strb	ip, [lr, r3]!
    ccb0:	e2822001 	add	r2, r2, #1
    ccb4:	e5cea001 	strb	sl, [lr, #1]
    ccb8:	e5852000 	str	r2, [r5]
    ccbc:	e2833001 	add	r3, r3, #1
    ccc0:	e5f4c001 	ldrb	ip, [r4, #1]!
    ccc4:	e6ef3073 	uxtb	r3, r3
    ccc8:	e1510003 	cmp	r1, r3
    cccc:	33a02000 	movcc	r2, #0
    ccd0:	23a02001 	movcs	r2, #1
    ccd4:	e35c0000 	cmp	ip, #0
    ccd8:	03a02000 	moveq	r2, #0
    ccdc:	e3520000 	cmp	r2, #0
    cce0:	0a00000e 	beq	cd20 <writes+0x228>
    cce4:	e24c2020 	sub	r2, ip, #32
    cce8:	e352005f 	cmp	r2, #95	; 0x5f
    ccec:	9affffec 	bls	cca4 <writes+0x1ac>
    ccf0:	e35c000d 	cmp	ip, #13
    ccf4:	0585a000 	streq	sl, [r5]
    ccf8:	0affffef 	beq	ccbc <writes+0x1c4>
    ccfc:	e35c000a 	cmp	ip, #10
    cd00:	1affffed 	bne	ccbc <writes+0x1c4>
    cd04:	e59f210c 	ldr	r2, [pc, #268]	; ce18 <writes+0x320>
    cd08:	e585a000 	str	sl, [r5]
    cd0c:	e796c002 	ldr	ip, [r6, r2]
    cd10:	e59c2000 	ldr	r2, [ip]
    cd14:	e2822001 	add	r2, r2, #1
    cd18:	e58c2000 	str	r2, [ip]
    cd1c:	eaffffe6 	b	ccbc <writes+0x1c4>
    cd20:	eb001ef8 	bl	14908 <commVDG>
    cd24:	e59b3000 	ldr	r3, [fp]
    cd28:	e5950000 	ldr	r0, [r5]
    cd2c:	e1500003 	cmp	r0, r3
    cd30:	9a000014 	bls	cd88 <writes+0x290>
    cd34:	e3580002 	cmp	r8, #2
    cd38:	0a000020 	beq	cdc0 <writes+0x2c8>
    cd3c:	e4d73001 	ldrb	r3, [r7], #1
    cd40:	e3a0100a 	mov	r1, #10
    cd44:	e3530000 	cmp	r3, #0
    cd48:	1affff8d 	bne	cb84 <writes+0x8c>
    cd4c:	e1a00009 	mov	r0, r9
    cd50:	e28dd014 	add	sp, sp, #20
    cd54:	e8bd4ff0 	pop	{r4, r5, r6, r7, r8, r9, sl, fp, lr}
    cd58:	ea003452 	b	19ea8 <puts>
    cd5c:	e351000a 	cmp	r1, #10
    cd60:	83a08003 	movhi	r8, #3
    cd64:	8affffa5 	bhi	cc00 <writes+0x108>
    cd68:	e59f30a0 	ldr	r3, [pc, #160]	; ce10 <writes+0x318>
    cd6c:	e7960003 	ldr	r0, [r6, r3]
    cd70:	eb001ee4 	bl	14908 <commVDG>
    cd74:	e59b3000 	ldr	r3, [fp]
    cd78:	e5950000 	ldr	r0, [r5]
    cd7c:	e1530000 	cmp	r3, r0
    cd80:	3affffed 	bcc	cd3c <writes+0x244>
    cd84:	e3a08003 	mov	r8, #3
    cd88:	e59f3088 	ldr	r3, [pc, #136]	; ce18 <writes+0x320>
    cd8c:	e6ef0070 	uxtb	r0, r0
    cd90:	e7963003 	ldr	r3, [r6, r3]
    cd94:	e3a02000 	mov	r2, #0
    cd98:	e5d31000 	ldrb	r1, [r3]
    cd9c:	ebfffeb5 	bl	c878 <locate>
    cda0:	eaffffe3 	b	cd34 <writes+0x23c>
    cda4:	e59f3064 	ldr	r3, [pc, #100]	; ce10 <writes+0x318>
    cda8:	e7960003 	ldr	r0, [r6, r3]
    cdac:	eb001ed5 	bl	14908 <commVDG>
    cdb0:	e59b3000 	ldr	r3, [fp]
    cdb4:	e5950000 	ldr	r0, [r5]
    cdb8:	e1530000 	cmp	r3, r0
    cdbc:	2a00000b 	bcs	cdf0 <writes+0x2f8>
    cdc0:	e3a02000 	mov	r2, #0
    cdc4:	e59f304c 	ldr	r3, [pc, #76]	; ce18 <writes+0x320>
    cdc8:	e585a000 	str	sl, [r5]
    cdcc:	e7963003 	ldr	r3, [r6, r3]
    cdd0:	e1a00002 	mov	r0, r2
    cdd4:	e5931000 	ldr	r1, [r3]
    cdd8:	e2811001 	add	r1, r1, #1
    cddc:	e5831000 	str	r1, [r3]
    cde0:	e6ef1071 	uxtb	r1, r1
    cde4:	ebfffea3 	bl	c878 <locate>
    cde8:	e3a0100a 	mov	r1, #10
    cdec:	eaffff61 	b	cb78 <writes+0x80>
    cdf0:	e3a08002 	mov	r8, #2
    cdf4:	eaffffe3 	b	cd88 <writes+0x290>
    cdf8:	00012364 	andeq	r2, r1, r4, ror #6
    cdfc:	00000194 	muleq	r0, r4, r1
    ce00:	00000000 	andeq	r0, r0, r0
    ce04:	00000080 	andeq	r0, r0, r0, lsl #1
    ce08:	0000004c 	andeq	r0, r0, ip, asr #32
    ce0c:	00000050 	andeq	r0, r0, r0, asr r0
    ce10:	00000164 	andeq	r0, r0, r4, ror #2
    ce14:	00000020 	andeq	r0, r0, r0, lsr #32
    ce18:	0000020c 	andeq	r0, r0, ip, lsl #4
    ce1c:	000000f8 	strdeq	r0, [r0], -r8

0000ce20 <writestr>:
    ce20:	e59f301c 	ldr	r3, [pc, #28]	; ce44 <writestr+0x24>
    ce24:	e59f101c 	ldr	r1, [pc, #28]	; ce48 <writestr+0x28>
    ce28:	e59f201c 	ldr	r2, [pc, #28]	; ce4c <writestr+0x2c>
    ce2c:	e08f3003 	add	r3, pc, r3
    ce30:	e793c001 	ldr	ip, [r3, r1]
    ce34:	e7931002 	ldr	r1, [r3, r2]
    ce38:	e59c2000 	ldr	r2, [ip]
    ce3c:	e5911000 	ldr	r1, [r1]
    ce40:	eaffff2c 	b	caf8 <writes>
    ce44:	0001204c 	andeq	r2, r1, ip, asr #32
    ce48:	00000040 	andeq	r0, r0, r0, asr #32
    ce4c:	00000118 	andeq	r0, r0, r8, lsl r1

0000ce50 <loadCFG>:
    ce50:	e92d4ff0 	push	{r4, r5, r6, r7, r8, r9, sl, fp, lr}
    ce54:	e59f8358 	ldr	r8, [pc, #856]	; d1b4 <loadCFG+0x364>
    ce58:	e59f3358 	ldr	r3, [pc, #856]	; d1b8 <loadCFG+0x368>
    ce5c:	e24dd06c 	sub	sp, sp, #108	; 0x6c
    ce60:	e08f8008 	add	r8, pc, r8
    ce64:	e59f1350 	ldr	r1, [pc, #848]	; d1bc <loadCFG+0x36c>
    ce68:	e7986003 	ldr	r6, [r8, r3]
    ce6c:	e28d400c 	add	r4, sp, #12
    ce70:	e08f1001 	add	r1, pc, r1
    ce74:	e1a09000 	mov	r9, r0
    ce78:	e1a00004 	mov	r0, r4
    ce7c:	e596b000 	ldr	fp, [r6]
    ce80:	eb000f94 	bl	10cd8 <strcpy>
    ce84:	e1a01006 	mov	r1, r6
    ce88:	e1a00004 	mov	r0, r4
    ce8c:	ebfff678 	bl	a874 <loadFile>
    ce90:	e59f3328 	ldr	r3, [pc, #808]	; d1c0 <loadCFG+0x370>
    ce94:	e7983003 	ldr	r3, [r8, r3]
    ce98:	e5932000 	ldr	r2, [r3]
    ce9c:	e3520000 	cmp	r2, #0
    cea0:	1a000083 	bne	d0b4 <loadCFG+0x264>
    cea4:	e59f0318 	ldr	r0, [pc, #792]	; d1c4 <loadCFG+0x374>
    cea8:	e5cd2018 	strb	r2, [sp, #24]
    ceac:	e5cd2040 	strb	r2, [sp, #64]	; 0x40
    ceb0:	e7983000 	ldr	r3, [r8, r0]
    ceb4:	e59f130c 	ldr	r1, [pc, #780]	; d1c8 <loadCFG+0x378>
    ceb8:	e58d3000 	str	r3, [sp]
    cebc:	e7983001 	ldr	r3, [r8, r1]
    cec0:	e28b6e7f 	add	r6, fp, #2032	; 0x7f0
    cec4:	e1a07002 	mov	r7, r2
    cec8:	e1a04002 	mov	r4, r2
    cecc:	e1a0a002 	mov	sl, r2
    ced0:	e58d3004 	str	r3, [sp, #4]
    ced4:	e286600f 	add	r6, r6, #15
    ced8:	e24bb001 	sub	fp, fp, #1
    cedc:	ea000010 	b	cf24 <loadCFG+0xd4>
    cee0:	e351000d 	cmp	r1, #13
    cee4:	0a00003f 	beq	cfe8 <loadCFG+0x198>
    cee8:	e2410020 	sub	r0, r1, #32
    ceec:	e350005f 	cmp	r0, #95	; 0x5f
    cef0:	8a000007 	bhi	cf14 <loadCFG+0xc4>
    cef4:	e28d3068 	add	r3, sp, #104	; 0x68
    cef8:	e0830004 	add	r0, r3, r4
    cefc:	e2844001 	add	r4, r4, #1
    cf00:	e6ef3074 	uxtb	r3, r4
    cf04:	e1a04003 	mov	r4, r3
    cf08:	e35a0000 	cmp	sl, #0
    cf0c:	05401050 	strbeq	r1, [r0, #-80]	; 0xffffffb0
    cf10:	15401028 	strbne	r1, [r0, #-40]	; 0xffffffd8
    cf14:	e3540028 	cmp	r4, #40	; 0x28
    cf18:	8a00007a 	bhi	d108 <loadCFG+0x2b8>
    cf1c:	e15b0006 	cmp	fp, r6
    cf20:	0a00000a 	beq	cf50 <loadCFG+0x100>
    cf24:	e5fb1001 	ldrb	r1, [fp, #1]!
    cf28:	e351003d 	cmp	r1, #61	; 0x3d
    cf2c:	1affffeb 	bne	cee0 <loadCFG+0x90>
    cf30:	e28d3068 	add	r3, sp, #104	; 0x68
    cf34:	e0833004 	add	r3, r3, r4
    cf38:	e5437050 	strb	r7, [r3, #-80]	; 0xffffffb0
    cf3c:	e3a03000 	mov	r3, #0
    cf40:	e15b0006 	cmp	fp, r6
    cf44:	e1a0a004 	mov	sl, r4
    cf48:	e1a04003 	mov	r4, r3
    cf4c:	1afffff4 	bne	cf24 <loadCFG+0xd4>
    cf50:	e3540028 	cmp	r4, #40	; 0x28
    cf54:	83a04000 	movhi	r4, #0
    cf58:	93a04001 	movls	r4, #1
    cf5c:	e3590000 	cmp	r9, #0
    cf60:	03a04000 	moveq	r4, #0
    cf64:	e3540000 	cmp	r4, #0
    cf68:	0a00000a 	beq	cf98 <loadCFG+0x148>
    cf6c:	e59f3258 	ldr	r3, [pc, #600]	; d1cc <loadCFG+0x37c>
    cf70:	e7983003 	ldr	r3, [r8, r3]
    cf74:	e5933000 	ldr	r3, [r3]
    cf78:	e3530001 	cmp	r3, #1
    cf7c:	0a00007b 	beq	d170 <loadCFG+0x320>
    cf80:	e59f0248 	ldr	r0, [pc, #584]	; d1d0 <loadCFG+0x380>
    cf84:	e3a02000 	mov	r2, #0
    cf88:	e08f0000 	add	r0, pc, r0
    cf8c:	e2800064 	add	r0, r0, #100	; 0x64
    cf90:	e3a01040 	mov	r1, #64	; 0x40
    cf94:	ebfffbf8 	bl	bf7c <message>
    cf98:	e59d3004 	ldr	r3, [sp, #4]
    cf9c:	e3a00008 	mov	r0, #8
    cfa0:	e5932000 	ldr	r2, [r3]
    cfa4:	e59d3000 	ldr	r3, [sp]
    cfa8:	e3a09001 	mov	r9, #1
    cfac:	e5931000 	ldr	r1, [r3]
    cfb0:	e3a03004 	mov	r3, #4
    cfb4:	ebfffd98 	bl	c61c <writec>
    cfb8:	e3a01002 	mov	r1, #2
    cfbc:	e3e02027 	mvn	r2, #39	; 0x27
    cfc0:	e59f320c 	ldr	r3, [pc, #524]	; d1d4 <loadCFG+0x384>
    cfc4:	e7983003 	ldr	r3, [r8, r3]
    cfc8:	e1a00003 	mov	r0, r3
    cfcc:	e5c31000 	strb	r1, [r3]
    cfd0:	e5c32001 	strb	r2, [r3, #1]
    cfd4:	e5c39002 	strb	r9, [r3, #2]
    cfd8:	eb001e4a 	bl	14908 <commVDG>
    cfdc:	e1a00009 	mov	r0, r9
    cfe0:	e28dd06c 	add	sp, sp, #108	; 0x6c
    cfe4:	e8bd8ff0 	pop	{r4, r5, r6, r7, r8, r9, sl, fp, pc}
    cfe8:	e28d3068 	add	r3, sp, #104	; 0x68
    cfec:	e35a0000 	cmp	sl, #0
    cff0:	e0831004 	add	r1, r3, r4
    cff4:	0541a050 	strbeq	sl, [r1, #-80]	; 0xffffffb0
    cff8:	15417028 	strbne	r7, [r1, #-40]	; 0xffffffd8
    cffc:	e59f11d4 	ldr	r1, [pc, #468]	; d1d8 <loadCFG+0x388>
    d000:	e28d5018 	add	r5, sp, #24
    d004:	e1a00005 	mov	r0, r5
    d008:	e08f1001 	add	r1, pc, r1
    d00c:	01a0a004 	moveq	sl, r4
    d010:	eb000f24 	bl	10ca8 <strcmp>
    d014:	e3500000 	cmp	r0, #0
    d018:	1a000019 	bne	d084 <loadCFG+0x234>
    d01c:	e35a0006 	cmp	sl, #6
    d020:	0a000033 	beq	d0f4 <loadCFG+0x2a4>
    d024:	e59f11b0 	ldr	r1, [pc, #432]	; d1dc <loadCFG+0x38c>
    d028:	e1a00005 	mov	r0, r5
    d02c:	e08f1001 	add	r1, pc, r1
    d030:	eb000f1c 	bl	10ca8 <strcmp>
    d034:	e59f11a4 	ldr	r1, [pc, #420]	; d1e0 <loadCFG+0x390>
    d038:	e1a00005 	mov	r0, r5
    d03c:	e08f1001 	add	r1, pc, r1
    d040:	eb000f18 	bl	10ca8 <strcmp>
    d044:	e35a0004 	cmp	sl, #4
    d048:	03500000 	cmpeq	r0, #0
    d04c:	0a000006 	beq	d06c <loadCFG+0x21c>
    d050:	e59f118c 	ldr	r1, [pc, #396]	; d1e4 <loadCFG+0x394>
    d054:	e1a00005 	mov	r0, r5
    d058:	e08f1001 	add	r1, pc, r1
    d05c:	eb000f11 	bl	10ca8 <strcmp>
    d060:	e3500000 	cmp	r0, #0
    d064:	035a0005 	cmpeq	sl, #5
    d068:	0affffb8 	beq	cf50 <loadCFG+0x100>
    d06c:	e3a03000 	mov	r3, #0
    d070:	e5cd7018 	strb	r7, [sp, #24]
    d074:	e1a04003 	mov	r4, r3
    d078:	e5cd7040 	strb	r7, [sp, #64]	; 0x40
    d07c:	e1a0a003 	mov	sl, r3
    d080:	eaffffa5 	b	cf1c <loadCFG+0xcc>
    d084:	e59f115c 	ldr	r1, [pc, #348]	; d1e8 <loadCFG+0x398>
    d088:	e1a00005 	mov	r0, r5
    d08c:	e08f1001 	add	r1, pc, r1
    d090:	eb000f04 	bl	10ca8 <strcmp>
    d094:	e3500000 	cmp	r0, #0
    d098:	035a0006 	cmpeq	sl, #6
    d09c:	1affffe4 	bne	d034 <loadCFG+0x1e4>
    d0a0:	e28d0040 	add	r0, sp, #64	; 0x40
    d0a4:	eb000ef0 	bl	10c6c <atoi>
    d0a8:	e59d3004 	ldr	r3, [sp, #4]
    d0ac:	e5830000 	str	r0, [r3]
    d0b0:	eaffffed 	b	d06c <loadCFG+0x21c>
    d0b4:	e3590000 	cmp	r9, #0
    d0b8:	0a00000a 	beq	d0e8 <loadCFG+0x298>
    d0bc:	e59f3108 	ldr	r3, [pc, #264]	; d1cc <loadCFG+0x37c>
    d0c0:	e7983003 	ldr	r3, [r8, r3]
    d0c4:	e5933000 	ldr	r3, [r3]
    d0c8:	e3530001 	cmp	r3, #1
    d0cc:	0a00001b 	beq	d140 <loadCFG+0x2f0>
    d0d0:	e59f0114 	ldr	r0, [pc, #276]	; d1ec <loadCFG+0x39c>
    d0d4:	e3a02000 	mov	r2, #0
    d0d8:	e08f0000 	add	r0, pc, r0
    d0dc:	e28000a4 	add	r0, r0, #164	; 0xa4
    d0e0:	e3a01040 	mov	r1, #64	; 0x40
    d0e4:	ebfffba4 	bl	bf7c <message>
    d0e8:	e3a00000 	mov	r0, #0
    d0ec:	e28dd06c 	add	sp, sp, #108	; 0x6c
    d0f0:	e8bd8ff0 	pop	{r4, r5, r6, r7, r8, r9, sl, fp, pc}
    d0f4:	e28d0040 	add	r0, sp, #64	; 0x40
    d0f8:	eb000edb 	bl	10c6c <atoi>
    d0fc:	e59d3000 	ldr	r3, [sp]
    d100:	e5830000 	str	r0, [r3]
    d104:	eaffffd8 	b	d06c <loadCFG+0x21c>
    d108:	e3590000 	cmp	r9, #0
    d10c:	0affffa1 	beq	cf98 <loadCFG+0x148>
    d110:	e59f30b4 	ldr	r3, [pc, #180]	; d1cc <loadCFG+0x37c>
    d114:	e7983003 	ldr	r3, [r8, r3]
    d118:	e5933000 	ldr	r3, [r3]
    d11c:	e3530001 	cmp	r3, #1
    d120:	0a00001b 	beq	d194 <loadCFG+0x344>
    d124:	e59f00c4 	ldr	r0, [pc, #196]	; d1f0 <loadCFG+0x3a0>
    d128:	e3a02000 	mov	r2, #0
    d12c:	e08f0000 	add	r0, pc, r0
    d130:	e3a01040 	mov	r1, #64	; 0x40
    d134:	e2800020 	add	r0, r0, #32
    d138:	ebfffb8f 	bl	bf7c <message>
    d13c:	eaffff95 	b	cf98 <loadCFG+0x148>
    d140:	e59f2080 	ldr	r2, [pc, #128]	; d1c8 <loadCFG+0x378>
    d144:	e59f3078 	ldr	r3, [pc, #120]	; d1c4 <loadCFG+0x374>
    d148:	e59f00a4 	ldr	r0, [pc, #164]	; d1f4 <loadCFG+0x3a4>
    d14c:	e7982002 	ldr	r2, [r8, r2]
    d150:	e7983003 	ldr	r3, [r8, r3]
    d154:	e08f0000 	add	r0, pc, r0
    d158:	e2800084 	add	r0, r0, #132	; 0x84
    d15c:	e5922000 	ldr	r2, [r2]
    d160:	e5931000 	ldr	r1, [r3]
    d164:	ebfffe63 	bl	caf8 <writes>
    d168:	e3a00000 	mov	r0, #0
    d16c:	eaffffde 	b	d0ec <loadCFG+0x29c>
    d170:	e59d3004 	ldr	r3, [sp, #4]
    d174:	e59f007c 	ldr	r0, [pc, #124]	; d1f8 <loadCFG+0x3a8>
    d178:	e5932000 	ldr	r2, [r3]
    d17c:	e59d3000 	ldr	r3, [sp]
    d180:	e08f0000 	add	r0, pc, r0
    d184:	e2800040 	add	r0, r0, #64	; 0x40
    d188:	e5931000 	ldr	r1, [r3]
    d18c:	ebfffe59 	bl	caf8 <writes>
    d190:	eaffff80 	b	cf98 <loadCFG+0x148>
    d194:	e59d3004 	ldr	r3, [sp, #4]
    d198:	e59f005c 	ldr	r0, [pc, #92]	; d1fc <loadCFG+0x3ac>
    d19c:	e5932000 	ldr	r2, [r3]
    d1a0:	e59d3000 	ldr	r3, [sp]
    d1a4:	e08f0000 	add	r0, pc, r0
    d1a8:	e5931000 	ldr	r1, [r3]
    d1ac:	ebfffe51 	bl	caf8 <writes>
    d1b0:	eaffff78 	b	cf98 <loadCFG+0x148>
    d1b4:	00012018 	andeq	r2, r1, r8, lsl r0
    d1b8:	00000064 	andeq	r0, r0, r4, rrx
    d1bc:	0000e92c 	andeq	lr, r0, ip, lsr #18
    d1c0:	00000008 	andeq	r0, r0, r8
    d1c4:	00000118 	andeq	r0, r0, r8, lsl r1
    d1c8:	00000040 	andeq	r0, r0, r0, asr #32
    d1cc:	00000194 	muleq	r0, r4, r1
    d1d0:	0000e070 	andeq	lr, r0, r0, ror r0
    d1d4:	00000164 	andeq	r0, r0, r4, ror #2
    d1d8:	0000e7a0 	andeq	lr, r0, r0, lsr #15
    d1dc:	0000e784 	andeq	lr, r0, r4, lsl #15
    d1e0:	0000e77c 	andeq	lr, r0, ip, ror r7
    d1e4:	0000e768 	andeq	lr, r0, r8, ror #14
    d1e8:	0000e724 	andeq	lr, r0, r4, lsr #14
    d1ec:	0000df20 	andeq	sp, r0, r0, lsr #30
    d1f0:	0000decc 	andeq	sp, r0, ip, asr #29
    d1f4:	0000dea4 	andeq	sp, r0, r4, lsr #29
    d1f8:	0000de78 	andeq	sp, r0, r8, ror lr
    d1fc:	0000de54 	andeq	sp, r0, r4, asr lr

0000d200 <catFile>:
    d200:	e1a03000 	mov	r3, r0
    d204:	e92d4070 	push	{r4, r5, r6, lr}
    d208:	e59f6150 	ldr	r6, [pc, #336]	; d360 <catFile+0x160>
    d20c:	e59f2150 	ldr	r2, [pc, #336]	; d364 <catFile+0x164>
    d210:	e08f6006 	add	r6, pc, r6
    d214:	e7961002 	ldr	r1, [r6, r2]
    d218:	e5914000 	ldr	r4, [r1]
    d21c:	e4d35001 	ldrb	r5, [r3], #1
    d220:	e3550000 	cmp	r5, #0
    d224:	1afffffc 	bne	d21c <catFile+0x1c>
    d228:	ebfff591 	bl	a874 <loadFile>
    d22c:	e59f3134 	ldr	r3, [pc, #308]	; d368 <catFile+0x168>
    d230:	e7963003 	ldr	r3, [r6, r3]
    d234:	e5933000 	ldr	r3, [r3]
    d238:	e3530000 	cmp	r3, #0
    d23c:	1a000022 	bne	d2cc <catFile+0xcc>
    d240:	e3500000 	cmp	r0, #0
    d244:	08bd8070 	popeq	{r4, r5, r6, pc}
    d248:	e2444001 	sub	r4, r4, #1
    d24c:	e0845000 	add	r5, r4, r0
    d250:	ea00000e 	b	d290 <catFile+0x90>
    d254:	e350000a 	cmp	r0, #10
    d258:	0a000027 	beq	d2fc <catFile+0xfc>
    d25c:	e3500000 	cmp	r0, #0
    d260:	1350001a 	cmpne	r0, #26
    d264:	08bd8070 	popeq	{r4, r5, r6, pc}
    d268:	e7961001 	ldr	r1, [r6, r1]
    d26c:	e7962002 	ldr	r2, [r6, r2]
    d270:	e353005f 	cmp	r3, #95	; 0x5f
    d274:	83a00020 	movhi	r0, #32
    d278:	e5911000 	ldr	r1, [r1]
    d27c:	e5922000 	ldr	r2, [r2]
    d280:	e3a03003 	mov	r3, #3
    d284:	ebfffce4 	bl	c61c <writec>
    d288:	e1540005 	cmp	r4, r5
    d28c:	08bd8070 	popeq	{r4, r5, r6, pc}
    d290:	e5f40001 	ldrb	r0, [r4, #1]!
    d294:	e59f10d0 	ldr	r1, [pc, #208]	; d36c <catFile+0x16c>
    d298:	e350000d 	cmp	r0, #13
    d29c:	e59f20cc 	ldr	r2, [pc, #204]	; d370 <catFile+0x170>
    d2a0:	e2403020 	sub	r3, r0, #32
    d2a4:	1affffea 	bne	d254 <catFile+0x54>
    d2a8:	e3a02000 	mov	r2, #0
    d2ac:	e59f30c0 	ldr	r3, [pc, #192]	; d374 <catFile+0x174>
    d2b0:	e1a00002 	mov	r0, r2
    d2b4:	e7963003 	ldr	r3, [r6, r3]
    d2b8:	e5d31000 	ldrb	r1, [r3]
    d2bc:	ebfffd6d 	bl	c878 <locate>
    d2c0:	e1540005 	cmp	r4, r5
    d2c4:	1afffff1 	bne	d290 <catFile+0x90>
    d2c8:	e8bd8070 	pop	{r4, r5, r6, pc}
    d2cc:	e59f30a4 	ldr	r3, [pc, #164]	; d378 <catFile+0x178>
    d2d0:	e7963003 	ldr	r3, [r6, r3]
    d2d4:	e5933000 	ldr	r3, [r3]
    d2d8:	e3530001 	cmp	r3, #1
    d2dc:	0a000014 	beq	d334 <catFile+0x134>
    d2e0:	e59f0094 	ldr	r0, [pc, #148]	; d37c <catFile+0x17c>
    d2e4:	e1a02005 	mov	r2, r5
    d2e8:	e8bd4070 	pop	{r4, r5, r6, lr}
    d2ec:	e08f0000 	add	r0, pc, r0
    d2f0:	e28000d8 	add	r0, r0, #216	; 0xd8
    d2f4:	e3a01040 	mov	r1, #64	; 0x40
    d2f8:	eafffb1f 	b	bf7c <message>
    d2fc:	e59f2070 	ldr	r2, [pc, #112]	; d374 <catFile+0x174>
    d300:	e59f3078 	ldr	r3, [pc, #120]	; d380 <catFile+0x180>
    d304:	e7960002 	ldr	r0, [r6, r2]
    d308:	e3a02000 	mov	r2, #0
    d30c:	e5901000 	ldr	r1, [r0]
    d310:	e2811001 	add	r1, r1, #1
    d314:	e5801000 	str	r1, [r0]
    d318:	e7963003 	ldr	r3, [r6, r3]
    d31c:	e6ef1071 	uxtb	r1, r1
    d320:	e5d30000 	ldrb	r0, [r3]
    d324:	ebfffd53 	bl	c878 <locate>
    d328:	e1540005 	cmp	r4, r5
    d32c:	1affffd7 	bne	d290 <catFile+0x90>
    d330:	e8bd8070 	pop	{r4, r5, r6, pc}
    d334:	e59f2034 	ldr	r2, [pc, #52]	; d370 <catFile+0x170>
    d338:	e59f302c 	ldr	r3, [pc, #44]	; d36c <catFile+0x16c>
    d33c:	e59f0040 	ldr	r0, [pc, #64]	; d384 <catFile+0x184>
    d340:	e7962002 	ldr	r2, [r6, r2]
    d344:	e7963003 	ldr	r3, [r6, r3]
    d348:	e08f0000 	add	r0, pc, r0
    d34c:	e5922000 	ldr	r2, [r2]
    d350:	e5931000 	ldr	r1, [r3]
    d354:	e28000c0 	add	r0, r0, #192	; 0xc0
    d358:	e8bd4070 	pop	{r4, r5, r6, lr}
    d35c:	eafffde5 	b	caf8 <writes>
    d360:	00011c68 	andeq	r1, r1, r8, ror #24
    d364:	00000064 	andeq	r0, r0, r4, rrx
    d368:	00000008 	andeq	r0, r0, r8
    d36c:	00000118 	andeq	r0, r0, r8, lsl r1
    d370:	00000040 	andeq	r0, r0, r0, asr #32
    d374:	0000020c 	andeq	r0, r0, ip, lsl #4
    d378:	00000194 	muleq	r0, r4, r1
    d37c:	0000dd0c 	andeq	sp, r0, ip, lsl #26
    d380:	0000004c 	andeq	r0, r0, ip, asr #32
    d384:	0000dcb0 			; <UNDEFINED> instruction: 0x0000dcb0

0000d388 <waitButton>:
    d388:	e92d4070 	push	{r4, r5, r6, lr}
    d38c:	e3a00001 	mov	r0, #1
    d390:	ebfffa2e 	bl	bc50 <VerifyTouchLcd>
    d394:	e59f20b0 	ldr	r2, [pc, #176]	; d44c <waitButton+0xc4>
    d398:	e59fc0b0 	ldr	ip, [pc, #176]	; d450 <waitButton+0xc8>
    d39c:	e08f2002 	add	r2, pc, r2
    d3a0:	e59f00ac 	ldr	r0, [pc, #172]	; d454 <waitButton+0xcc>
    d3a4:	e59f10ac 	ldr	r1, [pc, #172]	; d458 <waitButton+0xd0>
    d3a8:	e792e00c 	ldr	lr, [r2, ip]
    d3ac:	e792c000 	ldr	ip, [r2, r0]
    d3b0:	e59e4000 	ldr	r4, [lr]
    d3b4:	e7920001 	ldr	r0, [r2, r1]
    d3b8:	e59f109c 	ldr	r1, [pc, #156]	; d45c <waitButton+0xd4>
    d3bc:	e3a03001 	mov	r3, #1
    d3c0:	e59cc000 	ldr	ip, [ip]
    d3c4:	e5905000 	ldr	r5, [r0]
    d3c8:	e7921001 	ldr	r1, [r2, r1]
    d3cc:	e284600a 	add	r6, r4, #10
    d3d0:	e5f12001 	ldrb	r2, [r1, #1]!
    d3d4:	e2830001 	add	r0, r3, #1
    d3d8:	e3520000 	cmp	r2, #0
    d3dc:	0a000008 	beq	d404 <waitButton+0x7c>
    d3e0:	e152000c 	cmp	r2, ip
    d3e4:	e282e020 	add	lr, r2, #32
    d3e8:	8a000005 	bhi	d404 <waitButton+0x7c>
    d3ec:	e15c000e 	cmp	ip, lr
    d3f0:	8a000003 	bhi	d404 <waitButton+0x7c>
    d3f4:	e1550004 	cmp	r5, r4
    d3f8:	3a000001 	bcc	d404 <waitButton+0x7c>
    d3fc:	e1550006 	cmp	r5, r6
    d400:	9a000004 	bls	d418 <waitButton+0x90>
    d404:	e6ef3070 	uxtb	r3, r0
    d408:	e3530008 	cmp	r3, #8
    d40c:	1affffef 	bne	d3d0 <waitButton+0x48>
    d410:	e3a00000 	mov	r0, #0
    d414:	e8bd8070 	pop	{r4, r5, r6, pc}
    d418:	e3530001 	cmp	r3, #1
    d41c:	0a000008 	beq	d444 <waitButton+0xbc>
    d420:	e3a02001 	mov	r2, #1
    d424:	e1a00002 	mov	r0, r2
    d428:	e2822001 	add	r2, r2, #1
    d42c:	e6ef2072 	uxtb	r2, r2
    d430:	e1520003 	cmp	r2, r3
    d434:	e1a00080 	lsl	r0, r0, #1
    d438:	e6ef0070 	uxtb	r0, r0
    d43c:	1afffff9 	bne	d428 <waitButton+0xa0>
    d440:	e8bd8070 	pop	{r4, r5, r6, pc}
    d444:	e1a00003 	mov	r0, r3
    d448:	e8bd8070 	pop	{r4, r5, r6, pc}
    d44c:	00011adc 	ldrdeq	r1, [r1], -ip
    d450:	0000000c 	andeq	r0, r0, ip
    d454:	00000218 	andeq	r0, r0, r8, lsl r2
    d458:	00000084 	andeq	r0, r0, r4, lsl #1
    d45c:	00000224 	andeq	r0, r0, r4, lsr #4

0000d460 <fillin>:
    d460:	e92d4ff0 	push	{r4, r5, r6, r7, r8, r9, sl, fp, lr}
    d464:	e5d04000 	ldrb	r4, [r0]
    d468:	e59f7320 	ldr	r7, [pc, #800]	; d790 <fillin+0x330>
    d46c:	e24dd014 	sub	sp, sp, #20
    d470:	e3540000 	cmp	r4, #0
    d474:	e1a06000 	mov	r6, r0
    d478:	e1a08001 	mov	r8, r1
    d47c:	e1a05000 	mov	r5, r0
    d480:	e1a0a002 	mov	sl, r2
    d484:	e1a09003 	mov	r9, r3
    d488:	e08f7007 	add	r7, pc, r7
    d48c:	e5ddc038 	ldrb	ip, [sp, #56]	; 0x38
    d490:	0a000004 	beq	d4a8 <fillin+0x48>
    d494:	e3a04000 	mov	r4, #0
    d498:	e5f53001 	ldrb	r3, [r5, #1]!
    d49c:	e2844008 	add	r4, r4, #8
    d4a0:	e3530000 	cmp	r3, #0
    d4a4:	1afffffb 	bne	d498 <fillin+0x38>
    d4a8:	e35c0001 	cmp	ip, #1
    d4ac:	0a000024 	beq	d544 <fillin+0xe4>
    d4b0:	e35c0000 	cmp	ip, #0
    d4b4:	1a000020 	bne	d53c <fillin+0xdc>
    d4b8:	e1a0100a 	mov	r1, sl
    d4bc:	e58dc000 	str	ip, [sp]
    d4c0:	e3a0300a 	mov	r3, #10
    d4c4:	e1a02009 	mov	r2, r9
    d4c8:	e1a00008 	mov	r0, r8
    d4cc:	ebfff81c 	bl	b544 <DrawRect>
    d4d0:	e59f22bc 	ldr	r2, [pc, #700]	; d794 <fillin+0x334>
    d4d4:	e28a1001 	add	r1, sl, #1
    d4d8:	e58d2000 	str	r2, [sp]
    d4dc:	e3a03008 	mov	r3, #8
    d4e0:	e2492002 	sub	r2, r9, #2
    d4e4:	e2880001 	add	r0, r8, #1
    d4e8:	ebfff7d7 	bl	b44c <FillRect>
    d4ec:	e28aa002 	add	sl, sl, #2
    d4f0:	e1a0100a 	mov	r1, sl
    d4f4:	e2880002 	add	r0, r8, #2
    d4f8:	e2466001 	sub	r6, r6, #1
    d4fc:	ebfff775 	bl	b2d8 <locatexy>
    d500:	e59f428c 	ldr	r4, [pc, #652]	; d794 <fillin+0x334>
    d504:	ea000009 	b	d530 <fillin+0xd0>
    d508:	e1a03004 	mov	r3, r4
    d50c:	e3a02000 	mov	r2, #0
    d510:	e3a00008 	mov	r0, #8
    d514:	ebfff740 	bl	b21c <writecxy>
    d518:	e59f2278 	ldr	r2, [pc, #632]	; d798 <fillin+0x338>
    d51c:	e0883009 	add	r3, r8, r9
    d520:	e7972002 	ldr	r2, [r7, r2]
    d524:	e5922000 	ldr	r2, [r2]
    d528:	e1530002 	cmp	r3, r2
    d52c:	9a000002 	bls	d53c <fillin+0xdc>
    d530:	e5f61001 	ldrb	r1, [r6, #1]!
    d534:	e3510000 	cmp	r1, #0
    d538:	1afffff2 	bne	d508 <fillin+0xa8>
    d53c:	e28dd014 	add	sp, sp, #20
    d540:	e8bd8ff0 	pop	{r4, r5, r6, r7, r8, r9, sl, fp, pc}
    d544:	e59f3250 	ldr	r3, [pc, #592]	; d79c <fillin+0x33c>
    d548:	e7973003 	ldr	r3, [r7, r3]
    d54c:	e58d3008 	str	r3, [sp, #8]
    d550:	e5d33000 	ldrb	r3, [r3]
    d554:	e3530000 	cmp	r3, #0
    d558:	0a00001b 	beq	d5cc <fillin+0x16c>
    d55c:	e59f323c 	ldr	r3, [pc, #572]	; d7a0 <fillin+0x340>
    d560:	e7973003 	ldr	r3, [r7, r3]
    d564:	e5d3b000 	ldrb	fp, [r3]
    d568:	e35b00ff 	cmp	fp, #255	; 0xff
    d56c:	0a000074 	beq	d744 <fillin+0x2e4>
    d570:	e24b2020 	sub	r2, fp, #32
    d574:	e352005f 	cmp	r2, #95	; 0x5f
    d578:	8a00003f 	bhi	d67c <fillin+0x21c>
    d57c:	e0880004 	add	r0, r8, r4
    d580:	e2801008 	add	r1, r0, #8
    d584:	e0882009 	add	r2, r8, r9
    d588:	e1510002 	cmp	r1, r2
    d58c:	2affffea 	bcs	d53c <fillin+0xdc>
    d590:	e3a04000 	mov	r4, #0
    d594:	e28aa002 	add	sl, sl, #2
    d598:	e1a0100a 	mov	r1, sl
    d59c:	e5c5b000 	strb	fp, [r5]
    d5a0:	e2800002 	add	r0, r0, #2
    d5a4:	e5c54001 	strb	r4, [r5, #1]
    d5a8:	e58d3008 	str	r3, [sp, #8]
    d5ac:	ebfff749 	bl	b2d8 <locatexy>
    d5b0:	e59d3008 	ldr	r3, [sp, #8]
    d5b4:	e1a02004 	mov	r2, r4
    d5b8:	e5d31000 	ldrb	r1, [r3]
    d5bc:	e3a00008 	mov	r0, #8
    d5c0:	e59f31cc 	ldr	r3, [pc, #460]	; d794 <fillin+0x334>
    d5c4:	ebfff714 	bl	b21c <writecxy>
    d5c8:	eaffffc8 	b	d4f0 <fillin+0x90>
    d5cc:	e59f21d0 	ldr	r2, [pc, #464]	; d7a4 <fillin+0x344>
    d5d0:	e7972002 	ldr	r2, [r7, r2]
    d5d4:	e58d200c 	str	r2, [sp, #12]
    d5d8:	e5922000 	ldr	r2, [r2]
    d5dc:	e1520008 	cmp	r2, r8
    d5e0:	3a00001d 	bcc	d65c <fillin+0x1fc>
    d5e4:	e0881009 	add	r1, r8, r9
    d5e8:	e1520001 	cmp	r2, r1
    d5ec:	8a00001a 	bhi	d65c <fillin+0x1fc>
    d5f0:	e59f21b0 	ldr	r2, [pc, #432]	; d7a8 <fillin+0x348>
    d5f4:	e7972002 	ldr	r2, [r7, r2]
    d5f8:	e5922000 	ldr	r2, [r2]
    d5fc:	e152000a 	cmp	r2, sl
    d600:	3a000015 	bcc	d65c <fillin+0x1fc>
    d604:	e28a100a 	add	r1, sl, #10
    d608:	e1520001 	cmp	r2, r1
    d60c:	8a000012 	bhi	d65c <fillin+0x1fc>
    d610:	e59de008 	ldr	lr, [sp, #8]
    d614:	e28a200c 	add	r2, sl, #12
    d618:	e58d2004 	str	r2, [sp, #4]
    d61c:	e58d8000 	str	r8, [sp]
    d620:	e1a02003 	mov	r2, r3
    d624:	e1a0100c 	mov	r1, ip
    d628:	e1a0000c 	mov	r0, ip
    d62c:	e5cec000 	strb	ip, [lr]
    d630:	ebffed76 	bl	8c10 <funcKey>
    d634:	e59f3164 	ldr	r3, [pc, #356]	; d7a0 <fillin+0x340>
    d638:	e7973003 	ldr	r3, [r7, r3]
    d63c:	e5d3b000 	ldrb	fp, [r3]
    d640:	e35b00ff 	cmp	fp, #255	; 0xff
    d644:	1affffc9 	bne	d570 <fillin+0x110>
    d648:	e59d3008 	ldr	r3, [sp, #8]
    d64c:	e5d33000 	ldrb	r3, [r3]
    d650:	e3530000 	cmp	r3, #0
    d654:	0affffb8 	beq	d53c <fillin+0xdc>
    d658:	ea00003c 	b	d750 <fillin+0x2f0>
    d65c:	e59f313c 	ldr	r3, [pc, #316]	; d7a0 <fillin+0x340>
    d660:	e7973003 	ldr	r3, [r7, r3]
    d664:	e5d3b000 	ldrb	fp, [r3]
    d668:	e35b00ff 	cmp	fp, #255	; 0xff
    d66c:	0affffb2 	beq	d53c <fillin+0xdc>
    d670:	e24b2020 	sub	r2, fp, #32
    d674:	e352005f 	cmp	r2, #95	; 0x5f
    d678:	9affffbf 	bls	d57c <fillin+0x11c>
    d67c:	e35b0008 	cmp	fp, #8
    d680:	0a000010 	beq	d6c8 <fillin+0x268>
    d684:	e35b000d 	cmp	fp, #13
    d688:	1affffab 	bne	d53c <fillin+0xdc>
    d68c:	e59d3008 	ldr	r3, [sp, #8]
    d690:	e5d33000 	ldrb	r3, [r3]
    d694:	e3530000 	cmp	r3, #0
    d698:	0affffa7 	beq	d53c <fillin+0xdc>
    d69c:	e3a0c000 	mov	ip, #0
    d6a0:	e59de008 	ldr	lr, [sp, #8]
    d6a4:	e28aa00c 	add	sl, sl, #12
    d6a8:	e88d0500 	stm	sp, {r8, sl}
    d6ac:	e1a0300c 	mov	r3, ip
    d6b0:	e1a0200c 	mov	r2, ip
    d6b4:	e3a01002 	mov	r1, #2
    d6b8:	e3a00001 	mov	r0, #1
    d6bc:	e5cec000 	strb	ip, [lr]
    d6c0:	ebffed52 	bl	8c10 <funcKey>
    d6c4:	eaffff9c 	b	d53c <fillin+0xdc>
    d6c8:	e59f30c8 	ldr	r3, [pc, #200]	; d798 <fillin+0x338>
    d6cc:	e288800a 	add	r8, r8, #10
    d6d0:	e7974003 	ldr	r4, [r7, r3]
    d6d4:	e5943000 	ldr	r3, [r4]
    d6d8:	e1580003 	cmp	r8, r3
    d6dc:	2affff96 	bcs	d53c <fillin+0xdc>
    d6e0:	e3a08000 	mov	r8, #0
    d6e4:	e4458001 	strb	r8, [r5], #-1
    d6e8:	e1560005 	cmp	r6, r5
    d6ec:	21a05006 	movcs	r5, r6
    d6f0:	e5c58000 	strb	r8, [r5]
    d6f4:	e5941000 	ldr	r1, [r4]
    d6f8:	e59f20ac 	ldr	r2, [pc, #172]	; d7ac <fillin+0x34c>
    d6fc:	e2411008 	sub	r1, r1, #8
    d700:	e59f30a8 	ldr	r3, [pc, #168]	; d7b0 <fillin+0x350>
    d704:	e5841000 	str	r1, [r4]
    d708:	e7972002 	ldr	r2, [r7, r2]
    d70c:	e7973003 	ldr	r3, [r7, r3]
    d710:	e5d21000 	ldrb	r1, [r2]
    d714:	e5d30000 	ldrb	r0, [r3]
    d718:	e1a02008 	mov	r2, r8
    d71c:	ebfffc55 	bl	c878 <locate>
    d720:	e59f306c 	ldr	r3, [pc, #108]	; d794 <fillin+0x334>
    d724:	e1a02008 	mov	r2, r8
    d728:	e1a0100b 	mov	r1, fp
    d72c:	e1a0000b 	mov	r0, fp
    d730:	ebfff6b9 	bl	b21c <writecxy>
    d734:	e5943000 	ldr	r3, [r4]
    d738:	e2433008 	sub	r3, r3, #8
    d73c:	e5843000 	str	r3, [r4]
    d740:	eaffff7d 	b	d53c <fillin+0xdc>
    d744:	e59f3058 	ldr	r3, [pc, #88]	; d7a4 <fillin+0x344>
    d748:	e7973003 	ldr	r3, [r7, r3]
    d74c:	e58d300c 	str	r3, [sp, #12]
    d750:	e59d300c 	ldr	r3, [sp, #12]
    d754:	e5933000 	ldr	r3, [r3]
    d758:	e1530008 	cmp	r3, r8
    d75c:	3affffce 	bcc	d69c <fillin+0x23c>
    d760:	e0889009 	add	r9, r8, r9
    d764:	e1530009 	cmp	r3, r9
    d768:	8affffcb 	bhi	d69c <fillin+0x23c>
    d76c:	e59f3034 	ldr	r3, [pc, #52]	; d7a8 <fillin+0x348>
    d770:	e7973003 	ldr	r3, [r7, r3]
    d774:	e5933000 	ldr	r3, [r3]
    d778:	e153000a 	cmp	r3, sl
    d77c:	3affffc6 	bcc	d69c <fillin+0x23c>
    d780:	e28a200a 	add	r2, sl, #10
    d784:	e1530002 	cmp	r3, r2
    d788:	9affff6b 	bls	d53c <fillin+0xdc>
    d78c:	eaffffc2 	b	d69c <fillin+0x23c>
    d790:	000119f0 	strdeq	r1, [r1], -r0
    d794:	0000ffff 	strdeq	pc, [r0], -pc	; <UNPREDICTABLE>
    d798:	000001a0 	andeq	r0, r0, r0, lsr #3
    d79c:	00000058 	andeq	r0, r0, r8, asr r0
    d7a0:	000000dc 	ldrdeq	r0, [r0], -ip
    d7a4:	00000218 	andeq	r0, r0, r8, lsl r2
    d7a8:	00000084 	andeq	r0, r0, r4, lsl #1
    d7ac:	0000020c 	andeq	r0, r0, ip, lsl #4
    d7b0:	0000004c 	andeq	r0, r0, ip, asr #32

0000d7b4 <executeCmd>:
    d7b4:	e92d4070 	push	{r4, r5, r6, lr}
    d7b8:	e3a05000 	mov	r5, #0
    d7bc:	e24dd048 	sub	sp, sp, #72	; 0x48
    d7c0:	e59f61b8 	ldr	r6, [pc, #440]	; d980 <executeCmd+0x1cc>
    d7c4:	e59f31b8 	ldr	r3, [pc, #440]	; d984 <executeCmd+0x1d0>
    d7c8:	e28d4048 	add	r4, sp, #72	; 0x48
    d7cc:	e59f11b4 	ldr	r1, [pc, #436]	; d988 <executeCmd+0x1d4>
    d7d0:	e08f6006 	add	r6, pc, r6
    d7d4:	e5645040 	strb	r5, [r4, #-64]!	; 0xffffffc0
    d7d8:	e7960003 	ldr	r0, [r6, r3]
    d7dc:	e08f1001 	add	r1, pc, r1
    d7e0:	eb000d3c 	bl	10cd8 <strcpy>
    d7e4:	e3a0e00a 	mov	lr, #10
    d7e8:	e3a0c028 	mov	ip, #40	; 0x28
    d7ec:	e3a00f46 	mov	r0, #280	; 0x118
    d7f0:	e3a01032 	mov	r1, #50	; 0x32
    d7f4:	e3a02003 	mov	r2, #3
    d7f8:	e59f318c 	ldr	r3, [pc, #396]	; d98c <executeCmd+0x1d8>
    d7fc:	e7963003 	ldr	r3, [r6, r3]
    d800:	e583e000 	str	lr, [r3]
    d804:	e1c300f8 	strd	r0, [r3, #8]
    d808:	e583c004 	str	ip, [r3, #4]
    d80c:	e5832010 	str	r2, [r3, #16]
    d810:	ebfffae0 	bl	c398 <showWindow>
    d814:	e59f3174 	ldr	r3, [pc, #372]	; d990 <executeCmd+0x1dc>
    d818:	e59f1174 	ldr	r1, [pc, #372]	; d994 <executeCmd+0x1e0>
    d81c:	e7962003 	ldr	r2, [r6, r3]
    d820:	e59f3170 	ldr	r3, [pc, #368]	; d998 <executeCmd+0x1e4>
    d824:	e5920000 	ldr	r0, [r2]
    d828:	e08f3003 	add	r3, pc, r3
    d82c:	e58d0004 	str	r0, [sp, #4]
    d830:	e7960001 	ldr	r0, [r6, r1]
    d834:	e3a02008 	mov	r2, #8
    d838:	e590c000 	ldr	ip, [r0]
    d83c:	e3a01037 	mov	r1, #55	; 0x37
    d840:	e3a0000c 	mov	r0, #12
    d844:	e58dc000 	str	ip, [sp]
    d848:	ebfff63e 	bl	b148 <writesxy>
    d84c:	e58d5000 	str	r5, [sp]
    d850:	e1a00004 	mov	r0, r4
    d854:	e3a030a0 	mov	r3, #160	; 0xa0
    d858:	e3a02037 	mov	r2, #55	; 0x37
    d85c:	e3a01054 	mov	r1, #84	; 0x54
    d860:	ebfffefe 	bl	d460 <fillin>
    d864:	e3a05001 	mov	r5, #1
    d868:	e3a030a0 	mov	r3, #160	; 0xa0
    d86c:	e3a02037 	mov	r2, #55	; 0x37
    d870:	e3a01054 	mov	r1, #84	; 0x54
    d874:	e1a00004 	mov	r0, r4
    d878:	e58d5000 	str	r5, [sp]
    d87c:	ebfffef7 	bl	d460 <fillin>
    d880:	ebfffec0 	bl	d388 <waitButton>
    d884:	e2403001 	sub	r3, r0, #1
    d888:	e6ef3073 	uxtb	r3, r3
    d88c:	e3530001 	cmp	r3, #1
    d890:	8afffff4 	bhi	d868 <executeCmd+0xb4>
    d894:	e3500001 	cmp	r0, #1
    d898:	0a000001 	beq	d8a4 <executeCmd+0xf0>
    d89c:	e28dd048 	add	sp, sp, #72	; 0x48
    d8a0:	e8bd8070 	pop	{r4, r5, r6, pc}
    d8a4:	e59f30f0 	ldr	r3, [pc, #240]	; d99c <executeCmd+0x1e8>
    d8a8:	e1a01004 	mov	r1, r4
    d8ac:	e7965003 	ldr	r5, [r6, r3]
    d8b0:	e5950000 	ldr	r0, [r5]
    d8b4:	eb000d07 	bl	10cd8 <strcpy>
    d8b8:	e3a02039 	mov	r2, #57	; 0x39
    d8bc:	e3a01068 	mov	r1, #104	; 0x68
    d8c0:	e3a00090 	mov	r0, #144	; 0x90
    d8c4:	ebfff84d 	bl	ba00 <MostraIcone>
    d8c8:	eb0001f0 	bl	e090 <processCmd>
    d8cc:	e59f30cc 	ldr	r3, [pc, #204]	; d9a0 <executeCmd+0x1ec>
    d8d0:	e7964003 	ldr	r4, [r6, r3]
    d8d4:	ea000002 	b	d8e4 <executeCmd+0x130>
    d8d8:	ebfffeaa 	bl	d388 <waitButton>
    d8dc:	e3500040 	cmp	r0, #64	; 0x40
    d8e0:	0a000007 	beq	d904 <executeCmd+0x150>
    d8e4:	e5943000 	ldr	r3, [r4]
    d8e8:	e3530000 	cmp	r3, #0
    d8ec:	1afffff9 	bne	d8d8 <executeCmd+0x124>
    d8f0:	e3a02000 	mov	r2, #0
    d8f4:	e5953000 	ldr	r3, [r5]
    d8f8:	e5c32000 	strb	r2, [r3]
    d8fc:	e28dd048 	add	sp, sp, #72	; 0x48
    d900:	e8bd8070 	pop	{r4, r5, r6, pc}
    d904:	e5940000 	ldr	r0, [r4]
    d908:	e3500000 	cmp	r0, #0
    d90c:	0afffff7 	beq	d8f0 <executeCmd+0x13c>
    d910:	e3a03000 	mov	r3, #0
    d914:	e59f1088 	ldr	r1, [pc, #136]	; d9a4 <executeCmd+0x1f0>
    d918:	e59f2088 	ldr	r2, [pc, #136]	; d9a8 <executeCmd+0x1f4>
    d91c:	e7961001 	ldr	r1, [r6, r1]
    d920:	e5810000 	str	r0, [r1]
    d924:	e7961002 	ldr	r1, [r6, r2]
    d928:	e59f207c 	ldr	r2, [pc, #124]	; d9ac <executeCmd+0x1f8>
    d92c:	e591c000 	ldr	ip, [r1]
    d930:	e7960002 	ldr	r0, [r6, r2]
    d934:	e59f2074 	ldr	r2, [pc, #116]	; d9b0 <executeCmd+0x1fc>
    d938:	e580c000 	str	ip, [r0]
    d93c:	e7960002 	ldr	r0, [r6, r2]
    d940:	e59f206c 	ldr	r2, [pc, #108]	; d9b4 <executeCmd+0x200>
    d944:	e5803000 	str	r3, [r0]
    d948:	e7960002 	ldr	r0, [r6, r2]
    d94c:	e59f2064 	ldr	r2, [pc, #100]	; d9b8 <executeCmd+0x204>
    d950:	e5803000 	str	r3, [r0]
    d954:	e7960002 	ldr	r0, [r6, r2]
    d958:	e59f205c 	ldr	r2, [pc, #92]	; d9bc <executeCmd+0x208>
    d95c:	e5803000 	str	r3, [r0]
    d960:	e7962002 	ldr	r2, [r6, r2]
    d964:	e5813000 	str	r3, [r1]
    d968:	e5823000 	str	r3, [r2]
    d96c:	e3a02000 	mov	r2, #0
    d970:	e5843000 	str	r3, [r4]
    d974:	e5953000 	ldr	r3, [r5]
    d978:	e5c32000 	strb	r2, [r3]
    d97c:	eaffffde 	b	d8fc <executeCmd+0x148>
    d980:	000116a8 	andeq	r1, r1, r8, lsr #13
    d984:	000001fc 	strdeq	r0, [r0], -ip
    d988:	0000dfec 	andeq	sp, r0, ip, ror #31
    d98c:	000000a4 	andeq	r0, r0, r4, lsr #1
    d990:	00000080 	andeq	r0, r0, r0, lsl #1
    d994:	00000000 	andeq	r0, r0, r0
    d998:	0000dfa8 	andeq	sp, r0, r8, lsr #31
    d99c:	0000024c 	andeq	r0, r0, ip, asr #4
    d9a0:	00000200 	andeq	r0, r0, r0, lsl #4
    d9a4:	00000050 	andeq	r0, r0, r0, asr r0
    d9a8:	00000244 	andeq	r0, r0, r4, asr #4
    d9ac:	000000e4 	andeq	r0, r0, r4, ror #1
    d9b0:	0000004c 	andeq	r0, r0, ip, asr #32
    d9b4:	0000020c 	andeq	r0, r0, ip, lsl #4
    d9b8:	00000020 	andeq	r0, r0, r0, lsr #32
    d9bc:	000000f8 	strdeq	r0, [r0], -r8

0000d9c0 <new_menu>:
    d9c0:	e92d40f0 	push	{r4, r5, r6, r7, lr}
    d9c4:	e59f6244 	ldr	r6, [pc, #580]	; dc10 <new_menu+0x250>
    d9c8:	e59f3244 	ldr	r3, [pc, #580]	; dc14 <new_menu+0x254>
    d9cc:	e08f6006 	add	r6, pc, r6
    d9d0:	e7965003 	ldr	r5, [r6, r3]
    d9d4:	e24dd00c 	sub	sp, sp, #12
    d9d8:	e5953000 	ldr	r3, [r5]
    d9dc:	e2432030 	sub	r2, r3, #48	; 0x30
    d9e0:	e3520018 	cmp	r2, #24
    d9e4:	83a04050 	movhi	r4, #80	; 0x50
    d9e8:	83a05001 	movhi	r5, #1
    d9ec:	9a00000b 	bls	da20 <new_menu+0x60>
    d9f0:	e1530004 	cmp	r3, r4
    d9f4:	e2842018 	add	r2, r4, #24
    d9f8:	3a000001 	bcc	da04 <new_menu+0x44>
    d9fc:	e1530002 	cmp	r3, r2
    da00:	9a00003f 	bls	db04 <new_menu+0x144>
    da04:	e2855001 	add	r5, r5, #1
    da08:	e3550007 	cmp	r5, #7
    da0c:	e2844020 	add	r4, r4, #32
    da10:	1afffff6 	bne	d9f0 <new_menu+0x30>
    da14:	e3a00001 	mov	r0, #1
    da18:	e28dd00c 	add	sp, sp, #12
    da1c:	e8bd80f0 	pop	{r4, r5, r6, r7, pc}
    da20:	e3a04000 	mov	r4, #0
    da24:	e59f71ec 	ldr	r7, [pc, #492]	; dc18 <new_menu+0x258>
    da28:	e3a0302a 	mov	r3, #42	; 0x2a
    da2c:	e3a02080 	mov	r2, #128	; 0x80
    da30:	e3a01024 	mov	r1, #36	; 0x24
    da34:	e1a00004 	mov	r0, r4
    da38:	e58d7000 	str	r7, [sp]
    da3c:	ebfff682 	bl	b44c <FillRect>
    da40:	e1a00004 	mov	r0, r4
    da44:	e3a0302a 	mov	r3, #42	; 0x2a
    da48:	e3a02080 	mov	r2, #128	; 0x80
    da4c:	e3a01024 	mov	r1, #36	; 0x24
    da50:	e58d4000 	str	r4, [sp]
    da54:	ebfff6ba 	bl	b544 <DrawRect>
    da58:	e3a02008 	mov	r2, #8
    da5c:	e59f31b8 	ldr	r3, [pc, #440]	; dc1c <new_menu+0x25c>
    da60:	e1a00002 	mov	r0, r2
    da64:	e08f3003 	add	r3, pc, r3
    da68:	e3a01026 	mov	r1, #38	; 0x26
    da6c:	e88d0090 	stm	sp, {r4, r7}
    da70:	ebfff5b4 	bl	b148 <writesxy>
    da74:	e3a03032 	mov	r3, #50	; 0x32
    da78:	e1a00004 	mov	r0, r4
    da7c:	e1a01003 	mov	r1, r3
    da80:	e3a02080 	mov	r2, #128	; 0x80
    da84:	e58d4000 	str	r4, [sp]
    da88:	ebfff68f 	bl	b4cc <DrawLine>
    da8c:	e3a02008 	mov	r2, #8
    da90:	e59f3188 	ldr	r3, [pc, #392]	; dc20 <new_menu+0x260>
    da94:	e1a00002 	mov	r0, r2
    da98:	e08f3003 	add	r3, pc, r3
    da9c:	e3a01034 	mov	r1, #52	; 0x34
    daa0:	e88d0090 	stm	sp, {r4, r7}
    daa4:	ebfff5a7 	bl	b148 <writesxy>
    daa8:	e3a02008 	mov	r2, #8
    daac:	e59f3170 	ldr	r3, [pc, #368]	; dc24 <new_menu+0x264>
    dab0:	e1a00002 	mov	r0, r2
    dab4:	e08f3003 	add	r3, pc, r3
    dab8:	e3a01042 	mov	r1, #66	; 0x42
    dabc:	e88d0090 	stm	sp, {r4, r7}
    dac0:	ebfff5a0 	bl	b148 <writesxy>
    dac4:	e3a0304e 	mov	r3, #78	; 0x4e
    dac8:	e3a02080 	mov	r2, #128	; 0x80
    dacc:	e1a01003 	mov	r1, r3
    dad0:	e1a00004 	mov	r0, r4
    dad4:	e58d4000 	str	r4, [sp]
    dad8:	ebfff67b 	bl	b4cc <DrawLine>
    dadc:	e3a00001 	mov	r0, #1
    dae0:	ebfff85a 	bl	bc50 <VerifyTouchLcd>
    dae4:	e59f313c 	ldr	r3, [pc, #316]	; dc28 <new_menu+0x268>
    dae8:	e7963003 	ldr	r3, [r6, r3]
    daec:	e5933000 	ldr	r3, [r3]
    daf0:	e2432024 	sub	r2, r3, #36	; 0x24
    daf4:	e352002a 	cmp	r2, #42	; 0x2a
    daf8:	9a00002d 	bls	dbb4 <new_menu+0x1f4>
    dafc:	ebfffbcc 	bl	ca34 <redrawMain>
    db00:	eaffffc3 	b	da14 <new_menu+0x54>
    db04:	e3a03018 	mov	r3, #24
    db08:	e3a01004 	mov	r1, #4
    db0c:	e1a02003 	mov	r2, r3
    db10:	e1a00004 	mov	r0, r4
    db14:	ebfff748 	bl	b83c <InvertRect>
    db18:	e3a03018 	mov	r3, #24
    db1c:	e1a00004 	mov	r0, r4
    db20:	e1a02003 	mov	r2, r3
    db24:	e3a01004 	mov	r1, #4
    db28:	ebfff743 	bl	b83c <InvertRect>
    db2c:	e3550004 	cmp	r5, #4
    db30:	0a00000f 	beq	db74 <new_menu+0x1b4>
    db34:	e3550006 	cmp	r5, #6
    db38:	0a000003 	beq	db4c <new_menu+0x18c>
    db3c:	e3550001 	cmp	r5, #1
    db40:	1affffed 	bne	dafc <new_menu+0x13c>
    db44:	ebffff1a 	bl	d7b4 <executeCmd>
    db48:	eaffffeb 	b	dafc <new_menu+0x13c>
    db4c:	e59f00d8 	ldr	r0, [pc, #216]	; dc2c <new_menu+0x26c>
    db50:	e3a02000 	mov	r2, #0
    db54:	e08f0000 	add	r0, pc, r0
    db58:	e28000f8 	add	r0, r0, #248	; 0xf8
    db5c:	e3a0100c 	mov	r1, #12
    db60:	ebfff905 	bl	bf7c <message>
    db64:	e3500004 	cmp	r0, #4
    db68:	03a00000 	moveq	r0, #0
    db6c:	0affffa9 	beq	da18 <new_menu+0x58>
    db70:	eaffffe1 	b	dafc <new_menu+0x13c>
    db74:	e59f30b4 	ldr	r3, [pc, #180]	; dc30 <new_menu+0x270>
    db78:	e59f10b4 	ldr	r1, [pc, #180]	; dc34 <new_menu+0x274>
    db7c:	e7964003 	ldr	r4, [r6, r3]
    db80:	e08f1001 	add	r1, pc, r1
    db84:	e28110f0 	add	r1, r1, #240	; 0xf0
    db88:	e5940000 	ldr	r0, [r4]
    db8c:	eb000c51 	bl	10cd8 <strcpy>
    db90:	e3a02039 	mov	r2, #57	; 0x39
    db94:	e3a01068 	mov	r1, #104	; 0x68
    db98:	e3a00090 	mov	r0, #144	; 0x90
    db9c:	ebfff797 	bl	ba00 <MostraIcone>
    dba0:	eb00013a 	bl	e090 <processCmd>
    dba4:	e3a02000 	mov	r2, #0
    dba8:	e5943000 	ldr	r3, [r4]
    dbac:	e5c32000 	strb	r2, [r3]
    dbb0:	eaffffd1 	b	dafc <new_menu+0x13c>
    dbb4:	e5952000 	ldr	r2, [r5]
    dbb8:	e3520080 	cmp	r2, #128	; 0x80
    dbbc:	8affffce 	bhi	dafc <new_menu+0x13c>
    dbc0:	e2432026 	sub	r2, r3, #38	; 0x26
    dbc4:	e352000c 	cmp	r2, #12
    dbc8:	9a00000a 	bls	dbf8 <new_menu+0x238>
    dbcc:	e2433034 	sub	r3, r3, #52	; 0x34
    dbd0:	e353000c 	cmp	r3, #12
    dbd4:	93a01034 	movls	r1, #52	; 0x34
    dbd8:	9a000007 	bls	dbfc <new_menu+0x23c>
    dbdc:	e59f0054 	ldr	r0, [pc, #84]	; dc38 <new_menu+0x278>
    dbe0:	e1a02004 	mov	r2, r4
    dbe4:	e08f0000 	add	r0, pc, r0
    dbe8:	e3a01040 	mov	r1, #64	; 0x40
    dbec:	e2800f42 	add	r0, r0, #264	; 0x108
    dbf0:	ebfff8e1 	bl	bf7c <message>
    dbf4:	eaffffc0 	b	dafc <new_menu+0x13c>
    dbf8:	e3a01026 	mov	r1, #38	; 0x26
    dbfc:	e3a0300c 	mov	r3, #12
    dc00:	e3a02078 	mov	r2, #120	; 0x78
    dc04:	e3a00004 	mov	r0, #4
    dc08:	ebfff70b 	bl	b83c <InvertRect>
    dc0c:	eaffffba 	b	dafc <new_menu+0x13c>
    dc10:	000114ac 	andeq	r1, r1, ip, lsr #9
    dc14:	00000218 	andeq	r0, r0, r8, lsl r2
    dc18:	0000ffff 	strdeq	pc, [r0], -pc	; <UNPREDICTABLE>
    dc1c:	0000dd78 	andeq	sp, r0, r8, ror sp
    dc20:	0000dd4c 	andeq	sp, r0, ip, asr #26
    dc24:	0000dd38 	andeq	sp, r0, r8, lsr sp
    dc28:	00000084 	andeq	r0, r0, r4, lsl #1
    dc2c:	0000d4a4 	andeq	sp, r0, r4, lsr #9
    dc30:	0000024c 	andeq	r0, r0, ip, asr #4
    dc34:	0000d478 	andeq	sp, r0, r8, ror r4
    dc38:	0000d414 	andeq	sp, r0, r4, lsl r4

0000dc3c <editortela>:
    dc3c:	e92d4070 	push	{r4, r5, r6, lr}
    dc40:	e3a00001 	mov	r0, #1
    dc44:	e59f4114 	ldr	r4, [pc, #276]	; dd60 <editortela+0x124>
    dc48:	ebfff800 	bl	bc50 <VerifyTouchLcd>
    dc4c:	e59f3110 	ldr	r3, [pc, #272]	; dd64 <editortela+0x128>
    dc50:	e08f4004 	add	r4, pc, r4
    dc54:	e7943003 	ldr	r3, [r4, r3]
    dc58:	e5933000 	ldr	r3, [r3]
    dc5c:	e353001e 	cmp	r3, #30
    dc60:	9a000038 	bls	dd48 <editortela+0x10c>
    dc64:	e59f20fc 	ldr	r2, [pc, #252]	; dd68 <editortela+0x12c>
    dc68:	e3530087 	cmp	r3, #135	; 0x87
    dc6c:	e7942002 	ldr	r2, [r4, r2]
    dc70:	83a01088 	movhi	r1, #136	; 0x88
    dc74:	e592c000 	ldr	ip, [r2]
    dc78:	93a01068 	movls	r1, #104	; 0x68
    dc7c:	e24c0028 	sub	r0, ip, #40	; 0x28
    dc80:	83a05018 	movhi	r5, #24
    dc84:	93a05010 	movls	r5, #16
    dc88:	e35000e0 	cmp	r0, #224	; 0xe0
    dc8c:	93a02001 	movls	r2, #1
    dc90:	83a02000 	movhi	r2, #0
    dc94:	e3530027 	cmp	r3, #39	; 0x27
    dc98:	93a02000 	movls	r2, #0
    dc9c:	e3520000 	cmp	r2, #0
    dca0:	1a000001 	bne	dcac <editortela+0x70>
    dca4:	e3a00001 	mov	r0, #1
    dca8:	e8bd8070 	pop	{r4, r5, r6, pc}
    dcac:	e3a030ec 	mov	r3, #236	; 0xec
    dcb0:	e3a02001 	mov	r2, #1
    dcb4:	e15c0003 	cmp	ip, r3
    dcb8:	e6ef0073 	uxtb	r0, r3
    dcbc:	e282e001 	add	lr, r2, #1
    dcc0:	e243301c 	sub	r3, r3, #28
    dcc4:	2a000021 	bcs	dd50 <editortela+0x114>
    dcc8:	e3530028 	cmp	r3, #40	; 0x28
    dccc:	e6ef207e 	uxtb	r2, lr
    dcd0:	1afffff7 	bne	dcb4 <editortela+0x78>
    dcd4:	e1a00003 	mov	r0, r3
    dcd8:	e3a0200a 	mov	r2, #10
    dcdc:	e3a0cd06 	mov	ip, #384	; 0x180
    dce0:	e59f3084 	ldr	r3, [pc, #132]	; dd6c <editortela+0x130>
    dce4:	e105c582 	smlabb	r5, r2, r5, ip
    dce8:	e7943003 	ldr	r3, [r4, r3]
    dcec:	e5933000 	ldr	r3, [r3]
    dcf0:	e7d32005 	ldrb	r2, [r3, r5]
    dcf4:	e0835005 	add	r5, r3, r5
    dcf8:	e3520000 	cmp	r2, #0
    dcfc:	0affffe8 	beq	dca4 <editortela+0x68>
    dd00:	e3a03018 	mov	r3, #24
    dd04:	e1a02003 	mov	r2, r3
    dd08:	ebfff6cb 	bl	b83c <InvertRect>
    dd0c:	e59f305c 	ldr	r3, [pc, #92]	; dd70 <editortela+0x134>
    dd10:	e1a01005 	mov	r1, r5
    dd14:	e7944003 	ldr	r4, [r4, r3]
    dd18:	e5940000 	ldr	r0, [r4]
    dd1c:	eb000bed 	bl	10cd8 <strcpy>
    dd20:	e3a02039 	mov	r2, #57	; 0x39
    dd24:	e3a01068 	mov	r1, #104	; 0x68
    dd28:	e3a00090 	mov	r0, #144	; 0x90
    dd2c:	ebfff733 	bl	ba00 <MostraIcone>
    dd30:	eb0000d6 	bl	e090 <processCmd>
    dd34:	e3a02000 	mov	r2, #0
    dd38:	e5943000 	ldr	r3, [r4]
    dd3c:	e5c32000 	strb	r2, [r3]
    dd40:	ebfffb3b 	bl	ca34 <redrawMain>
    dd44:	eaffffd6 	b	dca4 <editortela+0x68>
    dd48:	e8bd4070 	pop	{r4, r5, r6, lr}
    dd4c:	eaffff1b 	b	d9c0 <new_menu>
    dd50:	e2855008 	add	r5, r5, #8
    dd54:	e0452002 	sub	r2, r5, r2
    dd58:	e20250ff 	and	r5, r2, #255	; 0xff
    dd5c:	eaffffdd 	b	dcd8 <editortela+0x9c>
    dd60:	00011228 	andeq	r1, r1, r8, lsr #4
    dd64:	00000084 	andeq	r0, r0, r4, lsl #1
    dd68:	00000218 	andeq	r0, r0, r8, lsl r2
    dd6c:	0000001c 	andeq	r0, r0, ip, lsl r0
    dd70:	0000024c 	andeq	r0, r0, ip, asr #4

0000dd74 <startMGI>:
    dd74:	e92d4ff0 	push	{r4, r5, r6, r7, r8, r9, sl, fp, lr}
    dd78:	e3e02027 	mvn	r2, #39	; 0x27
    dd7c:	e3a06000 	mov	r6, #0
    dd80:	e3a01002 	mov	r1, #2
    dd84:	e59f429c 	ldr	r4, [pc, #668]	; e028 <startMGI+0x2b4>
    dd88:	e59f329c 	ldr	r3, [pc, #668]	; e02c <startMGI+0x2b8>
    dd8c:	e08f4004 	add	r4, pc, r4
    dd90:	e7945003 	ldr	r5, [r4, r3]
    dd94:	e24dd01c 	sub	sp, sp, #28
    dd98:	e1a00005 	mov	r0, r5
    dd9c:	e5c52001 	strb	r2, [r5, #1]
    dda0:	e5c56002 	strb	r6, [r5, #2]
    dda4:	e5c51000 	strb	r1, [r5]
    dda8:	eb001ad6 	bl	14908 <commVDG>
    ddac:	e59f327c 	ldr	r3, [pc, #636]	; e030 <startMGI+0x2bc>
    ddb0:	e1a02006 	mov	r2, r6
    ddb4:	e7946003 	ldr	r6, [r4, r3]
    ddb8:	e596c000 	ldr	ip, [r6]
    ddbc:	e28c0040 	add	r0, ip, #64	; 0x40
    ddc0:	e1a07000 	mov	r7, r0
    ddc4:	e28ce020 	add	lr, ip, #32
    ddc8:	e28ccd06 	add	ip, ip, #384	; 0x180
    ddcc:	e1a0100c 	mov	r1, ip
    ddd0:	e1a03000 	mov	r3, r0
    ddd4:	e4ce2001 	strb	r2, [lr], #1
    ddd8:	e280000a 	add	r0, r0, #10
    dddc:	e4c32001 	strb	r2, [r3], #1
    dde0:	e1530000 	cmp	r3, r0
    dde4:	e4c12001 	strb	r2, [r1], #1
    dde8:	1afffffb 	bne	dddc <startMGI+0x68>
    ddec:	e157000e 	cmp	r7, lr
    ddf0:	e1a00003 	mov	r0, r3
    ddf4:	e28cc00a 	add	ip, ip, #10
    ddf8:	1afffff3 	bne	ddcc <startMGI+0x58>
    ddfc:	e3a08002 	mov	r8, #2
    de00:	e3a0701f 	mov	r7, #31
    de04:	e3a0e014 	mov	lr, #20
    de08:	e3a0c050 	mov	ip, #80	; 0x50
    de0c:	e3a00f46 	mov	r0, #280	; 0x118
    de10:	e3a01064 	mov	r1, #100	; 0x64
    de14:	e59f9218 	ldr	r9, [pc, #536]	; e034 <startMGI+0x2c0>
    de18:	e59f3218 	ldr	r3, [pc, #536]	; e038 <startMGI+0x2c4>
    de1c:	e7949009 	ldr	r9, [r4, r9]
    de20:	e59fa214 	ldr	sl, [pc, #532]	; e03c <startMGI+0x2c8>
    de24:	e5c92000 	strb	r2, [r9]
    de28:	e7949003 	ldr	r9, [r4, r3]
    de2c:	e59f320c 	ldr	r3, [pc, #524]	; e040 <startMGI+0x2cc>
    de30:	e5898000 	str	r8, [r9]
    de34:	e7948003 	ldr	r8, [r4, r3]
    de38:	e59f3204 	ldr	r3, [pc, #516]	; e044 <startMGI+0x2d0>
    de3c:	e588a000 	str	sl, [r8]
    de40:	e794a003 	ldr	sl, [r4, r3]
    de44:	e59f31fc 	ldr	r3, [pc, #508]	; e048 <startMGI+0x2d4>
    de48:	e58a7000 	str	r7, [sl]
    de4c:	e7947003 	ldr	r7, [r4, r3]
    de50:	e59f31f4 	ldr	r3, [pc, #500]	; e04c <startMGI+0x2d8>
    de54:	e5c72000 	strb	r2, [r7]
    de58:	e7943003 	ldr	r3, [r4, r3]
    de5c:	e28d700c 	add	r7, sp, #12
    de60:	e583e000 	str	lr, [r3]
    de64:	e583c004 	str	ip, [r3, #4]
    de68:	e1c300f8 	strd	r0, [r3, #8]
    de6c:	e5832010 	str	r2, [r3, #16]
    de70:	ebfff948 	bl	c398 <showWindow>
    de74:	e5983000 	ldr	r3, [r8]
    de78:	e59a2000 	ldr	r2, [sl]
    de7c:	e58d3000 	str	r3, [sp]
    de80:	e59f31c8 	ldr	r3, [pc, #456]	; e050 <startMGI+0x2dc>
    de84:	e58d2004 	str	r2, [sp, #4]
    de88:	e08f3003 	add	r3, pc, r3
    de8c:	e3a02010 	mov	r2, #16
    de90:	e3a01055 	mov	r1, #85	; 0x55
    de94:	e3a0008c 	mov	r0, #140	; 0x8c
    de98:	ebfff4aa 	bl	b148 <writesxy>
    de9c:	e5983000 	ldr	r3, [r8]
    dea0:	e59a2000 	ldr	r2, [sl]
    dea4:	e58d3000 	str	r3, [sp]
    dea8:	e59f31a4 	ldr	r3, [pc, #420]	; e054 <startMGI+0x2e0>
    deac:	e58d2004 	str	r2, [sp, #4]
    deb0:	e08f3003 	add	r3, pc, r3
    deb4:	e3a02008 	mov	r2, #8
    deb8:	e3a01069 	mov	r1, #105	; 0x69
    debc:	e3a0004a 	mov	r0, #74	; 0x4a
    dec0:	ebfff4a0 	bl	b148 <writesxy>
    dec4:	e5983000 	ldr	r3, [r8]
    dec8:	e59a2000 	ldr	r2, [sl]
    decc:	e58d3000 	str	r3, [sp]
    ded0:	e59f3180 	ldr	r3, [pc, #384]	; e058 <startMGI+0x2e4>
    ded4:	e58d2004 	str	r2, [sp, #4]
    ded8:	e08f3003 	add	r3, pc, r3
    dedc:	e3a02008 	mov	r2, #8
    dee0:	e3a010a6 	mov	r1, #166	; 0xa6
    dee4:	e3a0005e 	mov	r0, #94	; 0x5e
    dee8:	ebfff496 	bl	b148 <writesxy>
    deec:	e5983000 	ldr	r3, [r8]
    def0:	e59a2000 	ldr	r2, [sl]
    def4:	e58d3000 	str	r3, [sp]
    def8:	e59f315c 	ldr	r3, [pc, #348]	; e05c <startMGI+0x2e8>
    defc:	e58d2004 	str	r2, [sp, #4]
    df00:	e08f3003 	add	r3, pc, r3
    df04:	e3a02008 	mov	r2, #8
    df08:	e3a0109b 	mov	r1, #155	; 0x9b
    df0c:	e3a00056 	mov	r0, #86	; 0x56
    df10:	ebfff48c 	bl	b148 <writesxy>
    df14:	e596b000 	ldr	fp, [r6]
    df18:	e59f2140 	ldr	r2, [pc, #320]	; e060 <startMGI+0x2ec>
    df1c:	e59f1140 	ldr	r1, [pc, #320]	; e064 <startMGI+0x2f0>
    df20:	e08f2002 	add	r2, pc, r2
    df24:	e08f1001 	add	r1, pc, r1
    df28:	e28bb010 	add	fp, fp, #16
    df2c:	e1a00007 	mov	r0, r7
    df30:	eb00077b 	bl	fd24 <_strcat>
    df34:	e1a0100b 	mov	r1, fp
    df38:	e1a00007 	mov	r0, r7
    df3c:	ebfff24c 	bl	a874 <loadFile>
    df40:	e5983000 	ldr	r3, [r8]
    df44:	e59a2000 	ldr	r2, [sl]
    df48:	e58d3000 	str	r3, [sp]
    df4c:	e59f3114 	ldr	r3, [pc, #276]	; e068 <startMGI+0x2f4>
    df50:	e58d2004 	str	r2, [sp, #4]
    df54:	e08f3003 	add	r3, pc, r3
    df58:	e3a02008 	mov	r2, #8
    df5c:	e3a0109b 	mov	r1, #155	; 0x9b
    df60:	e3a00056 	mov	r0, #86	; 0x56
    df64:	ebfff477 	bl	b148 <writesxy>
    df68:	e5966000 	ldr	r6, [r6]
    df6c:	e59f20f8 	ldr	r2, [pc, #248]	; e06c <startMGI+0x2f8>
    df70:	e59f10f8 	ldr	r1, [pc, #248]	; e070 <startMGI+0x2fc>
    df74:	e08f2002 	add	r2, pc, r2
    df78:	e08f1001 	add	r1, pc, r1
    df7c:	e1a00007 	mov	r0, r7
    df80:	e2866e41 	add	r6, r6, #1040	; 0x410
    df84:	eb000766 	bl	fd24 <_strcat>
    df88:	e1a01006 	mov	r1, r6
    df8c:	e1a00007 	mov	r0, r7
    df90:	ebfff237 	bl	a874 <loadFile>
    df94:	ebfffaa6 	bl	ca34 <redrawMain>
    df98:	ebffff27 	bl	dc3c <editortela>
    df9c:	e3500000 	cmp	r0, #0
    dfa0:	1afffffc 	bne	df98 <startMGI+0x224>
    dfa4:	e3a06001 	mov	r6, #1
    dfa8:	e59f30c4 	ldr	r3, [pc, #196]	; e074 <startMGI+0x300>
    dfac:	e5896000 	str	r6, [r9]
    dfb0:	e7942003 	ldr	r2, [r4, r3]
    dfb4:	e59f30bc 	ldr	r3, [pc, #188]	; e078 <startMGI+0x304>
    dfb8:	e5820000 	str	r0, [r2]
    dfbc:	e7942003 	ldr	r2, [r4, r3]
    dfc0:	e59f30b4 	ldr	r3, [pc, #180]	; e07c <startMGI+0x308>
    dfc4:	e5820000 	str	r0, [r2]
    dfc8:	e7942003 	ldr	r2, [r4, r3]
    dfcc:	e59f30ac 	ldr	r3, [pc, #172]	; e080 <startMGI+0x30c>
    dfd0:	e5820000 	str	r0, [r2]
    dfd4:	e7942003 	ldr	r2, [r4, r3]
    dfd8:	e59f30a4 	ldr	r3, [pc, #164]	; e084 <startMGI+0x310>
    dfdc:	e5820000 	str	r0, [r2]
    dfe0:	e7942003 	ldr	r2, [r4, r3]
    dfe4:	e59f309c 	ldr	r3, [pc, #156]	; e088 <startMGI+0x314>
    dfe8:	e5820000 	str	r0, [r2]
    dfec:	e7942003 	ldr	r2, [r4, r3]
    dff0:	e59f3094 	ldr	r3, [pc, #148]	; e08c <startMGI+0x318>
    dff4:	e5820000 	str	r0, [r2]
    dff8:	e7943003 	ldr	r3, [r4, r3]
    dffc:	e5930000 	ldr	r0, [r3]
    e000:	ebfffa75 	bl	c9dc <clearScr>
    e004:	e3a02002 	mov	r2, #2
    e008:	e3e03027 	mvn	r3, #39	; 0x27
    e00c:	e1a00005 	mov	r0, r5
    e010:	e5c56002 	strb	r6, [r5, #2]
    e014:	e5c52000 	strb	r2, [r5]
    e018:	e5c53001 	strb	r3, [r5, #1]
    e01c:	eb001a39 	bl	14908 <commVDG>
    e020:	e28dd01c 	add	sp, sp, #28
    e024:	e8bd8ff0 	pop	{r4, r5, r6, r7, r8, r9, sl, fp, pc}
    e028:	000110ec 	andeq	r1, r1, ip, ror #1
    e02c:	00000164 	andeq	r0, r0, r4, ror #2
    e030:	0000001c 	andeq	r0, r0, ip, lsl r0
    e034:	00000058 	andeq	r0, r0, r8, asr r0
    e038:	00000194 	muleq	r0, r4, r1
    e03c:	0000ffff 	strdeq	pc, [r0], -pc	; <UNPREDICTABLE>
    e040:	00000000 	andeq	r0, r0, r0
    e044:	00000080 	andeq	r0, r0, r0, lsl #1
    e048:	000001fc 	strdeq	r0, [r0], -ip
    e04c:	000000a4 	andeq	r0, r0, r4, lsr #1
    e050:	0000d9ac 	andeq	sp, r0, ip, lsr #19
    e054:	0000d944 	andeq	sp, r0, r4, asr #18
    e058:	0000d930 	andeq	sp, r0, r0, lsr r9
    e05c:	0000d918 	andeq	sp, r0, r8, lsl r9
    e060:	0000d908 	andeq	sp, r0, r8, lsl #18
    e064:	0000d90c 	andeq	sp, r0, ip, lsl #18
    e068:	0000d8e4 	andeq	sp, r0, r4, ror #17
    e06c:	0000d8d4 	ldrdeq	sp, [r0], -r4
    e070:	0000d8d8 	ldrdeq	sp, [r0], -r8
    e074:	0000004c 	andeq	r0, r0, ip, asr #32
    e078:	0000020c 	andeq	r0, r0, ip, lsl #4
    e07c:	00000020 	andeq	r0, r0, r0, lsr #32
    e080:	000000f8 	strdeq	r0, [r0], -r8
    e084:	00000200 	andeq	r0, r0, r0, lsl #4
    e088:	00000244 	andeq	r0, r0, r4, asr #4
    e08c:	00000040 	andeq	r0, r0, r0, asr #32

0000e090 <processCmd>:
    e090:	e92d4ff0 	push	{r4, r5, r6, r7, r8, r9, sl, fp, lr}
    e094:	e3a07000 	mov	r7, #0
    e098:	e59f4da0 	ldr	r4, [pc, #3488]	; ee40 <processCmd+0xdb0>
    e09c:	e59f3da0 	ldr	r3, [pc, #3488]	; ee44 <processCmd+0xdb4>
    e0a0:	e08f4004 	add	r4, pc, r4
    e0a4:	e7943003 	ldr	r3, [r4, r3]
    e0a8:	e24ddf4b 	sub	sp, sp, #300	; 0x12c
    e0ac:	e5931000 	ldr	r1, [r3]
    e0b0:	e5cd7020 	strb	r7, [sp, #32]
    e0b4:	e5cd7040 	strb	r7, [sp, #64]	; 0x40
    e0b8:	e5d13000 	ldrb	r3, [r1]
    e0bc:	e1530007 	cmp	r3, r7
    e0c0:	0a00003c 	beq	e1b8 <processCmd+0x128>
    e0c4:	e1a02007 	mov	r2, r7
    e0c8:	e1a00007 	mov	r0, r7
    e0cc:	ea00000a 	b	e0fc <processCmd+0x6c>
    e0d0:	e243c061 	sub	ip, r3, #97	; 0x61
    e0d4:	e35c0019 	cmp	ip, #25
    e0d8:	92433020 	subls	r3, r3, #32
    e0dc:	e28dcf4a 	add	ip, sp, #296	; 0x128
    e0e0:	96ef3073 	uxtbls	r3, r3
    e0e4:	e08cc002 	add	ip, ip, r2
    e0e8:	e54c30e8 	strb	r3, [ip, #-232]	; 0xffffff18
    e0ec:	e5f13001 	ldrb	r3, [r1, #1]!
    e0f0:	e2822001 	add	r2, r2, #1
    e0f4:	e3530000 	cmp	r3, #0
    e0f8:	0a000014 	beq	e150 <processCmd+0xc0>
    e0fc:	e3500000 	cmp	r0, #0
    e100:	1afffff2 	bne	e0d0 <processCmd+0x40>
    e104:	e3530020 	cmp	r3, #32
    e108:	0a000007 	beq	e12c <processCmd+0x9c>
    e10c:	e243c061 	sub	ip, r3, #97	; 0x61
    e110:	e35c0019 	cmp	ip, #25
    e114:	92433020 	subls	r3, r3, #32
    e118:	e28dcf4a 	add	ip, sp, #296	; 0x128
    e11c:	96ef3073 	uxtbls	r3, r3
    e120:	e08cc002 	add	ip, ip, r2
    e124:	e54c3108 	strb	r3, [ip, #-264]	; 0xfffffef8
    e128:	eaffffef 	b	e0ec <processCmd+0x5c>
    e12c:	e28d3f4a 	add	r3, sp, #296	; 0x128
    e130:	e0833002 	add	r3, r3, r2
    e134:	e5430108 	strb	r0, [r3, #-264]	; 0xfffffef8
    e138:	e5f13001 	ldrb	r3, [r1, #1]!
    e13c:	e1a07002 	mov	r7, r2
    e140:	e3530000 	cmp	r3, #0
    e144:	e1a02000 	mov	r2, r0
    e148:	e3a00001 	mov	r0, #1
    e14c:	1affffea 	bne	e0fc <processCmd+0x6c>
    e150:	e3500000 	cmp	r0, #0
    e154:	0a000018 	beq	e1bc <processCmd+0x12c>
    e158:	e28d1f4a 	add	r1, sp, #296	; 0x128
    e15c:	e0818002 	add	r8, r1, r2
    e160:	e3520000 	cmp	r2, #0
    e164:	e54830e8 	strb	r3, [r8, #-232]	; 0xffffff18
    e168:	0a0000bd 	beq	e464 <processCmd+0x3d4>
    e16c:	e1a01003 	mov	r1, r3
    e170:	e1a06003 	mov	r6, r3
    e174:	e28de040 	add	lr, sp, #64	; 0x40
    e178:	e28da060 	add	sl, sp, #96	; 0x60
    e17c:	e4dec001 	ldrb	ip, [lr], #1
    e180:	e35c0020 	cmp	ip, #32
    e184:	01a06000 	moveq	r6, r0
    e188:	0a000005 	beq	e1a4 <processCmd+0x114>
    e18c:	e28d9f4a 	add	r9, sp, #296	; 0x128
    e190:	e3560000 	cmp	r6, #0
    e194:	e0899001 	add	r9, r9, r1
    e198:	07cac003 	strbeq	ip, [sl, r3]
    e19c:	1549c118 	strbne	ip, [r9, #-280]	; 0xfffffee8
    e1a0:	12811001 	addne	r1, r1, #1
    e1a4:	e2833001 	add	r3, r3, #1
    e1a8:	e1520003 	cmp	r2, r3
    e1ac:	1afffff2 	bne	e17c <processCmd+0xec>
    e1b0:	e1a09002 	mov	r9, r2
    e1b4:	ea000007 	b	e1d8 <processCmd+0x148>
    e1b8:	e1a02003 	mov	r2, r3
    e1bc:	e1a09002 	mov	r9, r2
    e1c0:	e28d3f4a 	add	r3, sp, #296	; 0x128
    e1c4:	e3a01000 	mov	r1, #0
    e1c8:	e1a07009 	mov	r7, r9
    e1cc:	e1a08003 	mov	r8, r3
    e1d0:	e0832002 	add	r2, r3, r2
    e1d4:	e5421108 	strb	r1, [r2, #-264]	; 0xfffffef8
    e1d8:	e3a03000 	mov	r3, #0
    e1dc:	e5dd2020 	ldrb	r2, [sp, #32]
    e1e0:	e28d0f4a 	add	r0, sp, #296	; 0x128
    e1e4:	e0801001 	add	r1, r0, r1
    e1e8:	e1520003 	cmp	r2, r3
    e1ec:	e5413118 	strb	r3, [r1, #-280]	; 0xfffffee8
    e1f0:	e54830c8 	strb	r3, [r8, #-200]	; 0xffffff38
    e1f4:	1a000001 	bne	e200 <processCmd+0x170>
    e1f8:	e28ddf4b 	add	sp, sp, #300	; 0x12c
    e1fc:	e8bd8ff0 	pop	{r4, r5, r6, r7, r8, r9, sl, fp, pc}
    e200:	e59f1c40 	ldr	r1, [pc, #3136]	; ee48 <processCmd+0xdb8>
    e204:	e28d8020 	add	r8, sp, #32
    e208:	e1a00008 	mov	r0, r8
    e20c:	e08f1001 	add	r1, pc, r1
    e210:	eb000aa4 	bl	10ca8 <strcmp>
    e214:	e247a003 	sub	sl, r7, #3
    e218:	e16faf1a 	clz	sl, sl
    e21c:	e3500000 	cmp	r0, #0
    e220:	03570003 	cmpeq	r7, #3
    e224:	e1a0a2aa 	lsr	sl, sl, #5
    e228:	0a000090 	beq	e470 <processCmd+0x3e0>
    e22c:	e59f1c18 	ldr	r1, [pc, #3096]	; ee4c <processCmd+0xdbc>
    e230:	e1a00008 	mov	r0, r8
    e234:	e08f1001 	add	r1, pc, r1
    e238:	eb000a9a 	bl	10ca8 <strcmp>
    e23c:	e3570005 	cmp	r7, #5
    e240:	03500000 	cmpeq	r0, #0
    e244:	0a000089 	beq	e470 <processCmd+0x3e0>
    e248:	e59f1c00 	ldr	r1, [pc, #3072]	; ee50 <processCmd+0xdc0>
    e24c:	e1a00008 	mov	r0, r8
    e250:	e08f1001 	add	r1, pc, r1
    e254:	eb000a93 	bl	10ca8 <strcmp>
    e258:	e3500000 	cmp	r0, #0
    e25c:	1a000070 	bne	e424 <processCmd+0x394>
    e260:	e3570003 	cmp	r7, #3
    e264:	0a000086 	beq	e484 <processCmd+0x3f4>
    e268:	e59f1be4 	ldr	r1, [pc, #3044]	; ee54 <processCmd+0xdc4>
    e26c:	e1a00008 	mov	r0, r8
    e270:	e08f1001 	add	r1, pc, r1
    e274:	eb000a8b 	bl	10ca8 <strcmp>
    e278:	e59f1bd8 	ldr	r1, [pc, #3032]	; ee58 <processCmd+0xdc8>
    e27c:	e1a00008 	mov	r0, r8
    e280:	e08f1001 	add	r1, pc, r1
    e284:	eb000a87 	bl	10ca8 <strcmp>
    e288:	e2506000 	subs	r6, r0, #0
    e28c:	1a000083 	bne	e4a0 <processCmd+0x410>
    e290:	e3570002 	cmp	r7, #2
    e294:	0a0000d7 	beq	e5f8 <processCmd+0x568>
    e298:	e59f1bbc 	ldr	r1, [pc, #3004]	; ee5c <processCmd+0xdcc>
    e29c:	e1a00008 	mov	r0, r8
    e2a0:	e08f1001 	add	r1, pc, r1
    e2a4:	eb000a7f 	bl	10ca8 <strcmp>
    e2a8:	e59f1bb0 	ldr	r1, [pc, #2992]	; ee60 <processCmd+0xdd0>
    e2ac:	e1a00008 	mov	r0, r8
    e2b0:	e08f1001 	add	r1, pc, r1
    e2b4:	eb000a7b 	bl	10ca8 <strcmp>
    e2b8:	e3500000 	cmp	r0, #0
    e2bc:	01a0000a 	moveq	r0, sl
    e2c0:	13a00000 	movne	r0, #0
    e2c4:	e3500000 	cmp	r0, #0
    e2c8:	1a0001d9 	bne	ea34 <processCmd+0x9a4>
    e2cc:	e59f1b90 	ldr	r1, [pc, #2960]	; ee64 <processCmd+0xdd4>
    e2d0:	e1a00008 	mov	r0, r8
    e2d4:	e08f1001 	add	r1, pc, r1
    e2d8:	eb000a72 	bl	10ca8 <strcmp>
    e2dc:	e3500000 	cmp	r0, #0
    e2e0:	1a0000b8 	bne	e5c8 <processCmd+0x538>
    e2e4:	e3570002 	cmp	r7, #2
    e2e8:	0a0001d6 	beq	ea48 <processCmd+0x9b8>
    e2ec:	e59f1b74 	ldr	r1, [pc, #2932]	; ee68 <processCmd+0xdd8>
    e2f0:	e1a00008 	mov	r0, r8
    e2f4:	e08f1001 	add	r1, pc, r1
    e2f8:	eb000a6a 	bl	10ca8 <strcmp>
    e2fc:	e3500000 	cmp	r0, #0
    e300:	1a0000a5 	bne	e59c <processCmd+0x50c>
    e304:	e59f1b60 	ldr	r1, [pc, #2912]	; ee6c <processCmd+0xddc>
    e308:	e1a00008 	mov	r0, r8
    e30c:	e08f1001 	add	r1, pc, r1
    e310:	eb000a64 	bl	10ca8 <strcmp>
    e314:	e59f1b54 	ldr	r1, [pc, #2900]	; ee70 <processCmd+0xde0>
    e318:	e1a00008 	mov	r0, r8
    e31c:	e08f1001 	add	r1, pc, r1
    e320:	eb000a60 	bl	10ca8 <strcmp>
    e324:	e59f1b48 	ldr	r1, [pc, #2888]	; ee74 <processCmd+0xde4>
    e328:	e1a00008 	mov	r0, r8
    e32c:	e08f1001 	add	r1, pc, r1
    e330:	eb000a5c 	bl	10ca8 <strcmp>
    e334:	e3500000 	cmp	r0, #0
    e338:	1a00006b 	bne	e4ec <processCmd+0x45c>
    e33c:	e3570004 	cmp	r7, #4
    e340:	0a000070 	beq	e508 <processCmd+0x478>
    e344:	e59f1b2c 	ldr	r1, [pc, #2860]	; ee78 <processCmd+0xde8>
    e348:	e1a00008 	mov	r0, r8
    e34c:	e08f1001 	add	r1, pc, r1
    e350:	eb000a54 	bl	10ca8 <strcmp>
    e354:	e59f1b20 	ldr	r1, [pc, #2848]	; ee7c <processCmd+0xdec>
    e358:	e1a00008 	mov	r0, r8
    e35c:	e08f1001 	add	r1, pc, r1
    e360:	eb000a50 	bl	10ca8 <strcmp>
    e364:	e3570008 	cmp	r7, #8
    e368:	03500000 	cmpeq	r0, #0
    e36c:	0a000065 	beq	e508 <processCmd+0x478>
    e370:	e59f1b08 	ldr	r1, [pc, #2824]	; ee80 <processCmd+0xdf0>
    e374:	e1a00008 	mov	r0, r8
    e378:	e08f1001 	add	r1, pc, r1
    e37c:	eb000a49 	bl	10ca8 <strcmp>
    e380:	e3570007 	cmp	r7, #7
    e384:	03500000 	cmpeq	r0, #0
    e388:	0a000252 	beq	ecd8 <processCmd+0xc48>
    e38c:	e59f1af0 	ldr	r1, [pc, #2800]	; ee84 <processCmd+0xdf4>
    e390:	e1a00008 	mov	r0, r8
    e394:	e08f1001 	add	r1, pc, r1
    e398:	eb000a42 	bl	10ca8 <strcmp>
    e39c:	e3500000 	cmp	r0, #0
    e3a0:	03570004 	cmpeq	r7, #4
    e3a4:	0affff93 	beq	e1f8 <processCmd+0x168>
    e3a8:	e59f1ad8 	ldr	r1, [pc, #2776]	; ee88 <processCmd+0xdf8>
    e3ac:	e1a00008 	mov	r0, r8
    e3b0:	e08f1001 	add	r1, pc, r1
    e3b4:	eb000a3b 	bl	10ca8 <strcmp>
    e3b8:	e3500000 	cmp	r0, #0
    e3bc:	01a0200a 	moveq	r2, sl
    e3c0:	13a02000 	movne	r2, #0
    e3c4:	e3520000 	cmp	r2, #0
    e3c8:	1a00025b 	bne	ed3c <processCmd+0xcac>
    e3cc:	e3a03042 	mov	r3, #66	; 0x42
    e3d0:	e3a0c02e 	mov	ip, #46	; 0x2e
    e3d4:	e3a00049 	mov	r0, #73	; 0x49
    e3d8:	e3a0104e 	mov	r1, #78	; 0x4e
    e3dc:	e28def4a 	add	lr, sp, #296	; 0x128
    e3e0:	e08e7007 	add	r7, lr, r7
    e3e4:	e5473107 	strb	r3, [r7, #-263]	; 0xfffffef9
    e3e8:	e59f3a9c 	ldr	r3, [pc, #2716]	; ee8c <processCmd+0xdfc>
    e3ec:	e5472104 	strb	r2, [r7, #-260]	; 0xfffffefc
    e3f0:	e547c108 	strb	ip, [r7, #-264]	; 0xfffffef8
    e3f4:	e5470106 	strb	r0, [r7, #-262]	; 0xfffffefa
    e3f8:	e5471105 	strb	r1, [r7, #-261]	; 0xfffffefb
    e3fc:	e7943003 	ldr	r3, [r4, r3]
    e400:	e5933000 	ldr	r3, [r3]
    e404:	e3530001 	cmp	r3, #1
    e408:	0a000224 	beq	eca0 <processCmd+0xc10>
    e40c:	e59f0a7c 	ldr	r0, [pc, #2684]	; ee90 <processCmd+0xe00>
    e410:	e3a01040 	mov	r1, #64	; 0x40
    e414:	e08f0000 	add	r0, pc, r0
    e418:	e2800d05 	add	r0, r0, #320	; 0x140
    e41c:	ebfff6d6 	bl	bf7c <message>
    e420:	eaffff74 	b	e1f8 <processCmd+0x168>
    e424:	e59f1a68 	ldr	r1, [pc, #2664]	; ee94 <processCmd+0xe04>
    e428:	e1a00008 	mov	r0, r8
    e42c:	e08f1001 	add	r1, pc, r1
    e430:	eb000a1c 	bl	10ca8 <strcmp>
    e434:	e3500000 	cmp	r0, #0
    e438:	01a0000a 	moveq	r0, sl
    e43c:	13a00000 	movne	r0, #0
    e440:	e3500000 	cmp	r0, #0
    e444:	0affff8b 	beq	e278 <processCmd+0x1e8>
    e448:	e59f3a48 	ldr	r3, [pc, #2632]	; ee98 <processCmd+0xe08>
    e44c:	e59f0a48 	ldr	r0, [pc, #2632]	; ee9c <processCmd+0xe0c>
    e450:	e7943003 	ldr	r3, [r4, r3]
    e454:	e08f0000 	add	r0, pc, r0
    e458:	e5931000 	ldr	r1, [r3]
    e45c:	eb000851 	bl	105a8 <printf>
    e460:	eaffff64 	b	e1f8 <processCmd+0x168>
    e464:	e1a09002 	mov	r9, r2
    e468:	e1a01002 	mov	r1, r2
    e46c:	eaffff59 	b	e1d8 <processCmd+0x148>
    e470:	e59f3a28 	ldr	r3, [pc, #2600]	; eea0 <processCmd+0xe10>
    e474:	e7943003 	ldr	r3, [r4, r3]
    e478:	e5930000 	ldr	r0, [r3]
    e47c:	ebfff956 	bl	c9dc <clearScr>
    e480:	eaffff5c 	b	e1f8 <processCmd+0x168>
    e484:	e59f3a00 	ldr	r3, [pc, #2560]	; ee8c <processCmd+0xdfc>
    e488:	e7943003 	ldr	r3, [r4, r3]
    e48c:	e5933000 	ldr	r3, [r3]
    e490:	e3530001 	cmp	r3, #1
    e494:	1affff57 	bne	e1f8 <processCmd+0x168>
    e498:	ebfffe35 	bl	dd74 <startMGI>
    e49c:	eaffff55 	b	e1f8 <processCmd+0x168>
    e4a0:	e59f19fc 	ldr	r1, [pc, #2556]	; eea4 <processCmd+0xe14>
    e4a4:	e1a00008 	mov	r0, r8
    e4a8:	e08f1001 	add	r1, pc, r1
    e4ac:	eb0009fd 	bl	10ca8 <strcmp>
    e4b0:	e3570002 	cmp	r7, #2
    e4b4:	03500000 	cmpeq	r0, #0
    e4b8:	1affff7a 	bne	e2a8 <processCmd+0x218>
    e4bc:	e28d0040 	add	r0, sp, #64	; 0x40
    e4c0:	ebfff04a 	bl	a5f0 <fsDelFile>
    e4c4:	e1a05000 	mov	r5, r0
    e4c8:	e35900ff 	cmp	r9, #255	; 0xff
    e4cc:	0affff49 	beq	e1f8 <processCmd+0x168>
    e4d0:	e3550000 	cmp	r5, #0
    e4d4:	0a00000d 	beq	e510 <processCmd+0x480>
    e4d8:	e59f09c8 	ldr	r0, [pc, #2504]	; eea8 <processCmd+0xe18>
    e4dc:	e08f0000 	add	r0, pc, r0
    e4e0:	e2800e16 	add	r0, r0, #352	; 0x160
    e4e4:	eb00082f 	bl	105a8 <printf>
    e4e8:	eaffff42 	b	e1f8 <processCmd+0x168>
    e4ec:	e59f19b8 	ldr	r1, [pc, #2488]	; eeac <processCmd+0xe1c>
    e4f0:	e1a00008 	mov	r0, r8
    e4f4:	e08f1001 	add	r1, pc, r1
    e4f8:	eb0009ea 	bl	10ca8 <strcmp>
    e4fc:	e3500000 	cmp	r0, #0
    e500:	03570004 	cmpeq	r7, #4
    e504:	1affff92 	bne	e354 <processCmd+0x2c4>
    e508:	e35900ff 	cmp	r9, #255	; 0xff
    e50c:	0affff39 	beq	e1f8 <processCmd+0x168>
    e510:	e59f1998 	ldr	r1, [pc, #2456]	; eeb0 <processCmd+0xe20>
    e514:	e1a00008 	mov	r0, r8
    e518:	e08f1001 	add	r1, pc, r1
    e51c:	eb0009e1 	bl	10ca8 <strcmp>
    e520:	e3500000 	cmp	r0, #0
    e524:	1a00007f 	bne	e728 <processCmd+0x698>
    e528:	e5dd3040 	ldrb	r3, [sp, #64]	; 0x40
    e52c:	e353002e 	cmp	r3, #46	; 0x2e
    e530:	0a00014b 	beq	ea64 <processCmd+0x9d4>
    e534:	e353002f 	cmp	r3, #47	; 0x2f
    e538:	0a000172 	beq	eb08 <processCmd+0xa78>
    e53c:	e59f3970 	ldr	r3, [pc, #2416]	; eeb4 <processCmd+0xe24>
    e540:	e7941003 	ldr	r1, [r4, r3]
    e544:	e5913000 	ldr	r3, [r1]
    e548:	e5532001 	ldrb	r2, [r3, #-1]
    e54c:	e352002f 	cmp	r2, #47	; 0x2f
    e550:	13a0202f 	movne	r2, #47	; 0x2f
    e554:	12830001 	addne	r0, r3, #1
    e558:	15810000 	strne	r0, [r1]
    e55c:	15c32000 	strbne	r2, [r3]
    e560:	15913000 	ldrne	r3, [r1]
    e564:	e3590000 	cmp	r9, #0
    e568:	0a000008 	beq	e590 <processCmd+0x500>
    e56c:	e28d2040 	add	r2, sp, #64	; 0x40
    e570:	e0899002 	add	r9, r9, r2
    e574:	e4d20001 	ldrb	r0, [r2], #1
    e578:	e283c001 	add	ip, r3, #1
    e57c:	e581c000 	str	ip, [r1]
    e580:	e1520009 	cmp	r2, r9
    e584:	e5c30000 	strb	r0, [r3]
    e588:	e5913000 	ldr	r3, [r1]
    e58c:	1afffff8 	bne	e574 <processCmd+0x4e4>
    e590:	e3a02000 	mov	r2, #0
    e594:	e5c32000 	strb	r2, [r3]
    e598:	eaffff16 	b	e1f8 <processCmd+0x168>
    e59c:	e59f1914 	ldr	r1, [pc, #2324]	; eeb8 <processCmd+0xe28>
    e5a0:	e1a00008 	mov	r0, r8
    e5a4:	e08f1001 	add	r1, pc, r1
    e5a8:	eb0009be 	bl	10ca8 <strcmp>
    e5ac:	e3500000 	cmp	r0, #0
    e5b0:	0affff57 	beq	e314 <processCmd+0x284>
    e5b4:	e59f1900 	ldr	r1, [pc, #2304]	; eebc <processCmd+0xe2c>
    e5b8:	e1a00008 	mov	r0, r8
    e5bc:	e08f1001 	add	r1, pc, r1
    e5c0:	eb0009b8 	bl	10ca8 <strcmp>
    e5c4:	eaffff56 	b	e324 <processCmd+0x294>
    e5c8:	e59f18f0 	ldr	r1, [pc, #2288]	; eec0 <processCmd+0xe30>
    e5cc:	e1a00008 	mov	r0, r8
    e5d0:	e08f1001 	add	r1, pc, r1
    e5d4:	eb0009b3 	bl	10ca8 <strcmp>
    e5d8:	e3500000 	cmp	r0, #0
    e5dc:	1a000138 	bne	eac4 <processCmd+0xa34>
    e5e0:	e3570002 	cmp	r7, #2
    e5e4:	1affff46 	bne	e304 <processCmd+0x274>
    e5e8:	e28d0040 	add	r0, sp, #64	; 0x40
    e5ec:	ebfff139 	bl	aad8 <fsMakeDir>
    e5f0:	e1a05000 	mov	r5, r0
    e5f4:	eaffffb3 	b	e4c8 <processCmd+0x438>
    e5f8:	e3a01008 	mov	r1, #8
    e5fc:	ebffebfd 	bl	95f8 <fsFindInDir>
    e600:	e3700011 	cmn	r0, #17
    e604:	8a00013a 	bhi	eaf4 <processCmd+0xa64>
    e608:	e59f08b4 	ldr	r0, [pc, #2228]	; eec4 <processCmd+0xe34>
    e60c:	e28d8060 	add	r8, sp, #96	; 0x60
    e610:	e08f0000 	add	r0, pc, r0
    e614:	eb0007e3 	bl	105a8 <printf>
    e618:	e59f28a8 	ldr	r2, [pc, #2216]	; eec8 <processCmd+0xe38>
    e61c:	e59f38a8 	ldr	r3, [pc, #2216]	; eecc <processCmd+0xe3c>
    e620:	e08f2002 	add	r2, pc, r2
    e624:	e58d2004 	str	r2, [sp, #4]
    e628:	e7949003 	ldr	r9, [r4, r3]
    e62c:	e28d305f 	add	r3, sp, #95	; 0x5f
    e630:	e58d4008 	str	r4, [sp, #8]
    e634:	e1a04003 	mov	r4, r3
    e638:	e599c000 	ldr	ip, [r9]
    e63c:	e5dc300d 	ldrb	r3, [ip, #13]
    e640:	e3530008 	cmp	r3, #8
    e644:	1353000f 	cmpne	r3, #15
    e648:	13a02001 	movne	r2, #1
    e64c:	03a02000 	moveq	r2, #0
    e650:	1a000046 	bne	e770 <processCmd+0x6e0>
    e654:	e3530008 	cmp	r3, #8
    e658:	15cd2080 	strbne	r2, [sp, #128]	; 0x80
    e65c:	0a00013e 	beq	eb5c <processCmd+0xacc>
    e660:	e1a00004 	mov	r0, r4
    e664:	e3a03000 	mov	r3, #0
    e668:	e24c1001 	sub	r1, ip, #1
    e66c:	e5f12001 	ldrb	r2, [r1, #1]!
    e670:	e3520020 	cmp	r2, #32
    e674:	e5e02001 	strb	r2, [r0, #1]!
    e678:	0a000026 	beq	e718 <processCmd+0x688>
    e67c:	e2833001 	add	r3, r3, #1
    e680:	e3530008 	cmp	r3, #8
    e684:	1afffff8 	bne	e66c <processCmd+0x5dc>
    e688:	e28d2e13 	add	r2, sp, #304	; 0x130
    e68c:	e54260c8 	strb	r6, [r2, #-200]	; 0xffffff38
    e690:	e5dc1000 	ldrb	r1, [ip]
    e694:	e351002e 	cmp	r1, #46	; 0x2e
    e698:	0a00000e 	beq	e6d8 <processCmd+0x648>
    e69c:	e3a0102e 	mov	r1, #46	; 0x2e
    e6a0:	e28cc009 	add	ip, ip, #9
    e6a4:	e54210c8 	strb	r1, [r2, #-200]	; 0xffffff38
    e6a8:	e2832001 	add	r2, r3, #1
    e6ac:	e2833004 	add	r3, r3, #4
    e6b0:	e4dc1001 	ldrb	r1, [ip], #1
    e6b4:	e3510020 	cmp	r1, #32
    e6b8:	e7c81002 	strb	r1, [r8, r2]
    e6bc:	0a000164 	beq	ec54 <processCmd+0xbc4>
    e6c0:	e2822001 	add	r2, r2, #1
    e6c4:	e1520003 	cmp	r2, r3
    e6c8:	1afffff8 	bne	e6b0 <processCmd+0x620>
    e6cc:	e28d2f4a 	add	r2, sp, #296	; 0x128
    e6d0:	e0823003 	add	r3, r2, r3
    e6d4:	e54360c8 	strb	r6, [r3, #-200]	; 0xffffff38
    e6d8:	e3a01009 	mov	r1, #9
    e6dc:	e1a00008 	mov	r0, r8
    e6e0:	ebffebc4 	bl	95f8 <fsFindInDir>
    e6e4:	e3700011 	cmn	r0, #17
    e6e8:	9affffd2 	bls	e638 <processCmd+0x5a8>
    e6ec:	e59d4008 	ldr	r4, [sp, #8]
    e6f0:	e59f27a8 	ldr	r2, [pc, #1960]	; eea0 <processCmd+0xe10>
    e6f4:	e59f37d4 	ldr	r3, [pc, #2004]	; eed0 <processCmd+0xe40>
    e6f8:	e7942002 	ldr	r2, [r4, r2]
    e6fc:	e7943003 	ldr	r3, [r4, r3]
    e700:	e59f07cc 	ldr	r0, [pc, #1996]	; eed4 <processCmd+0xe44>
    e704:	e5922000 	ldr	r2, [r2]
    e708:	e5931000 	ldr	r1, [r3]
    e70c:	e08f0000 	add	r0, pc, r0
    e710:	eb0007a4 	bl	105a8 <printf>
    e714:	eafffeb7 	b	e1f8 <processCmd+0x168>
    e718:	e28d2f4a 	add	r2, sp, #296	; 0x128
    e71c:	e0822003 	add	r2, r2, r3
    e720:	e54260c8 	strb	r6, [r2, #-200]	; 0xffffff38
    e724:	eaffffd8 	b	e68c <processCmd+0x5fc>
    e728:	e59f17a8 	ldr	r1, [pc, #1960]	; eed8 <processCmd+0xe48>
    e72c:	e1a00008 	mov	r0, r8
    e730:	e08f1001 	add	r1, pc, r1
    e734:	eb00095b 	bl	10ca8 <strcmp>
    e738:	e2502000 	subs	r2, r0, #0
    e73c:	1a000149 	bne	ec68 <processCmd+0xbd8>
    e740:	e28d4080 	add	r4, sp, #128	; 0x80
    e744:	e1a03004 	mov	r3, r4
    e748:	e28d108a 	add	r1, sp, #138	; 0x8a
    e74c:	e4c32001 	strb	r2, [r3], #1
    e750:	e1530001 	cmp	r3, r1
    e754:	1afffffc 	bne	e74c <processCmd+0x6bc>
    e758:	e59f077c 	ldr	r0, [pc, #1916]	; eedc <processCmd+0xe4c>
    e75c:	e1a01004 	mov	r1, r4
    e760:	e08f0000 	add	r0, pc, r0
    e764:	e5cd208a 	strb	r2, [sp, #138]	; 0x8a
    e768:	eb00078e 	bl	105a8 <printf>
    e76c:	eafffea1 	b	e1f8 <processCmd+0x168>
    e770:	e28da0a8 	add	sl, sp, #168	; 0xa8
    e774:	e3a02080 	mov	r2, #128	; 0x80
    e778:	e1a0000a 	mov	r0, sl
    e77c:	e3a01000 	mov	r1, #0
    e780:	e28d50cf 	add	r5, sp, #207	; 0xcf
    e784:	eb000896 	bl	109e4 <memset>
    e788:	e1a02005 	mov	r2, r5
    e78c:	e1a03009 	mov	r3, r9
    e790:	e2890028 	add	r0, r9, #40	; 0x28
    e794:	e4d31001 	ldrb	r1, [r3], #1
    e798:	e1530000 	cmp	r3, r0
    e79c:	e5e21001 	strb	r1, [r2, #1]!
    e7a0:	1afffffb 	bne	e794 <processCmd+0x704>
    e7a4:	e5993000 	ldr	r3, [r9]
    e7a8:	e5d3200d 	ldrb	r2, [r3, #13]
    e7ac:	e3520010 	cmp	r2, #16
    e7b0:	0a0000df 	beq	eb34 <processCmd+0xaa4>
    e7b4:	e593b028 	ldr	fp, [r3, #40]	; 0x28
    e7b8:	e31b0103 	tst	fp, #-1073741824	; 0xc0000000
    e7bc:	0a000148 	beq	ece4 <processCmd+0xc54>
    e7c0:	e3a03047 	mov	r3, #71	; 0x47
    e7c4:	e1a0bf2b 	lsr	fp, fp, #30
    e7c8:	e28bb001 	add	fp, fp, #1
    e7cc:	e3a07000 	mov	r7, #0
    e7d0:	e3a0200a 	mov	r2, #10
    e7d4:	e1a01007 	mov	r1, r7
    e7d8:	e1a00007 	mov	r0, r7
    e7dc:	e58d300c 	str	r3, [sp, #12]
    e7e0:	eb00087f 	bl	109e4 <memset>
    e7e4:	e1a01007 	mov	r1, r7
    e7e8:	e3a0200a 	mov	r2, #10
    e7ec:	e1a0000b 	mov	r0, fp
    e7f0:	eb00093e 	bl	10cf0 <itoa>
    e7f4:	e59d300c 	ldr	r3, [sp, #12]
    e7f8:	e1a02007 	mov	r2, r7
    e7fc:	e2477001 	sub	r7, r7, #1
    e800:	e5f71001 	ldrb	r1, [r7, #1]!
    e804:	e3510000 	cmp	r1, #0
    e808:	0a000149 	beq	ed34 <processCmd+0xca4>
    e80c:	e2822001 	add	r2, r2, #1
    e810:	e3520004 	cmp	r2, #4
    e814:	1afffff9 	bne	e800 <processCmd+0x770>
    e818:	e3a01000 	mov	r1, #0
    e81c:	e3a02000 	mov	r2, #0
    e820:	e3a0e020 	mov	lr, #32
    e824:	e261c000 	rsb	ip, r1, #0
    e828:	e1510002 	cmp	r1, r2
    e82c:	97dc0002 	ldrbls	r0, [ip, r2]
    e830:	87cae002 	strbhi	lr, [sl, r2]
    e834:	97ca0002 	strbls	r0, [sl, r2]
    e838:	e2822001 	add	r2, r2, #1
    e83c:	e3520004 	cmp	r2, #4
    e840:	1afffff8 	bne	e828 <processCmd+0x798>
    e844:	e5cd30ac 	strb	r3, [sp, #172]	; 0xac
    e848:	e5993000 	ldr	r3, [r9]
    e84c:	e3a02020 	mov	r2, #32
    e850:	e3a07000 	mov	r7, #0
    e854:	e5cd20ad 	strb	r2, [sp, #173]	; 0xad
    e858:	e593b01c 	ldr	fp, [r3, #28]
    e85c:	e59d0008 	ldr	r0, [sp, #8]
    e860:	e1a032ab 	lsr	r3, fp, #5
    e864:	e203300f 	and	r3, r3, #15
    e868:	e2433001 	sub	r3, r3, #1
    e86c:	e353000b 	cmp	r3, #11
    e870:	81a03007 	movhi	r3, r7
    e874:	e59f1664 	ldr	r1, [pc, #1636]	; eee0 <processCmd+0xe50>
    e878:	e0833083 	add	r3, r3, r3, lsl #1
    e87c:	e7901001 	ldr	r1, [r0, r1]
    e880:	e20bb01f 	and	fp, fp, #31
    e884:	e0810003 	add	r0, r1, r3
    e888:	e7d1c003 	ldrb	ip, [r1, r3]
    e88c:	e5d01001 	ldrb	r1, [r0, #1]
    e890:	e5d03002 	ldrb	r3, [r0, #2]
    e894:	e5cd20b1 	strb	r2, [sp, #177]	; 0xb1
    e898:	e1a00007 	mov	r0, r7
    e89c:	e3a0200a 	mov	r2, #10
    e8a0:	e5cd10af 	strb	r1, [sp, #175]	; 0xaf
    e8a4:	e1a01007 	mov	r1, r7
    e8a8:	e5cdc0ae 	strb	ip, [sp, #174]	; 0xae
    e8ac:	e5cd30b0 	strb	r3, [sp, #176]	; 0xb0
    e8b0:	eb00084b 	bl	109e4 <memset>
    e8b4:	e3a0200a 	mov	r2, #10
    e8b8:	e1a01007 	mov	r1, r7
    e8bc:	e1a0000b 	mov	r0, fp
    e8c0:	eb00090a 	bl	10cf0 <itoa>
    e8c4:	e35b0009 	cmp	fp, #9
    e8c8:	c3a07000 	movgt	r7, #0
    e8cc:	d5d73000 	ldrble	r3, [r7]
    e8d0:	c5d73001 	ldrbgt	r3, [r7, #1]
    e8d4:	d3a02030 	movle	r2, #48	; 0x30
    e8d8:	e5cd30b3 	strb	r3, [sp, #179]	; 0xb3
    e8dc:	e3a03020 	mov	r3, #32
    e8e0:	c5d72000 	ldrbgt	r2, [r7]
    e8e4:	e3a07000 	mov	r7, #0
    e8e8:	e5cd20b2 	strb	r2, [sp, #178]	; 0xb2
    e8ec:	e5992000 	ldr	r2, [r9]
    e8f0:	e5cd30b4 	strb	r3, [sp, #180]	; 0xb4
    e8f4:	e592b01c 	ldr	fp, [r2, #28]
    e8f8:	e1a01007 	mov	r1, r7
    e8fc:	e1a0b4ab 	lsr	fp, fp, #9
    e900:	e20bb07f 	and	fp, fp, #127	; 0x7f
    e904:	e28bbe7b 	add	fp, fp, #1968	; 0x7b0
    e908:	e3a0200a 	mov	r2, #10
    e90c:	e1a00007 	mov	r0, r7
    e910:	e28bb00c 	add	fp, fp, #12
    e914:	e58d300c 	str	r3, [sp, #12]
    e918:	eb000831 	bl	109e4 <memset>
    e91c:	e1a01007 	mov	r1, r7
    e920:	e3a0200a 	mov	r2, #10
    e924:	e1a0000b 	mov	r0, fp
    e928:	eb0008f0 	bl	10cf0 <itoa>
    e92c:	e5d72003 	ldrb	r2, [r7, #3]
    e930:	e5d7c000 	ldrb	ip, [r7]
    e934:	e5d70001 	ldrb	r0, [r7, #1]
    e938:	e5d71002 	ldrb	r1, [r7, #2]
    e93c:	e59d300c 	ldr	r3, [sp, #12]
    e940:	e599e000 	ldr	lr, [r9]
    e944:	e5cd30b9 	strb	r3, [sp, #185]	; 0xb9
    e948:	e5cdc0b5 	strb	ip, [sp, #181]	; 0xb5
    e94c:	e5cd00b6 	strb	r0, [sp, #182]	; 0xb6
    e950:	e5cd10b7 	strb	r1, [sp, #183]	; 0xb7
    e954:	e5cd20b8 	strb	r2, [sp, #184]	; 0xb8
    e958:	e5de2000 	ldrb	r2, [lr]
    e95c:	e31200df 	tst	r2, #223	; 0xdf
    e960:	0a0000e7 	beq	ed04 <processCmd+0xc74>
    e964:	e28dc0ba 	add	ip, sp, #186	; 0xba
    e968:	e28e0001 	add	r0, lr, #1
    e96c:	e3a03012 	mov	r3, #18
    e970:	ea000000 	b	e978 <processCmd+0x8e8>
    e974:	e1a03001 	mov	r3, r1
    e978:	e4cc2001 	strb	r2, [ip], #1
    e97c:	e4d02001 	ldrb	r2, [r0], #1
    e980:	e2831001 	add	r1, r3, #1
    e984:	e20270df 	and	r7, r2, #223	; 0xdf
    e988:	e3530019 	cmp	r3, #25
    e98c:	13570000 	cmpne	r7, #0
    e990:	1afffff7 	bne	e974 <processCmd+0x8e4>
    e994:	e2833002 	add	r3, r3, #2
    e998:	e3a0202e 	mov	r2, #46	; 0x2e
    e99c:	e28d0f4a 	add	r0, sp, #296	; 0x128
    e9a0:	e0801001 	add	r1, r0, r1
    e9a4:	e5412080 	strb	r2, [r1, #-128]	; 0xffffff80
    e9a8:	e5de2009 	ldrb	r2, [lr, #9]
    e9ac:	e31200df 	tst	r2, #223	; 0xdf
    e9b0:	0a000064 	beq	eb48 <processCmd+0xab8>
    e9b4:	e3a01000 	mov	r1, #0
    e9b8:	e08aa003 	add	sl, sl, r3
    e9bc:	e28e000a 	add	r0, lr, #10
    e9c0:	e4ca2001 	strb	r2, [sl], #1
    e9c4:	e4d02001 	ldrb	r2, [r0], #1
    e9c8:	e2833001 	add	r3, r3, #1
    e9cc:	e31200df 	tst	r2, #223	; 0xdf
    e9d0:	e2811001 	add	r1, r1, #1
    e9d4:	0a000001 	beq	e9e0 <processCmd+0x950>
    e9d8:	e3510003 	cmp	r1, #3
    e9dc:	1afffff7 	bne	e9c0 <processCmd+0x930>
    e9e0:	e28d2f4a 	add	r2, sp, #296	; 0x128
    e9e4:	e0823003 	add	r3, r2, r3
    e9e8:	e5de200d 	ldrb	r2, [lr, #13]
    e9ec:	e5436080 	strb	r6, [r3, #-128]	; 0xffffff80
    e9f0:	e3520010 	cmp	r2, #16
    e9f4:	03a0202f 	moveq	r2, #47	; 0x2f
    e9f8:	05432081 	strbeq	r2, [r3, #-129]	; 0xffffff7f
    e9fc:	e28d30a7 	add	r3, sp, #167	; 0xa7
    ea00:	e28d207f 	add	r2, sp, #127	; 0x7f
    ea04:	e5f31001 	ldrb	r1, [r3, #1]!
    ea08:	e1550003 	cmp	r5, r3
    ea0c:	e5e21001 	strb	r1, [r2, #1]!
    ea10:	1afffffb 	bne	ea04 <processCmd+0x974>
    ea14:	e5dd3080 	ldrb	r3, [sp, #128]	; 0x80
    ea18:	e3530000 	cmp	r3, #0
    ea1c:	0a000002 	beq	ea2c <processCmd+0x99c>
    ea20:	e28d1080 	add	r1, sp, #128	; 0x80
    ea24:	e59d0004 	ldr	r0, [sp, #4]
    ea28:	eb0006de 	bl	105a8 <printf>
    ea2c:	e599c000 	ldr	ip, [r9]
    ea30:	eaffff0a 	b	e660 <processCmd+0x5d0>
    ea34:	e28d1010 	add	r1, sp, #16
    ea38:	e28d0060 	add	r0, sp, #96	; 0x60
    ea3c:	ebffeef2 	bl	a60c <fsRenameFile>
    ea40:	e1a05000 	mov	r5, r0
    ea44:	eafffe9f 	b	e4c8 <processCmd+0x438>
    ea48:	e28d0060 	add	r0, sp, #96	; 0x60
    ea4c:	ebffee2f 	bl	a310 <fsOpenFile>
    ea50:	e3500000 	cmp	r0, #0
    ea54:	0a000095 	beq	ecb0 <processCmd+0xc20>
    ea58:	e35900ff 	cmp	r9, #255	; 0xff
    ea5c:	1afffe9d 	bne	e4d8 <processCmd+0x448>
    ea60:	eafffde4 	b	e1f8 <processCmd+0x168>
    ea64:	e5dd3041 	ldrb	r3, [sp, #65]	; 0x41
    ea68:	e353002e 	cmp	r3, #46	; 0x2e
    ea6c:	1afffde1 	bne	e1f8 <processCmd+0x168>
    ea70:	e59f343c 	ldr	r3, [pc, #1084]	; eeb4 <processCmd+0xe24>
    ea74:	e7941003 	ldr	r1, [r4, r3]
    ea78:	e5913000 	ldr	r3, [r1]
    ea7c:	e5d32000 	ldrb	r2, [r3]
    ea80:	e352002f 	cmp	r2, #47	; 0x2f
    ea84:	0a000006 	beq	eaa4 <processCmd+0xa14>
    ea88:	e2432001 	sub	r2, r3, #1
    ea8c:	e5812000 	str	r2, [r1]
    ea90:	e5c30000 	strb	r0, [r3]
    ea94:	e5913000 	ldr	r3, [r1]
    ea98:	e5d32000 	ldrb	r2, [r3]
    ea9c:	e352002f 	cmp	r2, #47	; 0x2f
    eaa0:	1afffff8 	bne	ea88 <processCmd+0x9f8>
    eaa4:	e59f2438 	ldr	r2, [pc, #1080]	; eee4 <processCmd+0xe54>
    eaa8:	e7942002 	ldr	r2, [r4, r2]
    eaac:	e5922000 	ldr	r2, [r2]
    eab0:	e1520003 	cmp	r2, r3
    eab4:	22833001 	addcs	r3, r3, #1
    eab8:	25813000 	strcs	r3, [r1]
    eabc:	2afffdcd 	bcs	e1f8 <processCmd+0x168>
    eac0:	eafffeb2 	b	e590 <processCmd+0x500>
    eac4:	e59f141c 	ldr	r1, [pc, #1052]	; eee8 <processCmd+0xe58>
    eac8:	e1a00008 	mov	r0, r8
    eacc:	e08f1001 	add	r1, pc, r1
    ead0:	eb000874 	bl	10ca8 <strcmp>
    ead4:	e3500000 	cmp	r0, #0
    ead8:	1a0000cd 	bne	ee14 <processCmd+0xd84>
    eadc:	e3570002 	cmp	r7, #2
    eae0:	1afffe0b 	bne	e314 <processCmd+0x284>
    eae4:	e28d0040 	add	r0, sp, #64	; 0x40
    eae8:	ebfff009 	bl	ab14 <fsChangeDir>
    eaec:	e1a05000 	mov	r5, r0
    eaf0:	eafffe74 	b	e4c8 <processCmd+0x438>
    eaf4:	e1a01000 	mov	r1, r0
    eaf8:	e59f03ec 	ldr	r0, [pc, #1004]	; eeec <processCmd+0xe5c>
    eafc:	e08f0000 	add	r0, pc, r0
    eb00:	eb0006a8 	bl	105a8 <printf>
    eb04:	eafffdbb 	b	e1f8 <processCmd+0x168>
    eb08:	e59f13d4 	ldr	r1, [pc, #980]	; eee4 <processCmd+0xe54>
    eb0c:	e59f23a0 	ldr	r2, [pc, #928]	; eeb4 <processCmd+0xe24>
    eb10:	e7941001 	ldr	r1, [r4, r1]
    eb14:	e7942002 	ldr	r2, [r4, r2]
    eb18:	e5911000 	ldr	r1, [r1]
    eb1c:	e281c001 	add	ip, r1, #1
    eb20:	e582c000 	str	ip, [r2]
    eb24:	e5c13000 	strb	r3, [r1]
    eb28:	e5923000 	ldr	r3, [r2]
    eb2c:	e5c30000 	strb	r0, [r3]
    eb30:	eafffdb0 	b	e1f8 <processCmd+0x168>
    eb34:	e3a02030 	mov	r2, #48	; 0x30
    eb38:	e59f13b0 	ldr	r1, [pc, #944]	; eef0 <processCmd+0xe60>
    eb3c:	e5cd20ac 	strb	r2, [sp, #172]	; 0xac
    eb40:	e58d10a8 	str	r1, [sp, #168]	; 0xa8
    eb44:	eaffff40 	b	e84c <processCmd+0x7bc>
    eb48:	e3a02020 	mov	r2, #32
    eb4c:	e28d1f4a 	add	r1, sp, #296	; 0x128
    eb50:	e0813003 	add	r3, r1, r3
    eb54:	e5432081 	strb	r2, [r3, #-129]	; 0xffffff7f
    eb58:	eaffffa2 	b	e9e8 <processCmd+0x958>
    eb5c:	e28d5080 	add	r5, sp, #128	; 0x80
    eb60:	e3a02028 	mov	r2, #40	; 0x28
    eb64:	e3a01020 	mov	r1, #32
    eb68:	e1a00005 	mov	r0, r5
    eb6c:	eb00079c 	bl	109e4 <memset>
    eb70:	e3a01069 	mov	r1, #105	; 0x69
    eb74:	e3a02073 	mov	r2, #115	; 0x73
    eb78:	e3a03020 	mov	r3, #32
    eb7c:	e3a0006d 	mov	r0, #109	; 0x6d
    eb80:	e3a0a044 	mov	sl, #68	; 0x44
    eb84:	e3a0706b 	mov	r7, #107	; 0x6b
    eb88:	e3a0e04e 	mov	lr, #78	; 0x4e
    eb8c:	e3a0c061 	mov	ip, #97	; 0x61
    eb90:	e3a0b065 	mov	fp, #101	; 0x65
    eb94:	e5cd1086 	strb	r1, [sp, #134]	; 0x86
    eb98:	e5cd108f 	strb	r1, [sp, #143]	; 0x8f
    eb9c:	e5991000 	ldr	r1, [r9]
    eba0:	e5cd008c 	strb	r0, [sp, #140]	; 0x8c
    eba4:	e5cda085 	strb	sl, [sp, #133]	; 0x85
    eba8:	e5cd2087 	strb	r2, [sp, #135]	; 0x87
    ebac:	e5cd2090 	strb	r2, [sp, #144]	; 0x90
    ebb0:	e5cd7088 	strb	r7, [sp, #136]	; 0x88
    ebb4:	e5cd3089 	strb	r3, [sp, #137]	; 0x89
    ebb8:	e5cd308e 	strb	r3, [sp, #142]	; 0x8e
    ebbc:	e5cd3091 	strb	r3, [sp, #145]	; 0x91
    ebc0:	e5cde08a 	strb	lr, [sp, #138]	; 0x8a
    ebc4:	e5cdc08b 	strb	ip, [sp, #139]	; 0x8b
    ebc8:	e5cdb08d 	strb	fp, [sp, #141]	; 0x8d
    ebcc:	e5d12000 	ldrb	r2, [r1]
    ebd0:	e3520000 	cmp	r2, #0
    ebd4:	03a00012 	moveq	r0, #18
    ebd8:	0a00000c 	beq	ec10 <processCmd+0xb80>
    ebdc:	e3a07012 	mov	r7, #18
    ebe0:	e28de092 	add	lr, sp, #146	; 0x92
    ebe4:	e281c001 	add	ip, r1, #1
    ebe8:	e4ce2001 	strb	r2, [lr], #1
    ebec:	e4dc2001 	ldrb	r2, [ip], #1
    ebf0:	e2573019 	subs	r3, r7, #25
    ebf4:	13a03001 	movne	r3, #1
    ebf8:	e3520000 	cmp	r2, #0
    ebfc:	03a03000 	moveq	r3, #0
    ec00:	e2870001 	add	r0, r7, #1
    ec04:	e3530000 	cmp	r3, #0
    ec08:	e1a07000 	mov	r7, r0
    ec0c:	1afffff5 	bne	ebe8 <processCmd+0xb58>
    ec10:	e5d12009 	ldrb	r2, [r1, #9]
    ec14:	e1a03000 	mov	r3, r0
    ec18:	e3520000 	cmp	r2, #0
    ec1c:	0a000008 	beq	ec44 <processCmd+0xbb4>
    ec20:	e0855000 	add	r5, r5, r0
    ec24:	e281100a 	add	r1, r1, #10
    ec28:	e4c52001 	strb	r2, [r5], #1
    ec2c:	e2833001 	add	r3, r3, #1
    ec30:	e4d12001 	ldrb	r2, [r1], #1
    ec34:	e043c000 	sub	ip, r3, r0
    ec38:	e35c0003 	cmp	ip, #3
    ec3c:	13520000 	cmpne	r2, #0
    ec40:	1afffff8 	bne	ec28 <processCmd+0xb98>
    ec44:	e28d2f4a 	add	r2, sp, #296	; 0x128
    ec48:	e0823003 	add	r3, r2, r3
    ec4c:	e54360a8 	strb	r6, [r3, #-168]	; 0xffffff58
    ec50:	eaffff6f 	b	ea14 <processCmd+0x984>
    ec54:	e28d3f4a 	add	r3, sp, #296	; 0x128
    ec58:	e0833002 	add	r3, r3, r2
    ec5c:	e54360c8 	strb	r6, [r3, #-200]	; 0xffffff38
    ec60:	e1a03002 	mov	r3, r2
    ec64:	eafffe98 	b	e6cc <processCmd+0x63c>
    ec68:	e59f1284 	ldr	r1, [pc, #644]	; eef4 <processCmd+0xe64>
    ec6c:	e1a00008 	mov	r0, r8
    ec70:	e08f1001 	add	r1, pc, r1
    ec74:	eb00080b 	bl	10ca8 <strcmp>
    ec78:	e2503000 	subs	r3, r0, #0
    ec7c:	1a000031 	bne	ed48 <processCmd+0xcb8>
    ec80:	e59f0270 	ldr	r0, [pc, #624]	; eef8 <processCmd+0xe68>
    ec84:	e28d1080 	add	r1, sp, #128	; 0x80
    ec88:	e08f0000 	add	r0, pc, r0
    ec8c:	e58d3080 	str	r3, [sp, #128]	; 0x80
    ec90:	e58d3084 	str	r3, [sp, #132]	; 0x84
    ec94:	e5cd3088 	strb	r3, [sp, #136]	; 0x88
    ec98:	eb000642 	bl	105a8 <printf>
    ec9c:	eafffd55 	b	e1f8 <processCmd+0x168>
    eca0:	e59f0254 	ldr	r0, [pc, #596]	; eefc <processCmd+0xe6c>
    eca4:	e08f0000 	add	r0, pc, r0
    eca8:	eb00063e 	bl	105a8 <printf>
    ecac:	eafffd51 	b	e1f8 <processCmd+0x168>
    ecb0:	e28d6010 	add	r6, sp, #16
    ecb4:	e1a00006 	mov	r0, r6
    ecb8:	ebffed94 	bl	a310 <fsOpenFile>
    ecbc:	e3500000 	cmp	r0, #0
    ecc0:	0afffe00 	beq	e4c8 <processCmd+0x438>
    ecc4:	e1a00006 	mov	r0, r6
    ecc8:	ebffed81 	bl	a2d4 <fsCreateFile>
    eccc:	e3500000 	cmp	r0, #0
    ecd0:	1affff60 	bne	ea58 <processCmd+0x9c8>
    ecd4:	eafffdfb 	b	e4c8 <processCmd+0x438>
    ecd8:	e3a00001 	mov	r0, #1
    ecdc:	ebfff85b 	bl	ce50 <loadCFG>
    ece0:	eafffd44 	b	e1f8 <processCmd+0x168>
    ece4:	e59f3214 	ldr	r3, [pc, #532]	; ef00 <processCmd+0xe70>
    ece8:	e003300b 	and	r3, r3, fp
    ecec:	e3530000 	cmp	r3, #0
    ecf0:	0a000006 	beq	ed10 <processCmd+0xc80>
    ecf4:	e1a0ba4b 	asr	fp, fp, #20
    ecf8:	e28bb001 	add	fp, fp, #1
    ecfc:	e3a0304d 	mov	r3, #77	; 0x4d
    ed00:	eafffeb1 	b	e7cc <processCmd+0x73c>
    ed04:	e3a03013 	mov	r3, #19
    ed08:	e3a01012 	mov	r1, #18
    ed0c:	eaffff21 	b	e998 <processCmd+0x908>
    ed10:	e59f31ec 	ldr	r3, [pc, #492]	; ef04 <processCmd+0xe74>
    ed14:	e003300b 	and	r3, r3, fp
    ed18:	e3530000 	cmp	r3, #0
    ed1c:	159f21e4 	ldrne	r2, [pc, #484]	; ef08 <processCmd+0xe78>
    ed20:	13a0304b 	movne	r3, #75	; 0x4b
    ed24:	1002b54b 	andne	fp, r2, fp, asr #10
    ed28:	128bb001 	addne	fp, fp, #1
    ed2c:	03a03020 	moveq	r3, #32
    ed30:	eafffea5 	b	e7cc <processCmd+0x73c>
    ed34:	e2621004 	rsb	r1, r2, #4
    ed38:	eafffeb7 	b	e81c <processCmd+0x78c>
    ed3c:	e28d0040 	add	r0, sp, #64	; 0x40
    ed40:	ebfff92e 	bl	d200 <catFile>
    ed44:	eafffd2b 	b	e1f8 <processCmd+0x168>
    ed48:	e59f11bc 	ldr	r1, [pc, #444]	; ef0c <processCmd+0xe7c>
    ed4c:	e1a00008 	mov	r0, r8
    ed50:	e08f1001 	add	r1, pc, r1
    ed54:	eb0007d3 	bl	10ca8 <strcmp>
    ed58:	e3500000 	cmp	r0, #0
    ed5c:	1afffd25 	bne	e1f8 <processCmd+0x168>
    ed60:	e3a05001 	mov	r5, #1
    ed64:	e59f91a4 	ldr	r9, [pc, #420]	; ef10 <processCmd+0xe80>
    ed68:	e59f81a4 	ldr	r8, [pc, #420]	; ef14 <processCmd+0xe84>
    ed6c:	e59f71a4 	ldr	r7, [pc, #420]	; ef18 <processCmd+0xe88>
    ed70:	e08f9009 	add	r9, pc, r9
    ed74:	e08f8008 	add	r8, pc, r8
    ed78:	e08f7007 	add	r7, pc, r7
    ed7c:	e28d607f 	add	r6, sp, #127	; 0x7f
    ed80:	e28d4080 	add	r4, sp, #128	; 0x80
    ed84:	e28da08e 	add	sl, sp, #142	; 0x8e
    ed88:	e1a03006 	mov	r3, r6
    ed8c:	e3a02000 	mov	r2, #0
    ed90:	e5e32001 	strb	r2, [r3, #1]!
    ed94:	e153000a 	cmp	r3, sl
    ed98:	1afffffc 	bne	ed90 <processCmd+0xd00>
    ed9c:	e2453002 	sub	r3, r5, #2
    eda0:	e5cd208f 	strb	r2, [sp, #143]	; 0x8f
    eda4:	e1a01004 	mov	r1, r4
    eda8:	e3530003 	cmp	r3, #3
    edac:	908ff103 	addls	pc, pc, r3, lsl #2
    edb0:	ea00000d 	b	edec <processCmd+0xd5c>
    edb4:	ea000009 	b	ede0 <processCmd+0xd50>
    edb8:	ea000005 	b	edd4 <processCmd+0xd44>
    edbc:	ea000000 	b	edc4 <processCmd+0xd34>
    edc0:	ea00000f 	b	ee04 <processCmd+0xd74>
    edc4:	e1a00009 	mov	r0, r9
    edc8:	eb0005f6 	bl	105a8 <printf>
    edcc:	e2855001 	add	r5, r5, #1
    edd0:	eaffffec 	b	ed88 <processCmd+0xcf8>
    edd4:	e1a00008 	mov	r0, r8
    edd8:	eb0005f2 	bl	105a8 <printf>
    eddc:	eafffffa 	b	edcc <processCmd+0xd3c>
    ede0:	e1a00007 	mov	r0, r7
    ede4:	eb0005ef 	bl	105a8 <printf>
    ede8:	eafffff7 	b	edcc <processCmd+0xd3c>
    edec:	e59f0128 	ldr	r0, [pc, #296]	; ef1c <processCmd+0xe8c>
    edf0:	e08f0000 	add	r0, pc, r0
    edf4:	eb0005eb 	bl	105a8 <printf>
    edf8:	e3550005 	cmp	r5, #5
    edfc:	1afffff2 	bne	edcc <processCmd+0xd3c>
    ee00:	eafffcfc 	b	e1f8 <processCmd+0x168>
    ee04:	e59f0114 	ldr	r0, [pc, #276]	; ef20 <processCmd+0xe90>
    ee08:	e08f0000 	add	r0, pc, r0
    ee0c:	eb0005e5 	bl	105a8 <printf>
    ee10:	eafffcf8 	b	e1f8 <processCmd+0x168>
    ee14:	e59f1108 	ldr	r1, [pc, #264]	; ef24 <processCmd+0xe94>
    ee18:	e1a00008 	mov	r0, r8
    ee1c:	e08f1001 	add	r1, pc, r1
    ee20:	eb0007a0 	bl	10ca8 <strcmp>
    ee24:	e3500000 	cmp	r0, #0
    ee28:	03570002 	cmpeq	r7, #2
    ee2c:	1afffd3c 	bne	e324 <processCmd+0x294>
    ee30:	e28d0040 	add	r0, sp, #64	; 0x40
    ee34:	ebffef4b 	bl	ab68 <fsRemoveDir>
    ee38:	e1a05000 	mov	r5, r0
    ee3c:	eafffda1 	b	e4c8 <processCmd+0x438>
    ee40:	00010dd8 	ldrdeq	r0, [r1], -r8
    ee44:	0000024c 	andeq	r0, r0, ip, asr #4
    ee48:	0000d650 	andeq	sp, r0, r0, asr r6
    ee4c:	0000d62c 	andeq	sp, r0, ip, lsr #12
    ee50:	0000d5e4 	andeq	sp, r0, r4, ror #11
    ee54:	0000d5f8 	strdeq	sp, [r0], -r8
    ee58:	0000d5fc 	strdeq	sp, [r0], -ip
    ee5c:	0000d5f8 	strdeq	sp, [r0], -r8
    ee60:	0000d5ec 	andeq	sp, r0, ip, ror #11
    ee64:	0000d5cc 	andeq	sp, r0, ip, asr #11
    ee68:	0000d5b0 			; <UNDEFINED> instruction: 0x0000d5b0
    ee6c:	0000d59c 	muleq	r0, ip, r5
    ee70:	0000d590 	muleq	r0, r0, r5
    ee74:	0000d584 	andeq	sp, r0, r4, lsl #11
    ee78:	0000d56c 	andeq	sp, r0, ip, ror #10
    ee7c:	0000d564 	andeq	sp, r0, r4, ror #10
    ee80:	0000d554 	andeq	sp, r0, r4, asr r5
    ee84:	0000d540 	andeq	sp, r0, r0, asr #10
    ee88:	0000d52c 	andeq	sp, r0, ip, lsr #10
    ee8c:	00000194 	muleq	r0, r4, r1
    ee90:	0000cbe4 	andeq	ip, r0, r4, ror #23
    ee94:	0000d43c 	andeq	sp, r0, ip, lsr r4
    ee98:	00000254 	andeq	r0, r0, r4, asr r2
    ee9c:	0000d418 	andeq	sp, r0, r8, lsl r4
    eea0:	00000040 	andeq	r0, r0, r0, asr #32
    eea4:	0000d3f0 	strdeq	sp, [r0], -r0
    eea8:	0000cb1c 	andeq	ip, r0, ip, lsl fp
    eeac:	0000d3c4 	andeq	sp, r0, r4, asr #7
    eeb0:	0000d390 	muleq	r0, r0, r3
    eeb4:	00000210 	andeq	r0, r0, r0, lsl r2
    eeb8:	0000d304 	andeq	sp, r0, r4, lsl #6
    eebc:	0000d2f0 	strdeq	sp, [r0], -r0
    eec0:	0000d2d4 	ldrdeq	sp, [r0], -r4
    eec4:	0000d128 	andeq	sp, r0, r8, lsr #2
    eec8:	0000d39c 	muleq	r0, ip, r3
    eecc:	00000070 	andeq	r0, r0, r0, ror r0
    eed0:	00000118 	andeq	r0, r0, r8, lsl r1
    eed4:	0000d02c 	andeq	sp, r0, ip, lsr #32
    eed8:	0000d180 	andeq	sp, r0, r0, lsl #3
    eedc:	0000d1a0 	andeq	sp, r0, r0, lsr #3
    eee0:	000001d8 	ldrdeq	r0, [r0], -r8
    eee4:	00000228 	andeq	r0, r0, r8, lsr #4
    eee8:	0000cddc 	ldrdeq	ip, [r0], -ip	; <UNPREDICTABLE>
    eeec:	0000cd84 	andeq	ip, r0, r4, lsl #27
    eef0:	20202020 	eorcs	r2, r0, r0, lsr #32
    eef4:	0000cc48 	andeq	ip, r0, r8, asr #24
    eef8:	0000cc88 	andeq	ip, r0, r8, lsl #25
    eefc:	0000cc3c 	andeq	ip, r0, ip, lsr ip
    ef00:	3ff00000 	svccc	0x00f00000	; IMB
    ef04:	000ffc00 	andeq	pc, pc, r0, lsl #24
    ef08:	000003ff 	strdeq	r0, [r0], -pc	; <UNPREDICTABLE>
    ef0c:	0000cb70 	andeq	ip, r0, r0, ror fp
    ef10:	0000cbec 	andeq	ip, r0, ip, ror #23
    ef14:	0000cbd4 	ldrdeq	ip, [r0], -r4
    ef18:	0000cbbc 			; <UNDEFINED> instruction: 0x0000cbbc
    ef1c:	0000cb30 	andeq	ip, r0, r0, lsr fp
    ef20:	0000cb68 	andeq	ip, r0, r8, ror #22
    ef24:	0000ca90 	muleq	r0, r0, sl

0000ef28 <mmsjos_main>:
    ef28:	e92d4ff0 	push	{r4, r5, r6, r7, r8, r9, sl, fp, lr}
    ef2c:	e24dd07c 	sub	sp, sp, #124	; 0x7c
    ef30:	eb000baf 	bl	11df4 <bcm2835_init>
    ef34:	ebffe649 	bl	8860 <mem_init>
    ef38:	e59fb934 	ldr	fp, [pc, #2356]	; f874 <mmsjos_main+0x94c>
    ef3c:	e59f3934 	ldr	r3, [pc, #2356]	; f878 <mmsjos_main+0x950>
    ef40:	e08fb00b 	add	fp, pc, fp
    ef44:	e79b8003 	ldr	r8, [fp, r3]
    ef48:	e28d4048 	add	r4, sp, #72	; 0x48
    ef4c:	e5880000 	str	r0, [r8]
    ef50:	e59f0924 	ldr	r0, [pc, #2340]	; f87c <mmsjos_main+0x954>
    ef54:	ebffe54a 	bl	8484 <get_clock_hz>
    ef58:	e59f2920 	ldr	r2, [pc, #2336]	; f880 <mmsjos_main+0x958>
    ef5c:	e59f3920 	ldr	r3, [pc, #2336]	; f884 <mmsjos_main+0x95c>
    ef60:	e79b7002 	ldr	r7, [fp, r2]
    ef64:	e1a09004 	mov	r9, r4
    ef68:	e5870000 	str	r0, [r7]
    ef6c:	e79ba003 	ldr	sl, [fp, r3]
    ef70:	e1a00004 	mov	r0, r4
    ef74:	e1a0600a 	mov	r6, sl
    ef78:	e3a01001 	mov	r1, #1
    ef7c:	ebffe498 	bl	81e4 <get_info_arm>
    ef80:	e8b9000f 	ldm	r9!, {r0, r1, r2, r3}
    ef84:	e8a6000f 	stmia	r6!, {r0, r1, r2, r3}
    ef88:	e8b9000f 	ldm	r9!, {r0, r1, r2, r3}
    ef8c:	e8a6000f 	stmia	r6!, {r0, r1, r2, r3}
    ef90:	e8990003 	ldm	r9, {r0, r1}
    ef94:	e8860003 	stm	r6, {r0, r1}
    ef98:	e59f38e8 	ldr	r3, [pc, #2280]	; f888 <mmsjos_main+0x960>
    ef9c:	e59a2008 	ldr	r2, [sl, #8]
    efa0:	e79b3003 	ldr	r3, [fp, r3]
    efa4:	e1a00004 	mov	r0, r4
    efa8:	e59f18dc 	ldr	r1, [pc, #2268]	; f88c <mmsjos_main+0x964>
    efac:	e58d3028 	str	r3, [sp, #40]	; 0x28
    efb0:	e1c320b0 	strh	r2, [r3]
    efb4:	ebffe48a 	bl	81e4 <get_info_arm>
    efb8:	e1a0c00a 	mov	ip, sl
    efbc:	e1a0e004 	mov	lr, r4
    efc0:	e8be000f 	ldm	lr!, {r0, r1, r2, r3}
    efc4:	e8ac000f 	stmia	ip!, {r0, r1, r2, r3}
    efc8:	e8be000f 	ldm	lr!, {r0, r1, r2, r3}
    efcc:	e8ac000f 	stmia	ip!, {r0, r1, r2, r3}
    efd0:	e8990003 	ldm	r9, {r0, r1}
    efd4:	e8860003 	stm	r6, {r0, r1}
    efd8:	e59f38b0 	ldr	r3, [pc, #2224]	; f890 <mmsjos_main+0x968>
    efdc:	e59a2008 	ldr	r2, [sl, #8]
    efe0:	e79b3003 	ldr	r3, [fp, r3]
    efe4:	e1a00004 	mov	r0, r4
    efe8:	e59f18a4 	ldr	r1, [pc, #2212]	; f894 <mmsjos_main+0x96c>
    efec:	e58d302c 	str	r3, [sp, #44]	; 0x2c
    eff0:	e1c320b0 	strh	r2, [r3]
    eff4:	ebffe47a 	bl	81e4 <get_info_arm>
    eff8:	e1a0c00a 	mov	ip, sl
    effc:	e1a0e004 	mov	lr, r4
    f000:	e8be000f 	ldm	lr!, {r0, r1, r2, r3}
    f004:	e8ac000f 	stmia	ip!, {r0, r1, r2, r3}
    f008:	e8be000f 	ldm	lr!, {r0, r1, r2, r3}
    f00c:	e8ac000f 	stmia	ip!, {r0, r1, r2, r3}
    f010:	e8990003 	ldm	r9, {r0, r1}
    f014:	e8860003 	stm	r6, {r0, r1}
    f018:	e59f3878 	ldr	r3, [pc, #2168]	; f898 <mmsjos_main+0x970>
    f01c:	e59a2008 	ldr	r2, [sl, #8]
    f020:	e79b3003 	ldr	r3, [fp, r3]
    f024:	e1a00004 	mov	r0, r4
    f028:	e59f186c 	ldr	r1, [pc, #2156]	; f89c <mmsjos_main+0x974>
    f02c:	e58d3038 	str	r3, [sp, #56]	; 0x38
    f030:	e1c320b0 	strh	r2, [r3]
    f034:	ebffe46a 	bl	81e4 <get_info_arm>
    f038:	e1a0c00a 	mov	ip, sl
    f03c:	e1a0e004 	mov	lr, r4
    f040:	e8be000f 	ldm	lr!, {r0, r1, r2, r3}
    f044:	e8ac000f 	stmia	ip!, {r0, r1, r2, r3}
    f048:	e8be000f 	ldm	lr!, {r0, r1, r2, r3}
    f04c:	e8ac000f 	stmia	ip!, {r0, r1, r2, r3}
    f050:	e8990003 	ldm	r9, {r0, r1}
    f054:	e8860003 	stm	r6, {r0, r1}
    f058:	e59f3840 	ldr	r3, [pc, #2112]	; f8a0 <mmsjos_main+0x978>
    f05c:	e5da0018 	ldrb	r0, [sl, #24]
    f060:	e79b5003 	ldr	r5, [fp, r3]
    f064:	e5da1019 	ldrb	r1, [sl, #25]
    f068:	e5dae01a 	ldrb	lr, [sl, #26]
    f06c:	e5dac01b 	ldrb	ip, [sl, #27]
    f070:	e5da201c 	ldrb	r2, [sl, #28]
    f074:	e5da301d 	ldrb	r3, [sl, #29]
    f078:	e5c50000 	strb	r0, [r5]
    f07c:	e5c51001 	strb	r1, [r5, #1]
    f080:	e1a00004 	mov	r0, r4
    f084:	e59f1818 	ldr	r1, [pc, #2072]	; f8a4 <mmsjos_main+0x97c>
    f088:	e5c5e002 	strb	lr, [r5, #2]
    f08c:	e5c5c003 	strb	ip, [r5, #3]
    f090:	e5c52004 	strb	r2, [r5, #4]
    f094:	e5c53005 	strb	r3, [r5, #5]
    f098:	ebffe451 	bl	81e4 <get_info_arm>
    f09c:	e8b4000f 	ldm	r4!, {r0, r1, r2, r3}
    f0a0:	e1a0c00a 	mov	ip, sl
    f0a4:	e8ac000f 	stmia	ip!, {r0, r1, r2, r3}
    f0a8:	e8b4000f 	ldm	r4!, {r0, r1, r2, r3}
    f0ac:	e8ac000f 	stmia	ip!, {r0, r1, r2, r3}
    f0b0:	e8990003 	ldm	r9, {r0, r1}
    f0b4:	e8860003 	stm	r6, {r0, r1}
    f0b8:	e59f37e8 	ldr	r3, [pc, #2024]	; f8a8 <mmsjos_main+0x980>
    f0bc:	e59a2010 	ldr	r2, [sl, #16]
    f0c0:	e79b3003 	ldr	r3, [fp, r3]
    f0c4:	e1c320b0 	strh	r2, [r3]
    f0c8:	e58d303c 	str	r3, [sp, #60]	; 0x3c
    f0cc:	eb002a99 	bl	19b38 <spi_man_init>
    f0d0:	eb000353 	bl	fe24 <TIMER_INIT>
    f0d4:	eb000fbe 	bl	12fd4 <TFT_Init>
    f0d8:	eb000bb8 	bl	11fc0 <Touch_Init>
    f0dc:	eb002b12 	bl	19d2c <uart_init>
    f0e0:	e59f07c4 	ldr	r0, [pc, #1988]	; f8ac <mmsjos_main+0x984>
    f0e4:	e08f0000 	add	r0, pc, r0
    f0e8:	eb002b6e 	bl	19ea8 <puts>
    f0ec:	e3a03000 	mov	r3, #0
    f0f0:	e3a02001 	mov	r2, #1
    f0f4:	e59f07b4 	ldr	r0, [pc, #1972]	; f8b0 <mmsjos_main+0x988>
    f0f8:	e59f17b4 	ldr	r1, [pc, #1972]	; f8b4 <mmsjos_main+0x98c>
    f0fc:	e79bc000 	ldr	ip, [fp, r0]
    f100:	e79be001 	ldr	lr, [fp, r1]
    f104:	e59f07ac 	ldr	r0, [pc, #1964]	; f8b8 <mmsjos_main+0x990>
    f108:	e59f17ac 	ldr	r1, [pc, #1964]	; f8bc <mmsjos_main+0x994>
    f10c:	e58ce000 	str	lr, [ip]
    f110:	e79b4000 	ldr	r4, [fp, r0]
    f114:	e79be001 	ldr	lr, [fp, r1]
    f118:	e59f07a0 	ldr	r0, [pc, #1952]	; f8c0 <mmsjos_main+0x998>
    f11c:	e59f17a0 	ldr	r1, [pc, #1952]	; f8c4 <mmsjos_main+0x99c>
    f120:	e584e000 	str	lr, [r4]
    f124:	e79be001 	ldr	lr, [fp, r1]
    f128:	e79b9000 	ldr	r9, [fp, r0]
    f12c:	e59f1794 	ldr	r1, [pc, #1940]	; f8c8 <mmsjos_main+0x9a0>
    f130:	e59f0794 	ldr	r0, [pc, #1940]	; f8cc <mmsjos_main+0x9a4>
    f134:	e589e000 	str	lr, [r9]
    f138:	e79b4000 	ldr	r4, [fp, r0]
    f13c:	e79be001 	ldr	lr, [fp, r1]
    f140:	e3e0c010 	mvn	ip, #16
    f144:	e59f0784 	ldr	r0, [pc, #1924]	; f8d0 <mmsjos_main+0x9a8>
    f148:	e59f1784 	ldr	r1, [pc, #1924]	; f8d4 <mmsjos_main+0x9ac>
    f14c:	e584e000 	str	lr, [r4]
    f150:	e79b4001 	ldr	r4, [fp, r1]
    f154:	e79b6000 	ldr	r6, [fp, r0]
    f158:	e59f1778 	ldr	r1, [pc, #1912]	; f8d8 <mmsjos_main+0x9b0>
    f15c:	e59f0778 	ldr	r0, [pc, #1912]	; f8dc <mmsjos_main+0x9b4>
    f160:	e58d4034 	str	r4, [sp, #52]	; 0x34
    f164:	e5864000 	str	r4, [r6]
    f168:	e79be001 	ldr	lr, [fp, r1]
    f16c:	e79b0000 	ldr	r0, [fp, r0]
    f170:	e59f1768 	ldr	r1, [pc, #1896]	; f8e0 <mmsjos_main+0x9b8>
    f174:	e580e000 	str	lr, [r0]
    f178:	e5c43000 	strb	r3, [r4]
    f17c:	e79b0001 	ldr	r0, [fp, r1]
    f180:	e59f175c 	ldr	r1, [pc, #1884]	; f8e4 <mmsjos_main+0x9bc>
    f184:	e5802000 	str	r2, [r0]
    f188:	e79b0001 	ldr	r0, [fp, r1]
    f18c:	e59f1754 	ldr	r1, [pc, #1876]	; f8e8 <mmsjos_main+0x9c0>
    f190:	e5803000 	str	r3, [r0]
    f194:	e79b1001 	ldr	r1, [fp, r1]
    f198:	e5970000 	ldr	r0, [r7]
    f19c:	e5813000 	str	r3, [r1]
    f1a0:	e59f1744 	ldr	r1, [pc, #1860]	; f8ec <mmsjos_main+0x9c4>
    f1a4:	e59fe744 	ldr	lr, [pc, #1860]	; f8f0 <mmsjos_main+0x9c8>
    f1a8:	e0810190 	umull	r0, r1, r0, r1
    f1ac:	e79be00e 	ldr	lr, [fp, lr]
    f1b0:	e1cd01f0 	strd	r0, [sp, #16]
    f1b4:	e59d1014 	ldr	r1, [sp, #20]
    f1b8:	e59f0734 	ldr	r0, [pc, #1844]	; f8f4 <mmsjos_main+0x9cc>
    f1bc:	e58e3000 	str	r3, [lr]
    f1c0:	e1a0e921 	lsr	lr, r1, #18
    f1c4:	e5981000 	ldr	r1, [r8]
    f1c8:	e79b0000 	ldr	r0, [fp, r0]
    f1cc:	e1a01a21 	lsr	r1, r1, #20
    f1d0:	e5803000 	str	r3, [r0]
    f1d4:	e59f371c 	ldr	r3, [pc, #1820]	; f8f8 <mmsjos_main+0x9d0>
    f1d8:	e5881000 	str	r1, [r8]
    f1dc:	e587e000 	str	lr, [r7]
    f1e0:	e79b4003 	ldr	r4, [fp, r3]
    f1e4:	e1a00004 	mov	r0, r4
    f1e8:	e5c42000 	strb	r2, [r4]
    f1ec:	e5c4c001 	strb	ip, [r4, #1]
    f1f0:	eb0015c4 	bl	14908 <commVDG>
    f1f4:	e1d420b1 	ldrh	r2, [r4, #1]
    f1f8:	e1d430b3 	ldrh	r3, [r4, #3]
    f1fc:	e59fc6f8 	ldr	ip, [pc, #1784]	; f8fc <mmsjos_main+0x9d4>
    f200:	e6bf2fb2 	rev16	r2, r2
    f204:	e6bf3fb3 	rev16	r3, r3
    f208:	e6ff3073 	uxth	r3, r3
    f20c:	e6ff2072 	uxth	r2, r2
    f210:	e152000c 	cmp	r2, ip
    f214:	035300ef 	cmpeq	r3, #239	; 0xef
    f218:	e59f06e0 	ldr	r0, [pc, #1760]	; f900 <mmsjos_main+0x9d8>
    f21c:	e59f16e0 	ldr	r1, [pc, #1760]	; f904 <mmsjos_main+0x9dc>
    f220:	e79b0000 	ldr	r0, [fp, r0]
    f224:	e5802000 	str	r2, [r0]
    f228:	e58d0044 	str	r0, [sp, #68]	; 0x44
    f22c:	e79b2001 	ldr	r2, [fp, r1]
    f230:	e5d41000 	ldrb	r1, [r4]
    f234:	e5823000 	str	r3, [r2]
    f238:	13a030ef 	movne	r3, #239	; 0xef
    f23c:	e58d1024 	str	r1, [sp, #36]	; 0x24
    f240:	e59f16c0 	ldr	r1, [pc, #1728]	; f908 <mmsjos_main+0x9e0>
    f244:	1580c000 	strne	ip, [r0]
    f248:	15823000 	strne	r3, [r2]
    f24c:	e58d2030 	str	r2, [sp, #48]	; 0x30
    f250:	e79b1001 	ldr	r1, [fp, r1]
    f254:	e3a0c027 	mov	ip, #39	; 0x27
    f258:	e1a0e001 	mov	lr, r1
    f25c:	e59f26a8 	ldr	r2, [pc, #1704]	; f90c <mmsjos_main+0x9e4>
    f260:	e58ec000 	str	ip, [lr]
    f264:	e58d1020 	str	r1, [sp, #32]
    f268:	e79b2002 	ldr	r2, [fp, r2]
    f26c:	e3a00017 	mov	r0, #23
    f270:	e1a0c002 	mov	ip, r2
    f274:	e59f1694 	ldr	r1, [pc, #1684]	; f910 <mmsjos_main+0x9e8>
    f278:	e58c0000 	str	r0, [ip]
    f27c:	e58d2040 	str	r2, [sp, #64]	; 0x40
    f280:	e79b1001 	ldr	r1, [fp, r1]
    f284:	e3a03000 	mov	r3, #0
    f288:	e1a00001 	mov	r0, r1
    f28c:	e59f2680 	ldr	r2, [pc, #1664]	; f914 <mmsjos_main+0x9ec>
    f290:	e5803000 	str	r3, [r0]
    f294:	e58d1010 	str	r1, [sp, #16]
    f298:	e79ba002 	ldr	sl, [fp, r2]
    f29c:	e59f1674 	ldr	r1, [pc, #1652]	; f918 <mmsjos_main+0x9f0>
    f2a0:	e58a3000 	str	r3, [sl]
    f2a4:	e79b0001 	ldr	r0, [fp, r1]
    f2a8:	e59f266c 	ldr	r2, [pc, #1644]	; f91c <mmsjos_main+0x9f4>
    f2ac:	e5c03000 	strb	r3, [r0]
    f2b0:	e79b2002 	ldr	r2, [fp, r2]
    f2b4:	e59f1664 	ldr	r1, [pc, #1636]	; f920 <mmsjos_main+0x9f8>
    f2b8:	e1a00002 	mov	r0, r2
    f2bc:	e59f2660 	ldr	r2, [pc, #1632]	; f924 <mmsjos_main+0x9fc>
    f2c0:	e5801000 	str	r1, [r0]
    f2c4:	e58d001c 	str	r0, [sp, #28]
    f2c8:	e79b2002 	ldr	r2, [fp, r2]
    f2cc:	e1a01003 	mov	r1, r3
    f2d0:	e1a0c002 	mov	ip, r2
    f2d4:	e1a00003 	mov	r0, r3
    f2d8:	e1a02003 	mov	r2, r3
    f2dc:	e58c3000 	str	r3, [ip]
    f2e0:	e58dc018 	str	ip, [sp, #24]
    f2e4:	ebfff563 	bl	c878 <locate>
    f2e8:	e59d001c 	ldr	r0, [sp, #28]
    f2ec:	e59d2018 	ldr	r2, [sp, #24]
    f2f0:	e5901000 	ldr	r1, [r0]
    f2f4:	e5922000 	ldr	r2, [r2]
    f2f8:	e3a03004 	mov	r3, #4
    f2fc:	e3a00008 	mov	r0, #8
    f300:	ebfff4c5 	bl	c61c <writec>
    f304:	e3a01002 	mov	r1, #2
    f308:	e3a03001 	mov	r3, #1
    f30c:	e3e02027 	mvn	r2, #39	; 0x27
    f310:	e1a00004 	mov	r0, r4
    f314:	e5c41000 	strb	r1, [r4]
    f318:	e5c43002 	strb	r3, [r4, #2]
    f31c:	e5c42001 	strb	r2, [r4, #1]
    f320:	eb001578 	bl	14908 <commVDG>
    f324:	e59d2018 	ldr	r2, [sp, #24]
    f328:	e5920000 	ldr	r0, [r2]
    f32c:	ebfff5aa 	bl	c9dc <clearScr>
    f330:	e59f35f0 	ldr	r3, [pc, #1520]	; f928 <mmsjos_main+0xa00>
    f334:	e59f05f0 	ldr	r0, [pc, #1520]	; f92c <mmsjos_main+0xa04>
    f338:	e79b3003 	ldr	r3, [fp, r3]
    f33c:	e08f0000 	add	r0, pc, r0
    f340:	e5931000 	ldr	r1, [r3]
    f344:	eb000497 	bl	105a8 <printf>
    f348:	e5971000 	ldr	r1, [r7]
    f34c:	e3510ffa 	cmp	r1, #1000	; 0x3e8
    f350:	3a000144 	bcc	f868 <mmsjos_main+0x940>
    f354:	e59f05d4 	ldr	r0, [pc, #1492]	; f930 <mmsjos_main+0xa08>
    f358:	e59f25d4 	ldr	r2, [pc, #1492]	; f934 <mmsjos_main+0xa0c>
    f35c:	e0810091 	umull	r0, r1, r1, r0
    f360:	e08f2002 	add	r2, pc, r2
    f364:	e1a01321 	lsr	r1, r1, #6
    f368:	e59f05c8 	ldr	r0, [pc, #1480]	; f938 <mmsjos_main+0xa10>
    f36c:	e08f0000 	add	r0, pc, r0
    f370:	eb00048c 	bl	105a8 <printf>
    f374:	e59f35c0 	ldr	r3, [pc, #1472]	; f93c <mmsjos_main+0xa14>
    f378:	e59f05c0 	ldr	r0, [pc, #1472]	; f940 <mmsjos_main+0xa18>
    f37c:	e79b3003 	ldr	r3, [fp, r3]
    f380:	e08f0000 	add	r0, pc, r0
    f384:	e5931000 	ldr	r1, [r3]
    f388:	eb000486 	bl	105a8 <printf>
    f38c:	e59d3028 	ldr	r3, [sp, #40]	; 0x28
    f390:	e59f05ac 	ldr	r0, [pc, #1452]	; f944 <mmsjos_main+0xa1c>
    f394:	e1d310b0 	ldrh	r1, [r3]
    f398:	e08f0000 	add	r0, pc, r0
    f39c:	eb000481 	bl	105a8 <printf>
    f3a0:	e59d302c 	ldr	r3, [sp, #44]	; 0x2c
    f3a4:	e59f059c 	ldr	r0, [pc, #1436]	; f948 <mmsjos_main+0xa20>
    f3a8:	e1d310b0 	ldrh	r1, [r3]
    f3ac:	e08f0000 	add	r0, pc, r0
    f3b0:	eb00047c 	bl	105a8 <printf>
    f3b4:	e59d3038 	ldr	r3, [sp, #56]	; 0x38
    f3b8:	e59f058c 	ldr	r0, [pc, #1420]	; f94c <mmsjos_main+0xa24>
    f3bc:	e1d310b0 	ldrh	r1, [r3]
    f3c0:	e08f0000 	add	r0, pc, r0
    f3c4:	eb000477 	bl	105a8 <printf>
    f3c8:	e5d5e005 	ldrb	lr, [r5, #5]
    f3cc:	e5d5c004 	ldrb	ip, [r5, #4]
    f3d0:	e5d50003 	ldrb	r0, [r5, #3]
    f3d4:	e5d52001 	ldrb	r2, [r5, #1]
    f3d8:	e5d53002 	ldrb	r3, [r5, #2]
    f3dc:	e5d51000 	ldrb	r1, [r5]
    f3e0:	e88d5001 	stm	sp, {r0, ip, lr}
    f3e4:	e59f0564 	ldr	r0, [pc, #1380]	; f950 <mmsjos_main+0xa28>
    f3e8:	e08f0000 	add	r0, pc, r0
    f3ec:	eb00046d 	bl	105a8 <printf>
    f3f0:	e59d303c 	ldr	r3, [sp, #60]	; 0x3c
    f3f4:	e59f0558 	ldr	r0, [pc, #1368]	; f954 <mmsjos_main+0xa2c>
    f3f8:	e1d310b0 	ldrh	r1, [r3]
    f3fc:	e08f0000 	add	r0, pc, r0
    f400:	eb000468 	bl	105a8 <printf>
    f404:	e59f054c 	ldr	r0, [pc, #1356]	; f958 <mmsjos_main+0xa30>
    f408:	e5981000 	ldr	r1, [r8]
    f40c:	e08f0000 	add	r0, pc, r0
    f410:	eb000464 	bl	105a8 <printf>
    f414:	e59f0540 	ldr	r0, [pc, #1344]	; f95c <mmsjos_main+0xa34>
    f418:	e08f0000 	add	r0, pc, r0
    f41c:	eb000461 	bl	105a8 <printf>
    f420:	e59d3040 	ldr	r3, [sp, #64]	; 0x40
    f424:	e5930000 	ldr	r0, [r3]
    f428:	e59d3030 	ldr	r3, [sp, #48]	; 0x30
    f42c:	e2800001 	add	r0, r0, #1
    f430:	e5932000 	ldr	r2, [r3]
    f434:	e59d3044 	ldr	r3, [sp, #68]	; 0x44
    f438:	e2822001 	add	r2, r2, #1
    f43c:	e5931000 	ldr	r1, [r3]
    f440:	e59d3020 	ldr	r3, [sp, #32]
    f444:	e2811001 	add	r1, r1, #1
    f448:	e5933000 	ldr	r3, [r3]
    f44c:	e58d0000 	str	r0, [sp]
    f450:	e59f0508 	ldr	r0, [pc, #1288]	; f960 <mmsjos_main+0xa38>
    f454:	e2833001 	add	r3, r3, #1
    f458:	e08f0000 	add	r0, pc, r0
    f45c:	eb000451 	bl	105a8 <printf>
    f460:	e59d3024 	ldr	r3, [sp, #36]	; 0x24
    f464:	e3130002 	tst	r3, #2
    f468:	0a0000fa 	beq	f858 <mmsjos_main+0x930>
    f46c:	e59f04f0 	ldr	r0, [pc, #1264]	; f964 <mmsjos_main+0xa3c>
    f470:	e08f0000 	add	r0, pc, r0
    f474:	eb00044b 	bl	105a8 <printf>
    f478:	e59f04e8 	ldr	r0, [pc, #1256]	; f968 <mmsjos_main+0xa40>
    f47c:	e08f0000 	add	r0, pc, r0
    f480:	eb000448 	bl	105a8 <printf>
    f484:	ebffe617 	bl	8ce8 <fsMountDisk>
    f488:	e1a05000 	mov	r5, r0
    f48c:	ebffe432 	bl	855c <interrupts_init>
    f490:	eb000cea 	bl	12840 <TFT_EN_INT>
    f494:	eb00299f 	bl	19b18 <USB_EN_INT>
    f498:	e3550000 	cmp	r5, #0
    f49c:	0a0000e9 	beq	f848 <mmsjos_main+0x920>
    f4a0:	e35500e3 	cmp	r5, #227	; 0xe3
    f4a4:	e1a01005 	mov	r1, r5
    f4a8:	0a0000e2 	beq	f838 <mmsjos_main+0x910>
    f4ac:	e59f04b8 	ldr	r0, [pc, #1208]	; f96c <mmsjos_main+0xa44>
    f4b0:	e08f0000 	add	r0, pc, r0
    f4b4:	eb00043b 	bl	105a8 <printf>
    f4b8:	eb0028a1 	bl	19744 <UsbInitialise>
    f4bc:	eb001afe 	bl	160bc <UsbGetRootHub>
    f4c0:	e3a0202a 	mov	r2, #42	; 0x2a
    f4c4:	e3a01001 	mov	r1, #1
    f4c8:	eb001c2c 	bl	16580 <UsbShowTree>
    f4cc:	eb00024c 	bl	fe04 <TIMER_EN_INT>
    f4d0:	e3a00ffa 	mov	r0, #1000	; 0x3e8
    f4d4:	eb000259 	bl	fe40 <timer_set>
    f4d8:	e3a0202f 	mov	r2, #47	; 0x2f
    f4dc:	e3a07000 	mov	r7, #0
    f4e0:	e5993000 	ldr	r3, [r9]
    f4e4:	e59f0484 	ldr	r0, [pc, #1156]	; f970 <mmsjos_main+0xa48>
    f4e8:	e2831001 	add	r1, r3, #1
    f4ec:	e5891000 	str	r1, [r9]
    f4f0:	e5c32000 	strb	r2, [r3]
    f4f4:	e5993000 	ldr	r3, [r9]
    f4f8:	e08f0000 	add	r0, pc, r0
    f4fc:	e5c37000 	strb	r7, [r3]
    f500:	eb000428 	bl	105a8 <printf>
    f504:	e1a00007 	mov	r0, r7
    f508:	ebfff54f 	bl	ca4c <putPrompt>
    f50c:	e3a09001 	mov	r9, #1
    f510:	e3a02002 	mov	r2, #2
    f514:	e3e03027 	mvn	r3, #39	; 0x27
    f518:	e1a00004 	mov	r0, r4
    f51c:	e5c42000 	strb	r2, [r4]
    f520:	e5c43001 	strb	r3, [r4, #1]
    f524:	e5c49002 	strb	r9, [r4, #2]
    f528:	eb0014f6 	bl	14908 <commVDG>
    f52c:	e3a0c032 	mov	ip, #50	; 0x32
    f530:	e1a02009 	mov	r2, r9
    f534:	e1a03007 	mov	r3, r7
    f538:	e1a01009 	mov	r1, r9
    f53c:	e58d7004 	str	r7, [sp, #4]
    f540:	e1a00007 	mov	r0, r7
    f544:	e58dc000 	str	ip, [sp]
    f548:	e59d5034 	ldr	r5, [sp, #52]	; 0x34
    f54c:	ebffe5af 	bl	8c10 <funcKey>
    f550:	e59f241c 	ldr	r2, [pc, #1052]	; f974 <mmsjos_main+0xa4c>
    f554:	e59f341c 	ldr	r3, [pc, #1052]	; f978 <mmsjos_main+0xa50>
    f558:	e08f2002 	add	r2, pc, r2
    f55c:	e58d2024 	str	r2, [sp, #36]	; 0x24
    f560:	e79b3003 	ldr	r3, [fp, r3]
    f564:	e1a08007 	mov	r8, r7
    f568:	e58d302c 	str	r3, [sp, #44]	; 0x2c
    f56c:	e28d9070 	add	r9, sp, #112	; 0x70
    f570:	ea000038 	b	f658 <mmsjos_main+0x730>
    f574:	e5dd0073 	ldrb	r0, [sp, #115]	; 0x73
    f578:	e5dd3072 	ldrb	r3, [sp, #114]	; 0x72
    f57c:	e58d0000 	str	r0, [sp]
    f580:	e59f03f4 	ldr	r0, [pc, #1012]	; f97c <mmsjos_main+0xa54>
    f584:	e5dd2071 	ldrb	r2, [sp, #113]	; 0x71
    f588:	e5dd1070 	ldrb	r1, [sp, #112]	; 0x70
    f58c:	e08f0000 	add	r0, pc, r0
    f590:	eb000404 	bl	105a8 <printf>
    f594:	e5dd0077 	ldrb	r0, [sp, #119]	; 0x77
    f598:	e5dd3076 	ldrb	r3, [sp, #118]	; 0x76
    f59c:	e58d0000 	str	r0, [sp]
    f5a0:	e59f03d8 	ldr	r0, [pc, #984]	; f980 <mmsjos_main+0xa58>
    f5a4:	e5dd2075 	ldrb	r2, [sp, #117]	; 0x75
    f5a8:	e5dd1074 	ldrb	r1, [sp, #116]	; 0x74
    f5ac:	e08f0000 	add	r0, pc, r0
    f5b0:	eb0003fc 	bl	105a8 <printf>
    f5b4:	e3a00000 	mov	r0, #0
    f5b8:	ebfff523 	bl	ca4c <putPrompt>
    f5bc:	e3e03023 	mvn	r3, #35	; 0x23
    f5c0:	e3a07001 	mov	r7, #1
    f5c4:	e1a00004 	mov	r0, r4
    f5c8:	e5c47000 	strb	r7, [r4]
    f5cc:	e5c43001 	strb	r3, [r4, #1]
    f5d0:	eb0014cc 	bl	14908 <commVDG>
    f5d4:	e5d4b000 	ldrb	fp, [r4]
    f5d8:	e35b0000 	cmp	fp, #0
    f5dc:	0a000013 	beq	f630 <mmsjos_main+0x708>
    f5e0:	e24b3020 	sub	r3, fp, #32
    f5e4:	e353005f 	cmp	r3, #95	; 0x5f
    f5e8:	8a000039 	bhi	f6d4 <mmsjos_main+0x7ac>
    f5ec:	e4c5b001 	strb	fp, [r5], #1
    f5f0:	e5963000 	ldr	r3, [r6]
    f5f4:	e59d2020 	ldr	r2, [sp, #32]
    f5f8:	e283301f 	add	r3, r3, #31
    f5fc:	e59a1000 	ldr	r1, [sl]
    f600:	e5922000 	ldr	r2, [r2]
    f604:	e1550003 	cmp	r5, r3
    f608:	21a05003 	movcs	r5, r3
    f60c:	e1510002 	cmp	r1, r2
    f610:	8a00007f 	bhi	f814 <mmsjos_main+0x8ec>
    f614:	e59d2018 	ldr	r2, [sp, #24]
    f618:	e59d101c 	ldr	r1, [sp, #28]
    f61c:	e1a0000b 	mov	r0, fp
    f620:	e3a03003 	mov	r3, #3
    f624:	e5922000 	ldr	r2, [r2]
    f628:	e5911000 	ldr	r1, [r1]
    f62c:	ebfff3fa 	bl	c61c <writec>
    f630:	e3a00000 	mov	r0, #0
    f634:	ebfff504 	bl	ca4c <putPrompt>
    f638:	e3a01c01 	mov	r1, #256	; 0x100
    f63c:	e5960000 	ldr	r0, [r6]
    f640:	eb002a22 	bl	19ed0 <gets>
    f644:	e5960000 	ldr	r0, [r6]
    f648:	eb002a16 	bl	19ea8 <puts>
    f64c:	e3a0000a 	mov	r0, #10
    f650:	eb002a13 	bl	19ea4 <putc>
    f654:	ebfffa8d 	bl	e090 <processCmd>
    f658:	e3580000 	cmp	r8, #0
    f65c:	0a00000b 	beq	f690 <mmsjos_main+0x768>
    f660:	e3a02008 	mov	r2, #8
    f664:	e3a01000 	mov	r1, #0
    f668:	e58d2000 	str	r2, [sp]
    f66c:	e1a03009 	mov	r3, r9
    f670:	e3a02c01 	mov	r2, #256	; 0x100
    f674:	e1a00008 	mov	r0, r8
    f678:	eb002852 	bl	197c8 <HIDReadReport>
    f67c:	e2501000 	subs	r1, r0, #0
    f680:	0affffbb 	beq	f574 <mmsjos_main+0x64c>
    f684:	e59d0024 	ldr	r0, [sp, #36]	; 0x24
    f688:	eb0003c6 	bl	105a8 <printf>
    f68c:	eaffffc8 	b	f5b4 <mmsjos_main+0x68c>
    f690:	e3a0b001 	mov	fp, #1
    f694:	ea000001 	b	f6a0 <mmsjos_main+0x778>
    f698:	e35b0021 	cmp	fp, #33	; 0x21
    f69c:	0affffc6 	beq	f5bc <mmsjos_main+0x694>
    f6a0:	e6ef707b 	uxtb	r7, fp
    f6a4:	e1a00007 	mov	r0, r7
    f6a8:	eb001a6a 	bl	16058 <IsKeyboard>
    f6ac:	e3500000 	cmp	r0, #0
    f6b0:	e28bb001 	add	fp, fp, #1
    f6b4:	0afffff7 	beq	f698 <mmsjos_main+0x770>
    f6b8:	e59f02c4 	ldr	r0, [pc, #708]	; f984 <mmsjos_main+0xa5c>
    f6bc:	e1a08007 	mov	r8, r7
    f6c0:	e08f0000 	add	r0, pc, r0
    f6c4:	eb0003b7 	bl	105a8 <printf>
    f6c8:	e3a00000 	mov	r0, #0
    f6cc:	ebfff4de 	bl	ca4c <putPrompt>
    f6d0:	eaffffe2 	b	f660 <mmsjos_main+0x738>
    f6d4:	e35b0008 	cmp	fp, #8
    f6d8:	0a00002b 	beq	f78c <mmsjos_main+0x864>
    f6dc:	e35b000d 	cmp	fp, #13
    f6e0:	1affffd2 	bne	f630 <mmsjos_main+0x708>
    f6e4:	e3a0e000 	mov	lr, #0
    f6e8:	e3a01002 	mov	r1, #2
    f6ec:	e3e02027 	mvn	r2, #39	; 0x27
    f6f0:	e59dc010 	ldr	ip, [sp, #16]
    f6f4:	e1a00004 	mov	r0, r4
    f6f8:	e59c3000 	ldr	r3, [ip]
    f6fc:	e5c4e002 	strb	lr, [r4, #2]
    f700:	e2833001 	add	r3, r3, #1
    f704:	e58c3000 	str	r3, [ip]
    f708:	e5c41000 	strb	r1, [r4]
    f70c:	e58d1028 	str	r1, [sp, #40]	; 0x28
    f710:	e5c42001 	strb	r2, [r4, #1]
    f714:	e3a0b032 	mov	fp, #50	; 0x32
    f718:	eb00147a 	bl	14908 <commVDG>
    f71c:	e3a03000 	mov	r3, #0
    f720:	e59d1028 	ldr	r1, [sp, #40]	; 0x28
    f724:	e1a02003 	mov	r2, r3
    f728:	e58d3004 	str	r3, [sp, #4]
    f72c:	e1a00003 	mov	r0, r3
    f730:	e58db000 	str	fp, [sp]
    f734:	ebffe535 	bl	8c10 <funcKey>
    f738:	e3a02000 	mov	r2, #0
    f73c:	e59dc010 	ldr	ip, [sp, #16]
    f740:	e1a00002 	mov	r0, r2
    f744:	e5dc1000 	ldrb	r1, [ip]
    f748:	ebfff44a 	bl	c878 <locate>
    f74c:	e3a03000 	mov	r3, #0
    f750:	e5c53000 	strb	r3, [r5]
    f754:	ebfffa4d 	bl	e090 <processCmd>
    f758:	e3a00000 	mov	r0, #0
    f75c:	ebfff4ba 	bl	ca4c <putPrompt>
    f760:	e3a03000 	mov	r3, #0
    f764:	e3a02000 	mov	r2, #0
    f768:	e5965000 	ldr	r5, [r6]
    f76c:	e1a00003 	mov	r0, r3
    f770:	e5c52000 	strb	r2, [r5]
    f774:	e1a01007 	mov	r1, r7
    f778:	e1a02007 	mov	r2, r7
    f77c:	e58db000 	str	fp, [sp]
    f780:	e58d3004 	str	r3, [sp, #4]
    f784:	ebffe521 	bl	8c10 <funcKey>
    f788:	eaffffa8 	b	f630 <mmsjos_main+0x708>
    f78c:	e59d302c 	ldr	r3, [sp, #44]	; 0x2c
    f790:	e5d32000 	ldrb	r2, [r3]
    f794:	e59a3000 	ldr	r3, [sl]
    f798:	e1520003 	cmp	r2, r3
    f79c:	2affffa3 	bcs	f630 <mmsjos_main+0x708>
    f7a0:	e3a01000 	mov	r1, #0
    f7a4:	e4451001 	strb	r1, [r5], #-1
    f7a8:	e5963000 	ldr	r3, [r6]
    f7ac:	e59d7010 	ldr	r7, [sp, #16]
    f7b0:	e1550003 	cmp	r5, r3
    f7b4:	31a05003 	movcc	r5, r3
    f7b8:	e5c51000 	strb	r1, [r5]
    f7bc:	e59a3000 	ldr	r3, [sl]
    f7c0:	e5d71000 	ldrb	r1, [r7]
    f7c4:	e2433001 	sub	r3, r3, #1
    f7c8:	e6ef0073 	uxtb	r0, r3
    f7cc:	e3a02000 	mov	r2, #0
    f7d0:	e58a3000 	str	r3, [sl]
    f7d4:	ebfff427 	bl	c878 <locate>
    f7d8:	e59d2018 	ldr	r2, [sp, #24]
    f7dc:	e59d101c 	ldr	r1, [sp, #28]
    f7e0:	e1a0000b 	mov	r0, fp
    f7e4:	e3a03003 	mov	r3, #3
    f7e8:	e5922000 	ldr	r2, [r2]
    f7ec:	e5911000 	ldr	r1, [r1]
    f7f0:	ebfff389 	bl	c61c <writec>
    f7f4:	e59a3000 	ldr	r3, [sl]
    f7f8:	e3a02000 	mov	r2, #0
    f7fc:	e2433001 	sub	r3, r3, #1
    f800:	e6ef0073 	uxtb	r0, r3
    f804:	e5d71000 	ldrb	r1, [r7]
    f808:	e58a3000 	str	r3, [sl]
    f80c:	ebfff419 	bl	c878 <locate>
    f810:	eaffff86 	b	f630 <mmsjos_main+0x708>
    f814:	e3a02000 	mov	r2, #0
    f818:	e59dc010 	ldr	ip, [sp, #16]
    f81c:	e1a00002 	mov	r0, r2
    f820:	e59c3000 	ldr	r3, [ip]
    f824:	e0833007 	add	r3, r3, r7
    f828:	e6ef1073 	uxtb	r1, r3
    f82c:	e58c3000 	str	r3, [ip]
    f830:	ebfff410 	bl	c878 <locate>
    f834:	eaffff76 	b	f614 <mmsjos_main+0x6ec>
    f838:	e59f0148 	ldr	r0, [pc, #328]	; f988 <mmsjos_main+0xa60>
    f83c:	e08f0000 	add	r0, pc, r0
    f840:	eb000358 	bl	105a8 <printf>
    f844:	eaffff1b 	b	f4b8 <mmsjos_main+0x590>
    f848:	e59f013c 	ldr	r0, [pc, #316]	; f98c <mmsjos_main+0xa64>
    f84c:	e08f0000 	add	r0, pc, r0
    f850:	eb000354 	bl	105a8 <printf>
    f854:	eaffff17 	b	f4b8 <mmsjos_main+0x590>
    f858:	e59f0130 	ldr	r0, [pc, #304]	; f990 <mmsjos_main+0xa68>
    f85c:	e08f0000 	add	r0, pc, r0
    f860:	eb000350 	bl	105a8 <printf>
    f864:	eaffff03 	b	f478 <mmsjos_main+0x550>
    f868:	e59f2124 	ldr	r2, [pc, #292]	; f994 <mmsjos_main+0xa6c>
    f86c:	e08f2002 	add	r2, pc, r2
    f870:	eafffebc 	b	f368 <mmsjos_main+0x440>
    f874:	0000ff38 	andeq	pc, r0, r8, lsr pc	; <UNPREDICTABLE>
    f878:	00000138 	andeq	r0, r0, r8, lsr r1
    f87c:	00030002 	andeq	r0, r3, r2
    f880:	000001e8 	andeq	r0, r0, r8, ror #3
    f884:	000001d4 	ldrdeq	r0, [r0], -r4
    f888:	000001b4 			; <UNDEFINED> instruction: 0x000001b4
    f88c:	00010001 	andeq	r0, r1, r1
    f890:	0000018c 	andeq	r0, r0, ip, lsl #3
    f894:	00010002 	andeq	r0, r1, r2
    f898:	000001b0 			; <UNDEFINED> instruction: 0x000001b0
    f89c:	00010003 	andeq	r0, r1, r3
    f8a0:	000001f0 	strdeq	r0, [r0], -r0	; <UNPREDICTABLE>
    f8a4:	00010004 	andeq	r0, r1, r4
    f8a8:	0000007c 	andeq	r0, r0, ip, ror r0
    f8ac:	0000c8a8 	andeq	ip, r0, r8, lsr #17
    f8b0:	0000002c 	andeq	r0, r0, ip, lsr #32
    f8b4:	00000134 	andeq	r0, r0, r4, lsr r1
    f8b8:	00000228 	andeq	r0, r0, r8, lsr #4
    f8bc:	00000120 	andeq	r0, r0, r0, lsr #2
    f8c0:	00000210 	andeq	r0, r0, r0, lsl r2
    f8c4:	000000e8 	andeq	r0, r0, r8, ror #1
    f8c8:	00000198 	muleq	r0, r8, r1
    f8cc:	000000a0 	andeq	r0, r0, r0, lsr #1
    f8d0:	0000024c 	andeq	r0, r0, ip, asr #4
    f8d4:	00000018 	andeq	r0, r0, r8, lsl r0
    f8d8:	00000078 	andeq	r0, r0, r8, ror r0
    f8dc:	00000064 	andeq	r0, r0, r4, rrx
    f8e0:	00000194 	muleq	r0, r4, r1
    f8e4:	00000020 	andeq	r0, r0, r0, lsr #32
    f8e8:	000000f8 	strdeq	r0, [r0], -r8
    f8ec:	431bde83 	tstmi	fp, #2096	; 0x830
    f8f0:	00000200 	andeq	r0, r0, r0, lsl #4
    f8f4:	00000244 	andeq	r0, r0, r4, asr #4
    f8f8:	00000164 	andeq	r0, r0, r4, ror #2
    f8fc:	0000013f 	andeq	r0, r0, pc, lsr r1
    f900:	000001ac 	andeq	r0, r0, ip, lsr #3
    f904:	0000012c 	andeq	r0, r0, ip, lsr #2
    f908:	00000050 	andeq	r0, r0, r0, asr r0
    f90c:	000000e4 	andeq	r0, r0, r4, ror #1
    f910:	0000020c 	andeq	r0, r0, ip, lsl #4
    f914:	0000004c 	andeq	r0, r0, ip, asr #32
    f918:	00000010 	andeq	r0, r0, r0, lsl r0
    f91c:	00000118 	andeq	r0, r0, r8, lsl r1
    f920:	0000ffff 	strdeq	pc, [r0], -pc	; <UNPREDICTABLE>
    f924:	00000040 	andeq	r0, r0, r0, asr #32
    f928:	00000254 	andeq	r0, r0, r4, asr r2
    f92c:	0000c668 	andeq	ip, r0, r8, ror #12
    f930:	10624dd3 	ldrdne	r4, [r2], #-211	; 0xffffff2d	; <UNPREDICTABLE>
    f934:	0000c624 	andeq	ip, r0, r4, lsr #12
    f938:	0000c654 	andeq	ip, r0, r4, asr r6
    f93c:	000001c8 	andeq	r0, r0, r8, asr #3
    f940:	0000c668 	andeq	ip, r0, r8, ror #12
    f944:	0000c668 	andeq	ip, r0, r8, ror #12
    f948:	0000c668 	andeq	ip, r0, r8, ror #12
    f94c:	0000c664 	andeq	ip, r0, r4, ror #12
    f950:	0000c650 	andeq	ip, r0, r0, asr r6
    f954:	0000c66c 	andeq	ip, r0, ip, ror #12
    f958:	0000c66c 	andeq	ip, r0, ip, ror #12
    f95c:	0000c67c 	andeq	ip, r0, ip, ror r6
    f960:	0000c654 	andeq	ip, r0, r4, asr r6
    f964:	0000c65c 	andeq	ip, r0, ip, asr r6
    f968:	0000c68c 	andeq	ip, r0, ip, lsl #13
    f96c:	0000c6a4 	andeq	ip, r0, r4, lsr #13
    f970:	0000c240 	andeq	ip, r0, r0, asr #4
    f974:	0000c6c4 	andeq	ip, r0, r4, asr #13
    f978:	000001f8 	strdeq	r0, [r0], -r8
    f97c:	0000c5f8 	strdeq	ip, [r0], -r8
    f980:	0000c624 	andeq	ip, r0, r4, lsr #12
    f984:	0000c570 	andeq	ip, r0, r0, ror r5
    f988:	0000c2e8 	andeq	ip, r0, r8, ror #5
    f98c:	0000c330 	andeq	ip, r0, r0, lsr r3
    f990:	0000c28c 	andeq	ip, r0, ip, lsl #5
    f994:	0000c11c 	andeq	ip, r0, ip, lsl r1

0000f998 <radioset>:
    f998:	e92d4ff0 	push	{r4, r5, r6, r7, r8, r9, sl, fp, lr}
    f99c:	e24dd014 	sub	sp, sp, #20
    f9a0:	e5dd8038 	ldrb	r8, [sp, #56]	; 0x38
    f9a4:	e59f7184 	ldr	r7, [pc, #388]	; fb30 <radioset+0x198>
    f9a8:	e3580001 	cmp	r8, #1
    f9ac:	e3a0c000 	mov	ip, #0
    f9b0:	e08f7007 	add	r7, pc, r7
    f9b4:	1a000021 	bne	fa40 <radioset+0xa8>
    f9b8:	e3a0a00a 	mov	sl, #10
    f9bc:	e1a0500c 	mov	r5, ip
    f9c0:	e1a0600c 	mov	r6, ip
    f9c4:	e2829008 	add	r9, r2, #8
    f9c8:	ea000002 	b	f9d8 <radioset+0x40>
    f9cc:	e35e0000 	cmp	lr, #0
    f9d0:	0a000019 	beq	fa3c <radioset+0xa4>
    f9d4:	e28cc001 	add	ip, ip, #1
    f9d8:	e6ef407c 	uxtb	r4, ip
    f9dc:	e7d0e004 	ldrb	lr, [r0, r4]
    f9e0:	e35e002c 	cmp	lr, #44	; 0x2c
    f9e4:	1afffff8 	bne	f9cc <radioset+0x34>
    f9e8:	e59fe144 	ldr	lr, [pc, #324]	; fb34 <radioset+0x19c>
    f9ec:	e3540000 	cmp	r4, #0
    f9f0:	e797e00e 	ldr	lr, [r7, lr]
    f9f4:	12866001 	addne	r6, r6, #1
    f9f8:	e59ee000 	ldr	lr, [lr]
    f9fc:	16ef6076 	uxtbne	r6, r6
    fa00:	e15e0002 	cmp	lr, r2
    fa04:	3afffff2 	bcc	f9d4 <radioset+0x3c>
    fa08:	e15e0009 	cmp	lr, r9
    fa0c:	e59f4124 	ldr	r4, [pc, #292]	; fb38 <radioset+0x1a0>
    fa10:	8affffef 	bhi	f9d4 <radioset+0x3c>
    fa14:	e10e368a 	smlabb	lr, sl, r6, r3
    fa18:	e7974004 	ldr	r4, [r7, r4]
    fa1c:	e28eb008 	add	fp, lr, #8
    fa20:	e5944000 	ldr	r4, [r4]
    fa24:	e15e0004 	cmp	lr, r4
    fa28:	8affffe9 	bhi	f9d4 <radioset+0x3c>
    fa2c:	e154000b 	cmp	r4, fp
    fa30:	95c16000 	strbls	r6, [r1]
    fa34:	93a05001 	movls	r5, #1
    fa38:	eaffffe5 	b	f9d4 <radioset+0x3c>
    fa3c:	e1a0c005 	mov	ip, r5
    fa40:	e3580000 	cmp	r8, #0
    fa44:	03a0c001 	moveq	ip, #1
    fa48:	e35c0000 	cmp	ip, #0
    fa4c:	0a00000c 	beq	fa84 <radioset+0xec>
    fa50:	e3a04000 	mov	r4, #0
    fa54:	e1a07002 	mov	r7, r2
    fa58:	e1a05000 	mov	r5, r0
    fa5c:	e1a08004 	mov	r8, r4
    fa60:	e1a0b004 	mov	fp, r4
    fa64:	e58d300c 	str	r3, [sp, #12]
    fa68:	e58d1008 	str	r1, [sp, #8]
    fa6c:	e6efc074 	uxtb	ip, r4
    fa70:	e7d5100c 	ldrb	r1, [r5, ip]
    fa74:	e351002c 	cmp	r1, #44	; 0x2c
    fa78:	0a000003 	beq	fa8c <radioset+0xf4>
    fa7c:	e3510000 	cmp	r1, #0
    fa80:	1a000025 	bne	fb1c <radioset+0x184>
    fa84:	e28dd014 	add	sp, sp, #20
    fa88:	e8bd8ff0 	pop	{r4, r5, r6, r7, r8, r9, sl, fp, pc}
    fa8c:	e3a0600a 	mov	r6, #10
    fa90:	e3a03008 	mov	r3, #8
    fa94:	e35c0000 	cmp	ip, #0
    fa98:	12888001 	addne	r8, r8, #1
    fa9c:	e59d100c 	ldr	r1, [sp, #12]
    faa0:	16ef8078 	uxtbne	r8, r8
    faa4:	e1061886 	smlabb	r6, r6, r8, r1
    faa8:	e59f108c 	ldr	r1, [pc, #140]	; fb3c <radioset+0x1a4>
    faac:	e1a02003 	mov	r2, r3
    fab0:	e2879004 	add	r9, r7, #4
    fab4:	e1a00007 	mov	r0, r7
    fab8:	e58d1000 	str	r1, [sp]
    fabc:	e286a002 	add	sl, r6, #2
    fac0:	e1a01006 	mov	r1, r6
    fac4:	ebffee60 	bl	b44c <FillRect>
    fac8:	e1a0100a 	mov	r1, sl
    facc:	e3a03000 	mov	r3, #0
    fad0:	e3a02004 	mov	r2, #4
    fad4:	e1a00009 	mov	r0, r9
    fad8:	e58db000 	str	fp, [sp]
    fadc:	ebffef3a 	bl	b7cc <DrawCircle>
    fae0:	e59d3008 	ldr	r3, [sp, #8]
    fae4:	e1a0100a 	mov	r1, sl
    fae8:	e5d33000 	ldrb	r3, [r3]
    faec:	e1a00009 	mov	r0, r9
    faf0:	e1530008 	cmp	r3, r8
    faf4:	e58db000 	str	fp, [sp]
    faf8:	03a03001 	moveq	r3, #1
    fafc:	13a03000 	movne	r3, #0
    fb00:	e3a02003 	mov	r2, #3
    fb04:	ebffef30 	bl	b7cc <DrawCircle>
    fb08:	e1a01006 	mov	r1, r6
    fb0c:	e287000a 	add	r0, r7, #10
    fb10:	ebffedf0 	bl	b2d8 <locatexy>
    fb14:	e2844001 	add	r4, r4, #1
    fb18:	eaffffd3 	b	fa6c <radioset+0xd4>
    fb1c:	e59f3018 	ldr	r3, [pc, #24]	; fb3c <radioset+0x1a4>
    fb20:	e3a02000 	mov	r2, #0
    fb24:	e3a00008 	mov	r0, #8
    fb28:	ebffedbb 	bl	b21c <writecxy>
    fb2c:	eafffff8 	b	fb14 <radioset+0x17c>
    fb30:	0000f4c8 	andeq	pc, r0, r8, asr #9
    fb34:	00000218 	andeq	r0, r0, r8, lsl r2
    fb38:	00000084 	andeq	r0, r0, r4, lsl #1
    fb3c:	0000ffff 	strdeq	pc, [r0], -pc	; <UNPREDICTABLE>

0000fb40 <togglebox>:
    fb40:	e92d47f0 	push	{r4, r5, r6, r7, r8, r9, sl, lr}
    fb44:	e24dd008 	sub	sp, sp, #8
    fb48:	e5dd4028 	ldrb	r4, [sp, #40]	; 0x28
    fb4c:	e1a06003 	mov	r6, r3
    fb50:	e59f31b8 	ldr	r3, [pc, #440]	; fd10 <togglebox+0x1d0>
    fb54:	e3540001 	cmp	r4, #1
    fb58:	e1a09001 	mov	r9, r1
    fb5c:	e1a05002 	mov	r5, r2
    fb60:	e08f3003 	add	r3, pc, r3
    fb64:	0a000033 	beq	fc38 <togglebox+0xf8>
    fb68:	e3540000 	cmp	r4, #0
    fb6c:	1a00002f 	bne	fc30 <togglebox+0xf0>
    fb70:	e3a03004 	mov	r3, #4
    fb74:	e59f1198 	ldr	r1, [pc, #408]	; fd14 <togglebox+0x1d4>
    fb78:	e2868002 	add	r8, r6, #2
    fb7c:	e1a02003 	mov	r2, r3
    fb80:	e58d1000 	str	r1, [sp]
    fb84:	e1a07000 	mov	r7, r0
    fb88:	e1a01008 	mov	r1, r8
    fb8c:	e1a00005 	mov	r0, r5
    fb90:	ebffee2d 	bl	b44c <FillRect>
    fb94:	e3a03004 	mov	r3, #4
    fb98:	e58d4000 	str	r4, [sp]
    fb9c:	e1a02003 	mov	r2, r3
    fba0:	e1a01008 	mov	r1, r8
    fba4:	e1a00005 	mov	r0, r5
    fba8:	ebffee65 	bl	b544 <DrawRect>
    fbac:	e5d93000 	ldrb	r3, [r9]
    fbb0:	e3530000 	cmp	r3, #0
    fbb4:	0a00000d 	beq	fbf0 <togglebox+0xb0>
    fbb8:	e285a004 	add	sl, r5, #4
    fbbc:	e2869006 	add	r9, r6, #6
    fbc0:	e1a0200a 	mov	r2, sl
    fbc4:	e1a03009 	mov	r3, r9
    fbc8:	e1a01008 	mov	r1, r8
    fbcc:	e1a00005 	mov	r0, r5
    fbd0:	e58d4000 	str	r4, [sp]
    fbd4:	ebffee3c 	bl	b4cc <DrawLine>
    fbd8:	e1a0200a 	mov	r2, sl
    fbdc:	e1a01009 	mov	r1, r9
    fbe0:	e58d4000 	str	r4, [sp]
    fbe4:	e1a03008 	mov	r3, r8
    fbe8:	e1a00005 	mov	r0, r5
    fbec:	ebffee36 	bl	b4cc <DrawLine>
    fbf0:	e1a01006 	mov	r1, r6
    fbf4:	e2850006 	add	r0, r5, #6
    fbf8:	ebffedb6 	bl	b2d8 <locatexy>
    fbfc:	e5d71000 	ldrb	r1, [r7]
    fc00:	e3510000 	cmp	r1, #0
    fc04:	0a000009 	beq	fc30 <togglebox+0xf0>
    fc08:	e59f5104 	ldr	r5, [pc, #260]	; fd14 <togglebox+0x1d4>
    fc0c:	e2844001 	add	r4, r4, #1
    fc10:	e6ef4074 	uxtb	r4, r4
    fc14:	e1a03005 	mov	r3, r5
    fc18:	e3a02000 	mov	r2, #0
    fc1c:	e3a00008 	mov	r0, #8
    fc20:	ebffed7d 	bl	b21c <writecxy>
    fc24:	e7d71004 	ldrb	r1, [r7, r4]
    fc28:	e3510000 	cmp	r1, #0
    fc2c:	1afffff6 	bne	fc0c <togglebox+0xcc>
    fc30:	e28dd008 	add	sp, sp, #8
    fc34:	e8bd87f0 	pop	{r4, r5, r6, r7, r8, r9, sl, pc}
    fc38:	e59f20d8 	ldr	r2, [pc, #216]	; fd18 <togglebox+0x1d8>
    fc3c:	e7932002 	ldr	r2, [r3, r2]
    fc40:	e5922000 	ldr	r2, [r2]
    fc44:	e1520005 	cmp	r2, r5
    fc48:	3afffff8 	bcc	fc30 <togglebox+0xf0>
    fc4c:	e2857004 	add	r7, r5, #4
    fc50:	e1520007 	cmp	r2, r7
    fc54:	8afffff5 	bhi	fc30 <togglebox+0xf0>
    fc58:	e59f20bc 	ldr	r2, [pc, #188]	; fd1c <togglebox+0x1dc>
    fc5c:	e7933002 	ldr	r3, [r3, r2]
    fc60:	e5933000 	ldr	r3, [r3]
    fc64:	e1530006 	cmp	r3, r6
    fc68:	3afffff0 	bcc	fc30 <togglebox+0xf0>
    fc6c:	e2862004 	add	r2, r6, #4
    fc70:	e1530002 	cmp	r3, r2
    fc74:	8affffed 	bhi	fc30 <togglebox+0xf0>
    fc78:	e5d13000 	ldrb	r3, [r1]
    fc7c:	e1a00005 	mov	r0, r5
    fc80:	e3530000 	cmp	r3, #0
    fc84:	13a03000 	movne	r3, #0
    fc88:	15c13000 	strbne	r3, [r1]
    fc8c:	e3a03004 	mov	r3, #4
    fc90:	05c14000 	strbeq	r4, [r1]
    fc94:	e59f1078 	ldr	r1, [pc, #120]	; fd14 <togglebox+0x1d4>
    fc98:	e2864002 	add	r4, r6, #2
    fc9c:	e1a02003 	mov	r2, r3
    fca0:	e58d1000 	str	r1, [sp]
    fca4:	e1a01004 	mov	r1, r4
    fca8:	ebffede7 	bl	b44c <FillRect>
    fcac:	e3a08000 	mov	r8, #0
    fcb0:	e3a03004 	mov	r3, #4
    fcb4:	e1a01004 	mov	r1, r4
    fcb8:	e1a02003 	mov	r2, r3
    fcbc:	e58d8000 	str	r8, [sp]
    fcc0:	e1a00005 	mov	r0, r5
    fcc4:	ebffee1e 	bl	b544 <DrawRect>
    fcc8:	e5d93000 	ldrb	r3, [r9]
    fccc:	e1530008 	cmp	r3, r8
    fcd0:	0affffd6 	beq	fc30 <togglebox+0xf0>
    fcd4:	e2866006 	add	r6, r6, #6
    fcd8:	e1a03006 	mov	r3, r6
    fcdc:	e1a02007 	mov	r2, r7
    fce0:	e1a01004 	mov	r1, r4
    fce4:	e1a00005 	mov	r0, r5
    fce8:	e58d8000 	str	r8, [sp]
    fcec:	ebffedf6 	bl	b4cc <DrawLine>
    fcf0:	e1a01006 	mov	r1, r6
    fcf4:	e1a03004 	mov	r3, r4
    fcf8:	e1a02007 	mov	r2, r7
    fcfc:	e1a00005 	mov	r0, r5
    fd00:	e58d8028 	str	r8, [sp, #40]	; 0x28
    fd04:	e28dd008 	add	sp, sp, #8
    fd08:	e8bd47f0 	pop	{r4, r5, r6, r7, r8, r9, sl, lr}
    fd0c:	eaffedee 	b	b4cc <DrawLine>
    fd10:	0000f318 	andeq	pc, r0, r8, lsl r3	; <UNPREDICTABLE>
    fd14:	0000ffff 	strdeq	pc, [r0], -pc	; <UNPREDICTABLE>
    fd18:	00000218 	andeq	r0, r0, r8, lsl r2
    fd1c:	00000084 	andeq	r0, r0, r4, lsl #1

0000fd20 <runCmd>:
    fd20:	e12fff1e 	bx	lr

0000fd24 <_strcat>:
    fd24:	e5d13000 	ldrb	r3, [r1]
    fd28:	e3530000 	cmp	r3, #0
    fd2c:	0a000003 	beq	fd40 <_strcat+0x1c>
    fd30:	e4c03001 	strb	r3, [r0], #1
    fd34:	e5f13001 	ldrb	r3, [r1, #1]!
    fd38:	e3530000 	cmp	r3, #0
    fd3c:	1afffffb 	bne	fd30 <_strcat+0xc>
    fd40:	e5d23000 	ldrb	r3, [r2]
    fd44:	e3530000 	cmp	r3, #0
    fd48:	0a000003 	beq	fd5c <_strcat+0x38>
    fd4c:	e4c03001 	strb	r3, [r0], #1
    fd50:	e5f23001 	ldrb	r3, [r2, #1]!
    fd54:	e3530000 	cmp	r3, #0
    fd58:	1afffffb 	bne	fd4c <_strcat+0x28>
    fd5c:	e3a03000 	mov	r3, #0
    fd60:	e4c03001 	strb	r3, [r0], #1
    fd64:	e12fff1e 	bx	lr

0000fd68 <bcd2dec>:
    fd68:	e2503000 	subs	r3, r0, #0
    fd6c:	0a000008 	beq	fd94 <bcd2dec+0x2c>
    fd70:	e3a02001 	mov	r2, #1
    fd74:	e3a00000 	mov	r0, #0
    fd78:	e203c00f 	and	ip, r3, #15
    fd7c:	e0821102 	add	r1, r2, r2, lsl #2
    fd80:	e1b03223 	lsrs	r3, r3, #4
    fd84:	e0200c92 	mla	r0, r2, ip, r0
    fd88:	e1a02081 	lsl	r2, r1, #1
    fd8c:	1afffff9 	bne	fd78 <bcd2dec+0x10>
    fd90:	e12fff1e 	bx	lr
    fd94:	e1a00003 	mov	r0, r3
    fd98:	e12fff1e 	bx	lr

0000fd9c <datetimetodir>:
    fd9c:	e3530001 	cmp	r3, #1
    fda0:	e1a01281 	lsl	r1, r1, #5
    fda4:	0a000006 	beq	fdc4 <datetimetodir+0x28>
    fda8:	e1a03580 	lsl	r3, r0, #11
    fdac:	e2011e7e 	and	r1, r1, #2016	; 0x7e0
    fdb0:	e1a00d02 	lsl	r0, r2, #26
    fdb4:	e1810da0 	orr	r0, r1, r0, lsr #27
    fdb8:	e6ff2073 	uxth	r2, r3
    fdbc:	e1800002 	orr	r0, r0, r2
    fdc0:	e12fff1e 	bx	lr
    fdc4:	e2422e7b 	sub	r2, r2, #1968	; 0x7b0
    fdc8:	e242200c 	sub	r2, r2, #12
    fdcc:	e2011e1e 	and	r1, r1, #480	; 0x1e0
    fdd0:	e1a02482 	lsl	r2, r2, #9
    fdd4:	e200001f 	and	r0, r0, #31
    fdd8:	e6ff2072 	uxth	r2, r2
    fddc:	e1810000 	orr	r0, r1, r0
    fde0:	e1800002 	orr	r0, r0, r2
    fde4:	e12fff1e 	bx	lr

0000fde8 <timer_irq_clearer>:
    fde8:	e59f3010 	ldr	r3, [pc, #16]	; fe00 <timer_irq_clearer+0x18>
    fdec:	e79f2003 	ldr	r2, [pc, r3]
    fdf0:	e5d23000 	ldrb	r3, [r2]
    fdf4:	e3833002 	orr	r3, r3, #2
    fdf8:	e5c23000 	strb	r3, [r2]
    fdfc:	e12fff1e 	bx	lr
    fe00:	0001045c 	andeq	r0, r1, ip, asr r4

0000fe04 <TIMER_EN_INT>:
    fe04:	e59f2010 	ldr	r2, [pc, #16]	; fe1c <TIMER_EN_INT+0x18>
    fe08:	e59f1010 	ldr	r1, [pc, #16]	; fe20 <TIMER_EN_INT+0x1c>
    fe0c:	e08f2002 	add	r2, pc, r2
    fe10:	e08f1001 	add	r1, pc, r1
    fe14:	e3a00001 	mov	r0, #1
    fe18:	eaffe21d 	b	8694 <register_irq_handler>
    fe1c:	ffffffd4 			; <UNDEFINED> instruction: 0xffffffd4
    fe20:	00000044 	andeq	r0, r0, r4, asr #32

0000fe24 <TIMER_INIT>:
    fe24:	e59f300c 	ldr	r3, [pc, #12]	; fe38 <TIMER_INIT+0x14>
    fe28:	e59f200c 	ldr	r2, [pc, #12]	; fe3c <TIMER_INIT+0x18>
    fe2c:	e08f3003 	add	r3, pc, r3
    fe30:	e5832000 	str	r2, [r3]
    fe34:	e12fff1e 	bx	lr
    fe38:	0001041c 	andeq	r0, r1, ip, lsl r4
    fe3c:	20003000 	andcs	r3, r0, r0

0000fe40 <timer_set>:
    fe40:	e59f3010 	ldr	r3, [pc, #16]	; fe58 <timer_set+0x18>
    fe44:	e79f2003 	ldr	r2, [pc, r3]
    fe48:	e5923004 	ldr	r3, [r2, #4]
    fe4c:	e0830000 	add	r0, r3, r0
    fe50:	e5820010 	str	r0, [r2, #16]
    fe54:	e12fff1e 	bx	lr
    fe58:	00010404 	andeq	r0, r1, r4, lsl #8

0000fe5c <timer_irq_handler>:
    fe5c:	e3a00ffa 	mov	r0, #1000	; 0x3e8
    fe60:	eafffff6 	b	fe40 <timer_set>

0000fe64 <timer_getTickCount>:
    fe64:	e59f300c 	ldr	r3, [pc, #12]	; fe78 <timer_getTickCount+0x14>
    fe68:	e08f3003 	add	r3, pc, r3
    fe6c:	e5933000 	ldr	r3, [r3]
    fe70:	e1c300d4 	ldrd	r0, [r3, #4]
    fe74:	e12fff1e 	bx	lr
    fe78:	000103e0 	andeq	r0, r1, r0, ror #7

0000fe7c <timer_wait>:
    fe7c:	e92d41f0 	push	{r4, r5, r6, r7, r8, lr}
    fe80:	e1a04000 	mov	r4, r0
    fe84:	e1a05001 	mov	r5, r1
    fe88:	ebfffff5 	bl	fe64 <timer_getTickCount>
    fe8c:	e0946000 	adds	r6, r4, r0
    fe90:	e0a57001 	adc	r7, r5, r1
    fe94:	ebfffff2 	bl	fe64 <timer_getTickCount>
    fe98:	e1510007 	cmp	r1, r7
    fe9c:	01500006 	cmpeq	r0, r6
    fea0:	3afffffb 	bcc	fe94 <timer_wait+0x18>
    fea4:	e8bd81f0 	pop	{r4, r5, r6, r7, r8, pc}

0000fea8 <mbox_set_base>:
    fea8:	e59f3008 	ldr	r3, [pc, #8]	; feb8 <mbox_set_base+0x10>
    feac:	e08f3003 	add	r3, pc, r3
    feb0:	e5830000 	str	r0, [r3]
    feb4:	e12fff1e 	bx	lr
    feb8:	0000d1b4 			; <UNDEFINED> instruction: 0x0000d1b4

0000febc <mbox_read>:
    febc:	e59f3044 	ldr	r3, [pc, #68]	; ff08 <mbox_read+0x4c>
    fec0:	e59f1044 	ldr	r1, [pc, #68]	; ff0c <mbox_read+0x50>
    fec4:	e08f3003 	add	r3, pc, r3
    fec8:	e59f2040 	ldr	r2, [pc, #64]	; ff10 <mbox_read+0x54>
    fecc:	e7931001 	ldr	r1, [r3, r1]
    fed0:	e08f2002 	add	r2, pc, r2
    fed4:	e592c000 	ldr	ip, [r2]
    fed8:	e5912000 	ldr	r2, [r1]
    fedc:	e08cc002 	add	ip, ip, r2
    fee0:	e28c2018 	add	r2, ip, #24
    fee4:	e5923000 	ldr	r3, [r2]
    fee8:	e3130101 	tst	r3, #1073741824	; 0x40000000
    feec:	1afffffc 	bne	fee4 <mbox_read+0x28>
    fef0:	e59c3000 	ldr	r3, [ip]
    fef4:	e203100f 	and	r1, r3, #15
    fef8:	e1510000 	cmp	r1, r0
    fefc:	1afffff8 	bne	fee4 <mbox_read+0x28>
    ff00:	e3c3000f 	bic	r0, r3, #15
    ff04:	e12fff1e 	bx	lr
    ff08:	0000efb4 			; <UNDEFINED> instruction: 0x0000efb4
    ff0c:	000001a8 	andeq	r0, r0, r8, lsr #3
    ff10:	0000d190 	muleq	r0, r0, r1

0000ff14 <mbox_write>:
    ff14:	e52de004 	push	{lr}		; (str lr, [sp, #-4]!)
    ff18:	e59f3040 	ldr	r3, [pc, #64]	; ff60 <mbox_write+0x4c>
    ff1c:	e59fc040 	ldr	ip, [pc, #64]	; ff64 <mbox_write+0x50>
    ff20:	e08f3003 	add	r3, pc, r3
    ff24:	e59f203c 	ldr	r2, [pc, #60]	; ff68 <mbox_write+0x54>
    ff28:	e793e00c 	ldr	lr, [r3, ip]
    ff2c:	e08f2002 	add	r2, pc, r2
    ff30:	e592c000 	ldr	ip, [r2]
    ff34:	e59e2000 	ldr	r2, [lr]
    ff38:	e08cc002 	add	ip, ip, r2
    ff3c:	e28c2018 	add	r2, ip, #24
    ff40:	e5923000 	ldr	r3, [r2]
    ff44:	e3530000 	cmp	r3, #0
    ff48:	bafffffc 	blt	ff40 <mbox_write+0x2c>
    ff4c:	e3c1100f 	bic	r1, r1, #15
    ff50:	e200000f 	and	r0, r0, #15
    ff54:	e1811000 	orr	r1, r1, r0
    ff58:	e58c1020 	str	r1, [ip, #32]
    ff5c:	e49df004 	pop	{pc}		; (ldr pc, [sp], #4)
    ff60:	0000ef58 	andeq	lr, r0, r8, asr pc
    ff64:	000001a8 	andeq	r0, r0, r8, lsr #3
    ff68:	0000d134 	andeq	sp, r0, r4, lsr r1

0000ff6c <io_cli>:
    ff6c:	e12fff1e 	bx	lr

0000ff70 <waitCycle>:
    ff70:	e2500001 	subs	r0, r0, #1
    ff74:	1afffffd 	bne	ff70 <waitCycle>
    ff78:	e12fff1e 	bx	lr

0000ff7c <get_system_timer>:
    ff7c:	e59f302c 	ldr	r3, [pc, #44]	; ffb0 <get_system_timer+0x34>
    ff80:	e92d0030 	push	{r4, r5}
    ff84:	e5931008 	ldr	r1, [r3, #8]
    ff88:	e5930004 	ldr	r0, [r3, #4]
    ff8c:	e5932008 	ldr	r2, [r3, #8]
    ff90:	e1520001 	cmp	r2, r1
    ff94:	e3a02000 	mov	r2, #0
    ff98:	15931008 	ldrne	r1, [r3, #8]
    ff9c:	15930004 	ldrne	r0, [r3, #4]
    ffa0:	e1824000 	orr	r4, r2, r0
    ffa4:	e1a00004 	mov	r0, r4
    ffa8:	e8bd0030 	pop	{r4, r5}
    ffac:	e12fff1e 	bx	lr
    ffb0:	20003000 	andcs	r3, r0, r0

0000ffb4 <waitMicro>:
    ffb4:	e92d4070 	push	{r4, r5, r6, lr}
    ffb8:	e1a06000 	mov	r6, r0
    ffbc:	ebffffee 	bl	ff7c <get_system_timer>
    ffc0:	e0904006 	adds	r4, r0, r6
    ffc4:	e2a15000 	adc	r5, r1, #0
    ffc8:	ebffffeb 	bl	ff7c <get_system_timer>
    ffcc:	e1510005 	cmp	r1, r5
    ffd0:	01500004 	cmpeq	r0, r4
    ffd4:	3afffffb 	bcc	ffc8 <waitMicro+0x14>
    ffd8:	e8bd8070 	pop	{r4, r5, r6, pc}

0000ffdc <strCpy>:
    ffdc:	e5d13000 	ldrb	r3, [r1]
    ffe0:	e1a02000 	mov	r2, r0
    ffe4:	e3530000 	cmp	r3, #0
    ffe8:	01a0c003 	moveq	ip, r3
    ffec:	0a000004 	beq	10004 <strCpy+0x28>
    fff0:	e4c23001 	strb	r3, [r2], #1
    fff4:	e5f13001 	ldrb	r3, [r1, #1]!
    fff8:	e042c000 	sub	ip, r2, r0
    fffc:	e3530000 	cmp	r3, #0
   10000:	1afffffa 	bne	fff0 <strCpy+0x14>
   10004:	e3a03000 	mov	r3, #0
   10008:	e1a0000c 	mov	r0, ip
   1000c:	e5c23000 	strb	r3, [r2]
   10010:	e12fff1e 	bx	lr

00010014 <strCmp>:
   10014:	e5d03000 	ldrb	r3, [r0]
   10018:	e5d12000 	ldrb	r2, [r1]
   1001c:	e1520003 	cmp	r2, r3
   10020:	1a000008 	bne	10048 <strCmp+0x34>
   10024:	e3520000 	cmp	r2, #0
   10028:	1a000002 	bne	10038 <strCmp+0x24>
   1002c:	ea00000b 	b	10060 <strCmp+0x4c>
   10030:	e3530000 	cmp	r3, #0
   10034:	0a000007 	beq	10058 <strCmp+0x44>
   10038:	e5f03001 	ldrb	r3, [r0, #1]!
   1003c:	e5f12001 	ldrb	r2, [r1, #1]!
   10040:	e1530002 	cmp	r3, r2
   10044:	0afffff9 	beq	10030 <strCmp+0x1c>
   10048:	e1520003 	cmp	r2, r3
   1004c:	83e00000 	mvnhi	r0, #0
   10050:	93a00001 	movls	r0, #1
   10054:	e12fff1e 	bx	lr
   10058:	e1a00003 	mov	r0, r3
   1005c:	e12fff1e 	bx	lr
   10060:	e1a00002 	mov	r0, r2
   10064:	e12fff1e 	bx	lr

00010068 <strNcmp>:
   10068:	e3520000 	cmp	r2, #0
   1006c:	0a00000c 	beq	100a4 <strNcmp+0x3c>
   10070:	e5d0c000 	ldrb	ip, [r0]
   10074:	e5d13000 	ldrb	r3, [r1]
   10078:	e153000c 	cmp	r3, ip
   1007c:	02422001 	subeq	r2, r2, #1
   10080:	00802002 	addeq	r2, r0, r2
   10084:	0a000004 	beq	1009c <strNcmp+0x34>
   10088:	ea000007 	b	100ac <strNcmp+0x44>
   1008c:	e5f0c001 	ldrb	ip, [r0, #1]!
   10090:	e5f13001 	ldrb	r3, [r1, #1]!
   10094:	e15c0003 	cmp	ip, r3
   10098:	1a000003 	bne	100ac <strNcmp+0x44>
   1009c:	e1500002 	cmp	r0, r2
   100a0:	1afffff9 	bne	1008c <strNcmp+0x24>
   100a4:	e3a00000 	mov	r0, #0
   100a8:	e12fff1e 	bx	lr
   100ac:	e04c0003 	sub	r0, ip, r3
   100b0:	e12fff1e 	bx	lr

000100b4 <memSet>:
   100b4:	e3520000 	cmp	r2, #0
   100b8:	012fff1e 	bxeq	lr
   100bc:	e1a03000 	mov	r3, r0
   100c0:	e6ef1071 	uxtb	r1, r1
   100c4:	e0802002 	add	r2, r0, r2
   100c8:	e4c31001 	strb	r1, [r3], #1
   100cc:	e1530002 	cmp	r3, r2
   100d0:	1afffffc 	bne	100c8 <memSet+0x14>
   100d4:	e12fff1e 	bx	lr

000100d8 <memCopy>:
   100d8:	e3520000 	cmp	r2, #0
   100dc:	012fff1e 	bxeq	lr
   100e0:	e0812002 	add	r2, r1, r2
   100e4:	e2403001 	sub	r3, r0, #1
   100e8:	e4d1c001 	ldrb	ip, [r1], #1
   100ec:	e1510002 	cmp	r1, r2
   100f0:	e5e3c001 	strb	ip, [r3, #1]!
   100f4:	1afffffb 	bne	100e8 <memCopy+0x10>
   100f8:	e12fff1e 	bx	lr

000100fc <memCompare>:
   100fc:	e3520000 	cmp	r2, #0
   10100:	e242c001 	sub	ip, r2, #1
   10104:	0a00000d 	beq	10140 <memCompare+0x44>
   10108:	e5d02000 	ldrb	r2, [r0]
   1010c:	e5d13000 	ldrb	r3, [r1]
   10110:	e1520003 	cmp	r2, r3
   10114:	3a00000b 	bcc	10148 <memCompare+0x4c>
   10118:	8a00000c 	bhi	10150 <memCompare+0x54>
   1011c:	e081c00c 	add	ip, r1, ip
   10120:	ea000004 	b	10138 <memCompare+0x3c>
   10124:	e5f02001 	ldrb	r2, [r0, #1]!
   10128:	e5f13001 	ldrb	r3, [r1, #1]!
   1012c:	e1520003 	cmp	r2, r3
   10130:	3a000004 	bcc	10148 <memCompare+0x4c>
   10134:	8a000005 	bhi	10150 <memCompare+0x54>
   10138:	e151000c 	cmp	r1, ip
   1013c:	1afffff8 	bne	10124 <memCompare+0x28>
   10140:	e3a00000 	mov	r0, #0
   10144:	e12fff1e 	bx	lr
   10148:	e3e00000 	mvn	r0, #0
   1014c:	e12fff1e 	bx	lr
   10150:	e3a00001 	mov	r0, #1
   10154:	e12fff1e 	bx	lr

00010158 <strLen>:
   10158:	e5d03000 	ldrb	r3, [r0]
   1015c:	e3530000 	cmp	r3, #0
   10160:	0a000006 	beq	10180 <strLen+0x28>
   10164:	e1a03000 	mov	r3, r0
   10168:	e3a00000 	mov	r0, #0
   1016c:	e5f32001 	ldrb	r2, [r3, #1]!
   10170:	e2800001 	add	r0, r0, #1
   10174:	e3520000 	cmp	r2, #0
   10178:	1afffffb 	bne	1016c <strLen+0x14>
   1017c:	e12fff1e 	bx	lr
   10180:	e1a00003 	mov	r0, r3
   10184:	e12fff1e 	bx	lr

00010188 <putS>:
   10188:	eafff324 	b	ce20 <writestr>

0001018c <strHex>:
   1018c:	e92d40f0 	push	{r4, r5, r6, r7, lr}
   10190:	e3a05000 	mov	r5, #0
   10194:	e24ddb01 	sub	sp, sp, #1024	; 0x400
   10198:	e24dd004 	sub	sp, sp, #4
   1019c:	e1a04005 	mov	r4, r5
   101a0:	e1a0e005 	mov	lr, r5
   101a4:	e3a07030 	mov	r7, #48	; 0x30
   101a8:	ea00000b 	b	101dc <strHex+0x50>
   101ac:	e3a05001 	mov	r5, #1
   101b0:	e35c0009 	cmp	ip, #9
   101b4:	e28d6b01 	add	r6, sp, #1024	; 0x400
   101b8:	e28ee001 	add	lr, lr, #1
   101bc:	d28cc030 	addle	ip, ip, #48	; 0x30
   101c0:	c28cc057 	addgt	ip, ip, #87	; 0x57
   101c4:	e0866004 	add	r6, r6, r4
   101c8:	e35e0008 	cmp	lr, #8
   101cc:	e546c400 	strb	ip, [r6, #-1024]	; 0xfffffc00
   101d0:	e0844005 	add	r4, r4, r5
   101d4:	e1a01201 	lsl	r1, r1, #4
   101d8:	0a00000e 	beq	10218 <strHex+0x8c>
   101dc:	e1b0ce21 	lsrs	ip, r1, #28
   101e0:	1afffff1 	bne	101ac <strHex+0x20>
   101e4:	e35e0007 	cmp	lr, #7
   101e8:	11a0c005 	movne	ip, r5
   101ec:	0385c001 	orreq	ip, r5, #1
   101f0:	e28d6b01 	add	r6, sp, #1024	; 0x400
   101f4:	e35c0000 	cmp	ip, #0
   101f8:	e0866004 	add	r6, r6, r4
   101fc:	e28ee001 	add	lr, lr, #1
   10200:	15467400 	strbne	r7, [r6, #-1024]	; 0xfffffc00
   10204:	12844001 	addne	r4, r4, #1
   10208:	01a0500c 	moveq	r5, ip
   1020c:	e35e0008 	cmp	lr, #8
   10210:	e1a01201 	lsl	r1, r1, #4
   10214:	1afffff0 	bne	101dc <strHex+0x50>
   10218:	e3a0c000 	mov	ip, #0
   1021c:	e042e004 	sub	lr, r2, r4
   10220:	e28d1b01 	add	r1, sp, #1024	; 0x400
   10224:	e0811004 	add	r1, r1, r4
   10228:	e15e000c 	cmp	lr, ip
   1022c:	e541c400 	strb	ip, [r1, #-1024]	; 0xfffffc00
   10230:	da000009 	ble	1025c <strHex+0xd0>
   10234:	e153000c 	cmp	r3, ip
   10238:	13a0c030 	movne	ip, #48	; 0x30
   1023c:	03a0c020 	moveq	ip, #32
   10240:	e2403001 	sub	r3, r0, #1
   10244:	e083100e 	add	r1, r3, lr
   10248:	e5e3c001 	strb	ip, [r3, #1]!
   1024c:	e1530001 	cmp	r3, r1
   10250:	1afffffc 	bne	10248 <strHex+0xbc>
   10254:	e1a04002 	mov	r4, r2
   10258:	e080000e 	add	r0, r0, lr
   1025c:	e1a0100d 	mov	r1, sp
   10260:	ebffff5d 	bl	ffdc <strCpy>
   10264:	e1a00004 	mov	r0, r4
   10268:	e28ddb01 	add	sp, sp, #1024	; 0x400
   1026c:	e28dd004 	add	sp, sp, #4
   10270:	e8bd80f0 	pop	{r4, r5, r6, r7, pc}

00010274 <strNum>:
   10274:	e92d4ff0 	push	{r4, r5, r6, r7, r8, r9, sl, fp, lr}
   10278:	e24ddb01 	sub	sp, sp, #1024	; 0x400
   1027c:	e24dd00c 	sub	sp, sp, #12
   10280:	e3510009 	cmp	r1, #9
   10284:	e1a08000 	mov	r8, r0
   10288:	e1cd20f0 	strd	r2, [sp]
   1028c:	e59db430 	ldr	fp, [sp, #1072]	; 0x430
   10290:	9a000039 	bls	1037c <strNum+0x108>
   10294:	e3a06001 	mov	r6, #1
   10298:	e3a0400a 	mov	r4, #10
   1029c:	ea000000 	b	102a4 <strNum+0x30>
   102a0:	e1a04002 	mov	r4, r2
   102a4:	e0842104 	add	r2, r4, r4, lsl #2
   102a8:	e1a02082 	lsl	r2, r2, #1
   102ac:	e1520001 	cmp	r2, r1
   102b0:	e2866001 	add	r6, r6, #1
   102b4:	8a000001 	bhi	102c0 <strNum+0x4c>
   102b8:	e356000a 	cmp	r6, #10
   102bc:	1afffff7 	bne	102a0 <strNum+0x2c>
   102c0:	e35b0000 	cmp	fp, #0
   102c4:	13a0202d 	movne	r2, #45	; 0x2d
   102c8:	13a0b001 	movne	fp, #1
   102cc:	15cd2008 	strbne	r2, [sp, #8]
   102d0:	e28d9008 	add	r9, sp, #8
   102d4:	e24b2001 	sub	r2, fp, #1
   102d8:	e59f70a8 	ldr	r7, [pc, #168]	; 10388 <strNum+0x114>
   102dc:	1086600b 	addne	r6, r6, fp
   102e0:	e089a002 	add	sl, r9, r2
   102e4:	e1a00001 	mov	r0, r1
   102e8:	e1a01004 	mov	r1, r4
   102ec:	ebffdf73 	bl	80c0 <__aeabi_uidivmod>
   102f0:	e0854794 	umull	r4, r5, r4, r7
   102f4:	e28bb001 	add	fp, fp, #1
   102f8:	e2800030 	add	r0, r0, #48	; 0x30
   102fc:	e156000b 	cmp	r6, fp
   10300:	e5ea0001 	strb	r0, [sl, #1]!
   10304:	e1a041a5 	lsr	r4, r5, #3
   10308:	cafffff5 	bgt	102e4 <strNum+0x70>
   1030c:	e3a01000 	mov	r1, #0
   10310:	e59d3000 	ldr	r3, [sp]
   10314:	e0436006 	sub	r6, r3, r6
   10318:	e28d3b01 	add	r3, sp, #1024	; 0x400
   1031c:	e2833008 	add	r3, r3, #8
   10320:	e1560001 	cmp	r6, r1
   10324:	e083200b 	add	r2, r3, fp
   10328:	e5421400 	strb	r1, [r2, #-1024]	; 0xfffffc00
   1032c:	d1a0600b 	movle	r6, fp
   10330:	da00000a 	ble	10360 <strNum+0xec>
   10334:	e59d3004 	ldr	r3, [sp, #4]
   10338:	e2482001 	sub	r2, r8, #1
   1033c:	e1530001 	cmp	r3, r1
   10340:	13a00030 	movne	r0, #48	; 0x30
   10344:	03a00020 	moveq	r0, #32
   10348:	e0821006 	add	r1, r2, r6
   1034c:	e5e20001 	strb	r0, [r2, #1]!
   10350:	e1510002 	cmp	r1, r2
   10354:	1afffffc 	bne	1034c <strNum+0xd8>
   10358:	e0888006 	add	r8, r8, r6
   1035c:	e086600b 	add	r6, r6, fp
   10360:	e1a01009 	mov	r1, r9
   10364:	e1a00008 	mov	r0, r8
   10368:	ebffff1b 	bl	ffdc <strCpy>
   1036c:	e1a00006 	mov	r0, r6
   10370:	e28ddb01 	add	sp, sp, #1024	; 0x400
   10374:	e28dd00c 	add	sp, sp, #12
   10378:	e8bd8ff0 	pop	{r4, r5, r6, r7, r8, r9, sl, fp, pc}
   1037c:	e3a04001 	mov	r4, #1
   10380:	e1a06004 	mov	r6, r4
   10384:	eaffffcd 	b	102c0 <strNum+0x4c>
   10388:	cccccccd 	stclgt	12, cr12, [ip], {205}	; 0xcd

0001038c <log_error>:
   1038c:	e92d4070 	push	{r4, r5, r6, lr}
   10390:	e59f204c 	ldr	r2, [pc, #76]	; 103e4 <log_error+0x58>
   10394:	e24dd010 	sub	sp, sp, #16
   10398:	e08f2002 	add	r2, pc, r2
   1039c:	e28d3004 	add	r3, sp, #4
   103a0:	e1a06000 	mov	r6, r0
   103a4:	e8920007 	ldm	r2, {r0, r1, r2}
   103a8:	e8a30003 	stmia	r3!, {r0, r1}
   103ac:	e3a04072 	mov	r4, #114	; 0x72
   103b0:	e3a0c045 	mov	ip, #69	; 0x45
   103b4:	e1c320b0 	strh	r2, [r3]
   103b8:	e28d5005 	add	r5, sp, #5
   103bc:	ea000001 	b	103c8 <log_error+0x3c>
   103c0:	e1a0c004 	mov	ip, r4
   103c4:	e5f54001 	ldrb	r4, [r5, #1]!
   103c8:	e1a0000c 	mov	r0, ip
   103cc:	ebfff11b 	bl	c840 <writechar>
   103d0:	e3540000 	cmp	r4, #0
   103d4:	1afffff9 	bne	103c0 <log_error+0x34>
   103d8:	e2860030 	add	r0, r6, #48	; 0x30
   103dc:	ebfff117 	bl	c840 <writechar>
   103e0:	eafffffe 	b	103e0 <log_error+0x54>
   103e4:	0000b8b0 			; <UNDEFINED> instruction: 0x0000b8b0

000103e8 <vsprintf>:
   103e8:	e92d4ff0 	push	{r4, r5, r6, r7, r8, r9, sl, fp, lr}
   103ec:	e3a06000 	mov	r6, #0
   103f0:	e2415001 	sub	r5, r1, #1
   103f4:	e1a08000 	mov	r8, r0
   103f8:	e1a0b002 	mov	fp, r2
   103fc:	e1a09006 	mov	r9, r6
   10400:	e1a01006 	mov	r1, r6
   10404:	e1a04006 	mov	r4, r6
   10408:	e1a0a006 	mov	sl, r6
   1040c:	e59f7190 	ldr	r7, [pc, #400]	; 105a4 <vsprintf+0x1bc>
   10410:	e24dd00c 	sub	sp, sp, #12
   10414:	e5f53001 	ldrb	r3, [r5, #1]!
   10418:	e1540007 	cmp	r4, r7
   1041c:	c3a02000 	movgt	r2, #0
   10420:	d3a02001 	movle	r2, #1
   10424:	e3530000 	cmp	r3, #0
   10428:	03a02000 	moveq	r2, #0
   1042c:	e3520000 	cmp	r2, #0
   10430:	0a00002b 	beq	104e4 <vsprintf+0xfc>
   10434:	e3510000 	cmp	r1, #0
   10438:	0a000020 	beq	104c0 <vsprintf+0xd8>
   1043c:	e20320df 	and	r2, r3, #223	; 0xdf
   10440:	e3520058 	cmp	r2, #88	; 0x58
   10444:	0a00002e 	beq	10504 <vsprintf+0x11c>
   10448:	e3520055 	cmp	r2, #85	; 0x55
   1044c:	0a000011 	beq	10498 <vsprintf+0xb0>
   10450:	e3520049 	cmp	r2, #73	; 0x49
   10454:	0a00000f 	beq	10498 <vsprintf+0xb0>
   10458:	e3520044 	cmp	r2, #68	; 0x44
   1045c:	1a000036 	bne	1053c <vsprintf+0x154>
   10460:	e59b1000 	ldr	r1, [fp]
   10464:	e1a02009 	mov	r2, r9
   10468:	e3510000 	cmp	r1, #0
   1046c:	b3a03001 	movlt	r3, #1
   10470:	a3a03000 	movge	r3, #0
   10474:	b2611000 	rsblt	r1, r1, #0
   10478:	e58d3000 	str	r3, [sp]
   1047c:	e1a03006 	mov	r3, r6
   10480:	ebffff7b 	bl	10274 <strNum>
   10484:	e0844000 	add	r4, r4, r0
   10488:	e28bb004 	add	fp, fp, #4
   1048c:	e0880004 	add	r0, r8, r4
   10490:	e3a01000 	mov	r1, #0
   10494:	eaffffde 	b	10414 <vsprintf+0x2c>
   10498:	e59b1000 	ldr	r1, [fp]
   1049c:	e1a03006 	mov	r3, r6
   104a0:	e58da000 	str	sl, [sp]
   104a4:	e1a02009 	mov	r2, r9
   104a8:	ebffff71 	bl	10274 <strNum>
   104ac:	e0844000 	add	r4, r4, r0
   104b0:	e28bb004 	add	fp, fp, #4
   104b4:	e0880004 	add	r0, r8, r4
   104b8:	e3a01000 	mov	r1, #0
   104bc:	eaffffd4 	b	10414 <vsprintf+0x2c>
   104c0:	e3530025 	cmp	r3, #37	; 0x25
   104c4:	12844001 	addne	r4, r4, #1
   104c8:	15c03000 	strbne	r3, [r0]
   104cc:	10880004 	addne	r0, r8, r4
   104d0:	1affffcf 	bne	10414 <vsprintf+0x2c>
   104d4:	e1a06001 	mov	r6, r1
   104d8:	e1a09001 	mov	r9, r1
   104dc:	e3a01001 	mov	r1, #1
   104e0:	eaffffcb 	b	10414 <vsprintf+0x2c>
   104e4:	e3540b01 	cmp	r4, #1024	; 0x400
   104e8:	e5c02000 	strb	r2, [r0]
   104ec:	ca00000d 	bgt	10528 <vsprintf+0x140>
   104f0:	e3540000 	cmp	r4, #0
   104f4:	d3e04000 	mvnle	r4, #0
   104f8:	e1a00004 	mov	r0, r4
   104fc:	e28dd00c 	add	sp, sp, #12
   10500:	e8bd8ff0 	pop	{r4, r5, r6, r7, r8, r9, sl, fp, pc}
   10504:	e59b1000 	ldr	r1, [fp]
   10508:	e1a03006 	mov	r3, r6
   1050c:	e1a02009 	mov	r2, r9
   10510:	ebffff1d 	bl	1018c <strHex>
   10514:	e0844000 	add	r4, r4, r0
   10518:	e28bb004 	add	fp, fp, #4
   1051c:	e0880004 	add	r0, r8, r4
   10520:	e3a01000 	mov	r1, #0
   10524:	eaffffba 	b	10414 <vsprintf+0x2c>
   10528:	e3a00001 	mov	r0, #1
   1052c:	ebffff96 	bl	1038c <log_error>
   10530:	e1a00004 	mov	r0, r4
   10534:	e28dd00c 	add	sp, sp, #12
   10538:	e8bd8ff0 	pop	{r4, r5, r6, r7, r8, r9, sl, fp, pc}
   1053c:	e3520053 	cmp	r2, #83	; 0x53
   10540:	0a00000b 	beq	10574 <vsprintf+0x18c>
   10544:	e2432030 	sub	r2, r3, #48	; 0x30
   10548:	e6efe072 	uxtb	lr, r2
   1054c:	e35e0009 	cmp	lr, #9
   10550:	8a00000e 	bhi	10590 <vsprintf+0x1a8>
   10554:	e3510001 	cmp	r1, #1
   10558:	03530030 	cmpeq	r3, #48	; 0x30
   1055c:	03a06001 	moveq	r6, #1
   10560:	03a01002 	moveq	r1, #2
   10564:	10899109 	addne	r9, r9, r9, lsl #2
   10568:	10829089 	addne	r9, r2, r9, lsl #1
   1056c:	13a01002 	movne	r1, #2
   10570:	eaffffa7 	b	10414 <vsprintf+0x2c>
   10574:	e59b1000 	ldr	r1, [fp]
   10578:	ebfffe97 	bl	ffdc <strCpy>
   1057c:	e0844000 	add	r4, r4, r0
   10580:	e28bb004 	add	fp, fp, #4
   10584:	e0880004 	add	r0, r8, r4
   10588:	e3a01000 	mov	r1, #0
   1058c:	eaffffa0 	b	10414 <vsprintf+0x2c>
   10590:	e2844001 	add	r4, r4, #1
   10594:	e5c03000 	strb	r3, [r0]
   10598:	e3a01000 	mov	r1, #0
   1059c:	e0880004 	add	r0, r8, r4
   105a0:	eaffff9b 	b	10414 <vsprintf+0x2c>
   105a4:	000003ff 	strdeq	r0, [r0], -pc	; <UNPREDICTABLE>

000105a8 <printf>:
   105a8:	e92d000f 	push	{r0, r1, r2, r3}
   105ac:	e92d4030 	push	{r4, r5, lr}
   105b0:	e24ddb01 	sub	sp, sp, #1024	; 0x400
   105b4:	e24dd00c 	sub	sp, sp, #12
   105b8:	e28d3e41 	add	r3, sp, #1040	; 0x410
   105bc:	e283300c 	add	r3, r3, #12
   105c0:	e28d4008 	add	r4, sp, #8
   105c4:	e1a02003 	mov	r2, r3
   105c8:	e59d1418 	ldr	r1, [sp, #1048]	; 0x418
   105cc:	e1a00004 	mov	r0, r4
   105d0:	e58d3004 	str	r3, [sp, #4]
   105d4:	ebffff83 	bl	103e8 <vsprintf>
   105d8:	e1a05000 	mov	r5, r0
   105dc:	e1a00004 	mov	r0, r4
   105e0:	ebfffee8 	bl	10188 <putS>
   105e4:	e1a00005 	mov	r0, r5
   105e8:	e28ddb01 	add	sp, sp, #1024	; 0x400
   105ec:	e28dd00c 	add	sp, sp, #12
   105f0:	e8bd4030 	pop	{r4, r5, lr}
   105f4:	e28dd010 	add	sp, sp, #16
   105f8:	e12fff1e 	bx	lr

000105fc <dump>:
   105fc:	e92d4ff0 	push	{r4, r5, r6, r7, r8, r9, sl, fp, lr}
   10600:	e291800f 	adds	r8, r1, #15
   10604:	4281801e 	addmi	r8, r1, #30
   10608:	e1a08248 	asr	r8, r8, #4
   1060c:	e3580000 	cmp	r8, #0
   10610:	e24dd024 	sub	sp, sp, #36	; 0x24
   10614:	da00002c 	ble	106cc <dump+0xd0>
   10618:	e1a07000 	mov	r7, r0
   1061c:	e59f30b0 	ldr	r3, [pc, #176]	; 106d4 <dump+0xd8>
   10620:	e59f60b0 	ldr	r6, [pc, #176]	; 106d8 <dump+0xdc>
   10624:	e08f3003 	add	r3, pc, r3
   10628:	e58d3000 	str	r3, [sp]
   1062c:	e28d300b 	add	r3, sp, #11
   10630:	e08f6006 	add	r6, pc, r6
   10634:	e0808208 	add	r8, r0, r8, lsl #4
   10638:	e58d3004 	str	r3, [sp, #4]
   1063c:	e28d900c 	add	r9, sp, #12
   10640:	e59f5094 	ldr	r5, [pc, #148]	; 106dc <dump+0xe0>
   10644:	e1a01007 	mov	r1, r7
   10648:	e59d0000 	ldr	r0, [sp]
   1064c:	ebffffd5 	bl	105a8 <printf>
   10650:	e3a0b000 	mov	fp, #0
   10654:	e59d4004 	ldr	r4, [sp, #4]
   10658:	e08f5005 	add	r5, pc, r5
   1065c:	e247a001 	sub	sl, r7, #1
   10660:	ea00000a 	b	10690 <dump+0x94>
   10664:	e5fa1001 	ldrb	r1, [sl, #1]!
   10668:	e1a00005 	mov	r0, r5
   1066c:	ebffffcd 	bl	105a8 <printf>
   10670:	e5da1000 	ldrb	r1, [sl]
   10674:	e2410020 	sub	r0, r1, #32
   10678:	e6ef0070 	uxtb	r0, r0
   1067c:	e35000df 	cmp	r0, #223	; 0xdf
   10680:	23a0102e 	movcs	r1, #46	; 0x2e
   10684:	e35b0010 	cmp	fp, #16
   10688:	e5e41001 	strb	r1, [r4, #1]!
   1068c:	0a000005 	beq	106a8 <dump+0xac>
   10690:	e31b0003 	tst	fp, #3
   10694:	e28bb001 	add	fp, fp, #1
   10698:	1afffff1 	bne	10664 <dump+0x68>
   1069c:	e1a00006 	mov	r0, r6
   106a0:	ebffffc0 	bl	105a8 <printf>
   106a4:	eaffffee 	b	10664 <dump+0x68>
   106a8:	e3a03000 	mov	r3, #0
   106ac:	e59f002c 	ldr	r0, [pc, #44]	; 106e0 <dump+0xe4>
   106b0:	e2877010 	add	r7, r7, #16
   106b4:	e1a01009 	mov	r1, r9
   106b8:	e08f0000 	add	r0, pc, r0
   106bc:	e5cd301c 	strb	r3, [sp, #28]
   106c0:	ebffffb8 	bl	105a8 <printf>
   106c4:	e1570008 	cmp	r7, r8
   106c8:	1affffdc 	bne	10640 <dump+0x44>
   106cc:	e28dd024 	add	sp, sp, #36	; 0x24
   106d0:	e8bd8ff0 	pop	{r4, r5, r6, r7, r8, r9, sl, fp, pc}
   106d4:	0000b630 	andeq	fp, r0, r0, lsr r6
   106d8:	0000b620 	andeq	fp, r0, r0, lsr #12
   106dc:	0000b604 	andeq	fp, r0, r4, lsl #12
   106e0:	0000b5ac 	andeq	fp, r0, ip, lsr #11

000106e4 <sprintf>:
   106e4:	e92d000e 	push	{r1, r2, r3}
   106e8:	e52de004 	push	{lr}		; (str lr, [sp, #-4]!)
   106ec:	e24dd008 	sub	sp, sp, #8
   106f0:	e28d3010 	add	r3, sp, #16
   106f4:	e1a02003 	mov	r2, r3
   106f8:	e59d100c 	ldr	r1, [sp, #12]
   106fc:	e58d3004 	str	r3, [sp, #4]
   10700:	ebffff38 	bl	103e8 <vsprintf>
   10704:	e28dd008 	add	sp, sp, #8
   10708:	e49de004 	pop	{lr}		; (ldr lr, [sp], #4)
   1070c:	e28dd00c 	add	sp, sp, #12
   10710:	e12fff1e 	bx	lr

00010714 <log>:
   10714:	e92d000e 	push	{r1, r2, r3}
   10718:	e92d4030 	push	{r4, r5, lr}
   1071c:	e24dd008 	sub	sp, sp, #8
   10720:	e28d3018 	add	r3, sp, #24
   10724:	e1a05000 	mov	r5, r0
   10728:	e58d3004 	str	r3, [sp, #4]
   1072c:	ebfffe89 	bl	10158 <strLen>
   10730:	e59d1014 	ldr	r1, [sp, #20]
   10734:	e1a04000 	mov	r4, r0
   10738:	e59d2004 	ldr	r2, [sp, #4]
   1073c:	e0850000 	add	r0, r5, r0
   10740:	ebffff28 	bl	103e8 <vsprintf>
   10744:	e0844000 	add	r4, r4, r0
   10748:	e3540b01 	cmp	r4, #1024	; 0x400
   1074c:	e1a05000 	mov	r5, r0
   10750:	da000001 	ble	1075c <log+0x48>
   10754:	e3a00002 	mov	r0, #2
   10758:	ebffff0b 	bl	1038c <log_error>
   1075c:	e1a00005 	mov	r0, r5
   10760:	e28dd008 	add	sp, sp, #8
   10764:	e8bd4030 	pop	{r4, r5, lr}
   10768:	e28dd00c 	add	sp, sp, #12
   1076c:	e12fff1e 	bx	lr

00010770 <gpioSetFunction>:
   10770:	e3500009 	cmp	r0, #9
   10774:	9a000016 	bls	107d4 <gpioSetFunction+0x64>
   10778:	e240300a 	sub	r3, r0, #10
   1077c:	e3530009 	cmp	r3, #9
   10780:	8a00000a 	bhi	107b0 <gpioSetFunction+0x40>
   10784:	e1a00003 	mov	r0, r3
   10788:	e59f2098 	ldr	r2, [pc, #152]	; 10828 <gpioSetFunction+0xb8>
   1078c:	e3a0c007 	mov	ip, #7
   10790:	e5923000 	ldr	r3, [r2]
   10794:	e0800080 	add	r0, r0, r0, lsl #1
   10798:	e001100c 	and	r1, r1, ip
   1079c:	e1c3301c 	bic	r3, r3, ip, lsl r0
   107a0:	e1830011 	orr	r0, r3, r1, lsl r0
   107a4:	e5820000 	str	r0, [r2]
   107a8:	e3a00001 	mov	r0, #1
   107ac:	eafffe00 	b	ffb4 <waitMicro>
   107b0:	e2403014 	sub	r3, r0, #20
   107b4:	e3530009 	cmp	r3, #9
   107b8:	9a000007 	bls	107dc <gpioSetFunction+0x6c>
   107bc:	e240301e 	sub	r3, r0, #30
   107c0:	e3530009 	cmp	r3, #9
   107c4:	8a000007 	bhi	107e8 <gpioSetFunction+0x78>
   107c8:	e1a00003 	mov	r0, r3
   107cc:	e59f2058 	ldr	r2, [pc, #88]	; 1082c <gpioSetFunction+0xbc>
   107d0:	eaffffed 	b	1078c <gpioSetFunction+0x1c>
   107d4:	e59f2054 	ldr	r2, [pc, #84]	; 10830 <gpioSetFunction+0xc0>
   107d8:	eaffffeb 	b	1078c <gpioSetFunction+0x1c>
   107dc:	e1a00003 	mov	r0, r3
   107e0:	e59f204c 	ldr	r2, [pc, #76]	; 10834 <gpioSetFunction+0xc4>
   107e4:	eaffffe8 	b	1078c <gpioSetFunction+0x1c>
   107e8:	e2403028 	sub	r3, r0, #40	; 0x28
   107ec:	e3530009 	cmp	r3, #9
   107f0:	9a000005 	bls	1080c <gpioSetFunction+0x9c>
   107f4:	e2403032 	sub	r3, r0, #50	; 0x32
   107f8:	e3530003 	cmp	r3, #3
   107fc:	8a000005 	bhi	10818 <gpioSetFunction+0xa8>
   10800:	e1a00003 	mov	r0, r3
   10804:	e59f202c 	ldr	r2, [pc, #44]	; 10838 <gpioSetFunction+0xc8>
   10808:	eaffffdf 	b	1078c <gpioSetFunction+0x1c>
   1080c:	e1a00003 	mov	r0, r3
   10810:	e59f2024 	ldr	r2, [pc, #36]	; 1083c <gpioSetFunction+0xcc>
   10814:	eaffffdc 	b	1078c <gpioSetFunction+0x1c>
   10818:	e1a01000 	mov	r1, r0
   1081c:	e59f001c 	ldr	r0, [pc, #28]	; 10840 <gpioSetFunction+0xd0>
   10820:	e08f0000 	add	r0, pc, r0
   10824:	eaffff5f 	b	105a8 <printf>
   10828:	20200004 	eorcs	r0, r0, r4
   1082c:	2020000c 	eorcs	r0, r0, ip
   10830:	20200000 	eorcs	r0, r0, r0
   10834:	20200008 	eorcs	r0, r0, r8
   10838:	20200014 	eorcs	r0, r0, r4, lsl r0
   1083c:	20200010 	eorcs	r0, r0, r0, lsl r0
   10840:	0000b44c 	andeq	fp, r0, ip, asr #8

00010844 <gpioSetPull>:
   10844:	e92d4070 	push	{r4, r5, r6, lr}
   10848:	e3a04001 	mov	r4, #1
   1084c:	e350001f 	cmp	r0, #31
   10850:	e59f6034 	ldr	r6, [pc, #52]	; 1088c <gpioSetPull+0x48>
   10854:	d59f5034 	ldrle	r5, [pc, #52]	; 10890 <gpioSetPull+0x4c>
   10858:	c2400020 	subgt	r0, r0, #32
   1085c:	c59f5030 	ldrgt	r5, [pc, #48]	; 10894 <gpioSetPull+0x50>
   10860:	e1a04014 	lsl	r4, r4, r0
   10864:	e5861094 	str	r1, [r6, #148]	; 0x94
   10868:	e3a00096 	mov	r0, #150	; 0x96
   1086c:	ebfffdbf 	bl	ff70 <waitCycle>
   10870:	e5854000 	str	r4, [r5]
   10874:	e3a00096 	mov	r0, #150	; 0x96
   10878:	ebfffdbc 	bl	ff70 <waitCycle>
   1087c:	e3a03000 	mov	r3, #0
   10880:	e5863094 	str	r3, [r6, #148]	; 0x94
   10884:	e5853000 	str	r3, [r5]
   10888:	e8bd8070 	pop	{r4, r5, r6, pc}
   1088c:	20200000 	eorcs	r0, r0, r0
   10890:	20200098 	mlacs	r0, r8, r0, r0
   10894:	2020009c 	mlacs	r0, ip, r0, r0

00010898 <__udivmodsi4>:
   10898:	e3510000 	cmp	r1, #0
   1089c:	01a0c001 	moveq	ip, r1
   108a0:	0a00000f 	beq	108e4 <__udivmodsi4+0x4c>
   108a4:	e3a03001 	mov	r3, #1
   108a8:	ba000004 	blt	108c0 <__udivmodsi4+0x28>
   108ac:	e1b01081 	lsls	r1, r1, #1
   108b0:	e1a03083 	lsl	r3, r3, #1
   108b4:	5afffffc 	bpl	108ac <__udivmodsi4+0x14>
   108b8:	e3530000 	cmp	r3, #0
   108bc:	0a00000a 	beq	108ec <__udivmodsi4+0x54>
   108c0:	e3a0c000 	mov	ip, #0
   108c4:	e1500001 	cmp	r0, r1
   108c8:	20400001 	subcs	r0, r0, r1
   108cc:	208cc003 	addcs	ip, ip, r3
   108d0:	e1b030a3 	lsrs	r3, r3, #1
   108d4:	e1a010a1 	lsr	r1, r1, #1
   108d8:	1afffff9 	bne	108c4 <__udivmodsi4+0x2c>
   108dc:	e3520000 	cmp	r2, #0
   108e0:	15820000 	strne	r0, [r2]
   108e4:	e1a0000c 	mov	r0, ip
   108e8:	e12fff1e 	bx	lr
   108ec:	e1a0c003 	mov	ip, r3
   108f0:	eafffff9 	b	108dc <__udivmodsi4+0x44>

000108f4 <__aeabi_idiv>:
   108f4:	e2502000 	subs	r2, r0, #0
   108f8:	e92d4010 	push	{r4, lr}
   108fc:	ba000004 	blt	10914 <__aeabi_idiv+0x20>
   10900:	e3510000 	cmp	r1, #0
   10904:	ba000009 	blt	10930 <__aeabi_idiv+0x3c>
   10908:	e8bd4010 	pop	{r4, lr}
   1090c:	e3a02000 	mov	r2, #0
   10910:	eaffffe0 	b	10898 <__udivmodsi4>
   10914:	e3510000 	cmp	r1, #0
   10918:	e2620000 	rsb	r0, r2, #0
   1091c:	aa000004 	bge	10934 <__aeabi_idiv+0x40>
   10920:	e8bd4010 	pop	{r4, lr}
   10924:	e2611000 	rsb	r1, r1, #0
   10928:	e3a02000 	mov	r2, #0
   1092c:	eaffffd9 	b	10898 <__udivmodsi4>
   10930:	e2611000 	rsb	r1, r1, #0
   10934:	e3a02000 	mov	r2, #0
   10938:	ebffffd6 	bl	10898 <__udivmodsi4>
   1093c:	e2600000 	rsb	r0, r0, #0
   10940:	e8bd8010 	pop	{r4, pc}

00010944 <__aeabi_uidiv>:
   10944:	e3a02000 	mov	r2, #0
   10948:	eaffffd2 	b	10898 <__udivmodsi4>

0001094c <div>:
   1094c:	e1510000 	cmp	r1, r0
   10950:	e1a02000 	mov	r2, r0
   10954:	8a000014 	bhi	109ac <div+0x60>
   10958:	13a03001 	movne	r3, #1
   1095c:	1a000003 	bne	10970 <div+0x24>
   10960:	e3a00001 	mov	r0, #1
   10964:	e12fff1e 	bx	lr
   10968:	e1a0300c 	mov	r3, ip
   1096c:	e1a01000 	mov	r1, r0
   10970:	e1a00081 	lsl	r0, r1, #1
   10974:	e1520000 	cmp	r2, r0
   10978:	e1a0c083 	lsl	ip, r3, #1
   1097c:	2afffff9 	bcs	10968 <div+0x1c>
   10980:	e3d33102 	bics	r3, r3, #-2147483648	; 0x80000000
   10984:	e3c11102 	bic	r1, r1, #-2147483648	; 0x80000000
   10988:	0a000007 	beq	109ac <div+0x60>
   1098c:	e3a00000 	mov	r0, #0
   10990:	e1510002 	cmp	r1, r2
   10994:	90422001 	subls	r2, r2, r1
   10998:	91800003 	orrls	r0, r0, r3
   1099c:	e1b030a3 	lsrs	r3, r3, #1
   109a0:	e1a010a1 	lsr	r1, r1, #1
   109a4:	1afffff9 	bne	10990 <div+0x44>
   109a8:	e12fff1e 	bx	lr
   109ac:	e3a00000 	mov	r0, #0
   109b0:	e12fff1e 	bx	lr

000109b4 <divmod>:
   109b4:	e92d4070 	push	{r4, r5, r6, lr}
   109b8:	e1a04001 	mov	r4, r1
   109bc:	e1a06000 	mov	r6, r0
   109c0:	e1a01002 	mov	r1, r2
   109c4:	e1a00004 	mov	r0, r4
   109c8:	e1a05002 	mov	r5, r2
   109cc:	ebffffde 	bl	1094c <div>
   109d0:	e0050095 	mul	r5, r5, r0
   109d4:	e0444005 	sub	r4, r4, r5
   109d8:	e8860011 	stm	r6, {r0, r4}
   109dc:	e1a00006 	mov	r0, r6
   109e0:	e8bd8070 	pop	{r4, r5, r6, pc}

000109e4 <memset>:
   109e4:	e3520000 	cmp	r2, #0
   109e8:	d12fff1e 	bxle	lr
   109ec:	e1a03000 	mov	r3, r0
   109f0:	e6ef1071 	uxtb	r1, r1
   109f4:	e0802002 	add	r2, r0, r2
   109f8:	e4c31001 	strb	r1, [r3], #1
   109fc:	e1520003 	cmp	r2, r3
   10a00:	1afffffc 	bne	109f8 <memset+0x14>
   10a04:	e12fff1e 	bx	lr

00010a08 <memcpy>:
   10a08:	e3520000 	cmp	r2, #0
   10a0c:	012fff1e 	bxeq	lr
   10a10:	e2400001 	sub	r0, r0, #1
   10a14:	e0812002 	add	r2, r1, r2
   10a18:	e4d13001 	ldrb	r3, [r1], #1
   10a1c:	e1510002 	cmp	r1, r2
   10a20:	e5e03001 	strb	r3, [r0, #1]!
   10a24:	1afffffb 	bne	10a18 <memcpy+0x10>
   10a28:	e12fff1e 	bx	lr

00010a2c <bzero>:
   10a2c:	e3510000 	cmp	r1, #0
   10a30:	012fff1e 	bxeq	lr
   10a34:	e3a03000 	mov	r3, #0
   10a38:	e0801001 	add	r1, r0, r1
   10a3c:	e4c03001 	strb	r3, [r0], #1
   10a40:	e1510000 	cmp	r1, r0
   10a44:	1afffffc 	bne	10a3c <bzero+0x10>
   10a48:	e12fff1e 	bx	lr

00010a4c <strtol>:
   10a4c:	e92d40f0 	push	{r4, r5, r6, r7, lr}
   10a50:	e2423002 	sub	r3, r2, #2
   10a54:	e2516000 	subs	r6, r1, #0
   10a58:	15860000 	strne	r0, [r6]
   10a5c:	e3520000 	cmp	r2, #0
   10a60:	13530022 	cmpne	r3, #34	; 0x22
   10a64:	e24dd00c 	sub	sp, sp, #12
   10a68:	9a000001 	bls	10a74 <strtol+0x28>
   10a6c:	ea00005a 	b	10bdc <strtol+0x190>
   10a70:	e1a00005 	mov	r0, r5
   10a74:	e1a05000 	mov	r5, r0
   10a78:	e4d54001 	ldrb	r4, [r5], #1
   10a7c:	e3540020 	cmp	r4, #32
   10a80:	0afffffa 	beq	10a70 <strtol+0x24>
   10a84:	e354002d 	cmp	r4, #45	; 0x2d
   10a88:	0a000056 	beq	10be8 <strtol+0x19c>
   10a8c:	e3a07000 	mov	r7, #0
   10a90:	e354002b 	cmp	r4, #43	; 0x2b
   10a94:	05d04001 	ldrbeq	r4, [r0, #1]
   10a98:	02805002 	addeq	r5, r0, #2
   10a9c:	e3d21010 	bics	r1, r2, #16
   10aa0:	0a000011 	beq	10aec <strtol+0xa0>
   10aa4:	e353000e 	cmp	r3, #14
   10aa8:	908ff103 	addls	pc, pc, r3, lsl #2
   10aac:	ea000062 	b	10c3c <strtol+0x1f0>
   10ab0:	ea00005f 	b	10c34 <strtol+0x1e8>
   10ab4:	ea000060 	b	10c3c <strtol+0x1f0>
   10ab8:	ea00005f 	b	10c3c <strtol+0x1f0>
   10abc:	ea00005e 	b	10c3c <strtol+0x1f0>
   10ac0:	ea00005d 	b	10c3c <strtol+0x1f0>
   10ac4:	ea00005c 	b	10c3c <strtol+0x1f0>
   10ac8:	ea000057 	b	10c2c <strtol+0x1e0>
   10acc:	ea00005a 	b	10c3c <strtol+0x1f0>
   10ad0:	ea00000a 	b	10b00 <strtol+0xb4>
   10ad4:	ea000058 	b	10c3c <strtol+0x1f0>
   10ad8:	ea000057 	b	10c3c <strtol+0x1f0>
   10adc:	ea000056 	b	10c3c <strtol+0x1f0>
   10ae0:	ea000055 	b	10c3c <strtol+0x1f0>
   10ae4:	ea000054 	b	10c3c <strtol+0x1f0>
   10ae8:	ea000059 	b	10c54 <strtol+0x208>
   10aec:	e3540030 	cmp	r4, #48	; 0x30
   10af0:	0a000040 	beq	10bf8 <strtol+0x1ac>
   10af4:	e3520000 	cmp	r2, #0
   10af8:	03a0200a 	moveq	r2, #10
   10afc:	1affffe8 	bne	10aa4 <strtol+0x58>
   10b00:	e59f0154 	ldr	r0, [pc, #340]	; 10c5c <strtol+0x210>
   10b04:	e3a0c000 	mov	ip, #0
   10b08:	e1a0100c 	mov	r1, ip
   10b0c:	ea000009 	b	10b38 <strtol+0xec>
   10b10:	e35c0000 	cmp	ip, #0
   10b14:	ba000006 	blt	10b34 <strtol+0xe8>
   10b18:	e1510000 	cmp	r1, r0
   10b1c:	83e0c000 	mvnhi	ip, #0
   10b20:	8a000003 	bhi	10b34 <strtol+0xe8>
   10b24:	e0213291 	mla	r1, r1, r2, r3
   10b28:	e3510102 	cmp	r1, #-2147483648	; 0x80000000
   10b2c:	93a0c001 	movls	ip, #1
   10b30:	83e0c000 	mvnhi	ip, #0
   10b34:	e4d54001 	ldrb	r4, [r5], #1
   10b38:	e2443030 	sub	r3, r4, #48	; 0x30
   10b3c:	e6ef3073 	uxtb	r3, r3
   10b40:	e3530009 	cmp	r3, #9
   10b44:	9a000009 	bls	10b70 <strtol+0x124>
   10b48:	e2443041 	sub	r3, r4, #65	; 0x41
   10b4c:	e3530019 	cmp	r3, #25
   10b50:	92443037 	subls	r3, r4, #55	; 0x37
   10b54:	96ef3073 	uxtbls	r3, r3
   10b58:	9a000004 	bls	10b70 <strtol+0x124>
   10b5c:	e2443061 	sub	r3, r4, #97	; 0x61
   10b60:	e3530019 	cmp	r3, #25
   10b64:	8a000003 	bhi	10b78 <strtol+0x12c>
   10b68:	e2443057 	sub	r3, r4, #87	; 0x57
   10b6c:	e6ef3073 	uxtb	r3, r3
   10b70:	e1530002 	cmp	r3, r2
   10b74:	baffffe5 	blt	10b10 <strtol+0xc4>
   10b78:	e3560000 	cmp	r6, #0
   10b7c:	e2073001 	and	r3, r7, #1
   10b80:	0a00000d 	beq	10bbc <strtol+0x170>
   10b84:	e35c0000 	cmp	ip, #0
   10b88:	12455001 	subne	r5, r5, #1
   10b8c:	15865000 	strne	r5, [r6]
   10b90:	1a000009 	bne	10bbc <strtol+0x170>
   10b94:	e3170002 	tst	r7, #2
   10b98:	12455002 	subne	r5, r5, #2
   10b9c:	15865000 	strne	r5, [r6]
   10ba0:	e3530000 	cmp	r3, #0
   10ba4:	12610000 	rsbne	r0, r1, #0
   10ba8:	1a000001 	bne	10bb4 <strtol+0x168>
   10bac:	e2510000 	subs	r0, r1, #0
   10bb0:	ba000006 	blt	10bd0 <strtol+0x184>
   10bb4:	e28dd00c 	add	sp, sp, #12
   10bb8:	e8bd80f0 	pop	{r4, r5, r6, r7, pc}
   10bbc:	e35c0000 	cmp	ip, #0
   10bc0:	aafffff6 	bge	10ba0 <strtol+0x154>
   10bc4:	e3530000 	cmp	r3, #0
   10bc8:	13a00102 	movne	r0, #-2147483648	; 0x80000000
   10bcc:	1afffff8 	bne	10bb4 <strtol+0x168>
   10bd0:	e3e00102 	mvn	r0, #-2147483648	; 0x80000000
   10bd4:	e28dd00c 	add	sp, sp, #12
   10bd8:	e8bd80f0 	pop	{r4, r5, r6, r7, pc}
   10bdc:	e3a00000 	mov	r0, #0
   10be0:	e28dd00c 	add	sp, sp, #12
   10be4:	e8bd80f0 	pop	{r4, r5, r6, r7, pc}
   10be8:	e2805002 	add	r5, r0, #2
   10bec:	e5d04001 	ldrb	r4, [r0, #1]
   10bf0:	e3a07001 	mov	r7, #1
   10bf4:	eaffffa8 	b	10a9c <strtol+0x50>
   10bf8:	e5d51000 	ldrb	r1, [r5]
   10bfc:	e20110df 	and	r1, r1, #223	; 0xdf
   10c00:	e3510058 	cmp	r1, #88	; 0x58
   10c04:	1a000005 	bne	10c20 <strtol+0x1d4>
   10c08:	e5d54001 	ldrb	r4, [r5, #1]
   10c0c:	e3877002 	orr	r7, r7, #2
   10c10:	e3a02010 	mov	r2, #16
   10c14:	e2855002 	add	r5, r5, #2
   10c18:	e3a00302 	mov	r0, #134217728	; 0x8000000
   10c1c:	eaffffb8 	b	10b04 <strtol+0xb8>
   10c20:	e3520000 	cmp	r2, #0
   10c24:	03a02008 	moveq	r2, #8
   10c28:	1affff9d 	bne	10aa4 <strtol+0x58>
   10c2c:	e3a00201 	mov	r0, #268435456	; 0x10000000
   10c30:	eaffffb3 	b	10b04 <strtol+0xb8>
   10c34:	e3a00101 	mov	r0, #1073741824	; 0x40000000
   10c38:	eaffffb1 	b	10b04 <strtol+0xb8>
   10c3c:	e1a01002 	mov	r1, r2
   10c40:	e3a00102 	mov	r0, #-2147483648	; 0x80000000
   10c44:	e58d2004 	str	r2, [sp, #4]
   10c48:	ebffff3d 	bl	10944 <__aeabi_uidiv>
   10c4c:	e59d2004 	ldr	r2, [sp, #4]
   10c50:	eaffffab 	b	10b04 <strtol+0xb8>
   10c54:	e3a00302 	mov	r0, #134217728	; 0x8000000
   10c58:	eaffffa9 	b	10b04 <strtol+0xb8>
   10c5c:	0ccccccc 	stcleq	12, cr12, [ip], {204}	; 0xcc

00010c60 <atol>:
   10c60:	e3a0200a 	mov	r2, #10
   10c64:	e3a01000 	mov	r1, #0
   10c68:	eaffff77 	b	10a4c <strtol>

00010c6c <atoi>:
   10c6c:	eafffffb 	b	10c60 <atol>

00010c70 <abs>:
   10c70:	e3500000 	cmp	r0, #0
   10c74:	b2600000 	rsblt	r0, r0, #0
   10c78:	e12fff1e 	bx	lr

00010c7c <strlen>:
   10c7c:	e5d03000 	ldrb	r3, [r0]
   10c80:	e1a02000 	mov	r2, r0
   10c84:	e3530000 	cmp	r3, #0
   10c88:	0a000004 	beq	10ca0 <strlen+0x24>
   10c8c:	e5f03001 	ldrb	r3, [r0, #1]!
   10c90:	e3530000 	cmp	r3, #0
   10c94:	1afffffc 	bne	10c8c <strlen+0x10>
   10c98:	e0400002 	sub	r0, r0, r2
   10c9c:	e12fff1e 	bx	lr
   10ca0:	e1a00003 	mov	r0, r3
   10ca4:	e12fff1e 	bx	lr

00010ca8 <strcmp>:
   10ca8:	e2402001 	sub	r2, r0, #1
   10cac:	ea000001 	b	10cb8 <strcmp+0x10>
   10cb0:	e3500000 	cmp	r0, #0
   10cb4:	012fff1e 	bxeq	lr
   10cb8:	e5f20001 	ldrb	r0, [r2, #1]!
   10cbc:	e4d13001 	ldrb	r3, [r1], #1
   10cc0:	e0403003 	sub	r3, r0, r3
   10cc4:	e6af3073 	sxtb	r3, r3
   10cc8:	e3530000 	cmp	r3, #0
   10ccc:	0afffff7 	beq	10cb0 <strcmp+0x8>
   10cd0:	e1a00003 	mov	r0, r3
   10cd4:	e12fff1e 	bx	lr

00010cd8 <strcpy>:
   10cd8:	e2402001 	sub	r2, r0, #1
   10cdc:	e4d13001 	ldrb	r3, [r1], #1
   10ce0:	e3530000 	cmp	r3, #0
   10ce4:	e5e23001 	strb	r3, [r2, #1]!
   10ce8:	1afffffb 	bne	10cdc <strcpy+0x4>
   10cec:	e12fff1e 	bx	lr

00010cf0 <itoa>:
   10cf0:	e92d47f0 	push	{r4, r5, r6, r7, r8, r9, sl, lr}
   10cf4:	e3500000 	cmp	r0, #0
   10cf8:	e24dd008 	sub	sp, sp, #8
   10cfc:	e1a07001 	mov	r7, r1
   10d00:	0a000040 	beq	10e08 <itoa+0x118>
   10d04:	e1a09fa0 	lsr	r9, r0, #31
   10d08:	e352000a 	cmp	r2, #10
   10d0c:	13a09000 	movne	r9, #0
   10d10:	02099001 	andeq	r9, r9, #1
   10d14:	e3590000 	cmp	r9, #0
   10d18:	e2414001 	sub	r4, r1, #1
   10d1c:	12600000 	rsbne	r0, r0, #0
   10d20:	e1a06002 	mov	r6, r2
   10d24:	13a09001 	movne	r9, #1
   10d28:	e1a01000 	mov	r1, r0
   10d2c:	e1a05004 	mov	r5, r4
   10d30:	e3a0a000 	mov	sl, #0
   10d34:	e1a0800d 	mov	r8, sp
   10d38:	ea000000 	b	10d40 <itoa+0x50>
   10d3c:	e1a0a000 	mov	sl, r0
   10d40:	e1a02006 	mov	r2, r6
   10d44:	e1a00008 	mov	r0, r8
   10d48:	ebffff19 	bl	109b4 <divmod>
   10d4c:	e59d3004 	ldr	r3, [sp, #4]
   10d50:	e59d1000 	ldr	r1, [sp]
   10d54:	e3530009 	cmp	r3, #9
   10d58:	e2832030 	add	r2, r3, #48	; 0x30
   10d5c:	82833057 	addhi	r3, r3, #87	; 0x57
   10d60:	96ef3072 	uxtbls	r3, r2
   10d64:	86ef3073 	uxtbhi	r3, r3
   10d68:	e3510000 	cmp	r1, #0
   10d6c:	e5e53001 	strb	r3, [r5, #1]!
   10d70:	e28a0001 	add	r0, sl, #1
   10d74:	1afffff0 	bne	10d3c <itoa+0x4c>
   10d78:	e3590000 	cmp	r9, #0
   10d7c:	13a0202d 	movne	r2, #45	; 0x2d
   10d80:	e0873000 	add	r3, r7, r0
   10d84:	128a0002 	addne	r0, sl, #2
   10d88:	15c32000 	strbne	r2, [r3]
   10d8c:	10873000 	addne	r3, r7, r0
   10d90:	e3560010 	cmp	r6, #16
   10d94:	03a0c078 	moveq	ip, #120	; 0x78
   10d98:	0a000004 	beq	10db0 <itoa+0xc0>
   10d9c:	e3560008 	cmp	r6, #8
   10da0:	0a00001e 	beq	10e20 <itoa+0x130>
   10da4:	e3560002 	cmp	r6, #2
   10da8:	1a000006 	bne	10dc8 <itoa+0xd8>
   10dac:	e3a0c062 	mov	ip, #98	; 0x62
   10db0:	e3a02030 	mov	r2, #48	; 0x30
   10db4:	e5c3c000 	strb	ip, [r3]
   10db8:	e2803001 	add	r3, r0, #1
   10dbc:	e2800002 	add	r0, r0, #2
   10dc0:	e7c72003 	strb	r2, [r7, r3]
   10dc4:	e0873000 	add	r3, r7, r0
   10dc8:	e3a02000 	mov	r2, #0
   10dcc:	e3500001 	cmp	r0, #1
   10dd0:	e5c32000 	strb	r2, [r3]
   10dd4:	0a000008 	beq	10dfc <itoa+0x10c>
   10dd8:	e2811001 	add	r1, r1, #1
   10ddc:	e1e02001 	mvn	r2, r1
   10de0:	e5f4c001 	ldrb	ip, [r4, #1]!
   10de4:	e573e001 	ldrb	lr, [r3, #-1]!
   10de8:	e0822000 	add	r2, r2, r0
   10dec:	e1510002 	cmp	r1, r2
   10df0:	e5c4e000 	strb	lr, [r4]
   10df4:	e5c3c000 	strb	ip, [r3]
   10df8:	3afffff6 	bcc	10dd8 <itoa+0xe8>
   10dfc:	e1a00007 	mov	r0, r7
   10e00:	e28dd008 	add	sp, sp, #8
   10e04:	e8bd87f0 	pop	{r4, r5, r6, r7, r8, r9, sl, pc}
   10e08:	e3a03030 	mov	r3, #48	; 0x30
   10e0c:	e5c10001 	strb	r0, [r1, #1]
   10e10:	e1a00007 	mov	r0, r7
   10e14:	e5c13000 	strb	r3, [r1]
   10e18:	e28dd008 	add	sp, sp, #8
   10e1c:	e8bd87f0 	pop	{r4, r5, r6, r7, r8, r9, sl, pc}
   10e20:	e3a02030 	mov	r2, #48	; 0x30
   10e24:	e2800001 	add	r0, r0, #1
   10e28:	e5c32000 	strb	r2, [r3]
   10e2c:	e0873000 	add	r3, r7, r0
   10e30:	eaffffe4 	b	10dc8 <itoa+0xd8>

00010e34 <nanosleep>:
   10e34:	e92d4070 	push	{r4, r5, r6, lr}
   10e38:	e2505000 	subs	r5, r0, #0
   10e3c:	da000005 	ble	10e58 <nanosleep+0x24>
   10e40:	e3a04000 	mov	r4, #0
   10e44:	e1a00004 	mov	r0, r4
   10e48:	e2844001 	add	r4, r4, #1
   10e4c:	ebffdc8e 	bl	808c <dummy>
   10e50:	e1550004 	cmp	r5, r4
   10e54:	1afffffa 	bne	10e44 <nanosleep+0x10>
   10e58:	e3a00001 	mov	r0, #1
   10e5c:	e8bd8070 	pop	{r4, r5, r6, pc}

00010e60 <Delays>:
   10e60:	e0603280 	rsb	r3, r0, r0, lsl #5
   10e64:	e0633303 	rsb	r3, r3, r3, lsl #6
   10e68:	e0800183 	add	r0, r0, r3, lsl #3
   10e6c:	e0800100 	add	r0, r0, r0, lsl #2
   10e70:	e1a00300 	lsl	r0, r0, #6
   10e74:	eaffffee 	b	10e34 <nanosleep>

00010e78 <Delayms>:
   10e78:	e0603280 	rsb	r3, r0, r0, lsl #5
   10e7c:	e0800103 	add	r0, r0, r3, lsl #2
   10e80:	e0800100 	add	r0, r0, r0, lsl #2
   10e84:	e1a00180 	lsl	r0, r0, #3
   10e88:	eaffffe9 	b	10e34 <nanosleep>

00010e8c <Delayus>:
   10e8c:	e0800100 	add	r0, r0, r0, lsl #2
   10e90:	eaffffe7 	b	10e34 <nanosleep>

00010e94 <Delayns>:
   10e94:	eaffffe6 	b	10e34 <nanosleep>

00010e98 <bcm2835_regbase>:
   10e98:	e59f30d0 	ldr	r3, [pc, #208]	; 10f70 <bcm2835_regbase+0xd8>
   10e9c:	e2400001 	sub	r0, r0, #1
   10ea0:	e08f3003 	add	r3, pc, r3
   10ea4:	e3500009 	cmp	r0, #9
   10ea8:	908ff100 	addls	pc, pc, r0, lsl #2
   10eac:	ea00002d 	b	10f68 <bcm2835_regbase+0xd0>
   10eb0:	ea000008 	b	10ed8 <bcm2835_regbase+0x40>
   10eb4:	ea00000b 	b	10ee8 <bcm2835_regbase+0x50>
   10eb8:	ea00000e 	b	10ef8 <bcm2835_regbase+0x60>
   10ebc:	ea000011 	b	10f08 <bcm2835_regbase+0x70>
   10ec0:	ea000014 	b	10f18 <bcm2835_regbase+0x80>
   10ec4:	ea000017 	b	10f28 <bcm2835_regbase+0x90>
   10ec8:	ea00001a 	b	10f38 <bcm2835_regbase+0xa0>
   10ecc:	ea000001 	b	10ed8 <bcm2835_regbase+0x40>
   10ed0:	ea000020 	b	10f58 <bcm2835_regbase+0xc0>
   10ed4:	ea00001b 	b	10f48 <bcm2835_regbase+0xb0>
   10ed8:	e59f2094 	ldr	r2, [pc, #148]	; 10f74 <bcm2835_regbase+0xdc>
   10edc:	e7933002 	ldr	r3, [r3, r2]
   10ee0:	e5930000 	ldr	r0, [r3]
   10ee4:	e12fff1e 	bx	lr
   10ee8:	e59f2088 	ldr	r2, [pc, #136]	; 10f78 <bcm2835_regbase+0xe0>
   10eec:	e7933002 	ldr	r3, [r3, r2]
   10ef0:	e5930000 	ldr	r0, [r3]
   10ef4:	e12fff1e 	bx	lr
   10ef8:	e59f207c 	ldr	r2, [pc, #124]	; 10f7c <bcm2835_regbase+0xe4>
   10efc:	e7933002 	ldr	r3, [r3, r2]
   10f00:	e5930000 	ldr	r0, [r3]
   10f04:	e12fff1e 	bx	lr
   10f08:	e59f2070 	ldr	r2, [pc, #112]	; 10f80 <bcm2835_regbase+0xe8>
   10f0c:	e7933002 	ldr	r3, [r3, r2]
   10f10:	e5930000 	ldr	r0, [r3]
   10f14:	e12fff1e 	bx	lr
   10f18:	e59f2064 	ldr	r2, [pc, #100]	; 10f84 <bcm2835_regbase+0xec>
   10f1c:	e7933002 	ldr	r3, [r3, r2]
   10f20:	e5930000 	ldr	r0, [r3]
   10f24:	e12fff1e 	bx	lr
   10f28:	e59f2058 	ldr	r2, [pc, #88]	; 10f88 <bcm2835_regbase+0xf0>
   10f2c:	e7933002 	ldr	r3, [r3, r2]
   10f30:	e5930000 	ldr	r0, [r3]
   10f34:	e12fff1e 	bx	lr
   10f38:	e59f204c 	ldr	r2, [pc, #76]	; 10f8c <bcm2835_regbase+0xf4>
   10f3c:	e7933002 	ldr	r3, [r3, r2]
   10f40:	e5930000 	ldr	r0, [r3]
   10f44:	e12fff1e 	bx	lr
   10f48:	e59f2040 	ldr	r2, [pc, #64]	; 10f90 <bcm2835_regbase+0xf8>
   10f4c:	e7933002 	ldr	r3, [r3, r2]
   10f50:	e5930000 	ldr	r0, [r3]
   10f54:	e12fff1e 	bx	lr
   10f58:	e59f2034 	ldr	r2, [pc, #52]	; 10f94 <bcm2835_regbase+0xfc>
   10f5c:	e7933002 	ldr	r3, [r3, r2]
   10f60:	e5930000 	ldr	r0, [r3]
   10f64:	e12fff1e 	bx	lr
   10f68:	e3a00000 	mov	r0, #0
   10f6c:	e12fff1e 	bx	lr
   10f70:	0000dfd8 	ldrdeq	sp, [r0], -r8
   10f74:	00000214 	andeq	r0, r0, r4, lsl r2
   10f78:	00000148 	andeq	r0, r0, r8, asr #2
   10f7c:	00000184 	andeq	r0, r0, r4, lsl #3
   10f80:	00000074 	andeq	r0, r0, r4, ror r0
   10f84:	00000160 	andeq	r0, r0, r0, ror #2
   10f88:	0000023c 	andeq	r0, r0, ip, lsr r2
   10f8c:	0000015c 	andeq	r0, r0, ip, asr r1
   10f90:	000000cc 	andeq	r0, r0, ip, asr #1
   10f94:	00000140 	andeq	r0, r0, r0, asr #2

00010f98 <bcm2835_peri_write>:
   10f98:	ee070fba 	mcr	15, 0, r0, cr7, cr10, {5}
   10f9c:	e5801000 	str	r1, [r0]
   10fa0:	ee070fba 	mcr	15, 0, r0, cr7, cr10, {5}
   10fa4:	e12fff1e 	bx	lr

00010fa8 <bcm2835_gpio_set_eds>:
   10fa8:	e52de004 	push	{lr}		; (str lr, [sp, #-4]!)
   10fac:	e3a0e001 	mov	lr, #1
   10fb0:	e59f3028 	ldr	r3, [pc, #40]	; 10fe0 <bcm2835_gpio_set_eds+0x38>
   10fb4:	e59fc028 	ldr	ip, [pc, #40]	; 10fe4 <bcm2835_gpio_set_eds+0x3c>
   10fb8:	e08f3003 	add	r3, pc, r3
   10fbc:	e793100c 	ldr	r1, [r3, ip]
   10fc0:	e1a022a0 	lsr	r2, r0, #5
   10fc4:	e591c000 	ldr	ip, [r1]
   10fc8:	e2822010 	add	r2, r2, #16
   10fcc:	e200101f 	and	r1, r0, #31
   10fd0:	e1a0111e 	lsl	r1, lr, r1
   10fd4:	e08c0102 	add	r0, ip, r2, lsl #2
   10fd8:	e49de004 	pop	{lr}		; (ldr lr, [sp], #4)
   10fdc:	eaffffed 	b	10f98 <bcm2835_peri_write>
   10fe0:	0000dec0 	andeq	sp, r0, r0, asr #29
   10fe4:	00000148 	andeq	r0, r0, r8, asr #2

00010fe8 <bcm2835_gpio_set>:
   10fe8:	e52de004 	push	{lr}		; (str lr, [sp, #-4]!)
   10fec:	e3a0e001 	mov	lr, #1
   10ff0:	e59f3028 	ldr	r3, [pc, #40]	; 11020 <bcm2835_gpio_set+0x38>
   10ff4:	e59fc028 	ldr	ip, [pc, #40]	; 11024 <bcm2835_gpio_set+0x3c>
   10ff8:	e08f3003 	add	r3, pc, r3
   10ffc:	e793100c 	ldr	r1, [r3, ip]
   11000:	e1a022a0 	lsr	r2, r0, #5
   11004:	e591c000 	ldr	ip, [r1]
   11008:	e2822007 	add	r2, r2, #7
   1100c:	e200101f 	and	r1, r0, #31
   11010:	e1a0111e 	lsl	r1, lr, r1
   11014:	e08c0102 	add	r0, ip, r2, lsl #2
   11018:	e49de004 	pop	{lr}		; (ldr lr, [sp], #4)
   1101c:	eaffffdd 	b	10f98 <bcm2835_peri_write>
   11020:	0000de80 	andeq	sp, r0, r0, lsl #29
   11024:	00000148 	andeq	r0, r0, r8, asr #2

00011028 <bcm2835_gpio_clr>:
   11028:	e52de004 	push	{lr}		; (str lr, [sp, #-4]!)
   1102c:	e3a0e001 	mov	lr, #1
   11030:	e59f3028 	ldr	r3, [pc, #40]	; 11060 <bcm2835_gpio_clr+0x38>
   11034:	e59fc028 	ldr	ip, [pc, #40]	; 11064 <bcm2835_gpio_clr+0x3c>
   11038:	e08f3003 	add	r3, pc, r3
   1103c:	e793100c 	ldr	r1, [r3, ip]
   11040:	e1a022a0 	lsr	r2, r0, #5
   11044:	e591c000 	ldr	ip, [r1]
   11048:	e282200a 	add	r2, r2, #10
   1104c:	e200101f 	and	r1, r0, #31
   11050:	e1a0111e 	lsl	r1, lr, r1
   11054:	e08c0102 	add	r0, ip, r2, lsl #2
   11058:	e49de004 	pop	{lr}		; (ldr lr, [sp], #4)
   1105c:	eaffffcd 	b	10f98 <bcm2835_peri_write>
   11060:	0000de40 	andeq	sp, r0, r0, asr #28
   11064:	00000148 	andeq	r0, r0, r8, asr #2

00011068 <bcm2835_gpio_write>:
   11068:	e3510000 	cmp	r1, #0
   1106c:	1a000000 	bne	11074 <bcm2835_gpio_write+0xc>
   11070:	eaffffec 	b	11028 <bcm2835_gpio_clr>
   11074:	eaffffdb 	b	10fe8 <bcm2835_gpio_set>

00011078 <bcm2835_peri_write_nb>:
   11078:	e5801000 	str	r1, [r0]
   1107c:	e12fff1e 	bx	lr

00011080 <bcm2835_peri_read>:
   11080:	ee070fba 	mcr	15, 0, r0, cr7, cr10, {5}
   11084:	e5900000 	ldr	r0, [r0]
   11088:	ee070fba 	mcr	15, 0, r0, cr7, cr10, {5}
   1108c:	e12fff1e 	bx	lr

00011090 <bcm2835_gpio_lev>:
   11090:	e92d4010 	push	{r4, lr}
   11094:	e59f3038 	ldr	r3, [pc, #56]	; 110d4 <bcm2835_gpio_lev+0x44>
   11098:	e59f1038 	ldr	r1, [pc, #56]	; 110d8 <bcm2835_gpio_lev+0x48>
   1109c:	e08f3003 	add	r3, pc, r3
   110a0:	e7931001 	ldr	r1, [r3, r1]
   110a4:	e1a04000 	mov	r4, r0
   110a8:	e1a022a0 	lsr	r2, r0, #5
   110ac:	e5910000 	ldr	r0, [r1]
   110b0:	e282200d 	add	r2, r2, #13
   110b4:	e0800102 	add	r0, r0, r2, lsl #2
   110b8:	ebfffff0 	bl	11080 <bcm2835_peri_read>
   110bc:	e3a03001 	mov	r3, #1
   110c0:	e204401f 	and	r4, r4, #31
   110c4:	e0103413 	ands	r3, r0, r3, lsl r4
   110c8:	13a00001 	movne	r0, #1
   110cc:	03a00000 	moveq	r0, #0
   110d0:	e8bd8010 	pop	{r4, pc}
   110d4:	0000dddc 	ldrdeq	sp, [r0], -ip
   110d8:	00000148 	andeq	r0, r0, r8, asr #2

000110dc <bcm2835_gpio_eds>:
   110dc:	e92d4010 	push	{r4, lr}
   110e0:	e59f3038 	ldr	r3, [pc, #56]	; 11120 <bcm2835_gpio_eds+0x44>
   110e4:	e59f1038 	ldr	r1, [pc, #56]	; 11124 <bcm2835_gpio_eds+0x48>
   110e8:	e08f3003 	add	r3, pc, r3
   110ec:	e7931001 	ldr	r1, [r3, r1]
   110f0:	e1a04000 	mov	r4, r0
   110f4:	e1a022a0 	lsr	r2, r0, #5
   110f8:	e5910000 	ldr	r0, [r1]
   110fc:	e2822010 	add	r2, r2, #16
   11100:	e0800102 	add	r0, r0, r2, lsl #2
   11104:	ebffffdd 	bl	11080 <bcm2835_peri_read>
   11108:	e3a03001 	mov	r3, #1
   1110c:	e204401f 	and	r4, r4, #31
   11110:	e0103413 	ands	r3, r0, r3, lsl r4
   11114:	13a00001 	movne	r0, #1
   11118:	03a00000 	moveq	r0, #0
   1111c:	e8bd8010 	pop	{r4, pc}
   11120:	0000dd90 	muleq	r0, r0, sp
   11124:	00000148 	andeq	r0, r0, r8, asr #2

00011128 <bcm2835_peri_read_nb>:
   11128:	e5900000 	ldr	r0, [r0]
   1112c:	e12fff1e 	bx	lr

00011130 <bcm2835_peri_set_bits>:
   11130:	e92d4070 	push	{r4, r5, r6, lr}
   11134:	e1a04001 	mov	r4, r1
   11138:	e1a06002 	mov	r6, r2
   1113c:	e1a05000 	mov	r5, r0
   11140:	ebffffce 	bl	11080 <bcm2835_peri_read>
   11144:	e0244000 	eor	r4, r4, r0
   11148:	e0041006 	and	r1, r4, r6
   1114c:	e0211000 	eor	r1, r1, r0
   11150:	e1a00005 	mov	r0, r5
   11154:	e8bd4070 	pop	{r4, r5, r6, lr}
   11158:	eaffff8e 	b	10f98 <bcm2835_peri_write>

0001115c <bcm2835_gpio_len>:
   1115c:	e3a02001 	mov	r2, #1
   11160:	e59f3028 	ldr	r3, [pc, #40]	; 11190 <bcm2835_gpio_len+0x34>
   11164:	e59f1028 	ldr	r1, [pc, #40]	; 11194 <bcm2835_gpio_len+0x38>
   11168:	e08f3003 	add	r3, pc, r3
   1116c:	e7931001 	ldr	r1, [r3, r1]
   11170:	e200c01f 	and	ip, r0, #31
   11174:	e5911000 	ldr	r1, [r1]
   11178:	e1a002a0 	lsr	r0, r0, #5
   1117c:	e280001c 	add	r0, r0, #28
   11180:	e1a02c12 	lsl	r2, r2, ip
   11184:	e0810100 	add	r0, r1, r0, lsl #2
   11188:	e1a01002 	mov	r1, r2
   1118c:	eaffffe7 	b	11130 <bcm2835_peri_set_bits>
   11190:	0000dd10 	andeq	sp, r0, r0, lsl sp
   11194:	00000148 	andeq	r0, r0, r8, asr #2

00011198 <bcm2835_gpio_clr_len>:
   11198:	e52de004 	push	{lr}		; (str lr, [sp, #-4]!)
   1119c:	e3a0e001 	mov	lr, #1
   111a0:	e59f302c 	ldr	r3, [pc, #44]	; 111d4 <bcm2835_gpio_clr_len+0x3c>
   111a4:	e59fc02c 	ldr	ip, [pc, #44]	; 111d8 <bcm2835_gpio_clr_len+0x40>
   111a8:	e08f3003 	add	r3, pc, r3
   111ac:	e793200c 	ldr	r2, [r3, ip]
   111b0:	e1a012a0 	lsr	r1, r0, #5
   111b4:	e592c000 	ldr	ip, [r2]
   111b8:	e281101c 	add	r1, r1, #28
   111bc:	e200201f 	and	r2, r0, #31
   111c0:	e1a0221e 	lsl	r2, lr, r2
   111c4:	e08c0101 	add	r0, ip, r1, lsl #2
   111c8:	e49de004 	pop	{lr}		; (ldr lr, [sp], #4)
   111cc:	e3a01000 	mov	r1, #0
   111d0:	eaffffd6 	b	11130 <bcm2835_peri_set_bits>
   111d4:	0000dcd0 	ldrdeq	sp, [r0], -r0
   111d8:	00000148 	andeq	r0, r0, r8, asr #2

000111dc <bcm2835_gpio_afen>:
   111dc:	e3a02001 	mov	r2, #1
   111e0:	e59f3028 	ldr	r3, [pc, #40]	; 11210 <bcm2835_gpio_afen+0x34>
   111e4:	e59f1028 	ldr	r1, [pc, #40]	; 11214 <bcm2835_gpio_afen+0x38>
   111e8:	e08f3003 	add	r3, pc, r3
   111ec:	e7931001 	ldr	r1, [r3, r1]
   111f0:	e200c01f 	and	ip, r0, #31
   111f4:	e5911000 	ldr	r1, [r1]
   111f8:	e1a002a0 	lsr	r0, r0, #5
   111fc:	e2800022 	add	r0, r0, #34	; 0x22
   11200:	e1a02c12 	lsl	r2, r2, ip
   11204:	e0810100 	add	r0, r1, r0, lsl #2
   11208:	e1a01002 	mov	r1, r2
   1120c:	eaffffc7 	b	11130 <bcm2835_peri_set_bits>
   11210:	0000dc90 	muleq	r0, r0, ip
   11214:	00000148 	andeq	r0, r0, r8, asr #2

00011218 <bcm2835_gpio_clr_afen>:
   11218:	e52de004 	push	{lr}		; (str lr, [sp, #-4]!)
   1121c:	e3a0e001 	mov	lr, #1
   11220:	e59f302c 	ldr	r3, [pc, #44]	; 11254 <bcm2835_gpio_clr_afen+0x3c>
   11224:	e59fc02c 	ldr	ip, [pc, #44]	; 11258 <bcm2835_gpio_clr_afen+0x40>
   11228:	e08f3003 	add	r3, pc, r3
   1122c:	e793200c 	ldr	r2, [r3, ip]
   11230:	e1a012a0 	lsr	r1, r0, #5
   11234:	e592c000 	ldr	ip, [r2]
   11238:	e2811022 	add	r1, r1, #34	; 0x22
   1123c:	e200201f 	and	r2, r0, #31
   11240:	e1a0221e 	lsl	r2, lr, r2
   11244:	e08c0101 	add	r0, ip, r1, lsl #2
   11248:	e49de004 	pop	{lr}		; (ldr lr, [sp], #4)
   1124c:	e3a01000 	mov	r1, #0
   11250:	eaffffb6 	b	11130 <bcm2835_peri_set_bits>
   11254:	0000dc50 	andeq	sp, r0, r0, asr ip
   11258:	00000148 	andeq	r0, r0, r8, asr #2

0001125c <bcm2835_gpio_fen>:
   1125c:	e3a02001 	mov	r2, #1
   11260:	e59f3028 	ldr	r3, [pc, #40]	; 11290 <bcm2835_gpio_fen+0x34>
   11264:	e59f1028 	ldr	r1, [pc, #40]	; 11294 <bcm2835_gpio_fen+0x38>
   11268:	e08f3003 	add	r3, pc, r3
   1126c:	e7931001 	ldr	r1, [r3, r1]
   11270:	e200c01f 	and	ip, r0, #31
   11274:	e5911000 	ldr	r1, [r1]
   11278:	e1a002a0 	lsr	r0, r0, #5
   1127c:	e2800016 	add	r0, r0, #22
   11280:	e1a02c12 	lsl	r2, r2, ip
   11284:	e0810100 	add	r0, r1, r0, lsl #2
   11288:	e1a01002 	mov	r1, r2
   1128c:	eaffffa7 	b	11130 <bcm2835_peri_set_bits>
   11290:	0000dc10 	andeq	sp, r0, r0, lsl ip
   11294:	00000148 	andeq	r0, r0, r8, asr #2

00011298 <bcm2835_gpio_clr_fen>:
   11298:	e52de004 	push	{lr}		; (str lr, [sp, #-4]!)
   1129c:	e3a0e001 	mov	lr, #1
   112a0:	e59f302c 	ldr	r3, [pc, #44]	; 112d4 <bcm2835_gpio_clr_fen+0x3c>
   112a4:	e59fc02c 	ldr	ip, [pc, #44]	; 112d8 <bcm2835_gpio_clr_fen+0x40>
   112a8:	e08f3003 	add	r3, pc, r3
   112ac:	e793200c 	ldr	r2, [r3, ip]
   112b0:	e1a012a0 	lsr	r1, r0, #5
   112b4:	e592c000 	ldr	ip, [r2]
   112b8:	e2811016 	add	r1, r1, #22
   112bc:	e200201f 	and	r2, r0, #31
   112c0:	e1a0221e 	lsl	r2, lr, r2
   112c4:	e08c0101 	add	r0, ip, r1, lsl #2
   112c8:	e49de004 	pop	{lr}		; (ldr lr, [sp], #4)
   112cc:	e3a01000 	mov	r1, #0
   112d0:	eaffff96 	b	11130 <bcm2835_peri_set_bits>
   112d4:	0000dbd0 	ldrdeq	sp, [r0], -r0
   112d8:	00000148 	andeq	r0, r0, r8, asr #2

000112dc <bcm2835_gpio_fsel>:
   112dc:	e3a02007 	mov	r2, #7
   112e0:	e92d4030 	push	{r4, r5, lr}
   112e4:	e59f4040 	ldr	r4, [pc, #64]	; 1132c <bcm2835_gpio_fsel+0x50>
   112e8:	e59fe040 	ldr	lr, [pc, #64]	; 11330 <bcm2835_gpio_fsel+0x54>
   112ec:	e0854490 	umull	r4, r5, r0, r4
   112f0:	e59f403c 	ldr	r4, [pc, #60]	; 11334 <bcm2835_gpio_fsel+0x58>
   112f4:	e1a0c1a5 	lsr	ip, r5, #3
   112f8:	e08fe00e 	add	lr, pc, lr
   112fc:	e08c310c 	add	r3, ip, ip, lsl #2
   11300:	e79ee004 	ldr	lr, [lr, r4]
   11304:	e0403083 	sub	r3, r0, r3, lsl #1
   11308:	e0833083 	add	r3, r3, r3, lsl #1
   1130c:	e59e0000 	ldr	r0, [lr]
   11310:	e6ef3073 	uxtb	r3, r3
   11314:	e6efc07c 	uxtb	ip, ip
   11318:	e1a01311 	lsl	r1, r1, r3
   1131c:	e1a02312 	lsl	r2, r2, r3
   11320:	e080010c 	add	r0, r0, ip, lsl #2
   11324:	e8bd4030 	pop	{r4, r5, lr}
   11328:	eaffff80 	b	11130 <bcm2835_peri_set_bits>
   1132c:	cccccccd 	stclgt	12, cr12, [ip], {205}	; 0xcd
   11330:	0000db80 	andeq	sp, r0, r0, lsl #23
   11334:	00000148 	andeq	r0, r0, r8, asr #2

00011338 <bcm2835_spi_begin>:
   11338:	e92d4010 	push	{r4, lr}
   1133c:	e59f3074 	ldr	r3, [pc, #116]	; 113b8 <bcm2835_spi_begin+0x80>
   11340:	e59f2074 	ldr	r2, [pc, #116]	; 113bc <bcm2835_spi_begin+0x84>
   11344:	e08f3003 	add	r3, pc, r3
   11348:	e7934002 	ldr	r4, [r3, r2]
   1134c:	e5940000 	ldr	r0, [r4]
   11350:	e3500000 	cmp	r0, #0
   11354:	08bd8010 	popeq	{r4, pc}
   11358:	e3a01004 	mov	r1, #4
   1135c:	e3a00007 	mov	r0, #7
   11360:	ebffffdd 	bl	112dc <bcm2835_gpio_fsel>
   11364:	e3a01004 	mov	r1, #4
   11368:	e3a00008 	mov	r0, #8
   1136c:	ebffffda 	bl	112dc <bcm2835_gpio_fsel>
   11370:	e3a01004 	mov	r1, #4
   11374:	e3a00009 	mov	r0, #9
   11378:	ebffffd7 	bl	112dc <bcm2835_gpio_fsel>
   1137c:	e3a01004 	mov	r1, #4
   11380:	e3a0000a 	mov	r0, #10
   11384:	ebffffd4 	bl	112dc <bcm2835_gpio_fsel>
   11388:	e3a01004 	mov	r1, #4
   1138c:	e3a0000b 	mov	r0, #11
   11390:	ebffffd1 	bl	112dc <bcm2835_gpio_fsel>
   11394:	e5944000 	ldr	r4, [r4]
   11398:	e3a01000 	mov	r1, #0
   1139c:	e1a00004 	mov	r0, r4
   113a0:	ebfffefc 	bl	10f98 <bcm2835_peri_write>
   113a4:	e1a00004 	mov	r0, r4
   113a8:	e3a01030 	mov	r1, #48	; 0x30
   113ac:	ebffff31 	bl	11078 <bcm2835_peri_write_nb>
   113b0:	e3a00001 	mov	r0, #1
   113b4:	e8bd8010 	pop	{r4, pc}
   113b8:	0000db34 	andeq	sp, r0, r4, lsr fp
   113bc:	0000023c 	andeq	r0, r0, ip, lsr r2

000113c0 <bcm2835_spi_end>:
   113c0:	e92d4010 	push	{r4, lr}
   113c4:	e3a01000 	mov	r1, #0
   113c8:	e3a00007 	mov	r0, #7
   113cc:	ebffffc2 	bl	112dc <bcm2835_gpio_fsel>
   113d0:	e3a01000 	mov	r1, #0
   113d4:	e3a00008 	mov	r0, #8
   113d8:	ebffffbf 	bl	112dc <bcm2835_gpio_fsel>
   113dc:	e3a01000 	mov	r1, #0
   113e0:	e3a00009 	mov	r0, #9
   113e4:	ebffffbc 	bl	112dc <bcm2835_gpio_fsel>
   113e8:	e3a01000 	mov	r1, #0
   113ec:	e3a0000a 	mov	r0, #10
   113f0:	ebffffb9 	bl	112dc <bcm2835_gpio_fsel>
   113f4:	e8bd4010 	pop	{r4, lr}
   113f8:	e3a01000 	mov	r1, #0
   113fc:	e3a0000b 	mov	r0, #11
   11400:	eaffffb5 	b	112dc <bcm2835_gpio_fsel>

00011404 <bcm2835_spi_setBitOrder>:
   11404:	e59f3008 	ldr	r3, [pc, #8]	; 11414 <bcm2835_spi_setBitOrder+0x10>
   11408:	e08f3003 	add	r3, pc, r3
   1140c:	e5c30000 	strb	r0, [r3]
   11410:	e12fff1e 	bx	lr
   11414:	0000bc5c 	andeq	fp, r0, ip, asr ip

00011418 <bcm2835_spi_setClockDivider>:
   11418:	e59f3018 	ldr	r3, [pc, #24]	; 11438 <bcm2835_spi_setClockDivider+0x20>
   1141c:	e59f2018 	ldr	r2, [pc, #24]	; 1143c <bcm2835_spi_setClockDivider+0x24>
   11420:	e08f3003 	add	r3, pc, r3
   11424:	e7933002 	ldr	r3, [r3, r2]
   11428:	e1a01000 	mov	r1, r0
   1142c:	e5930000 	ldr	r0, [r3]
   11430:	e2800008 	add	r0, r0, #8
   11434:	eafffed7 	b	10f98 <bcm2835_peri_write>
   11438:	0000da58 	andeq	sp, r0, r8, asr sl
   1143c:	0000023c 	andeq	r0, r0, ip, lsr r2

00011440 <bcm2835_spi_set_speed_hz>:
   11440:	e92d4010 	push	{r4, lr}
   11444:	e1a01000 	mov	r1, r0
   11448:	e59f0014 	ldr	r0, [pc, #20]	; 11464 <bcm2835_spi_set_speed_hz+0x24>
   1144c:	ebfffd3c 	bl	10944 <__aeabi_uidiv>
   11450:	e8bd4010 	pop	{r4, lr}
   11454:	e3c00001 	bic	r0, r0, #1
   11458:	e1a00800 	lsl	r0, r0, #16
   1145c:	e1a00820 	lsr	r0, r0, #16
   11460:	eaffffec 	b	11418 <bcm2835_spi_setClockDivider>
   11464:	0ee6b280 	cdpeq	2, 14, cr11, cr6, cr0, {4}

00011468 <bcm2835_spi_setDataMode>:
   11468:	e59f3018 	ldr	r3, [pc, #24]	; 11488 <bcm2835_spi_setDataMode+0x20>
   1146c:	e59f2018 	ldr	r2, [pc, #24]	; 1148c <bcm2835_spi_setDataMode+0x24>
   11470:	e08f3003 	add	r3, pc, r3
   11474:	e1a01100 	lsl	r1, r0, #2
   11478:	e7930002 	ldr	r0, [r3, r2]
   1147c:	e3a0200c 	mov	r2, #12
   11480:	e5900000 	ldr	r0, [r0]
   11484:	eaffff29 	b	11130 <bcm2835_peri_set_bits>
   11488:	0000da08 	andeq	sp, r0, r8, lsl #20
   1148c:	0000023c 	andeq	r0, r0, ip, lsr r2

00011490 <bcm2835_spi_transfer>:
   11490:	e3a02030 	mov	r2, #48	; 0x30
   11494:	e92d4070 	push	{r4, r5, r6, lr}
   11498:	e59f30bc 	ldr	r3, [pc, #188]	; 1155c <bcm2835_spi_transfer+0xcc>
   1149c:	e59f10bc 	ldr	r1, [pc, #188]	; 11560 <bcm2835_spi_transfer+0xd0>
   114a0:	e08f3003 	add	r3, pc, r3
   114a4:	e7933001 	ldr	r3, [r3, r1]
   114a8:	e1a06000 	mov	r6, r0
   114ac:	e5934000 	ldr	r4, [r3]
   114b0:	e1a01002 	mov	r1, r2
   114b4:	e1a00004 	mov	r0, r4
   114b8:	ebffff1c 	bl	11130 <bcm2835_peri_set_bits>
   114bc:	e3a02080 	mov	r2, #128	; 0x80
   114c0:	e1a00004 	mov	r0, r4
   114c4:	e1a01002 	mov	r1, r2
   114c8:	e2845004 	add	r5, r4, #4
   114cc:	ebffff17 	bl	11130 <bcm2835_peri_set_bits>
   114d0:	e1a00004 	mov	r0, r4
   114d4:	ebfffee9 	bl	11080 <bcm2835_peri_read>
   114d8:	e3100701 	tst	r0, #262144	; 0x40000
   114dc:	0afffffb 	beq	114d0 <bcm2835_spi_transfer+0x40>
   114e0:	e59f307c 	ldr	r3, [pc, #124]	; 11564 <bcm2835_spi_transfer+0xd4>
   114e4:	e08f3003 	add	r3, pc, r3
   114e8:	e5d33000 	ldrb	r3, [r3]
   114ec:	e3530000 	cmp	r3, #0
   114f0:	059f3070 	ldreq	r3, [pc, #112]	; 11568 <bcm2835_spi_transfer+0xd8>
   114f4:	008f3003 	addeq	r3, pc, r3
   114f8:	07d36006 	ldrbeq	r6, [r3, r6]
   114fc:	e1a01006 	mov	r1, r6
   11500:	e1a00005 	mov	r0, r5
   11504:	ebfffedb 	bl	11078 <bcm2835_peri_write_nb>
   11508:	e1a00004 	mov	r0, r4
   1150c:	ebffff05 	bl	11128 <bcm2835_peri_read_nb>
   11510:	e3100801 	tst	r0, #65536	; 0x10000
   11514:	0afffffb 	beq	11508 <bcm2835_spi_transfer+0x78>
   11518:	e1a00005 	mov	r0, r5
   1151c:	ebffff01 	bl	11128 <bcm2835_peri_read_nb>
   11520:	e59f3044 	ldr	r3, [pc, #68]	; 1156c <bcm2835_spi_transfer+0xdc>
   11524:	e08f3003 	add	r3, pc, r3
   11528:	e5d33000 	ldrb	r3, [r3]
   1152c:	e3530000 	cmp	r3, #0
   11530:	16ef5070 	uxtbne	r5, r0
   11534:	059f3034 	ldreq	r3, [pc, #52]	; 11570 <bcm2835_spi_transfer+0xe0>
   11538:	06ef0070 	uxtbeq	r0, r0
   1153c:	008f3003 	addeq	r3, pc, r3
   11540:	07d35000 	ldrbeq	r5, [r3, r0]
   11544:	e1a00004 	mov	r0, r4
   11548:	e3a02080 	mov	r2, #128	; 0x80
   1154c:	e3a01000 	mov	r1, #0
   11550:	ebfffef6 	bl	11130 <bcm2835_peri_set_bits>
   11554:	e1a00005 	mov	r0, r5
   11558:	e8bd8070 	pop	{r4, r5, r6, pc}
   1155c:	0000d9d8 	ldrdeq	sp, [r0], -r8
   11560:	0000023c 	andeq	r0, r0, ip, lsr r2
   11564:	0000bb80 	andeq	fp, r0, r0, lsl #23
   11568:	00009c80 	andeq	r9, r0, r0, lsl #25
   1156c:	0000bb40 	andeq	fp, r0, r0, asr #22
   11570:	00009c38 	andeq	r9, r0, r8, lsr ip

00011574 <bcm2835_spi_transfernb>:
   11574:	e92d4ff0 	push	{r4, r5, r6, r7, r8, r9, sl, fp, lr}
   11578:	e1a06002 	mov	r6, r2
   1157c:	e3a02030 	mov	r2, #48	; 0x30
   11580:	e3a04000 	mov	r4, #0
   11584:	e59f3144 	ldr	r3, [pc, #324]	; 116d0 <bcm2835_spi_transfernb+0x15c>
   11588:	e24dd014 	sub	sp, sp, #20
   1158c:	e59fc140 	ldr	ip, [pc, #320]	; 116d4 <bcm2835_spi_transfernb+0x160>
   11590:	e58d0008 	str	r0, [sp, #8]
   11594:	e08f3003 	add	r3, pc, r3
   11598:	e793300c 	ldr	r3, [r3, ip]
   1159c:	e58d100c 	str	r1, [sp, #12]
   115a0:	e5937000 	ldr	r7, [r3]
   115a4:	e1a01002 	mov	r1, r2
   115a8:	e1a00007 	mov	r0, r7
   115ac:	ebfffedf 	bl	11130 <bcm2835_peri_set_bits>
   115b0:	e3a02080 	mov	r2, #128	; 0x80
   115b4:	e1a05004 	mov	r5, r4
   115b8:	e1a00007 	mov	r0, r7
   115bc:	e1a01002 	mov	r1, r2
   115c0:	ebfffeda 	bl	11130 <bcm2835_peri_set_bits>
   115c4:	e1540006 	cmp	r4, r6
   115c8:	21550006 	cmpcs	r5, r6
   115cc:	e59f3104 	ldr	r3, [pc, #260]	; 116d8 <bcm2835_spi_transfernb+0x164>
   115d0:	e59fb104 	ldr	fp, [pc, #260]	; 116dc <bcm2835_spi_transfernb+0x168>
   115d4:	e08f3003 	add	r3, pc, r3
   115d8:	e58d3000 	str	r3, [sp]
   115dc:	e59f30fc 	ldr	r3, [pc, #252]	; 116e0 <bcm2835_spi_transfernb+0x16c>
   115e0:	e59fa0fc 	ldr	sl, [pc, #252]	; 116e4 <bcm2835_spi_transfernb+0x170>
   115e4:	e08f3003 	add	r3, pc, r3
   115e8:	e2879004 	add	r9, r7, #4
   115ec:	e08fb00b 	add	fp, pc, fp
   115f0:	e08fa00a 	add	sl, pc, sl
   115f4:	e58d3004 	str	r3, [sp, #4]
   115f8:	2a00002a 	bcs	116a8 <bcm2835_spi_transfernb+0x134>
   115fc:	e59d3008 	ldr	r3, [sp, #8]
   11600:	e2458001 	sub	r8, r5, #1
   11604:	e0838008 	add	r8, r3, r8
   11608:	ea000007 	b	1162c <bcm2835_spi_transfernb+0xb8>
   1160c:	e5db3000 	ldrb	r3, [fp]
   11610:	e5f81001 	ldrb	r1, [r8, #1]!
   11614:	e3530000 	cmp	r3, #0
   11618:	059d3000 	ldreq	r3, [sp]
   1161c:	e1a00009 	mov	r0, r9
   11620:	07d31001 	ldrbeq	r1, [r3, r1]
   11624:	ebfffe93 	bl	11078 <bcm2835_peri_write_nb>
   11628:	e2855001 	add	r5, r5, #1
   1162c:	e1a00007 	mov	r0, r7
   11630:	ebfffe92 	bl	11080 <bcm2835_peri_read>
   11634:	e1550006 	cmp	r5, r6
   11638:	23a03000 	movcs	r3, #0
   1163c:	33a03001 	movcc	r3, #1
   11640:	e0133920 	ands	r3, r3, r0, lsr #18
   11644:	1afffff0 	bne	1160c <bcm2835_spi_transfernb+0x98>
   11648:	e59d300c 	ldr	r3, [sp, #12]
   1164c:	e2448001 	sub	r8, r4, #1
   11650:	e0838008 	add	r8, r3, r8
   11654:	ea000009 	b	11680 <bcm2835_spi_transfernb+0x10c>
   11658:	e1a00009 	mov	r0, r9
   1165c:	ebfffeb1 	bl	11128 <bcm2835_peri_read_nb>
   11660:	e5da2000 	ldrb	r2, [sl]
   11664:	e6ef3070 	uxtb	r3, r0
   11668:	e3520000 	cmp	r2, #0
   1166c:	01a00003 	moveq	r0, r3
   11670:	059d3004 	ldreq	r3, [sp, #4]
   11674:	e2844001 	add	r4, r4, #1
   11678:	07d33000 	ldrbeq	r3, [r3, r0]
   1167c:	e5e83001 	strb	r3, [r8, #1]!
   11680:	e1a00007 	mov	r0, r7
   11684:	ebfffe7d 	bl	11080 <bcm2835_peri_read>
   11688:	e1540006 	cmp	r4, r6
   1168c:	23a03000 	movcs	r3, #0
   11690:	33a03001 	movcc	r3, #1
   11694:	e01338a0 	ands	r3, r3, r0, lsr #17
   11698:	1affffee 	bne	11658 <bcm2835_spi_transfernb+0xe4>
   1169c:	e1540006 	cmp	r4, r6
   116a0:	21550006 	cmpcs	r5, r6
   116a4:	3affffd4 	bcc	115fc <bcm2835_spi_transfernb+0x88>
   116a8:	e1a00007 	mov	r0, r7
   116ac:	ebfffe9d 	bl	11128 <bcm2835_peri_read_nb>
   116b0:	e3100801 	tst	r0, #65536	; 0x10000
   116b4:	0afffffb 	beq	116a8 <bcm2835_spi_transfernb+0x134>
   116b8:	e1a00007 	mov	r0, r7
   116bc:	e3a02080 	mov	r2, #128	; 0x80
   116c0:	e3a01000 	mov	r1, #0
   116c4:	e28dd014 	add	sp, sp, #20
   116c8:	e8bd4ff0 	pop	{r4, r5, r6, r7, r8, r9, sl, fp, lr}
   116cc:	eafffe97 	b	11130 <bcm2835_peri_set_bits>
   116d0:	0000d8e4 	andeq	sp, r0, r4, ror #17
   116d4:	0000023c 	andeq	r0, r0, ip, lsr r2
   116d8:	00009ba0 	andeq	r9, r0, r0, lsr #23
   116dc:	0000ba78 	andeq	fp, r0, r8, ror sl
   116e0:	00009b90 	muleq	r0, r0, fp
   116e4:	0000ba74 	andeq	fp, r0, r4, ror sl

000116e8 <bcm2835_spi_writenb>:
   116e8:	e3a02030 	mov	r2, #48	; 0x30
   116ec:	e92d47f0 	push	{r4, r5, r6, r7, r8, r9, sl, lr}
   116f0:	e59f30e4 	ldr	r3, [pc, #228]	; 117dc <bcm2835_spi_writenb+0xf4>
   116f4:	e59fc0e4 	ldr	ip, [pc, #228]	; 117e0 <bcm2835_spi_writenb+0xf8>
   116f8:	e08f3003 	add	r3, pc, r3
   116fc:	e793300c 	ldr	r3, [r3, ip]
   11700:	e1a07001 	mov	r7, r1
   11704:	e5934000 	ldr	r4, [r3]
   11708:	e1a01002 	mov	r1, r2
   1170c:	e1a06000 	mov	r6, r0
   11710:	e1a00004 	mov	r0, r4
   11714:	ebfffe85 	bl	11130 <bcm2835_peri_set_bits>
   11718:	e3a02080 	mov	r2, #128	; 0x80
   1171c:	e1a00004 	mov	r0, r4
   11720:	e1a01002 	mov	r1, r2
   11724:	ebfffe81 	bl	11130 <bcm2835_peri_set_bits>
   11728:	e3570000 	cmp	r7, #0
   1172c:	e2845004 	add	r5, r4, #4
   11730:	0a000019 	beq	1179c <bcm2835_spi_writenb+0xb4>
   11734:	e59f80a8 	ldr	r8, [pc, #168]	; 117e4 <bcm2835_spi_writenb+0xfc>
   11738:	e59f90a8 	ldr	r9, [pc, #168]	; 117e8 <bcm2835_spi_writenb+0x100>
   1173c:	e0867007 	add	r7, r6, r7
   11740:	e08f8008 	add	r8, pc, r8
   11744:	e08f9009 	add	r9, pc, r9
   11748:	e2477001 	sub	r7, r7, #1
   1174c:	e2466001 	sub	r6, r6, #1
   11750:	e1a00004 	mov	r0, r4
   11754:	ebfffe49 	bl	11080 <bcm2835_peri_read>
   11758:	e3100701 	tst	r0, #262144	; 0x40000
   1175c:	0afffffb 	beq	11750 <bcm2835_spi_writenb+0x68>
   11760:	e5d83000 	ldrb	r3, [r8]
   11764:	e5f61001 	ldrb	r1, [r6, #1]!
   11768:	e3530000 	cmp	r3, #0
   1176c:	07d91001 	ldrbeq	r1, [r9, r1]
   11770:	e1a00005 	mov	r0, r5
   11774:	ebfffe3f 	bl	11078 <bcm2835_peri_write_nb>
   11778:	ea000001 	b	11784 <bcm2835_spi_writenb+0x9c>
   1177c:	e1a00005 	mov	r0, r5
   11780:	ebfffe68 	bl	11128 <bcm2835_peri_read_nb>
   11784:	e1a00004 	mov	r0, r4
   11788:	ebfffe3c 	bl	11080 <bcm2835_peri_read>
   1178c:	e3100802 	tst	r0, #131072	; 0x20000
   11790:	1afffff9 	bne	1177c <bcm2835_spi_writenb+0x94>
   11794:	e1560007 	cmp	r6, r7
   11798:	1affffec 	bne	11750 <bcm2835_spi_writenb+0x68>
   1179c:	e1a00004 	mov	r0, r4
   117a0:	ebfffe60 	bl	11128 <bcm2835_peri_read_nb>
   117a4:	e3100801 	tst	r0, #65536	; 0x10000
   117a8:	1a000006 	bne	117c8 <bcm2835_spi_writenb+0xe0>
   117ac:	e1a00004 	mov	r0, r4
   117b0:	ebfffe32 	bl	11080 <bcm2835_peri_read>
   117b4:	e3100802 	tst	r0, #131072	; 0x20000
   117b8:	0afffff7 	beq	1179c <bcm2835_spi_writenb+0xb4>
   117bc:	e1a00005 	mov	r0, r5
   117c0:	ebfffe58 	bl	11128 <bcm2835_peri_read_nb>
   117c4:	eafffff8 	b	117ac <bcm2835_spi_writenb+0xc4>
   117c8:	e1a00004 	mov	r0, r4
   117cc:	e8bd47f0 	pop	{r4, r5, r6, r7, r8, r9, sl, lr}
   117d0:	e3a02080 	mov	r2, #128	; 0x80
   117d4:	e3a01000 	mov	r1, #0
   117d8:	eafffe54 	b	11130 <bcm2835_peri_set_bits>
   117dc:	0000d780 	andeq	sp, r0, r0, lsl #15
   117e0:	0000023c 	andeq	r0, r0, ip, lsr r2
   117e4:	0000b924 	andeq	fp, r0, r4, lsr #18
   117e8:	00009a30 	andeq	r9, r0, r0, lsr sl

000117ec <bcm2835_spi_transfern>:
   117ec:	e1a02001 	mov	r2, r1
   117f0:	e1a01000 	mov	r1, r0
   117f4:	eaffff5e 	b	11574 <bcm2835_spi_transfernb>

000117f8 <bcm2835_spi_chipSelect>:
   117f8:	e59f3018 	ldr	r3, [pc, #24]	; 11818 <bcm2835_spi_chipSelect+0x20>
   117fc:	e59f2018 	ldr	r2, [pc, #24]	; 1181c <bcm2835_spi_chipSelect+0x24>
   11800:	e08f3003 	add	r3, pc, r3
   11804:	e7933002 	ldr	r3, [r3, r2]
   11808:	e1a01000 	mov	r1, r0
   1180c:	e3a02003 	mov	r2, #3
   11810:	e5930000 	ldr	r0, [r3]
   11814:	eafffe45 	b	11130 <bcm2835_peri_set_bits>
   11818:	0000d678 	andeq	sp, r0, r8, ror r6
   1181c:	0000023c 	andeq	r0, r0, ip, lsr r2

00011820 <bcm2835_spi_setChipSelectPolarity>:
   11820:	e3a02001 	mov	r2, #1
   11824:	e59f3020 	ldr	r3, [pc, #32]	; 1184c <bcm2835_spi_setChipSelectPolarity+0x2c>
   11828:	e59fc020 	ldr	ip, [pc, #32]	; 11850 <bcm2835_spi_setChipSelectPolarity+0x30>
   1182c:	e08f3003 	add	r3, pc, r3
   11830:	e793c00c 	ldr	ip, [r3, ip]
   11834:	e2800015 	add	r0, r0, #21
   11838:	e6ef0070 	uxtb	r0, r0
   1183c:	e1a01011 	lsl	r1, r1, r0
   11840:	e1a02012 	lsl	r2, r2, r0
   11844:	e59c0000 	ldr	r0, [ip]
   11848:	eafffe38 	b	11130 <bcm2835_peri_set_bits>
   1184c:	0000d64c 	andeq	sp, r0, ip, asr #12
   11850:	0000023c 	andeq	r0, r0, ip, lsr r2

00011854 <bcm2835_spi_write>:
   11854:	e3a02030 	mov	r2, #48	; 0x30
   11858:	e92d4070 	push	{r4, r5, r6, lr}
   1185c:	e59f307c 	ldr	r3, [pc, #124]	; 118e0 <bcm2835_spi_write+0x8c>
   11860:	e59f107c 	ldr	r1, [pc, #124]	; 118e4 <bcm2835_spi_write+0x90>
   11864:	e08f3003 	add	r3, pc, r3
   11868:	e7933001 	ldr	r3, [r3, r1]
   1186c:	e1a06000 	mov	r6, r0
   11870:	e5934000 	ldr	r4, [r3]
   11874:	e1a01002 	mov	r1, r2
   11878:	e1a00004 	mov	r0, r4
   1187c:	ebfffe2b 	bl	11130 <bcm2835_peri_set_bits>
   11880:	e3a02080 	mov	r2, #128	; 0x80
   11884:	e1a00004 	mov	r0, r4
   11888:	e1a01002 	mov	r1, r2
   1188c:	e2845004 	add	r5, r4, #4
   11890:	ebfffe26 	bl	11130 <bcm2835_peri_set_bits>
   11894:	e1a00004 	mov	r0, r4
   11898:	ebfffdf8 	bl	11080 <bcm2835_peri_read>
   1189c:	e3100701 	tst	r0, #262144	; 0x40000
   118a0:	0afffffb 	beq	11894 <bcm2835_spi_write+0x40>
   118a4:	e1a01426 	lsr	r1, r6, #8
   118a8:	e1a00005 	mov	r0, r5
   118ac:	ebfffdf1 	bl	11078 <bcm2835_peri_write_nb>
   118b0:	e6ef1076 	uxtb	r1, r6
   118b4:	e1a00005 	mov	r0, r5
   118b8:	ebfffdee 	bl	11078 <bcm2835_peri_write_nb>
   118bc:	e1a00004 	mov	r0, r4
   118c0:	ebfffe18 	bl	11128 <bcm2835_peri_read_nb>
   118c4:	e3100801 	tst	r0, #65536	; 0x10000
   118c8:	0afffffb 	beq	118bc <bcm2835_spi_write+0x68>
   118cc:	e1a00004 	mov	r0, r4
   118d0:	e8bd4070 	pop	{r4, r5, r6, lr}
   118d4:	e3a02080 	mov	r2, #128	; 0x80
   118d8:	e3a01000 	mov	r1, #0
   118dc:	eafffe13 	b	11130 <bcm2835_peri_set_bits>
   118e0:	0000d614 	andeq	sp, r0, r4, lsl r6
   118e4:	0000023c 	andeq	r0, r0, ip, lsr r2

000118e8 <bcm2835_aux_spi_end>:
   118e8:	e92d4010 	push	{r4, lr}
   118ec:	e3a01000 	mov	r1, #0
   118f0:	e3a00010 	mov	r0, #16
   118f4:	ebfffe78 	bl	112dc <bcm2835_gpio_fsel>
   118f8:	e3a01000 	mov	r1, #0
   118fc:	e3a00013 	mov	r0, #19
   11900:	ebfffe75 	bl	112dc <bcm2835_gpio_fsel>
   11904:	e3a01000 	mov	r1, #0
   11908:	e3a00014 	mov	r0, #20
   1190c:	ebfffe72 	bl	112dc <bcm2835_gpio_fsel>
   11910:	e8bd4010 	pop	{r4, lr}
   11914:	e3a01000 	mov	r1, #0
   11918:	e3a00015 	mov	r0, #21
   1191c:	eafffe6e 	b	112dc <bcm2835_gpio_fsel>

00011920 <bcm2835_aux_spi_CalcClockDivider>:
   11920:	e59f3054 	ldr	r3, [pc, #84]	; 1197c <bcm2835_aux_spi_CalcClockDivider+0x5c>
   11924:	e1500003 	cmp	r0, r3
   11928:	9a000004 	bls	11940 <bcm2835_aux_spi_CalcClockDivider+0x20>
   1192c:	e59f304c 	ldr	r3, [pc, #76]	; 11980 <bcm2835_aux_spi_CalcClockDivider+0x60>
   11930:	e1500003 	cmp	r0, r3
   11934:	9a000003 	bls	11948 <bcm2835_aux_spi_CalcClockDivider+0x28>
   11938:	e3a00000 	mov	r0, #0
   1193c:	e12fff1e 	bx	lr
   11940:	e59f003c 	ldr	r0, [pc, #60]	; 11984 <bcm2835_aux_spi_CalcClockDivider+0x64>
   11944:	e12fff1e 	bx	lr
   11948:	e0800003 	add	r0, r0, r3
   1194c:	e59f1034 	ldr	r1, [pc, #52]	; 11988 <bcm2835_aux_spi_CalcClockDivider+0x68>
   11950:	e1a00080 	lsl	r0, r0, #1
   11954:	e0801001 	add	r1, r0, r1
   11958:	e92d4010 	push	{r4, lr}
   1195c:	e2400001 	sub	r0, r0, #1
   11960:	ebfffbf7 	bl	10944 <__aeabi_uidiv>
   11964:	e59f3018 	ldr	r3, [pc, #24]	; 11984 <bcm2835_aux_spi_CalcClockDivider+0x64>
   11968:	e2400001 	sub	r0, r0, #1
   1196c:	e6ff0070 	uxth	r0, r0
   11970:	e1500003 	cmp	r0, r3
   11974:	21a00003 	movcs	r0, r3
   11978:	e8bd8010 	pop	{r4, pc}
   1197c:	00007723 	andeq	r7, r0, r3, lsr #14
   11980:	07735940 	ldrbeq	r5, [r3, -r0, asr #18]!
   11984:	00000fff 	strdeq	r0, [r0], -pc	; <UNPREDICTABLE>
   11988:	f1194d80 			; <UNDEFINED> instruction: 0xf1194d80

0001198c <bcm2835_aux_spi_setClockDivider>:
   1198c:	e59f3008 	ldr	r3, [pc, #8]	; 1199c <bcm2835_aux_spi_setClockDivider+0x10>
   11990:	e08f3003 	add	r3, pc, r3
   11994:	e5830000 	str	r0, [r3]
   11998:	e12fff1e 	bx	lr
   1199c:	0000e8c4 	andeq	lr, r0, r4, asr #17

000119a0 <bcm2835_aux_spi_begin>:
   119a0:	e92d4070 	push	{r4, r5, r6, lr}
   119a4:	e59f2090 	ldr	r2, [pc, #144]	; 11a3c <bcm2835_aux_spi_begin+0x9c>
   119a8:	e59f3090 	ldr	r3, [pc, #144]	; 11a40 <bcm2835_aux_spi_begin+0xa0>
   119ac:	e08f2002 	add	r2, pc, r2
   119b0:	e7923003 	ldr	r3, [r2, r3]
   119b4:	e5934000 	ldr	r4, [r3]
   119b8:	e3540000 	cmp	r4, #0
   119bc:	0a00001c 	beq	11a34 <bcm2835_aux_spi_begin+0x94>
   119c0:	e59f307c 	ldr	r3, [pc, #124]	; 11a44 <bcm2835_aux_spi_begin+0xa4>
   119c4:	e3a01003 	mov	r1, #3
   119c8:	e7923003 	ldr	r3, [r2, r3]
   119cc:	e3a00010 	mov	r0, #16
   119d0:	e5935000 	ldr	r5, [r3]
   119d4:	ebfffe40 	bl	112dc <bcm2835_gpio_fsel>
   119d8:	e3a01003 	mov	r1, #3
   119dc:	e3a00013 	mov	r0, #19
   119e0:	ebfffe3d 	bl	112dc <bcm2835_gpio_fsel>
   119e4:	e3a01003 	mov	r1, #3
   119e8:	e3a00014 	mov	r0, #20
   119ec:	ebfffe3a 	bl	112dc <bcm2835_gpio_fsel>
   119f0:	e3a01003 	mov	r1, #3
   119f4:	e3a00015 	mov	r0, #21
   119f8:	ebfffe37 	bl	112dc <bcm2835_gpio_fsel>
   119fc:	e59f0044 	ldr	r0, [pc, #68]	; 11a48 <bcm2835_aux_spi_begin+0xa8>
   11a00:	ebffffc6 	bl	11920 <bcm2835_aux_spi_CalcClockDivider>
   11a04:	ebffffe0 	bl	1198c <bcm2835_aux_spi_setClockDivider>
   11a08:	e2850004 	add	r0, r5, #4
   11a0c:	e3a01002 	mov	r1, #2
   11a10:	ebfffd60 	bl	10f98 <bcm2835_peri_write>
   11a14:	e2840004 	add	r0, r4, #4
   11a18:	e3a01000 	mov	r1, #0
   11a1c:	ebfffd5d 	bl	10f98 <bcm2835_peri_write>
   11a20:	e1a00004 	mov	r0, r4
   11a24:	e3a01c02 	mov	r1, #512	; 0x200
   11a28:	ebfffd5a 	bl	10f98 <bcm2835_peri_write>
   11a2c:	e3a00001 	mov	r0, #1
   11a30:	e8bd8070 	pop	{r4, r5, r6, pc}
   11a34:	e1a00004 	mov	r0, r4
   11a38:	e8bd8070 	pop	{r4, r5, r6, pc}
   11a3c:	0000d4cc 	andeq	sp, r0, ip, asr #9
   11a40:	000000cc 	andeq	r0, r0, ip, asr #1
   11a44:	00000140 	andeq	r0, r0, r0, asr #2
   11a48:	000f4240 	andeq	r4, pc, r0, asr #4

00011a4c <bcm2835_aux_spi_write>:
   11a4c:	e92d4070 	push	{r4, r5, r6, lr}
   11a50:	e59f3060 	ldr	r3, [pc, #96]	; 11ab8 <bcm2835_aux_spi_write+0x6c>
   11a54:	e59f1060 	ldr	r1, [pc, #96]	; 11abc <bcm2835_aux_spi_write+0x70>
   11a58:	e08f3003 	add	r3, pc, r3
   11a5c:	e59f205c 	ldr	r2, [pc, #92]	; 11ac0 <bcm2835_aux_spi_write+0x74>
   11a60:	e793c001 	ldr	ip, [r3, r1]
   11a64:	e08f2002 	add	r2, pc, r2
   11a68:	e59c5000 	ldr	r5, [ip]
   11a6c:	e5921000 	ldr	r1, [r2]
   11a70:	e59f204c 	ldr	r2, [pc, #76]	; 11ac4 <bcm2835_aux_spi_write+0x78>
   11a74:	e1a06000 	mov	r6, r0
   11a78:	e1a00005 	mov	r0, r5
   11a7c:	e1821a01 	orr	r1, r2, r1, lsl #20
   11a80:	ebfffd44 	bl	10f98 <bcm2835_peri_write>
   11a84:	e2850004 	add	r0, r5, #4
   11a88:	e3a01002 	mov	r1, #2
   11a8c:	e2854008 	add	r4, r5, #8
   11a90:	e2855020 	add	r5, r5, #32
   11a94:	ebfffd3f 	bl	10f98 <bcm2835_peri_write>
   11a98:	e1a00004 	mov	r0, r4
   11a9c:	ebfffd77 	bl	11080 <bcm2835_peri_read>
   11aa0:	e3100b01 	tst	r0, #1024	; 0x400
   11aa4:	1afffffb 	bne	11a98 <bcm2835_aux_spi_write+0x4c>
   11aa8:	e1a01806 	lsl	r1, r6, #16
   11aac:	e1a00005 	mov	r0, r5
   11ab0:	e8bd4070 	pop	{r4, r5, r6, lr}
   11ab4:	eafffd37 	b	10f98 <bcm2835_peri_write>
   11ab8:	0000d420 	andeq	sp, r0, r0, lsr #8
   11abc:	000000cc 	andeq	r0, r0, ip, asr #1
   11ac0:	0000e7f0 	strdeq	lr, [r0], -r0
   11ac4:	00060850 	andeq	r0, r6, r0, asr r8

00011ac8 <bcm2835_aux_spi_writenb>:
   11ac8:	e92d41f0 	push	{r4, r5, r6, r7, r8, lr}
   11acc:	e1a06001 	mov	r6, r1
   11ad0:	e59f30e0 	ldr	r3, [pc, #224]	; 11bb8 <bcm2835_aux_spi_writenb+0xf0>
   11ad4:	e59f10e0 	ldr	r1, [pc, #224]	; 11bbc <bcm2835_aux_spi_writenb+0xf4>
   11ad8:	e08f3003 	add	r3, pc, r3
   11adc:	e59f20dc 	ldr	r2, [pc, #220]	; 11bc0 <bcm2835_aux_spi_writenb+0xf8>
   11ae0:	e793c001 	ldr	ip, [r3, r1]
   11ae4:	e08f2002 	add	r2, pc, r2
   11ae8:	e59c7000 	ldr	r7, [ip]
   11aec:	e5921000 	ldr	r1, [r2]
   11af0:	e59f20cc 	ldr	r2, [pc, #204]	; 11bc4 <bcm2835_aux_spi_writenb+0xfc>
   11af4:	e1a05000 	mov	r5, r0
   11af8:	e1a00007 	mov	r0, r7
   11afc:	e1821a01 	orr	r1, r2, r1, lsl #20
   11b00:	ebfffd24 	bl	10f98 <bcm2835_peri_write>
   11b04:	e2870004 	add	r0, r7, #4
   11b08:	e3a01002 	mov	r1, #2
   11b0c:	ebfffd21 	bl	10f98 <bcm2835_peri_write>
   11b10:	e3560000 	cmp	r6, #0
   11b14:	e2874008 	add	r4, r7, #8
   11b18:	e2878030 	add	r8, r7, #48	; 0x30
   11b1c:	e2877020 	add	r7, r7, #32
   11b20:	08bd81f0 	popeq	{r4, r5, r6, r7, r8, pc}
   11b24:	e1a00004 	mov	r0, r4
   11b28:	ebfffd54 	bl	11080 <bcm2835_peri_read>
   11b2c:	e2100b01 	ands	r0, r0, #1024	; 0x400
   11b30:	1afffffb 	bne	11b24 <bcm2835_aux_spi_writenb+0x5c>
   11b34:	e3560003 	cmp	r6, #3
   11b38:	31a01006 	movcc	r1, r6
   11b3c:	23a01003 	movcs	r1, #3
   11b40:	e3a03010 	mov	r3, #16
   11b44:	e0612e81 	rsb	r2, r1, r1, lsl #29
   11b48:	e1a02182 	lsl	r2, r2, #3
   11b4c:	e0822003 	add	r2, r2, r3
   11b50:	e3550000 	cmp	r5, #0
   11b54:	0a000013 	beq	11ba8 <bcm2835_aux_spi_writenb+0xe0>
   11b58:	e5d5c000 	ldrb	ip, [r5]
   11b5c:	e2855001 	add	r5, r5, #1
   11b60:	e180031c 	orr	r0, r0, ip, lsl r3
   11b64:	e2433008 	sub	r3, r3, #8
   11b68:	e1520003 	cmp	r2, r3
   11b6c:	1afffff7 	bne	11b50 <bcm2835_aux_spi_writenb+0x88>
   11b70:	e0566001 	subs	r6, r6, r1
   11b74:	e1801d81 	orr	r1, r0, r1, lsl #27
   11b78:	11a00008 	movne	r0, r8
   11b7c:	01a00007 	moveq	r0, r7
   11b80:	ebfffd04 	bl	10f98 <bcm2835_peri_write>
   11b84:	e1a00004 	mov	r0, r4
   11b88:	ebfffd3c 	bl	11080 <bcm2835_peri_read>
   11b8c:	e3100040 	tst	r0, #64	; 0x40
   11b90:	1afffffb 	bne	11b84 <bcm2835_aux_spi_writenb+0xbc>
   11b94:	e1a00007 	mov	r0, r7
   11b98:	ebfffd38 	bl	11080 <bcm2835_peri_read>
   11b9c:	e3560000 	cmp	r6, #0
   11ba0:	1affffdf 	bne	11b24 <bcm2835_aux_spi_writenb+0x5c>
   11ba4:	e8bd81f0 	pop	{r4, r5, r6, r7, r8, pc}
   11ba8:	e2433008 	sub	r3, r3, #8
   11bac:	e1530002 	cmp	r3, r2
   11bb0:	1affffeb 	bne	11b64 <bcm2835_aux_spi_writenb+0x9c>
   11bb4:	eaffffed 	b	11b70 <bcm2835_aux_spi_writenb+0xa8>
   11bb8:	0000d3a0 	andeq	sp, r0, r0, lsr #7
   11bbc:	000000cc 	andeq	r0, r0, ip, asr #1
   11bc0:	0000e770 	andeq	lr, r0, r0, ror r7
   11bc4:	00064840 	andeq	r4, r6, r0, asr #16

00011bc8 <bcm2835_aux_spi_transfernb>:
   11bc8:	e92d4ff0 	push	{r4, r5, r6, r7, r8, r9, sl, fp, lr}
   11bcc:	e1a0a001 	mov	sl, r1
   11bd0:	e1a06002 	mov	r6, r2
   11bd4:	e1a0700a 	mov	r7, sl
   11bd8:	e1a04006 	mov	r4, r6
   11bdc:	e59f31f4 	ldr	r3, [pc, #500]	; 11dd8 <bcm2835_aux_spi_transfernb+0x210>
   11be0:	e59f11f4 	ldr	r1, [pc, #500]	; 11ddc <bcm2835_aux_spi_transfernb+0x214>
   11be4:	e08f3003 	add	r3, pc, r3
   11be8:	e59f21f0 	ldr	r2, [pc, #496]	; 11de0 <bcm2835_aux_spi_transfernb+0x218>
   11bec:	e793c001 	ldr	ip, [r3, r1]
   11bf0:	e08f2002 	add	r2, pc, r2
   11bf4:	e59c9000 	ldr	r9, [ip]
   11bf8:	e5921000 	ldr	r1, [r2]
   11bfc:	e59f21e0 	ldr	r2, [pc, #480]	; 11de4 <bcm2835_aux_spi_transfernb+0x21c>
   11c00:	e24dd00c 	sub	sp, sp, #12
   11c04:	e1821a01 	orr	r1, r2, r1, lsl #20
   11c08:	e1a05000 	mov	r5, r0
   11c0c:	e1a00009 	mov	r0, r9
   11c10:	ebfffce0 	bl	10f98 <bcm2835_peri_write>
   11c14:	e2890004 	add	r0, r9, #4
   11c18:	e3a01002 	mov	r1, #2
   11c1c:	ebfffcdd 	bl	10f98 <bcm2835_peri_write>
   11c20:	e2893030 	add	r3, r9, #48	; 0x30
   11c24:	e2898008 	add	r8, r9, #8
   11c28:	e58d3004 	str	r3, [sp, #4]
   11c2c:	e2899020 	add	r9, r9, #32
   11c30:	e1963004 	orrs	r3, r6, r4
   11c34:	0a000065 	beq	11dd0 <bcm2835_aux_spi_transfernb+0x208>
   11c38:	e1a00008 	mov	r0, r8
   11c3c:	ebfffd0f 	bl	11080 <bcm2835_peri_read>
   11c40:	e2100b01 	ands	r0, r0, #1024	; 0x400
   11c44:	1a00001e 	bne	11cc4 <bcm2835_aux_spi_transfernb+0xfc>
   11c48:	e3560000 	cmp	r6, #0
   11c4c:	0a00001c 	beq	11cc4 <bcm2835_aux_spi_transfernb+0xfc>
   11c50:	e3560003 	cmp	r6, #3
   11c54:	31a01006 	movcc	r1, r6
   11c58:	23a01003 	movcs	r1, #3
   11c5c:	e3a03010 	mov	r3, #16
   11c60:	e0612e81 	rsb	r2, r1, r1, lsl #29
   11c64:	e1a02182 	lsl	r2, r2, #3
   11c68:	e0822003 	add	r2, r2, r3
   11c6c:	e3550000 	cmp	r5, #0
   11c70:	0a00004b 	beq	11da4 <bcm2835_aux_spi_transfernb+0x1dc>
   11c74:	e5d5c000 	ldrb	ip, [r5]
   11c78:	e2855001 	add	r5, r5, #1
   11c7c:	e180031c 	orr	r0, r0, ip, lsl r3
   11c80:	e2433008 	sub	r3, r3, #8
   11c84:	e1530002 	cmp	r3, r2
   11c88:	1afffff7 	bne	11c6c <bcm2835_aux_spi_transfernb+0xa4>
   11c8c:	e0566001 	subs	r6, r6, r1
   11c90:	e1801d81 	orr	r1, r0, r1, lsl #27
   11c94:	0a000048 	beq	11dbc <bcm2835_aux_spi_transfernb+0x1f4>
   11c98:	e59d0004 	ldr	r0, [sp, #4]
   11c9c:	ebfffcbd 	bl	10f98 <bcm2835_peri_write>
   11ca0:	eaffffe4 	b	11c38 <bcm2835_aux_spi_transfernb+0x70>
   11ca4:	e1a0c007 	mov	ip, r7
   11ca8:	e4cce002 	strb	lr, [ip], #2
   11cac:	e1a07002 	mov	r7, r2
   11cb0:	e1a0200c 	mov	r2, ip
   11cb4:	e5c71000 	strb	r1, [r7]
   11cb8:	e2827001 	add	r7, r2, #1
   11cbc:	e5c20000 	strb	r0, [r2]
   11cc0:	e044400b 	sub	r4, r4, fp
   11cc4:	e1a00008 	mov	r0, r8
   11cc8:	ebfffcec 	bl	11080 <bcm2835_peri_read>
   11ccc:	e3100080 	tst	r0, #128	; 0x80
   11cd0:	1a00001b 	bne	11d44 <bcm2835_aux_spi_transfernb+0x17c>
   11cd4:	e3540000 	cmp	r4, #0
   11cd8:	0a000019 	beq	11d44 <bcm2835_aux_spi_transfernb+0x17c>
   11cdc:	e3540003 	cmp	r4, #3
   11ce0:	e1a00009 	mov	r0, r9
   11ce4:	31a0b004 	movcc	fp, r4
   11ce8:	23a0b003 	movcs	fp, #3
   11cec:	ebfffce3 	bl	11080 <bcm2835_peri_read>
   11cf0:	e35a0000 	cmp	sl, #0
   11cf4:	e1a01420 	lsr	r1, r0, #8
   11cf8:	0afffff0 	beq	11cc0 <bcm2835_aux_spi_transfernb+0xf8>
   11cfc:	e35b0002 	cmp	fp, #2
   11d00:	e2872001 	add	r2, r7, #1
   11d04:	0affffea 	beq	11cb4 <bcm2835_aux_spi_transfernb+0xec>
   11d08:	e35b0003 	cmp	fp, #3
   11d0c:	e1a0e820 	lsr	lr, r0, #16
   11d10:	0affffe3 	beq	11ca4 <bcm2835_aux_spi_transfernb+0xdc>
   11d14:	e1a01002 	mov	r1, r2
   11d18:	e1a02007 	mov	r2, r7
   11d1c:	e1a07001 	mov	r7, r1
   11d20:	eaffffe5 	b	11cbc <bcm2835_aux_spi_transfernb+0xf4>
   11d24:	e1a0c007 	mov	ip, r7
   11d28:	e4cce002 	strb	lr, [ip], #2
   11d2c:	e1a07002 	mov	r7, r2
   11d30:	e1a0200c 	mov	r2, ip
   11d34:	e5c71000 	strb	r1, [r7]
   11d38:	e2827001 	add	r7, r2, #1
   11d3c:	e5c20000 	strb	r0, [r2]
   11d40:	e044400b 	sub	r4, r4, fp
   11d44:	e1a00008 	mov	r0, r8
   11d48:	ebfffccc 	bl	11080 <bcm2835_peri_read>
   11d4c:	e3100040 	tst	r0, #64	; 0x40
   11d50:	1affffb6 	bne	11c30 <bcm2835_aux_spi_transfernb+0x68>
   11d54:	e3540000 	cmp	r4, #0
   11d58:	0affffb4 	beq	11c30 <bcm2835_aux_spi_transfernb+0x68>
   11d5c:	e3540003 	cmp	r4, #3
   11d60:	e1a00009 	mov	r0, r9
   11d64:	31a0b004 	movcc	fp, r4
   11d68:	23a0b003 	movcs	fp, #3
   11d6c:	ebfffcc3 	bl	11080 <bcm2835_peri_read>
   11d70:	e35a0000 	cmp	sl, #0
   11d74:	e1a01420 	lsr	r1, r0, #8
   11d78:	0afffff0 	beq	11d40 <bcm2835_aux_spi_transfernb+0x178>
   11d7c:	e35b0002 	cmp	fp, #2
   11d80:	e2872001 	add	r2, r7, #1
   11d84:	0affffea 	beq	11d34 <bcm2835_aux_spi_transfernb+0x16c>
   11d88:	e35b0003 	cmp	fp, #3
   11d8c:	e1a0e820 	lsr	lr, r0, #16
   11d90:	0affffe3 	beq	11d24 <bcm2835_aux_spi_transfernb+0x15c>
   11d94:	e1a01002 	mov	r1, r2
   11d98:	e1a02007 	mov	r2, r7
   11d9c:	e1a07001 	mov	r7, r1
   11da0:	eaffffe5 	b	11d3c <bcm2835_aux_spi_transfernb+0x174>
   11da4:	e2433008 	sub	r3, r3, #8
   11da8:	e1530002 	cmp	r3, r2
   11dac:	1affffb3 	bne	11c80 <bcm2835_aux_spi_transfernb+0xb8>
   11db0:	e0566001 	subs	r6, r6, r1
   11db4:	e1801d81 	orr	r1, r0, r1, lsl #27
   11db8:	1affffb6 	bne	11c98 <bcm2835_aux_spi_transfernb+0xd0>
   11dbc:	e1a00009 	mov	r0, r9
   11dc0:	ebfffc74 	bl	10f98 <bcm2835_peri_write>
   11dc4:	e1a00008 	mov	r0, r8
   11dc8:	ebfffcac 	bl	11080 <bcm2835_peri_read>
   11dcc:	eaffffbc 	b	11cc4 <bcm2835_aux_spi_transfernb+0xfc>
   11dd0:	e28dd00c 	add	sp, sp, #12
   11dd4:	e8bd8ff0 	pop	{r4, r5, r6, r7, r8, r9, sl, fp, pc}
   11dd8:	0000d294 	muleq	r0, r4, r2
   11ddc:	000000cc 	andeq	r0, r0, ip, asr #1
   11de0:	0000e664 	andeq	lr, r0, r4, ror #12
   11de4:	00064840 	andeq	r4, r6, r0, asr #16

00011de8 <bcm2835_aux_spi_transfern>:
   11de8:	e1a02001 	mov	r2, r1
   11dec:	e1a01000 	mov	r1, r0
   11df0:	eaffff74 	b	11bc8 <bcm2835_aux_spi_transfernb>

00011df4 <bcm2835_init>:
   11df4:	e3a0c202 	mov	ip, #536870912	; 0x20000000
   11df8:	e59f30b8 	ldr	r3, [pc, #184]	; 11eb8 <bcm2835_init+0xc4>
   11dfc:	e59f10b8 	ldr	r1, [pc, #184]	; 11ebc <bcm2835_init+0xc8>
   11e00:	e08f3003 	add	r3, pc, r3
   11e04:	e7931001 	ldr	r1, [r3, r1]
   11e08:	e59f20b0 	ldr	r2, [pc, #176]	; 11ec0 <bcm2835_init+0xcc>
   11e0c:	e581c000 	str	ip, [r1]
   11e10:	e7931002 	ldr	r1, [r3, r2]
   11e14:	e59f00a8 	ldr	r0, [pc, #168]	; 11ec4 <bcm2835_init+0xd0>
   11e18:	e59f20a8 	ldr	r2, [pc, #168]	; 11ec8 <bcm2835_init+0xd4>
   11e1c:	e5810000 	str	r0, [r1]
   11e20:	e7931002 	ldr	r1, [r3, r2]
   11e24:	e2800a01 	add	r0, r0, #4096	; 0x1000
   11e28:	e59f209c 	ldr	r2, [pc, #156]	; 11ecc <bcm2835_init+0xd8>
   11e2c:	e5810000 	str	r0, [r1]
   11e30:	e7931002 	ldr	r1, [r3, r2]
   11e34:	e2800aff 	add	r0, r0, #1044480	; 0xff000
   11e38:	e59f2090 	ldr	r2, [pc, #144]	; 11ed0 <bcm2835_init+0xdc>
   11e3c:	e5810000 	str	r0, [r1]
   11e40:	e7931002 	ldr	r1, [r3, r2]
   11e44:	e2800903 	add	r0, r0, #49152	; 0xc000
   11e48:	e59f2084 	ldr	r2, [pc, #132]	; 11ed4 <bcm2835_init+0xe0>
   11e4c:	e5810000 	str	r0, [r1]
   11e50:	e7931002 	ldr	r1, [r3, r2]
   11e54:	e2400902 	sub	r0, r0, #32768	; 0x8000
   11e58:	e59f2078 	ldr	r2, [pc, #120]	; 11ed8 <bcm2835_init+0xe4>
   11e5c:	e5810000 	str	r0, [r1]
   11e60:	e7931002 	ldr	r1, [r3, r2]
   11e64:	e2800a01 	add	r0, r0, #4096	; 0x1000
   11e68:	e59f206c 	ldr	r2, [pc, #108]	; 11edc <bcm2835_init+0xe8>
   11e6c:	e5810000 	str	r0, [r1]
   11e70:	e7931002 	ldr	r1, [r3, r2]
   11e74:	e59f0064 	ldr	r0, [pc, #100]	; 11ee0 <bcm2835_init+0xec>
   11e78:	e59f2064 	ldr	r2, [pc, #100]	; 11ee4 <bcm2835_init+0xf0>
   11e7c:	e5810000 	str	r0, [r1]
   11e80:	e7931002 	ldr	r1, [r3, r2]
   11e84:	e59f005c 	ldr	r0, [pc, #92]	; 11ee8 <bcm2835_init+0xf4>
   11e88:	e59f205c 	ldr	r2, [pc, #92]	; 11eec <bcm2835_init+0xf8>
   11e8c:	e5810000 	str	r0, [r1]
   11e90:	e7931002 	ldr	r1, [r3, r2]
   11e94:	e2800821 	add	r0, r0, #2162688	; 0x210000
   11e98:	e2800a02 	add	r0, r0, #8192	; 0x2000
   11e9c:	e59f204c 	ldr	r2, [pc, #76]	; 11ef0 <bcm2835_init+0xfc>
   11ea0:	e5810000 	str	r0, [r1]
   11ea4:	e7932002 	ldr	r2, [r3, r2]
   11ea8:	e59f1044 	ldr	r1, [pc, #68]	; 11ef4 <bcm2835_init+0x100>
   11eac:	e3a00001 	mov	r0, #1
   11eb0:	e5821000 	str	r1, [r2]
   11eb4:	e12fff1e 	bx	lr
   11eb8:	0000d078 	andeq	sp, r0, r8, ror r0
   11ebc:	00000068 	andeq	r0, r0, r8, rrx
   11ec0:	00000160 	andeq	r0, r0, r0, ror #2
   11ec4:	20100000 	andscs	r0, r0, r0
   11ec8:	00000074 	andeq	r0, r0, r4, ror r0
   11ecc:	00000148 	andeq	r0, r0, r8, asr #2
   11ed0:	00000184 	andeq	r0, r0, r4, lsl #3
   11ed4:	0000023c 	andeq	r0, r0, ip, lsr r2
   11ed8:	0000015c 	andeq	r0, r0, ip, asr r1
   11edc:	00000230 	andeq	r0, r0, r0, lsr r2
   11ee0:	20804000 	addcs	r4, r0, r0
   11ee4:	00000214 	andeq	r0, r0, r4, lsl r2
   11ee8:	20003000 	andcs	r3, r0, r0
   11eec:	00000140 	andeq	r0, r0, r0, asr #2
   11ef0:	000000cc 	andeq	r0, r0, ip, asr #1
   11ef4:	20215080 	eorcs	r5, r1, r0, lsl #1

00011ef8 <bcm2835_close>:
   11ef8:	e3a02000 	mov	r2, #0
   11efc:	e59f308c 	ldr	r3, [pc, #140]	; 11f90 <bcm2835_close+0x98>
   11f00:	e59f108c 	ldr	r1, [pc, #140]	; 11f94 <bcm2835_close+0x9c>
   11f04:	e08f3003 	add	r3, pc, r3
   11f08:	e793c001 	ldr	ip, [r3, r1]
   11f0c:	e59f0084 	ldr	r0, [pc, #132]	; 11f98 <bcm2835_close+0xa0>
   11f10:	e58c2000 	str	r2, [ip]
   11f14:	e793c000 	ldr	ip, [r3, r0]
   11f18:	e59f107c 	ldr	r1, [pc, #124]	; 11f9c <bcm2835_close+0xa4>
   11f1c:	e58c2000 	str	r2, [ip]
   11f20:	e793c001 	ldr	ip, [r3, r1]
   11f24:	e59f0074 	ldr	r0, [pc, #116]	; 11fa0 <bcm2835_close+0xa8>
   11f28:	e58c2000 	str	r2, [ip]
   11f2c:	e793c000 	ldr	ip, [r3, r0]
   11f30:	e59f106c 	ldr	r1, [pc, #108]	; 11fa4 <bcm2835_close+0xac>
   11f34:	e58c2000 	str	r2, [ip]
   11f38:	e793c001 	ldr	ip, [r3, r1]
   11f3c:	e59f0064 	ldr	r0, [pc, #100]	; 11fa8 <bcm2835_close+0xb0>
   11f40:	e58c2000 	str	r2, [ip]
   11f44:	e793c000 	ldr	ip, [r3, r0]
   11f48:	e59f105c 	ldr	r1, [pc, #92]	; 11fac <bcm2835_close+0xb4>
   11f4c:	e58c2000 	str	r2, [ip]
   11f50:	e793c001 	ldr	ip, [r3, r1]
   11f54:	e59f0054 	ldr	r0, [pc, #84]	; 11fb0 <bcm2835_close+0xb8>
   11f58:	e58c2000 	str	r2, [ip]
   11f5c:	e793c000 	ldr	ip, [r3, r0]
   11f60:	e59f104c 	ldr	r1, [pc, #76]	; 11fb4 <bcm2835_close+0xbc>
   11f64:	e58c2000 	str	r2, [ip]
   11f68:	e793c001 	ldr	ip, [r3, r1]
   11f6c:	e59f0044 	ldr	r0, [pc, #68]	; 11fb8 <bcm2835_close+0xc0>
   11f70:	e58c2000 	str	r2, [ip]
   11f74:	e793c000 	ldr	ip, [r3, r0]
   11f78:	e59f103c 	ldr	r1, [pc, #60]	; 11fbc <bcm2835_close+0xc4>
   11f7c:	e58c2000 	str	r2, [ip]
   11f80:	e7933001 	ldr	r3, [r3, r1]
   11f84:	e3a00001 	mov	r0, #1
   11f88:	e5832000 	str	r2, [r3]
   11f8c:	e12fff1e 	bx	lr
   11f90:	0000cf74 	andeq	ip, r0, r4, ror pc
   11f94:	00000068 	andeq	r0, r0, r8, rrx
   11f98:	00000148 	andeq	r0, r0, r8, asr #2
   11f9c:	00000184 	andeq	r0, r0, r4, lsl #3
   11fa0:	00000074 	andeq	r0, r0, r4, ror r0
   11fa4:	00000160 	andeq	r0, r0, r0, ror #2
   11fa8:	0000023c 	andeq	r0, r0, ip, lsr r2
   11fac:	0000015c 	andeq	r0, r0, ip, asr r1
   11fb0:	00000230 	andeq	r0, r0, r0, lsr r2
   11fb4:	00000214 	andeq	r0, r0, r4, lsl r2
   11fb8:	00000140 	andeq	r0, r0, r0, asr #2
   11fbc:	000000cc 	andeq	r0, r0, ip, asr #1

00011fc0 <Touch_Init>:
   11fc0:	e92d4010 	push	{r4, lr}
   11fc4:	e3a01000 	mov	r1, #0
   11fc8:	e3a0000b 	mov	r0, #11
   11fcc:	ebfffc25 	bl	11068 <bcm2835_gpio_write>
   11fd0:	e3a01001 	mov	r1, #1
   11fd4:	e3a0000a 	mov	r0, #10
   11fd8:	ebfffc22 	bl	11068 <bcm2835_gpio_write>
   11fdc:	e3a0202d 	mov	r2, #45	; 0x2d
   11fe0:	e3a0c0be 	mov	ip, #190	; 0xbe
   11fe4:	e59f0054 	ldr	r0, [pc, #84]	; 12040 <Touch_Init+0x80>
   11fe8:	e59f3054 	ldr	r3, [pc, #84]	; 12044 <Touch_Init+0x84>
   11fec:	e08f0000 	add	r0, pc, r0
   11ff0:	e7903003 	ldr	r3, [r0, r3]
   11ff4:	e59fe04c 	ldr	lr, [pc, #76]	; 12048 <Touch_Init+0x88>
   11ff8:	e59f104c 	ldr	r1, [pc, #76]	; 1204c <Touch_Init+0x8c>
   11ffc:	e583e00c 	str	lr, [r3, #12]
   12000:	e5832000 	str	r2, [r3]
   12004:	e5832004 	str	r2, [r3, #4]
   12008:	e5832008 	str	r2, [r3, #8]
   1200c:	e583c010 	str	ip, [r3, #16]
   12010:	e583c014 	str	ip, [r3, #20]
   12014:	e7903001 	ldr	r3, [r0, r1]
   12018:	e3a01001 	mov	r1, #1
   1201c:	e583e00c 	str	lr, [r3, #12]
   12020:	e3a00008 	mov	r0, #8
   12024:	e8bd4010 	pop	{r4, lr}
   12028:	e5832000 	str	r2, [r3]
   1202c:	e5832004 	str	r2, [r3, #4]
   12030:	e5832008 	str	r2, [r3, #8]
   12034:	e583c010 	str	ip, [r3, #16]
   12038:	e583c014 	str	ip, [r3, #20]
   1203c:	eafffc09 	b	11068 <bcm2835_gpio_write>
   12040:	0000ce8c 	andeq	ip, r0, ip, lsl #29
   12044:	00000190 	muleq	r0, r0, r1
   12048:	0000010e 	andeq	r0, r0, lr, lsl #2
   1204c:	0000016c 	andeq	r0, r0, ip, ror #2

00012050 <Read_XY>:
   12050:	e92d4010 	push	{r4, lr}
   12054:	e1a04000 	mov	r4, r0
   12058:	e3a01000 	mov	r1, #0
   1205c:	e3a0000b 	mov	r0, #11
   12060:	ebfffc00 	bl	11068 <bcm2835_gpio_write>
   12064:	e3a01001 	mov	r1, #1
   12068:	e3a0000a 	mov	r0, #10
   1206c:	ebfffbfd 	bl	11068 <bcm2835_gpio_write>
   12070:	e3a01000 	mov	r1, #0
   12074:	e3a00008 	mov	r0, #8
   12078:	ebfffbfa 	bl	11068 <bcm2835_gpio_write>
   1207c:	e1a00004 	mov	r0, r4
   12080:	eb001ec0 	bl	19b88 <spi_man_send>
   12084:	e3a01001 	mov	r1, #1
   12088:	e3a0000b 	mov	r0, #11
   1208c:	ebfffbf5 	bl	11068 <bcm2835_gpio_write>
   12090:	e3a00f4b 	mov	r0, #300	; 0x12c
   12094:	ebfffb7e 	bl	10e94 <Delayns>
   12098:	e3a01000 	mov	r1, #0
   1209c:	e3a0000b 	mov	r0, #11
   120a0:	ebfffbf0 	bl	11068 <bcm2835_gpio_write>
   120a4:	e3a00f4b 	mov	r0, #300	; 0x12c
   120a8:	ebfffb79 	bl	10e94 <Delayns>
   120ac:	eb001ed0 	bl	19bf4 <spi_man_get>
   120b0:	e1a04000 	mov	r4, r0
   120b4:	e3a01001 	mov	r1, #1
   120b8:	e3a00008 	mov	r0, #8
   120bc:	ebfffbe9 	bl	11068 <bcm2835_gpio_write>
   120c0:	e59f0004 	ldr	r0, [pc, #4]	; 120cc <Read_XY+0x7c>
   120c4:	e00001a4 	and	r0, r0, r4, lsr #3
   120c8:	e8bd8010 	pop	{r4, pc}
   120cc:	00000fff 	strdeq	r0, [r0], -pc	; <UNPREDICTABLE>

000120d0 <TP_GetAdXY>:
   120d0:	e92d4070 	push	{r4, r5, r6, lr}
   120d4:	e1a05000 	mov	r5, r0
   120d8:	e3a000d0 	mov	r0, #208	; 0xd0
   120dc:	e1a06001 	mov	r6, r1
   120e0:	ebffffda 	bl	12050 <Read_XY>
   120e4:	e1a04000 	mov	r4, r0
   120e8:	e3a00f4b 	mov	r0, #300	; 0x12c
   120ec:	ebfffb68 	bl	10e94 <Delayns>
   120f0:	e3a00090 	mov	r0, #144	; 0x90
   120f4:	ebffffd5 	bl	12050 <Read_XY>
   120f8:	e3540000 	cmp	r4, #0
   120fc:	c2444019 	subgt	r4, r4, #25
   12100:	ce074a90 	vmovgt	s15, r4
   12104:	cddf6a0e 	vldrgt	s13, [pc, #56]	; 12144 <TP_GetAdXY+0x74>
   12108:	cef87ae7 	vcvtgt.f32.s32	s15, s15
   1210c:	ce877aa6 	vdivgt.f32	s14, s15, s13
   12110:	cebd7ac7 	vcvtgt.s32.f32	s14, s14
   12114:	d5854000 	strle	r4, [r5]
   12118:	cd857a00 	vstrgt	s14, [r5]
   1211c:	e3500000 	cmp	r0, #0
   12120:	c2400037 	subgt	r0, r0, #55	; 0x37
   12124:	ce070a90 	vmovgt	s15, r0
   12128:	cddf6a06 	vldrgt	s13, [pc, #24]	; 12148 <TP_GetAdXY+0x78>
   1212c:	cef87ae7 	vcvtgt.f32.s32	s15, s15
   12130:	ce877aa6 	vdivgt.f32	s14, s15, s13
   12134:	cebd7ac7 	vcvtgt.s32.f32	s14, s14
   12138:	d5860000 	strle	r0, [r6]
   1213c:	cd867a00 	vstrgt	s14, [r6]
   12140:	e8bd8070 	pop	{r4, r5, r6, pc}
   12144:	3ffa9fbe 	svccc	0x00fa9fbe
   12148:	3fb00000 	svccc	0x00b00000

0001214c <TP_DrawPoint>:
   1214c:	e92d41f0 	push	{r4, r5, r6, r7, r8, lr}
   12150:	e1a04002 	mov	r4, r2
   12154:	e1a06001 	mov	r6, r1
   12158:	e1a07000 	mov	r7, r0
   1215c:	e2805001 	add	r5, r0, #1
   12160:	eb00022e 	bl	12a20 <TFT_Dot>
   12164:	e1a00005 	mov	r0, r5
   12168:	e1a02004 	mov	r2, r4
   1216c:	e1a01006 	mov	r1, r6
   12170:	e2866001 	add	r6, r6, #1
   12174:	eb000229 	bl	12a20 <TFT_Dot>
   12178:	e1a00007 	mov	r0, r7
   1217c:	e1a01006 	mov	r1, r6
   12180:	e1a02004 	mov	r2, r4
   12184:	eb000225 	bl	12a20 <TFT_Dot>
   12188:	e1a02004 	mov	r2, r4
   1218c:	e1a01006 	mov	r1, r6
   12190:	e1a00005 	mov	r0, r5
   12194:	e8bd41f0 	pop	{r4, r5, r6, r7, r8, lr}
   12198:	ea000220 	b	12a20 <TFT_Dot>

0001219c <Read_Ads7843>:
   1219c:	e92d4ff0 	push	{r4, r5, r6, r7, r8, r9, sl, fp, lr}
   121a0:	e1a07000 	mov	r7, r0
   121a4:	e24dd054 	sub	sp, sp, #84	; 0x54
   121a8:	e3a02048 	mov	r2, #72	; 0x48
   121ac:	e3a01000 	mov	r1, #0
   121b0:	e28d0008 	add	r0, sp, #8
   121b4:	ebfffa0a 	bl	109e4 <memset>
   121b8:	e59f2298 	ldr	r2, [pc, #664]	; 12458 <Read_Ads7843+0x2bc>
   121bc:	e3570000 	cmp	r7, #0
   121c0:	e08f2002 	add	r2, pc, r2
   121c4:	0a000087 	beq	123e8 <Read_Ads7843+0x24c>
   121c8:	e3a01000 	mov	r1, #0
   121cc:	e59f3288 	ldr	r3, [pc, #648]	; 1245c <Read_Ads7843+0x2c0>
   121d0:	e3a0000c 	mov	r0, #12
   121d4:	e7924003 	ldr	r4, [r2, r3]
   121d8:	e5841000 	str	r1, [r4]
   121dc:	ebfffbab 	bl	11090 <bcm2835_gpio_lev>
   121e0:	e3500000 	cmp	r0, #0
   121e4:	e5942000 	ldr	r2, [r4]
   121e8:	1a000012 	bne	12238 <Read_Ads7843+0x9c>
   121ec:	e3520008 	cmp	r2, #8
   121f0:	8a000010 	bhi	12238 <Read_Ads7843+0x9c>
   121f4:	e1a0500d 	mov	r5, sp
   121f8:	e28d6004 	add	r6, sp, #4
   121fc:	e1a01006 	mov	r1, r6
   12200:	e1a00005 	mov	r0, r5
   12204:	ebffffb1 	bl	120d0 <TP_GetAdXY>
   12208:	e5943000 	ldr	r3, [r4]
   1220c:	e59dc000 	ldr	ip, [sp]
   12210:	e2832001 	add	r2, r3, #1
   12214:	e59d1004 	ldr	r1, [sp, #4]
   12218:	e28d0050 	add	r0, sp, #80	; 0x50
   1221c:	e0800103 	add	r0, r0, r3, lsl #2
   12220:	e3520008 	cmp	r2, #8
   12224:	e28de050 	add	lr, sp, #80	; 0x50
   12228:	e500c048 	str	ip, [r0, #-72]	; 0xffffffb8
   1222c:	e5842000 	str	r2, [r4]
   12230:	e5001024 	str	r1, [r0, #-36]	; 0xffffffdc
   12234:	9afffff0 	bls	121fc <Read_Ads7843+0x60>
   12238:	e3520009 	cmp	r2, #9
   1223c:	0a000002 	beq	1224c <Read_Ads7843+0xb0>
   12240:	e3a00000 	mov	r0, #0
   12244:	e28dd054 	add	sp, sp, #84	; 0x54
   12248:	e8bd8ff0 	pop	{r4, r5, r6, r7, r8, r9, sl, fp, pc}
   1224c:	e59d5018 	ldr	r5, [sp, #24]
   12250:	e59d3014 	ldr	r3, [sp, #20]
   12254:	e59de024 	ldr	lr, [sp, #36]	; 0x24
   12258:	e59d2020 	ldr	r2, [sp, #32]
   1225c:	e0833005 	add	r3, r3, r5
   12260:	e59dc010 	ldr	ip, [sp, #16]
   12264:	e59d501c 	ldr	r5, [sp, #28]
   12268:	e1cd00d8 	ldrd	r0, [sp, #8]
   1226c:	e082200e 	add	r2, r2, lr
   12270:	e0800001 	add	r0, r0, r1
   12274:	e59de028 	ldr	lr, [sp, #40]	; 0x28
   12278:	e59f11e0 	ldr	r1, [pc, #480]	; 12460 <Read_Ads7843+0x2c4>
   1227c:	e0833005 	add	r3, r3, r5
   12280:	e080c00c 	add	ip, r0, ip
   12284:	e082200e 	add	r2, r2, lr
   12288:	e0cba19c 	smull	sl, fp, ip, r1
   1228c:	e0c98193 	smull	r8, r9, r3, r1
   12290:	e0c10192 	smull	r0, r1, r2, r1
   12294:	e04bafcc 	sub	sl, fp, ip, asr #31
   12298:	e0493fc3 	sub	r3, r9, r3, asr #31
   1229c:	e04ac003 	sub	ip, sl, r3
   122a0:	e0412fc2 	sub	r2, r1, r2, asr #31
   122a4:	e0431002 	sub	r1, r3, r2
   122a8:	e35c0000 	cmp	ip, #0
   122ac:	b26cc000 	rsblt	ip, ip, #0
   122b0:	e3510000 	cmp	r1, #0
   122b4:	b2611000 	rsblt	r1, r1, #0
   122b8:	e35c0002 	cmp	ip, #2
   122bc:	c3510002 	cmpgt	r1, #2
   122c0:	c3a05001 	movgt	r5, #1
   122c4:	d3a05000 	movle	r5, #0
   122c8:	e042e00a 	sub	lr, r2, sl
   122cc:	e35e0000 	cmp	lr, #0
   122d0:	b26ee000 	rsblt	lr, lr, #0
   122d4:	e35e0002 	cmp	lr, #2
   122d8:	d3a05000 	movle	r5, #0
   122dc:	c2055001 	andgt	r5, r5, #1
   122e0:	e3a0600a 	mov	r6, #10
   122e4:	e3550000 	cmp	r5, #0
   122e8:	e5846000 	str	r6, [r4]
   122ec:	1affffd3 	bne	12240 <Read_Ads7843+0xa4>
   122f0:	e15c0001 	cmp	ip, r1
   122f4:	ba00003e 	blt	123f4 <Read_Ads7843+0x258>
   122f8:	e151000e 	cmp	r1, lr
   122fc:	ca000043 	bgt	12410 <Read_Ads7843+0x274>
   12300:	e0833002 	add	r3, r3, r2
   12304:	e0833fa3 	add	r3, r3, r3, lsr #31
   12308:	e1a030c3 	asr	r3, r3, #1
   1230c:	e5873000 	str	r3, [r7]
   12310:	e59de03c 	ldr	lr, [sp, #60]	; 0x3c
   12314:	e59d3038 	ldr	r3, [sp, #56]	; 0x38
   12318:	e59d0030 	ldr	r0, [sp, #48]	; 0x30
   1231c:	e59d1048 	ldr	r1, [sp, #72]	; 0x48
   12320:	e59dc02c 	ldr	ip, [sp, #44]	; 0x2c
   12324:	e59d2044 	ldr	r2, [sp, #68]	; 0x44
   12328:	e59d4034 	ldr	r4, [sp, #52]	; 0x34
   1232c:	e083300e 	add	r3, r3, lr
   12330:	e59de040 	ldr	lr, [sp, #64]	; 0x40
   12334:	e08cc000 	add	ip, ip, r0
   12338:	e0822001 	add	r2, r2, r1
   1233c:	e59f011c 	ldr	r0, [pc, #284]	; 12460 <Read_Ads7843+0x2c4>
   12340:	e59d104c 	ldr	r1, [sp, #76]	; 0x4c
   12344:	e08cc004 	add	ip, ip, r4
   12348:	e083300e 	add	r3, r3, lr
   1234c:	e0c54093 	smull	r4, r5, r3, r0
   12350:	e0822001 	add	r2, r2, r1
   12354:	e0c9809c 	smull	r8, r9, ip, r0
   12358:	e0c10092 	smull	r0, r1, r2, r0
   1235c:	e049cfcc 	sub	ip, r9, ip, asr #31
   12360:	e0453fc3 	sub	r3, r5, r3, asr #31
   12364:	e04c0003 	sub	r0, ip, r3
   12368:	e0412fc2 	sub	r2, r1, r2, asr #31
   1236c:	e0431002 	sub	r1, r3, r2
   12370:	e3500000 	cmp	r0, #0
   12374:	b2600000 	rsblt	r0, r0, #0
   12378:	e3510000 	cmp	r1, #0
   1237c:	b2611000 	rsblt	r1, r1, #0
   12380:	e3500002 	cmp	r0, #2
   12384:	c3510002 	cmpgt	r1, #2
   12388:	c3a04001 	movgt	r4, #1
   1238c:	d3a04000 	movle	r4, #0
   12390:	e042e00c 	sub	lr, r2, ip
   12394:	e35e0000 	cmp	lr, #0
   12398:	b26ee000 	rsblt	lr, lr, #0
   1239c:	e35e0002 	cmp	lr, #2
   123a0:	d3a04000 	movle	r4, #0
   123a4:	c2044001 	andgt	r4, r4, #1
   123a8:	e3540000 	cmp	r4, #0
   123ac:	1affffa3 	bne	12240 <Read_Ads7843+0xa4>
   123b0:	e1500001 	cmp	r0, r1
   123b4:	aa00001a 	bge	12424 <Read_Ads7843+0x288>
   123b8:	e150000e 	cmp	r0, lr
   123bc:	e3a00001 	mov	r0, #1
   123c0:	c08c2002 	addgt	r2, ip, r2
   123c4:	d08cc003 	addle	ip, ip, r3
   123c8:	c0822fa2 	addgt	r2, r2, r2, lsr #31
   123cc:	d08ccfac 	addle	ip, ip, ip, lsr #31
   123d0:	c1a020c2 	asrgt	r2, r2, #1
   123d4:	d1a0c0cc 	asrle	ip, ip, #1
   123d8:	c5872004 	strgt	r2, [r7, #4]
   123dc:	d587c004 	strle	ip, [r7, #4]
   123e0:	e28dd054 	add	sp, sp, #84	; 0x54
   123e4:	e8bd8ff0 	pop	{r4, r5, r6, r7, r8, r9, sl, fp, pc}
   123e8:	e59f3074 	ldr	r3, [pc, #116]	; 12464 <Read_Ads7843+0x2c8>
   123ec:	e7927003 	ldr	r7, [r2, r3]
   123f0:	eaffff74 	b	121c8 <Read_Ads7843+0x2c>
   123f4:	e15c000e 	cmp	ip, lr
   123f8:	ca000004 	bgt	12410 <Read_Ads7843+0x274>
   123fc:	e08a2003 	add	r2, sl, r3
   12400:	e0822fa2 	add	r2, r2, r2, lsr #31
   12404:	e1a020c2 	asr	r2, r2, #1
   12408:	e5872000 	str	r2, [r7]
   1240c:	eaffffbf 	b	12310 <Read_Ads7843+0x174>
   12410:	e08a2002 	add	r2, sl, r2
   12414:	e0822fa2 	add	r2, r2, r2, lsr #31
   12418:	e1a020c2 	asr	r2, r2, #1
   1241c:	e5872000 	str	r2, [r7]
   12420:	eaffffba 	b	12310 <Read_Ads7843+0x174>
   12424:	e151000e 	cmp	r1, lr
   12428:	d3a00001 	movle	r0, #1
   1242c:	c3a00001 	movgt	r0, #1
   12430:	d0833002 	addle	r3, r3, r2
   12434:	c08c2002 	addgt	r2, ip, r2
   12438:	d0833fa3 	addle	r3, r3, r3, lsr #31
   1243c:	c0822fa2 	addgt	r2, r2, r2, lsr #31
   12440:	c1a030c2 	asrgt	r3, r2, #1
   12444:	d1a03053 	asrle	r3, r3, r0
   12448:	c5873004 	strgt	r3, [r7, #4]
   1244c:	d5873004 	strle	r3, [r7, #4]
   12450:	e28dd054 	add	sp, sp, #84	; 0x54
   12454:	e8bd8ff0 	pop	{r4, r5, r6, r7, r8, r9, sl, fp, pc}
   12458:	0000ccb8 			; <UNDEFINED> instruction: 0x0000ccb8
   1245c:	0000019c 	muleq	r0, ip, r1
   12460:	55555556 	ldrbpl	r5, [r5, #-1366]	; 0xfffffaaa
   12464:	00000094 	muleq	r0, r4, r0

00012468 <getDisplayPoint>:
   12468:	e92d41f0 	push	{r4, r5, r6, r7, r8, lr}
   1246c:	e59f3080 	ldr	r3, [pc, #128]	; 124f4 <getDisplayPoint+0x8c>
   12470:	e59f2080 	ldr	r2, [pc, #128]	; 124f8 <getDisplayPoint+0x90>
   12474:	e08f3003 	add	r3, pc, r3
   12478:	e7934002 	ldr	r4, [r3, r2]
   1247c:	e5945018 	ldr	r5, [r4, #24]
   12480:	e3550000 	cmp	r5, #0
   12484:	03a03001 	moveq	r3, #1
   12488:	0a000017 	beq	124ec <getDisplayPoint+0x84>
   1248c:	e59f2068 	ldr	r2, [pc, #104]	; 124fc <getDisplayPoint+0x94>
   12490:	e5940004 	ldr	r0, [r4, #4]
   12494:	e7932002 	ldr	r2, [r3, r2]
   12498:	e5941000 	ldr	r1, [r4]
   1249c:	e1c260d0 	ldrd	r6, [r2]
   124a0:	e0000790 	mul	r0, r0, r7
   124a4:	e0210691 	mla	r1, r1, r6, r0
   124a8:	e5940008 	ldr	r0, [r4, #8]
   124ac:	e59f204c 	ldr	r2, [pc, #76]	; 12500 <getDisplayPoint+0x98>
   124b0:	e0810000 	add	r0, r1, r0
   124b4:	e1a01005 	mov	r1, r5
   124b8:	e7938002 	ldr	r8, [r3, r2]
   124bc:	ebfff90c 	bl	108f4 <__aeabi_idiv>
   124c0:	e5943010 	ldr	r3, [r4, #16]
   124c4:	e594200c 	ldr	r2, [r4, #12]
   124c8:	e0030793 	mul	r3, r3, r7
   124cc:	e0263692 	mla	r6, r2, r6, r3
   124d0:	e5880000 	str	r0, [r8]
   124d4:	e5940014 	ldr	r0, [r4, #20]
   124d8:	e1a01005 	mov	r1, r5
   124dc:	e0860000 	add	r0, r6, r0
   124e0:	ebfff903 	bl	108f4 <__aeabi_idiv>
   124e4:	e3a03000 	mov	r3, #0
   124e8:	e5880004 	str	r0, [r8, #4]
   124ec:	e1a00003 	mov	r0, r3
   124f0:	e8bd81f0 	pop	{r4, r5, r6, r7, r8, pc}
   124f4:	0000ca04 	andeq	ip, r0, r4, lsl #20
   124f8:	00000188 	andeq	r0, r0, r8, lsl #3
   124fc:	00000094 	muleq	r0, r4, r0
   12500:	000000d0 	ldrdeq	r0, [r0], -r0	; <UNPREDICTABLE>

00012504 <lcd_tch_irq_clearer>:
   12504:	e92d4010 	push	{r4, lr}
   12508:	e3a0000c 	mov	r0, #12
   1250c:	ebfffaf2 	bl	110dc <bcm2835_gpio_eds>
   12510:	e59f3024 	ldr	r3, [pc, #36]	; 1253c <lcd_tch_irq_clearer+0x38>
   12514:	e3500000 	cmp	r0, #0
   12518:	e08f3003 	add	r3, pc, r3
   1251c:	08bd8010 	popeq	{r4, pc}
   12520:	e3a01001 	mov	r1, #1
   12524:	e59f2014 	ldr	r2, [pc, #20]	; 12540 <lcd_tch_irq_clearer+0x3c>
   12528:	e3a0000c 	mov	r0, #12
   1252c:	e7933002 	ldr	r3, [r3, r2]
   12530:	e5c31000 	strb	r1, [r3]
   12534:	e8bd4010 	pop	{r4, lr}
   12538:	eafffa9a 	b	10fa8 <bcm2835_gpio_set_eds>
   1253c:	0000c960 	andeq	ip, r0, r0, ror #18
   12540:	000001c4 	andeq	r0, r0, r4, asr #3

00012544 <Write_Bytes_GPIO>:
   12544:	e92d4070 	push	{r4, r5, r6, lr}
   12548:	e1a04000 	mov	r4, r0
   1254c:	e3a01000 	mov	r1, #0
   12550:	e3a00018 	mov	r0, #24
   12554:	ebfffac3 	bl	11068 <bcm2835_gpio_write>
   12558:	e1a01424 	lsr	r1, r4, #8
   1255c:	e2011001 	and	r1, r1, #1
   12560:	e3a00005 	mov	r0, #5
   12564:	ebfffabf 	bl	11068 <bcm2835_gpio_write>
   12568:	e1a014a4 	lsr	r1, r4, #9
   1256c:	e2011001 	and	r1, r1, #1
   12570:	e3a00006 	mov	r0, #6
   12574:	ebfffabb 	bl	11068 <bcm2835_gpio_write>
   12578:	e1a01524 	lsr	r1, r4, #10
   1257c:	e2011001 	and	r1, r1, #1
   12580:	e3a0000d 	mov	r0, #13
   12584:	ebfffab7 	bl	11068 <bcm2835_gpio_write>
   12588:	e1a015a4 	lsr	r1, r4, #11
   1258c:	e2011001 	and	r1, r1, #1
   12590:	e3a00013 	mov	r0, #19
   12594:	ebfffab3 	bl	11068 <bcm2835_gpio_write>
   12598:	e1a01624 	lsr	r1, r4, #12
   1259c:	e2011001 	and	r1, r1, #1
   125a0:	e3a0001a 	mov	r0, #26
   125a4:	ebfffaaf 	bl	11068 <bcm2835_gpio_write>
   125a8:	e1a016a4 	lsr	r1, r4, #13
   125ac:	e2011001 	and	r1, r1, #1
   125b0:	e3a00010 	mov	r0, #16
   125b4:	ebfffaab 	bl	11068 <bcm2835_gpio_write>
   125b8:	e1a01724 	lsr	r1, r4, #14
   125bc:	e2011001 	and	r1, r1, #1
   125c0:	e3a00014 	mov	r0, #20
   125c4:	ebfffaa7 	bl	11068 <bcm2835_gpio_write>
   125c8:	e1a017a4 	lsr	r1, r4, #15
   125cc:	e2011001 	and	r1, r1, #1
   125d0:	e3a00015 	mov	r0, #21
   125d4:	ebfffaa3 	bl	11068 <bcm2835_gpio_write>
   125d8:	e3a01001 	mov	r1, #1
   125dc:	e3a00018 	mov	r0, #24
   125e0:	ebfffaa0 	bl	11068 <bcm2835_gpio_write>
   125e4:	e3a0000f 	mov	r0, #15
   125e8:	ebfffa29 	bl	10e94 <Delayns>
   125ec:	e3a01000 	mov	r1, #0
   125f0:	e3a00018 	mov	r0, #24
   125f4:	e6ef5074 	uxtb	r5, r4
   125f8:	ebfffa9a 	bl	11068 <bcm2835_gpio_write>
   125fc:	e2041001 	and	r1, r4, #1
   12600:	e3a00005 	mov	r0, #5
   12604:	ebfffa97 	bl	11068 <bcm2835_gpio_write>
   12608:	e1a010a5 	lsr	r1, r5, #1
   1260c:	e2011001 	and	r1, r1, #1
   12610:	e3a00006 	mov	r0, #6
   12614:	ebfffa93 	bl	11068 <bcm2835_gpio_write>
   12618:	e1a01125 	lsr	r1, r5, #2
   1261c:	e2011001 	and	r1, r1, #1
   12620:	e3a0000d 	mov	r0, #13
   12624:	ebfffa8f 	bl	11068 <bcm2835_gpio_write>
   12628:	e1a011a5 	lsr	r1, r5, #3
   1262c:	e2011001 	and	r1, r1, #1
   12630:	e3a00013 	mov	r0, #19
   12634:	ebfffa8b 	bl	11068 <bcm2835_gpio_write>
   12638:	e1a01225 	lsr	r1, r5, #4
   1263c:	e2011001 	and	r1, r1, #1
   12640:	e3a0001a 	mov	r0, #26
   12644:	ebfffa87 	bl	11068 <bcm2835_gpio_write>
   12648:	e1a012a5 	lsr	r1, r5, #5
   1264c:	e2011001 	and	r1, r1, #1
   12650:	e3a00010 	mov	r0, #16
   12654:	ebfffa83 	bl	11068 <bcm2835_gpio_write>
   12658:	e1a01325 	lsr	r1, r5, #6
   1265c:	e2011001 	and	r1, r1, #1
   12660:	e3a00014 	mov	r0, #20
   12664:	ebfffa7f 	bl	11068 <bcm2835_gpio_write>
   12668:	e1a013a5 	lsr	r1, r5, #7
   1266c:	e3a00015 	mov	r0, #21
   12670:	e8bd4070 	pop	{r4, r5, r6, lr}
   12674:	eafffa7b 	b	11068 <bcm2835_gpio_write>

00012678 <Write_Command>:
   12678:	e92d4010 	push	{r4, lr}
   1267c:	e1a04000 	mov	r4, r0
   12680:	e3a01001 	mov	r1, #1
   12684:	e3a00011 	mov	r0, #17
   12688:	ebfffa76 	bl	11068 <bcm2835_gpio_write>
   1268c:	e3a01000 	mov	r1, #0
   12690:	e3a00016 	mov	r0, #22
   12694:	ebfffa73 	bl	11068 <bcm2835_gpio_write>
   12698:	e1a00004 	mov	r0, r4
   1269c:	ebffffa8 	bl	12544 <Write_Bytes_GPIO>
   126a0:	e3a01000 	mov	r1, #0
   126a4:	e3a0001b 	mov	r0, #27
   126a8:	ebfffa6e 	bl	11068 <bcm2835_gpio_write>
   126ac:	e3a00023 	mov	r0, #35	; 0x23
   126b0:	ebfff9f7 	bl	10e94 <Delayns>
   126b4:	e8bd4010 	pop	{r4, lr}
   126b8:	e3a01001 	mov	r1, #1
   126bc:	e3a0001b 	mov	r0, #27
   126c0:	eafffa68 	b	11068 <bcm2835_gpio_write>

000126c4 <Write_Data>:
   126c4:	e92d4010 	push	{r4, lr}
   126c8:	e59f2084 	ldr	r2, [pc, #132]	; 12754 <Write_Data+0x90>
   126cc:	e59f3084 	ldr	r3, [pc, #132]	; 12758 <Write_Data+0x94>
   126d0:	e08f2002 	add	r2, pc, r2
   126d4:	e7923003 	ldr	r3, [r2, r3]
   126d8:	e1a04000 	mov	r4, r0
   126dc:	e5933000 	ldr	r3, [r3]
   126e0:	e3530d05 	cmp	r3, #320	; 0x140
   126e4:	2a000009 	bcs	12710 <Write_Data+0x4c>
   126e8:	e59f106c 	ldr	r1, [pc, #108]	; 1275c <Write_Data+0x98>
   126ec:	e7921001 	ldr	r1, [r2, r1]
   126f0:	e5911000 	ldr	r1, [r1]
   126f4:	e35100ef 	cmp	r1, #239	; 0xef
   126f8:	8a000004 	bhi	12710 <Write_Data+0x4c>
   126fc:	e59f005c 	ldr	r0, [pc, #92]	; 12760 <Write_Data+0x9c>
   12700:	e0633203 	rsb	r3, r3, r3, lsl #4
   12704:	e7922000 	ldr	r2, [r2, r0]
   12708:	e0813203 	add	r3, r1, r3, lsl #4
   1270c:	e7824103 	str	r4, [r2, r3, lsl #2]
   12710:	e3a01001 	mov	r1, #1
   12714:	e3a00011 	mov	r0, #17
   12718:	ebfffa52 	bl	11068 <bcm2835_gpio_write>
   1271c:	e3a01001 	mov	r1, #1
   12720:	e3a00016 	mov	r0, #22
   12724:	ebfffa4f 	bl	11068 <bcm2835_gpio_write>
   12728:	e1a00004 	mov	r0, r4
   1272c:	ebffff84 	bl	12544 <Write_Bytes_GPIO>
   12730:	e3a01000 	mov	r1, #0
   12734:	e3a0001b 	mov	r0, #27
   12738:	ebfffa4a 	bl	11068 <bcm2835_gpio_write>
   1273c:	e3a0000f 	mov	r0, #15
   12740:	ebfff9d3 	bl	10e94 <Delayns>
   12744:	e8bd4010 	pop	{r4, lr}
   12748:	e3a01001 	mov	r1, #1
   1274c:	e3a0001b 	mov	r0, #27
   12750:	eafffa44 	b	11068 <bcm2835_gpio_write>
   12754:	0000c7a8 	andeq	ip, r0, r8, lsr #15
   12758:	00000088 	andeq	r0, r0, r8, lsl #1
   1275c:	0000017c 	andeq	r0, r0, ip, ror r1
   12760:	00000098 	muleq	r0, r8, r0

00012764 <Read_Data>:
   12764:	e3a00000 	mov	r0, #0
   12768:	e12fff1e 	bx	lr

0001276c <Write_Command_Data>:
   1276c:	e92d4010 	push	{r4, lr}
   12770:	e1a04001 	mov	r4, r1
   12774:	ebffffbf 	bl	12678 <Write_Command>
   12778:	e3a0ed05 	mov	lr, #320	; 0x140
   1277c:	e3a0c0f0 	mov	ip, #240	; 0xf0
   12780:	e59f3024 	ldr	r3, [pc, #36]	; 127ac <Write_Command_Data+0x40>
   12784:	e59f2024 	ldr	r2, [pc, #36]	; 127b0 <Write_Command_Data+0x44>
   12788:	e08f3003 	add	r3, pc, r3
   1278c:	e7931002 	ldr	r1, [r3, r2]
   12790:	e59f201c 	ldr	r2, [pc, #28]	; 127b4 <Write_Command_Data+0x48>
   12794:	e581e000 	str	lr, [r1]
   12798:	e7933002 	ldr	r3, [r3, r2]
   1279c:	e1a00004 	mov	r0, r4
   127a0:	e8bd4010 	pop	{r4, lr}
   127a4:	e583c000 	str	ip, [r3]
   127a8:	eaffffc5 	b	126c4 <Write_Data>
   127ac:	0000c6f0 	strdeq	ip, [r0], -r0
   127b0:	00000088 	andeq	r0, r0, r8, lsl #1
   127b4:	0000017c 	andeq	r0, r0, ip, ror r1

000127b8 <TFT_Set_Address>:
   127b8:	e92d4070 	push	{r4, r5, r6, lr}
   127bc:	e1a05000 	mov	r5, r0
   127c0:	e59f006c 	ldr	r0, [pc, #108]	; 12834 <TFT_Set_Address+0x7c>
   127c4:	e1a04001 	mov	r4, r1
   127c8:	e08f0000 	add	r0, pc, r0
   127cc:	e0851402 	add	r1, r5, r2, lsl #8
   127d0:	e1a02000 	mov	r2, r0
   127d4:	e1a06003 	mov	r6, r3
   127d8:	e59fc058 	ldr	ip, [pc, #88]	; 12838 <TFT_Set_Address+0x80>
   127dc:	e790c00c 	ldr	ip, [r0, ip]
   127e0:	e59f0054 	ldr	r0, [pc, #84]	; 1283c <TFT_Set_Address+0x84>
   127e4:	e58c4000 	str	r4, [ip]
   127e8:	e792c000 	ldr	ip, [r2, r0]
   127ec:	e3a00044 	mov	r0, #68	; 0x44
   127f0:	e58c5000 	str	r5, [ip]
   127f4:	ebffffdc 	bl	1276c <Write_Command_Data>
   127f8:	e1a01004 	mov	r1, r4
   127fc:	e3a00045 	mov	r0, #69	; 0x45
   12800:	ebffffd9 	bl	1276c <Write_Command_Data>
   12804:	e1a01006 	mov	r1, r6
   12808:	e3a00046 	mov	r0, #70	; 0x46
   1280c:	ebffffd6 	bl	1276c <Write_Command_Data>
   12810:	e1a01005 	mov	r1, r5
   12814:	e3a0004e 	mov	r0, #78	; 0x4e
   12818:	ebffffd3 	bl	1276c <Write_Command_Data>
   1281c:	e1a01004 	mov	r1, r4
   12820:	e3a0004f 	mov	r0, #79	; 0x4f
   12824:	ebffffd0 	bl	1276c <Write_Command_Data>
   12828:	e8bd4070 	pop	{r4, r5, r6, lr}
   1282c:	e3a00022 	mov	r0, #34	; 0x22
   12830:	eaffff90 	b	12678 <Write_Command>
   12834:	0000c6b0 			; <UNDEFINED> instruction: 0x0000c6b0
   12838:	00000088 	andeq	r0, r0, r8, lsl #1
   1283c:	0000017c 	andeq	r0, r0, ip, ror r1

00012840 <TFT_EN_INT>:
   12840:	e59f2010 	ldr	r2, [pc, #16]	; 12858 <TFT_EN_INT+0x18>
   12844:	e59f1010 	ldr	r1, [pc, #16]	; 1285c <TFT_EN_INT+0x1c>
   12848:	e08f2002 	add	r2, pc, r2
   1284c:	e08f1001 	add	r1, pc, r1
   12850:	e3a00031 	mov	r0, #49	; 0x31
   12854:	eaffd78e 	b	8694 <register_irq_handler>
   12858:	fffffcb4 			; <UNDEFINED> instruction: 0xfffffcb4
   1285c:	0000296c 	andeq	r2, r0, ip, ror #18

00012860 <Set_Color>:
   12860:	e20000f8 	and	r0, r0, #248	; 0xf8
   12864:	e18012a1 	orr	r1, r0, r1, lsr #5
   12868:	e1a021a2 	lsr	r2, r2, #3
   1286c:	e6ef1071 	uxtb	r1, r1
   12870:	e2020cff 	and	r0, r2, #65280	; 0xff00
   12874:	e1800001 	orr	r0, r0, r1
   12878:	e12fff1e 	bx	lr

0001287c <TFT_Fill>:
   1287c:	e92d47f0 	push	{r4, r5, r6, r7, r8, r9, sl, lr}
   12880:	e3a01000 	mov	r1, #0
   12884:	e1a07000 	mov	r7, r0
   12888:	e3a00012 	mov	r0, #18
   1288c:	ebfff9f5 	bl	11068 <bcm2835_gpio_write>
   12890:	e3a01000 	mov	r1, #0
   12894:	e3a09000 	mov	r9, #0
   12898:	e59f409c 	ldr	r4, [pc, #156]	; 1293c <TFT_Fill+0xc0>
   1289c:	e59f209c 	ldr	r2, [pc, #156]	; 12940 <TFT_Fill+0xc4>
   128a0:	e59f309c 	ldr	r3, [pc, #156]	; 12944 <TFT_Fill+0xc8>
   128a4:	e08f4004 	add	r4, pc, r4
   128a8:	e794a003 	ldr	sl, [r4, r3]
   128ac:	e7946002 	ldr	r6, [r4, r2]
   128b0:	e1a00001 	mov	r0, r1
   128b4:	e5962000 	ldr	r2, [r6]
   128b8:	e59a3000 	ldr	r3, [sl]
   128bc:	ebffffbd 	bl	127b8 <TFT_Set_Address>
   128c0:	e1a00007 	mov	r0, r7
   128c4:	ebffff7e 	bl	126c4 <Write_Data>
   128c8:	e59f3078 	ldr	r3, [pc, #120]	; 12948 <TFT_Fill+0xcc>
   128cc:	e59a2000 	ldr	r2, [sl]
   128d0:	e7948003 	ldr	r8, [r4, r3]
   128d4:	e2488004 	sub	r8, r8, #4
   128d8:	e1a05008 	mov	r5, r8
   128dc:	e3a04000 	mov	r4, #0
   128e0:	e5963000 	ldr	r3, [r6]
   128e4:	e3a01000 	mov	r1, #0
   128e8:	e3a0001b 	mov	r0, #27
   128ec:	e5a57004 	str	r7, [r5, #4]!
   128f0:	ebfff9dc 	bl	11068 <bcm2835_gpio_write>
   128f4:	e3a0000f 	mov	r0, #15
   128f8:	ebfff965 	bl	10e94 <Delayns>
   128fc:	e3a01001 	mov	r1, #1
   12900:	e3a0001b 	mov	r0, #27
   12904:	ebfff9d7 	bl	11068 <bcm2835_gpio_write>
   12908:	e5963000 	ldr	r3, [r6]
   1290c:	e2844001 	add	r4, r4, #1
   12910:	e1530004 	cmp	r3, r4
   12914:	2afffff2 	bcs	128e4 <TFT_Fill+0x68>
   12918:	e59a3000 	ldr	r3, [sl]
   1291c:	e2899001 	add	r9, r9, #1
   12920:	e1530009 	cmp	r3, r9
   12924:	e2888d0f 	add	r8, r8, #960	; 0x3c0
   12928:	2affffea 	bcs	128d8 <TFT_Fill+0x5c>
   1292c:	e8bd47f0 	pop	{r4, r5, r6, r7, r8, r9, sl, lr}
   12930:	e3a01001 	mov	r1, #1
   12934:	e3a00012 	mov	r0, #18
   12938:	eafff9ca 	b	11068 <bcm2835_gpio_write>
   1293c:	0000c5d4 	ldrdeq	ip, [r0], -r4
   12940:	000001e0 	andeq	r0, r0, r0, ror #3
   12944:	000000fc 	strdeq	r0, [r0], -ip
   12948:	00000098 	muleq	r0, r8, r0

0001294c <TFT_Box>:
   1294c:	e92d4ff8 	push	{r3, r4, r5, r6, r7, r8, r9, sl, fp, lr}
   12950:	e1a09001 	mov	r9, r1
   12954:	e1a0b003 	mov	fp, r3
   12958:	e1a0a000 	mov	sl, r0
   1295c:	e1a06002 	mov	r6, r2
   12960:	e3a01000 	mov	r1, #0
   12964:	e3a00012 	mov	r0, #18
   12968:	e59d7028 	ldr	r7, [sp, #40]	; 0x28
   1296c:	ebfff9bd 	bl	11068 <bcm2835_gpio_write>
   12970:	e1a02006 	mov	r2, r6
   12974:	e1a0300b 	mov	r3, fp
   12978:	e1a01009 	mov	r1, r9
   1297c:	e1a0000a 	mov	r0, sl
   12980:	ebffff8c 	bl	127b8 <TFT_Set_Address>
   12984:	e1a00007 	mov	r0, r7
   12988:	ebffff4d 	bl	126c4 <Write_Data>
   1298c:	e59f2084 	ldr	r2, [pc, #132]	; 12a18 <TFT_Box+0xcc>
   12990:	e159000b 	cmp	r9, fp
   12994:	e08f2002 	add	r2, pc, r2
   12998:	8a00001a 	bhi	12a08 <TFT_Box+0xbc>
   1299c:	e0698209 	rsb	r8, r9, r9, lsl #4
   129a0:	e59f3074 	ldr	r3, [pc, #116]	; 12a1c <TFT_Box+0xd0>
   129a4:	e08a8208 	add	r8, sl, r8, lsl #4
   129a8:	e1a08108 	lsl	r8, r8, #2
   129ac:	e7923003 	ldr	r3, [r2, r3]
   129b0:	e2488004 	sub	r8, r8, #4
   129b4:	e0888003 	add	r8, r8, r3
   129b8:	e15a0006 	cmp	sl, r6
   129bc:	91a05008 	movls	r5, r8
   129c0:	91a0400a 	movls	r4, sl
   129c4:	8a00000b 	bhi	129f8 <TFT_Box+0xac>
   129c8:	e3a01000 	mov	r1, #0
   129cc:	e3a0001b 	mov	r0, #27
   129d0:	e5a57004 	str	r7, [r5, #4]!
   129d4:	ebfff9a3 	bl	11068 <bcm2835_gpio_write>
   129d8:	e3a0000f 	mov	r0, #15
   129dc:	ebfff92c 	bl	10e94 <Delayns>
   129e0:	e2844001 	add	r4, r4, #1
   129e4:	e3a01001 	mov	r1, #1
   129e8:	e3a0001b 	mov	r0, #27
   129ec:	ebfff99d 	bl	11068 <bcm2835_gpio_write>
   129f0:	e1560004 	cmp	r6, r4
   129f4:	2afffff3 	bcs	129c8 <TFT_Box+0x7c>
   129f8:	e2899001 	add	r9, r9, #1
   129fc:	e15b0009 	cmp	fp, r9
   12a00:	e2888d0f 	add	r8, r8, #960	; 0x3c0
   12a04:	2affffeb 	bcs	129b8 <TFT_Box+0x6c>
   12a08:	e8bd4ff8 	pop	{r3, r4, r5, r6, r7, r8, r9, sl, fp, lr}
   12a0c:	e3a01001 	mov	r1, #1
   12a10:	e3a00012 	mov	r0, #18
   12a14:	eafff993 	b	11068 <bcm2835_gpio_write>
   12a18:	0000c4e4 	andeq	ip, r0, r4, ror #9
   12a1c:	00000098 	muleq	r0, r8, r0

00012a20 <TFT_Dot>:
   12a20:	e92d4070 	push	{r4, r5, r6, lr}
   12a24:	e1a05000 	mov	r5, r0
   12a28:	e1a06001 	mov	r6, r1
   12a2c:	e1a04002 	mov	r4, r2
   12a30:	e3a00012 	mov	r0, #18
   12a34:	e3a01000 	mov	r1, #0
   12a38:	ebfff98a 	bl	11068 <bcm2835_gpio_write>
   12a3c:	e1a01006 	mov	r1, r6
   12a40:	e1a03006 	mov	r3, r6
   12a44:	e1a02005 	mov	r2, r5
   12a48:	e1a00005 	mov	r0, r5
   12a4c:	ebffff59 	bl	127b8 <TFT_Set_Address>
   12a50:	e1a00004 	mov	r0, r4
   12a54:	ebffff1a 	bl	126c4 <Write_Data>
   12a58:	e8bd4070 	pop	{r4, r5, r6, lr}
   12a5c:	e3a01001 	mov	r1, #1
   12a60:	e3a00012 	mov	r0, #18
   12a64:	eafff97f 	b	11068 <bcm2835_gpio_write>

00012a68 <TFT_H_Line>:
   12a68:	e1a0c002 	mov	ip, r2
   12a6c:	e52de004 	push	{lr}		; (str lr, [sp, #-4]!)
   12a70:	e24dd00c 	sub	sp, sp, #12
   12a74:	e58d3000 	str	r3, [sp]
   12a78:	e1a02001 	mov	r2, r1
   12a7c:	e28c3001 	add	r3, ip, #1
   12a80:	e1a0100c 	mov	r1, ip
   12a84:	ebffffb0 	bl	1294c <TFT_Box>
   12a88:	e28dd00c 	add	sp, sp, #12
   12a8c:	e49df004 	pop	{pc}		; (ldr pc, [sp], #4)

00012a90 <TFT_V_Line>:
   12a90:	e1a0c002 	mov	ip, r2
   12a94:	e52de004 	push	{lr}		; (str lr, [sp, #-4]!)
   12a98:	e24dd00c 	sub	sp, sp, #12
   12a9c:	e58d3000 	str	r3, [sp]
   12aa0:	e2822001 	add	r2, r2, #1
   12aa4:	e1a03001 	mov	r3, r1
   12aa8:	e1a01000 	mov	r1, r0
   12aac:	e1a0000c 	mov	r0, ip
   12ab0:	ebffffa5 	bl	1294c <TFT_Box>
   12ab4:	e28dd00c 	add	sp, sp, #12
   12ab8:	e49df004 	pop	{pc}		; (ldr pc, [sp], #4)

00012abc <TFT_Rectangle>:
   12abc:	e92d41f0 	push	{r4, r5, r6, r7, r8, lr}
   12ac0:	e1a06003 	mov	r6, r3
   12ac4:	e1a05001 	mov	r5, r1
   12ac8:	e59d4018 	ldr	r4, [sp, #24]
   12acc:	e6ef7072 	uxtb	r7, r2
   12ad0:	e6ef8070 	uxtb	r8, r0
   12ad4:	e1a02001 	mov	r2, r1
   12ad8:	e1a00008 	mov	r0, r8
   12adc:	e1a01007 	mov	r1, r7
   12ae0:	e1a03004 	mov	r3, r4
   12ae4:	ebffffdf 	bl	12a68 <TFT_H_Line>
   12ae8:	e1a03004 	mov	r3, r4
   12aec:	e1a02006 	mov	r2, r6
   12af0:	e1a01007 	mov	r1, r7
   12af4:	e1a00008 	mov	r0, r8
   12af8:	ebffffda 	bl	12a68 <TFT_H_Line>
   12afc:	e1a03004 	mov	r3, r4
   12b00:	e1a02008 	mov	r2, r8
   12b04:	e1a01006 	mov	r1, r6
   12b08:	e1a00005 	mov	r0, r5
   12b0c:	ebffffdf 	bl	12a90 <TFT_V_Line>
   12b10:	e1a03004 	mov	r3, r4
   12b14:	e1a02007 	mov	r2, r7
   12b18:	e1a01006 	mov	r1, r6
   12b1c:	e1a00005 	mov	r0, r5
   12b20:	e8bd41f0 	pop	{r4, r5, r6, r7, r8, lr}
   12b24:	eaffffd9 	b	12a90 <TFT_V_Line>

00012b28 <TFT_Circle>:
   12b28:	e92d4ff0 	push	{r4, r5, r6, r7, r8, r9, sl, fp, lr}
   12b2c:	e2628001 	rsb	r8, r2, #1
   12b30:	e24dd024 	sub	sp, sp, #36	; 0x24
   12b34:	e1a05002 	mov	r5, r2
   12b38:	e58d0018 	str	r0, [sp, #24]
   12b3c:	e1a0b001 	mov	fp, r1
   12b40:	e58d301c 	str	r3, [sp, #28]
   12b44:	e3a0a000 	mov	sl, #0
   12b48:	e59d9048 	ldr	r9, [sp, #72]	; 0x48
   12b4c:	e1a07008 	mov	r7, r8
   12b50:	ea00002d 	b	12c0c <TFT_Circle+0xe4>
   12b54:	e1a01003 	mov	r1, r3
   12b58:	e1a02009 	mov	r2, r9
   12b5c:	e59d0008 	ldr	r0, [sp, #8]
   12b60:	e58d3014 	str	r3, [sp, #20]
   12b64:	ebffffad 	bl	12a20 <TFT_Dot>
   12b68:	e1a01004 	mov	r1, r4
   12b6c:	e1a02009 	mov	r2, r9
   12b70:	e59d0010 	ldr	r0, [sp, #16]
   12b74:	ebffffa9 	bl	12a20 <TFT_Dot>
   12b78:	e59d3014 	ldr	r3, [sp, #20]
   12b7c:	e1a02009 	mov	r2, r9
   12b80:	e1a01003 	mov	r1, r3
   12b84:	e1a00006 	mov	r0, r6
   12b88:	ebffffa4 	bl	12a20 <TFT_Dot>
   12b8c:	e1a01004 	mov	r1, r4
   12b90:	e1a02009 	mov	r2, r9
   12b94:	e59d000c 	ldr	r0, [sp, #12]
   12b98:	ebffffa0 	bl	12a20 <TFT_Dot>
   12b9c:	e04b4005 	sub	r4, fp, r5
   12ba0:	e1a02009 	mov	r2, r9
   12ba4:	e1a01008 	mov	r1, r8
   12ba8:	e59d0010 	ldr	r0, [sp, #16]
   12bac:	ebffff9b 	bl	12a20 <TFT_Dot>
   12bb0:	e1a02009 	mov	r2, r9
   12bb4:	e1a01004 	mov	r1, r4
   12bb8:	e59d0008 	ldr	r0, [sp, #8]
   12bbc:	ebffff97 	bl	12a20 <TFT_Dot>
   12bc0:	e1a02009 	mov	r2, r9
   12bc4:	e1a01004 	mov	r1, r4
   12bc8:	e1a00006 	mov	r0, r6
   12bcc:	ebffff93 	bl	12a20 <TFT_Dot>
   12bd0:	e1a02009 	mov	r2, r9
   12bd4:	e1a01008 	mov	r1, r8
   12bd8:	e59d000c 	ldr	r0, [sp, #12]
   12bdc:	ebffff8f 	bl	12a20 <TFT_Dot>
   12be0:	e3570000 	cmp	r7, #0
   12be4:	e28a3001 	add	r3, sl, #1
   12be8:	b2872003 	addlt	r2, r7, #3
   12bec:	a04aa005 	subge	sl, sl, r5
   12bf0:	a2872005 	addge	r2, r7, #5
   12bf4:	a2455001 	subge	r5, r5, #1
   12bf8:	b082708a 	addlt	r7, r2, sl, lsl #1
   12bfc:	a082708a 	addge	r7, r2, sl, lsl #1
   12c00:	e1550003 	cmp	r5, r3
   12c04:	e1a0a003 	mov	sl, r3
   12c08:	ba00001a 	blt	12c78 <TFT_Circle+0x150>
   12c0c:	e59d2018 	ldr	r2, [sp, #24]
   12c10:	e59d301c 	ldr	r3, [sp, #28]
   12c14:	e042600a 	sub	r6, r2, sl
   12c18:	e1a0408a 	lsl	r4, sl, #1
   12c1c:	e0421005 	sub	r1, r2, r5
   12c20:	e3530001 	cmp	r3, #1
   12c24:	e04b800a 	sub	r8, fp, sl
   12c28:	e0843006 	add	r3, r4, r6
   12c2c:	e0822005 	add	r2, r2, r5
   12c30:	e58d3008 	str	r3, [sp, #8]
   12c34:	e0884004 	add	r4, r8, r4
   12c38:	e08b3005 	add	r3, fp, r5
   12c3c:	e58d100c 	str	r1, [sp, #12]
   12c40:	e58d2010 	str	r2, [sp, #16]
   12c44:	1affffc2 	bne	12b54 <TFT_Circle+0x2c>
   12c48:	e59d2008 	ldr	r2, [sp, #8]
   12c4c:	e04b1005 	sub	r1, fp, r5
   12c50:	e1a00006 	mov	r0, r6
   12c54:	e58d9000 	str	r9, [sp]
   12c58:	ebffff3b 	bl	1294c <TFT_Box>
   12c5c:	e58d9000 	str	r9, [sp]
   12c60:	e1a03004 	mov	r3, r4
   12c64:	e59d2010 	ldr	r2, [sp, #16]
   12c68:	e1a01008 	mov	r1, r8
   12c6c:	e59d000c 	ldr	r0, [sp, #12]
   12c70:	ebffff35 	bl	1294c <TFT_Box>
   12c74:	eaffffd9 	b	12be0 <TFT_Circle+0xb8>
   12c78:	e28dd024 	add	sp, sp, #36	; 0x24
   12c7c:	e8bd8ff0 	pop	{r4, r5, r6, r7, r8, r9, sl, fp, pc}

00012c80 <TFT_Char>:
   12c80:	e92d4ff0 	push	{r4, r5, r6, r7, r8, r9, sl, fp, lr}
   12c84:	e24dd054 	sub	sp, sp, #84	; 0x54
   12c88:	e58d2008 	str	r2, [sp, #8]
   12c8c:	e59f51cc 	ldr	r5, [pc, #460]	; 12e60 <TFT_Char+0x1e0>
   12c90:	e59d2078 	ldr	r2, [sp, #120]	; 0x78
   12c94:	e3530008 	cmp	r3, #8
   12c98:	e08f5005 	add	r5, pc, r5
   12c9c:	e1a04001 	mov	r4, r1
   12ca0:	e58d2004 	str	r2, [sp, #4]
   12ca4:	e59d907c 	ldr	r9, [sp, #124]	; 0x7c
   12ca8:	0a000039 	beq	12d94 <TFT_Char+0x114>
   12cac:	e3530010 	cmp	r3, #16
   12cb0:	0a000001 	beq	12cbc <TFT_Char+0x3c>
   12cb4:	e28dd054 	add	sp, sp, #84	; 0x54
   12cb8:	e8bd8ff0 	pop	{r4, r5, r6, r7, r8, r9, sl, fp, pc}
   12cbc:	e28d700c 	add	r7, sp, #12
   12cc0:	e1a01007 	mov	r1, r7
   12cc4:	e59f3198 	ldr	r3, [pc, #408]	; 12e64 <TFT_Char+0x1e4>
   12cc8:	e2800302 	add	r0, r0, #134217728	; 0x8000000
   12ccc:	e795c003 	ldr	ip, [r5, r3]
   12cd0:	e2400020 	sub	r0, r0, #32
   12cd4:	e08cc280 	add	ip, ip, r0, lsl #5
   12cd8:	e28c3002 	add	r3, ip, #2
   12cdc:	e28cc022 	add	ip, ip, #34	; 0x22
   12ce0:	e5530002 	ldrb	r0, [r3, #-2]
   12ce4:	e5532001 	ldrb	r2, [r3, #-1]
   12ce8:	e2833002 	add	r3, r3, #2
   12cec:	e0822400 	add	r2, r2, r0, lsl #8
   12cf0:	e15c0003 	cmp	ip, r3
   12cf4:	e5a12004 	str	r2, [r1, #4]!
   12cf8:	1afffff8 	bne	12ce0 <TFT_Char+0x60>
   12cfc:	e3a01000 	mov	r1, #0
   12d00:	e3a00012 	mov	r0, #18
   12d04:	ebfff8d7 	bl	11068 <bcm2835_gpio_write>
   12d08:	e59d8008 	ldr	r8, [sp, #8]
   12d0c:	e284200f 	add	r2, r4, #15
   12d10:	e288300f 	add	r3, r8, #15
   12d14:	e1a01008 	mov	r1, r8
   12d18:	e1a00004 	mov	r0, r4
   12d1c:	ebfffea5 	bl	127b8 <TFT_Set_Address>
   12d20:	e59f3140 	ldr	r3, [pc, #320]	; 12e68 <TFT_Char+0x1e8>
   12d24:	e59f2140 	ldr	r2, [pc, #320]	; 12e6c <TFT_Char+0x1ec>
   12d28:	e2888010 	add	r8, r8, #16
   12d2c:	e7956002 	ldr	r6, [r5, r2]
   12d30:	e7955003 	ldr	r5, [r5, r3]
   12d34:	e28d304c 	add	r3, sp, #76	; 0x4c
   12d38:	e58d300c 	str	r3, [sp, #12]
   12d3c:	e5b7a004 	ldr	sl, [r7, #4]!
   12d40:	e59db008 	ldr	fp, [sp, #8]
   12d44:	e31a0902 	tst	sl, #32768	; 0x8000
   12d48:	159d0004 	ldrne	r0, [sp, #4]
   12d4c:	01a00009 	moveq	r0, r9
   12d50:	e585b000 	str	fp, [r5]
   12d54:	e28bb001 	add	fp, fp, #1
   12d58:	e5864000 	str	r4, [r6]
   12d5c:	e1a0a08a 	lsl	sl, sl, #1
   12d60:	ebfffe57 	bl	126c4 <Write_Data>
   12d64:	e158000b 	cmp	r8, fp
   12d68:	e587a000 	str	sl, [r7]
   12d6c:	1afffff4 	bne	12d44 <TFT_Char+0xc4>
   12d70:	e59d300c 	ldr	r3, [sp, #12]
   12d74:	e2844001 	add	r4, r4, #1
   12d78:	e1530007 	cmp	r3, r7
   12d7c:	1affffee 	bne	12d3c <TFT_Char+0xbc>
   12d80:	e3a01000 	mov	r1, #0
   12d84:	e3a00012 	mov	r0, #18
   12d88:	e28dd054 	add	sp, sp, #84	; 0x54
   12d8c:	e8bd4ff0 	pop	{r4, r5, r6, r7, r8, r9, sl, fp, lr}
   12d90:	eafff8b4 	b	11068 <bcm2835_gpio_write>
   12d94:	e28d700f 	add	r7, sp, #15
   12d98:	e1a02007 	mov	r2, r7
   12d9c:	e59f30cc 	ldr	r3, [pc, #204]	; 12e70 <TFT_Char+0x1f0>
   12da0:	e2800202 	add	r0, r0, #536870912	; 0x20000000
   12da4:	e7953003 	ldr	r3, [r5, r3]
   12da8:	e2400020 	sub	r0, r0, #32
   12dac:	e0833180 	add	r3, r3, r0, lsl #3
   12db0:	e2830008 	add	r0, r3, #8
   12db4:	e4d31001 	ldrb	r1, [r3], #1
   12db8:	e1530000 	cmp	r3, r0
   12dbc:	e5e21001 	strb	r1, [r2, #1]!
   12dc0:	1afffffb 	bne	12db4 <TFT_Char+0x134>
   12dc4:	e3a01000 	mov	r1, #0
   12dc8:	e3a00012 	mov	r0, #18
   12dcc:	ebfff8a5 	bl	11068 <bcm2835_gpio_write>
   12dd0:	e59d8008 	ldr	r8, [sp, #8]
   12dd4:	e2842007 	add	r2, r4, #7
   12dd8:	e2883007 	add	r3, r8, #7
   12ddc:	e1a01008 	mov	r1, r8
   12de0:	e1a00004 	mov	r0, r4
   12de4:	ebfffe73 	bl	127b8 <TFT_Set_Address>
   12de8:	e59f3078 	ldr	r3, [pc, #120]	; 12e68 <TFT_Char+0x1e8>
   12dec:	e59f2078 	ldr	r2, [pc, #120]	; 12e6c <TFT_Char+0x1ec>
   12df0:	e2888008 	add	r8, r8, #8
   12df4:	e7956002 	ldr	r6, [r5, r2]
   12df8:	e7955003 	ldr	r5, [r5, r3]
   12dfc:	e28d3017 	add	r3, sp, #23
   12e00:	e58d300c 	str	r3, [sp, #12]
   12e04:	e5f7b001 	ldrb	fp, [r7, #1]!
   12e08:	e59da008 	ldr	sl, [sp, #8]
   12e0c:	e1b033ab 	lsrs	r3, fp, #7
   12e10:	159d0004 	ldrne	r0, [sp, #4]
   12e14:	01a00009 	moveq	r0, r9
   12e18:	e585a000 	str	sl, [r5]
   12e1c:	e5864000 	str	r4, [r6]
   12e20:	e28aa001 	add	sl, sl, #1
   12e24:	ebfffe26 	bl	126c4 <Write_Data>
   12e28:	e1a0308b 	lsl	r3, fp, #1
   12e2c:	e6efb073 	uxtb	fp, r3
   12e30:	e158000a 	cmp	r8, sl
   12e34:	e5c7b000 	strb	fp, [r7]
   12e38:	1afffff3 	bne	12e0c <TFT_Char+0x18c>
   12e3c:	e59d300c 	ldr	r3, [sp, #12]
   12e40:	e2844001 	add	r4, r4, #1
   12e44:	e1530007 	cmp	r3, r7
   12e48:	1affffed 	bne	12e04 <TFT_Char+0x184>
   12e4c:	e3a01001 	mov	r1, #1
   12e50:	e3a00012 	mov	r0, #18
   12e54:	e28dd054 	add	sp, sp, #84	; 0x54
   12e58:	e8bd4ff0 	pop	{r4, r5, r6, r7, r8, r9, sl, fp, lr}
   12e5c:	eafff881 	b	11068 <bcm2835_gpio_write>
   12e60:	0000c1e0 	andeq	ip, r0, r0, ror #3
   12e64:	00000034 	andeq	r0, r0, r4, lsr r0
   12e68:	00000088 	andeq	r0, r0, r8, lsl #1
   12e6c:	0000017c 	andeq	r0, r0, ip, ror r1
   12e70:	00000150 	andeq	r0, r0, r0, asr r1

00012e74 <TFT_Text>:
   12e74:	e92d47f0 	push	{r4, r5, r6, r7, r8, r9, sl, lr}
   12e78:	e1a05000 	mov	r5, r0
   12e7c:	e5d00000 	ldrb	r0, [r0]
   12e80:	e59fa064 	ldr	sl, [pc, #100]	; 12eec <TFT_Text+0x78>
   12e84:	e24dd008 	sub	sp, sp, #8
   12e88:	e3500000 	cmp	r0, #0
   12e8c:	e08fa00a 	add	sl, pc, sl
   12e90:	e1a07001 	mov	r7, r1
   12e94:	e1a04002 	mov	r4, r2
   12e98:	e59d8028 	ldr	r8, [sp, #40]	; 0x28
   12e9c:	e59d902c 	ldr	r9, [sp, #44]	; 0x2c
   12ea0:	0a000009 	beq	12ecc <TFT_Text+0x58>
   12ea4:	e1a06003 	mov	r6, r3
   12ea8:	e1a02004 	mov	r2, r4
   12eac:	e1cd80f0 	strd	r8, [sp]
   12eb0:	e1a03006 	mov	r3, r6
   12eb4:	e1a01007 	mov	r1, r7
   12eb8:	ebffff70 	bl	12c80 <TFT_Char>
   12ebc:	e5f50001 	ldrb	r0, [r5, #1]!
   12ec0:	e0844006 	add	r4, r4, r6
   12ec4:	e3500000 	cmp	r0, #0
   12ec8:	1afffff6 	bne	12ea8 <TFT_Text+0x34>
   12ecc:	e59f201c 	ldr	r2, [pc, #28]	; 12ef0 <TFT_Text+0x7c>
   12ed0:	e59f301c 	ldr	r3, [pc, #28]	; 12ef4 <TFT_Text+0x80>
   12ed4:	e79a2002 	ldr	r2, [sl, r2]
   12ed8:	e5827000 	str	r7, [r2]
   12edc:	e79a3003 	ldr	r3, [sl, r3]
   12ee0:	e5834000 	str	r4, [r3]
   12ee4:	e28dd008 	add	sp, sp, #8
   12ee8:	e8bd87f0 	pop	{r4, r5, r6, r7, r8, r9, sl, pc}
   12eec:	0000bfec 	andeq	fp, r0, ip, ror #31
   12ef0:	00000250 	andeq	r0, r0, r0, asr r2
   12ef4:	00000054 	andeq	r0, r0, r4, asr r0

00012ef8 <TFT_Image>:
   12ef8:	e92d4ff0 	push	{r4, r5, r6, r7, r8, r9, sl, fp, lr}
   12efc:	e1a09000 	mov	r9, r0
   12f00:	e1a06003 	mov	r6, r3
   12f04:	e0813002 	add	r3, r1, r2
   12f08:	e1a04001 	mov	r4, r1
   12f0c:	e1a07003 	mov	r7, r3
   12f10:	e24dd014 	sub	sp, sp, #20
   12f14:	e3a01000 	mov	r1, #0
   12f18:	e3a00012 	mov	r0, #18
   12f1c:	e0895006 	add	r5, r9, r6
   12f20:	e58d3004 	str	r3, [sp, #4]
   12f24:	e59d8038 	ldr	r8, [sp, #56]	; 0x38
   12f28:	ebfff84e 	bl	11068 <bcm2835_gpio_write>
   12f2c:	e2473001 	sub	r3, r7, #1
   12f30:	e2452001 	sub	r2, r5, #1
   12f34:	e1a01004 	mov	r1, r4
   12f38:	e1a00009 	mov	r0, r9
   12f3c:	ebfffe1d 	bl	127b8 <TFT_Set_Address>
   12f40:	e59f3080 	ldr	r3, [pc, #128]	; 12fc8 <TFT_Image+0xd0>
   12f44:	e1570004 	cmp	r7, r4
   12f48:	e08f3003 	add	r3, pc, r3
   12f4c:	e58d3008 	str	r3, [sp, #8]
   12f50:	9a000017 	bls	12fb4 <TFT_Image+0xbc>
   12f54:	e1a03106 	lsl	r3, r6, #2
   12f58:	e58d300c 	str	r3, [sp, #12]
   12f5c:	e1550009 	cmp	r5, r9
   12f60:	9a00000f 	bls	12fa4 <TFT_Image+0xac>
   12f64:	e1a0a009 	mov	sl, r9
   12f68:	e1a0b008 	mov	fp, r8
   12f6c:	e59d3008 	ldr	r3, [sp, #8]
   12f70:	e59f0054 	ldr	r0, [pc, #84]	; 12fcc <TFT_Image+0xd4>
   12f74:	e59f1054 	ldr	r1, [pc, #84]	; 12fd0 <TFT_Image+0xd8>
   12f78:	e7937000 	ldr	r7, [r3, r0]
   12f7c:	e7936001 	ldr	r6, [r3, r1]
   12f80:	e586a000 	str	sl, [r6]
   12f84:	e5874000 	str	r4, [r7]
   12f88:	e49b0004 	ldr	r0, [fp], #4
   12f8c:	e28aa001 	add	sl, sl, #1
   12f90:	ebfffdcb 	bl	126c4 <Write_Data>
   12f94:	e155000a 	cmp	r5, sl
   12f98:	1afffff8 	bne	12f80 <TFT_Image+0x88>
   12f9c:	e59d300c 	ldr	r3, [sp, #12]
   12fa0:	e0888003 	add	r8, r8, r3
   12fa4:	e59d3004 	ldr	r3, [sp, #4]
   12fa8:	e2844001 	add	r4, r4, #1
   12fac:	e1530004 	cmp	r3, r4
   12fb0:	1affffe9 	bne	12f5c <TFT_Image+0x64>
   12fb4:	e3a01001 	mov	r1, #1
   12fb8:	e3a00012 	mov	r0, #18
   12fbc:	e28dd014 	add	sp, sp, #20
   12fc0:	e8bd4ff0 	pop	{r4, r5, r6, r7, r8, r9, sl, fp, lr}
   12fc4:	eafff827 	b	11068 <bcm2835_gpio_write>
   12fc8:	0000bf30 	andeq	fp, r0, r0, lsr pc
   12fcc:	00000088 	andeq	r0, r0, r8, lsl #1
   12fd0:	0000017c 	andeq	r0, r0, ip, ror r1

00012fd4 <TFT_Init>:
   12fd4:	e92d47f0 	push	{r4, r5, r6, r7, r8, r9, sl, lr}
   12fd8:	e3a01001 	mov	r1, #1
   12fdc:	e24dd008 	sub	sp, sp, #8
   12fe0:	e3a00016 	mov	r0, #22
   12fe4:	ebfff8bc 	bl	112dc <bcm2835_gpio_fsel>
   12fe8:	e3a01001 	mov	r1, #1
   12fec:	e3a00017 	mov	r0, #23
   12ff0:	ebfff8b9 	bl	112dc <bcm2835_gpio_fsel>
   12ff4:	e3a01001 	mov	r1, #1
   12ff8:	e3a00012 	mov	r0, #18
   12ffc:	ebfff8b6 	bl	112dc <bcm2835_gpio_fsel>
   13000:	e3a01001 	mov	r1, #1
   13004:	e3a00011 	mov	r0, #17
   13008:	ebfff8b3 	bl	112dc <bcm2835_gpio_fsel>
   1300c:	e3a01001 	mov	r1, #1
   13010:	e3a0001b 	mov	r0, #27
   13014:	ebfff8b0 	bl	112dc <bcm2835_gpio_fsel>
   13018:	e3a01001 	mov	r1, #1
   1301c:	e3a00005 	mov	r0, #5
   13020:	ebfff8ad 	bl	112dc <bcm2835_gpio_fsel>
   13024:	e3a01001 	mov	r1, #1
   13028:	e3a00006 	mov	r0, #6
   1302c:	ebfff8aa 	bl	112dc <bcm2835_gpio_fsel>
   13030:	e3a01001 	mov	r1, #1
   13034:	e3a0000d 	mov	r0, #13
   13038:	ebfff8a7 	bl	112dc <bcm2835_gpio_fsel>
   1303c:	e3a01001 	mov	r1, #1
   13040:	e3a00013 	mov	r0, #19
   13044:	ebfff8a4 	bl	112dc <bcm2835_gpio_fsel>
   13048:	e3a01001 	mov	r1, #1
   1304c:	e3a0001a 	mov	r0, #26
   13050:	ebfff8a1 	bl	112dc <bcm2835_gpio_fsel>
   13054:	e3a01001 	mov	r1, #1
   13058:	e3a00010 	mov	r0, #16
   1305c:	ebfff89e 	bl	112dc <bcm2835_gpio_fsel>
   13060:	e3a01001 	mov	r1, #1
   13064:	e3a00014 	mov	r0, #20
   13068:	ebfff89b 	bl	112dc <bcm2835_gpio_fsel>
   1306c:	e3a01001 	mov	r1, #1
   13070:	e3a00015 	mov	r0, #21
   13074:	ebfff898 	bl	112dc <bcm2835_gpio_fsel>
   13078:	e3a01001 	mov	r1, #1
   1307c:	e3a00018 	mov	r0, #24
   13080:	ebfff895 	bl	112dc <bcm2835_gpio_fsel>
   13084:	e3a01000 	mov	r1, #0
   13088:	e3a0000c 	mov	r0, #12
   1308c:	ebfff892 	bl	112dc <bcm2835_gpio_fsel>
   13090:	e3a0000c 	mov	r0, #12
   13094:	ebfff870 	bl	1125c <bcm2835_gpio_fen>
   13098:	e3a01001 	mov	r1, #1
   1309c:	e3a00016 	mov	r0, #22
   130a0:	ebfff7f0 	bl	11068 <bcm2835_gpio_write>
   130a4:	e3a01001 	mov	r1, #1
   130a8:	e3a00012 	mov	r0, #18
   130ac:	ebfff7ed 	bl	11068 <bcm2835_gpio_write>
   130b0:	e3a01001 	mov	r1, #1
   130b4:	e3a00011 	mov	r0, #17
   130b8:	ebfff7ea 	bl	11068 <bcm2835_gpio_write>
   130bc:	e3a01001 	mov	r1, #1
   130c0:	e3a0001b 	mov	r0, #27
   130c4:	ebfff7e7 	bl	11068 <bcm2835_gpio_write>
   130c8:	e3a01000 	mov	r1, #0
   130cc:	e3a00018 	mov	r0, #24
   130d0:	ebfff7e4 	bl	11068 <bcm2835_gpio_write>
   130d4:	e3a01001 	mov	r1, #1
   130d8:	e3a00017 	mov	r0, #23
   130dc:	ebfff7e1 	bl	11068 <bcm2835_gpio_write>
   130e0:	e3a00005 	mov	r0, #5
   130e4:	ebfff763 	bl	10e78 <Delayms>
   130e8:	e3a01000 	mov	r1, #0
   130ec:	e3a00017 	mov	r0, #23
   130f0:	ebfff7dc 	bl	11068 <bcm2835_gpio_write>
   130f4:	e3a0000f 	mov	r0, #15
   130f8:	ebfff75e 	bl	10e78 <Delayms>
   130fc:	e3a01001 	mov	r1, #1
   13100:	e3a00017 	mov	r0, #23
   13104:	ebfff7d7 	bl	11068 <bcm2835_gpio_write>
   13108:	e3a0000f 	mov	r0, #15
   1310c:	ebfff759 	bl	10e78 <Delayms>
   13110:	e3a01000 	mov	r1, #0
   13114:	e3a00012 	mov	r0, #18
   13118:	ebfff7d2 	bl	11068 <bcm2835_gpio_write>
   1311c:	e3a01001 	mov	r1, #1
   13120:	e3a00000 	mov	r0, #0
   13124:	ebfffd90 	bl	1276c <Write_Command_Data>
   13128:	e59f1430 	ldr	r1, [pc, #1072]	; 13560 <TFT_Init+0x58c>
   1312c:	e3a00003 	mov	r0, #3
   13130:	ebfffd8d 	bl	1276c <Write_Command_Data>
   13134:	e3a01000 	mov	r1, #0
   13138:	e3a0000c 	mov	r0, #12
   1313c:	ebfffd8a 	bl	1276c <Write_Command_Data>
   13140:	e59f141c 	ldr	r1, [pc, #1052]	; 13564 <TFT_Init+0x590>
   13144:	e3a0000d 	mov	r0, #13
   13148:	ebfffd87 	bl	1276c <Write_Command_Data>
   1314c:	e3a01c2b 	mov	r1, #11008	; 0x2b00
   13150:	e3a0000e 	mov	r0, #14
   13154:	ebfffd84 	bl	1276c <Write_Command_Data>
   13158:	e3a010b7 	mov	r1, #183	; 0xb7
   1315c:	e3a0001e 	mov	r0, #30
   13160:	ebfffd81 	bl	1276c <Write_Command_Data>
   13164:	e59f13fc 	ldr	r1, [pc, #1020]	; 13568 <TFT_Init+0x594>
   13168:	e3a00001 	mov	r0, #1
   1316c:	ebfffd7e 	bl	1276c <Write_Command_Data>
   13170:	e3a01c06 	mov	r1, #1536	; 0x600
   13174:	e3a00002 	mov	r0, #2
   13178:	ebfffd7b 	bl	1276c <Write_Command_Data>
   1317c:	e3a01000 	mov	r1, #0
   13180:	e3a00010 	mov	r0, #16
   13184:	ebfffd78 	bl	1276c <Write_Command_Data>
   13188:	e59f13dc 	ldr	r1, [pc, #988]	; 1356c <TFT_Init+0x598>
   1318c:	e3a00011 	mov	r0, #17
   13190:	ebfffd75 	bl	1276c <Write_Command_Data>
   13194:	e3a01000 	mov	r1, #0
   13198:	e3a00005 	mov	r0, #5
   1319c:	ebfffd72 	bl	1276c <Write_Command_Data>
   131a0:	e3a01000 	mov	r1, #0
   131a4:	e3a00006 	mov	r0, #6
   131a8:	ebfffd6f 	bl	1276c <Write_Command_Data>
   131ac:	e59f13bc 	ldr	r1, [pc, #956]	; 13570 <TFT_Init+0x59c>
   131b0:	e3a00016 	mov	r0, #22
   131b4:	ebfffd6c 	bl	1276c <Write_Command_Data>
   131b8:	e3a01003 	mov	r1, #3
   131bc:	e3a00017 	mov	r0, #23
   131c0:	ebfffd69 	bl	1276c <Write_Command_Data>
   131c4:	e3a01033 	mov	r1, #51	; 0x33
   131c8:	e3a00007 	mov	r0, #7
   131cc:	ebfffd66 	bl	1276c <Write_Command_Data>
   131d0:	e3a01000 	mov	r1, #0
   131d4:	e3a0000b 	mov	r0, #11
   131d8:	ebfffd63 	bl	1276c <Write_Command_Data>
   131dc:	e3a01000 	mov	r1, #0
   131e0:	e3a0000f 	mov	r0, #15
   131e4:	ebfffd60 	bl	1276c <Write_Command_Data>
   131e8:	e3a01000 	mov	r1, #0
   131ec:	e3a00041 	mov	r0, #65	; 0x41
   131f0:	ebfffd5d 	bl	1276c <Write_Command_Data>
   131f4:	e3a01000 	mov	r1, #0
   131f8:	e3a00042 	mov	r0, #66	; 0x42
   131fc:	ebfffd5a 	bl	1276c <Write_Command_Data>
   13200:	e3a01000 	mov	r1, #0
   13204:	e3a00048 	mov	r0, #72	; 0x48
   13208:	ebfffd57 	bl	1276c <Write_Command_Data>
   1320c:	e59f1360 	ldr	r1, [pc, #864]	; 13574 <TFT_Init+0x5a0>
   13210:	e3a00049 	mov	r0, #73	; 0x49
   13214:	ebfffd54 	bl	1276c <Write_Command_Data>
   13218:	e3a01000 	mov	r1, #0
   1321c:	e3a0004a 	mov	r0, #74	; 0x4a
   13220:	ebfffd51 	bl	1276c <Write_Command_Data>
   13224:	e3a01000 	mov	r1, #0
   13228:	e3a0004b 	mov	r0, #75	; 0x4b
   1322c:	ebfffd4e 	bl	1276c <Write_Command_Data>
   13230:	e3a01cef 	mov	r1, #61184	; 0xef00
   13234:	e3a00044 	mov	r0, #68	; 0x44
   13238:	ebfffd4b 	bl	1276c <Write_Command_Data>
   1323c:	e3a01000 	mov	r1, #0
   13240:	e3a00045 	mov	r0, #69	; 0x45
   13244:	ebfffd48 	bl	1276c <Write_Command_Data>
   13248:	e59f1324 	ldr	r1, [pc, #804]	; 13574 <TFT_Init+0x5a0>
   1324c:	e3a00046 	mov	r0, #70	; 0x46
   13250:	ebfffd45 	bl	1276c <Write_Command_Data>
   13254:	e59f131c 	ldr	r1, [pc, #796]	; 13578 <TFT_Init+0x5a4>
   13258:	e3a00030 	mov	r0, #48	; 0x30
   1325c:	ebfffd42 	bl	1276c <Write_Command_Data>
   13260:	e3a01f81 	mov	r1, #516	; 0x204
   13264:	e3a00031 	mov	r0, #49	; 0x31
   13268:	ebfffd3f 	bl	1276c <Write_Command_Data>
   1326c:	e3a01f81 	mov	r1, #516	; 0x204
   13270:	e3a00032 	mov	r0, #50	; 0x32
   13274:	ebfffd3c 	bl	1276c <Write_Command_Data>
   13278:	e59f12fc 	ldr	r1, [pc, #764]	; 1357c <TFT_Init+0x5a8>
   1327c:	e3a00033 	mov	r0, #51	; 0x33
   13280:	ebfffd39 	bl	1276c <Write_Command_Data>
   13284:	e59f12f4 	ldr	r1, [pc, #756]	; 13580 <TFT_Init+0x5ac>
   13288:	e3a00034 	mov	r0, #52	; 0x34
   1328c:	ebfffd36 	bl	1276c <Write_Command_Data>
   13290:	e3a01f81 	mov	r1, #516	; 0x204
   13294:	e3a00035 	mov	r0, #53	; 0x35
   13298:	ebfffd33 	bl	1276c <Write_Command_Data>
   1329c:	e3a01f81 	mov	r1, #516	; 0x204
   132a0:	e3a00036 	mov	r0, #54	; 0x36
   132a4:	ebfffd30 	bl	1276c <Write_Command_Data>
   132a8:	e59f12cc 	ldr	r1, [pc, #716]	; 1357c <TFT_Init+0x5a8>
   132ac:	e3a00037 	mov	r0, #55	; 0x37
   132b0:	ebfffd2d 	bl	1276c <Write_Command_Data>
   132b4:	e59f12c8 	ldr	r1, [pc, #712]	; 13584 <TFT_Init+0x5b0>
   132b8:	e3a0003a 	mov	r0, #58	; 0x3a
   132bc:	ebfffd2a 	bl	1276c <Write_Command_Data>
   132c0:	e59f12bc 	ldr	r1, [pc, #700]	; 13584 <TFT_Init+0x5b0>
   132c4:	e3a0003b 	mov	r0, #59	; 0x3b
   132c8:	ebfffd27 	bl	1276c <Write_Command_Data>
   132cc:	e3a01000 	mov	r1, #0
   132d0:	e3a00023 	mov	r0, #35	; 0x23
   132d4:	ebfffd24 	bl	1276c <Write_Command_Data>
   132d8:	e3a01000 	mov	r1, #0
   132dc:	e3a00024 	mov	r0, #36	; 0x24
   132e0:	ebfffd21 	bl	1276c <Write_Command_Data>
   132e4:	e3a01902 	mov	r1, #32768	; 0x8000
   132e8:	e3a00025 	mov	r0, #37	; 0x25
   132ec:	ebfffd1e 	bl	1276c <Write_Command_Data>
   132f0:	e3a01000 	mov	r1, #0
   132f4:	e3a0004f 	mov	r0, #79	; 0x4f
   132f8:	ebfffd1b 	bl	1276c <Write_Command_Data>
   132fc:	e3a01000 	mov	r1, #0
   13300:	e3a0004e 	mov	r0, #78	; 0x4e
   13304:	ebfffd18 	bl	1276c <Write_Command_Data>
   13308:	e3a00022 	mov	r0, #34	; 0x22
   1330c:	ebfffcd9 	bl	12678 <Write_Command>
   13310:	e3a01001 	mov	r1, #1
   13314:	e3a00012 	mov	r0, #18
   13318:	ebfff752 	bl	11068 <bcm2835_gpio_write>
   1331c:	e3a00000 	mov	r0, #0
   13320:	ebfffd55 	bl	1287c <TFT_Fill>
   13324:	e3a0000a 	mov	r0, #10
   13328:	e3a01001 	mov	r1, #1
   1332c:	e59f5254 	ldr	r5, [pc, #596]	; 13588 <TFT_Init+0x5b4>
   13330:	e59f3254 	ldr	r3, [pc, #596]	; 1358c <TFT_Init+0x5b8>
   13334:	e08f5005 	add	r5, pc, r5
   13338:	e795a003 	ldr	sl, [r5, r3]
   1333c:	e59f224c 	ldr	r2, [pc, #588]	; 13590 <TFT_Init+0x5bc>
   13340:	e58a0000 	str	r0, [sl]
   13344:	e7958002 	ldr	r8, [r5, r2]
   13348:	e59f3244 	ldr	r3, [pc, #580]	; 13594 <TFT_Init+0x5c0>
   1334c:	e5982000 	ldr	r2, [r8]
   13350:	e7956003 	ldr	r6, [r5, r3]
   13354:	e59f323c 	ldr	r3, [pc, #572]	; 13598 <TFT_Init+0x5c4>
   13358:	e5862000 	str	r2, [r6]
   1335c:	e7954003 	ldr	r4, [r5, r3]
   13360:	e59f3234 	ldr	r3, [pc, #564]	; 1359c <TFT_Init+0x5c8>
   13364:	e5841000 	str	r1, [r4]
   13368:	e7957003 	ldr	r7, [r5, r3]
   1336c:	e3a03000 	mov	r3, #0
   13370:	e59f9228 	ldr	r9, [pc, #552]	; 135a0 <TFT_Init+0x5cc>
   13374:	e2833001 	add	r3, r3, #1
   13378:	e1530009 	cmp	r3, r9
   1337c:	e5873000 	str	r3, [r7]
   13380:	8a000015 	bhi	133dc <TFT_Init+0x408>
   13384:	e5941000 	ldr	r1, [r4]
   13388:	e7980103 	ldr	r0, [r8, r3, lsl #2]
   1338c:	e2812001 	add	r2, r1, #1
   13390:	e3520d05 	cmp	r2, #320	; 0x140
   13394:	e7860101 	str	r0, [r6, r1, lsl #2]
   13398:	e5842000 	str	r2, [r4]
   1339c:	1afffff4 	bne	13374 <TFT_Init+0x3a0>
   133a0:	e59a0000 	ldr	r0, [sl]
   133a4:	e3a03008 	mov	r3, #8
   133a8:	e3a02028 	mov	r2, #40	; 0x28
   133ac:	e3a01000 	mov	r1, #0
   133b0:	e58d6000 	str	r6, [sp]
   133b4:	ebfffecf 	bl	12ef8 <TFT_Image>
   133b8:	e3a01012 	mov	r1, #18
   133bc:	e3a02000 	mov	r2, #0
   133c0:	e5973000 	ldr	r3, [r7]
   133c4:	e58a1000 	str	r1, [sl]
   133c8:	e2833001 	add	r3, r3, #1
   133cc:	e1530009 	cmp	r3, r9
   133d0:	e5842000 	str	r2, [r4]
   133d4:	e5873000 	str	r3, [r7]
   133d8:	9affffe9 	bls	13384 <TFT_Init+0x3b0>
   133dc:	e3a04000 	mov	r4, #0
   133e0:	e59f71bc 	ldr	r7, [pc, #444]	; 135a4 <TFT_Init+0x5d0>
   133e4:	e59f81bc 	ldr	r8, [pc, #444]	; 135a8 <TFT_Init+0x5d4>
   133e8:	e08f7007 	add	r7, pc, r7
   133ec:	e1a01004 	mov	r1, r4
   133f0:	e58d6000 	str	r6, [sp]
   133f4:	e3a03005 	mov	r3, #5
   133f8:	e3a02028 	mov	r2, #40	; 0x28
   133fc:	e3a0001a 	mov	r0, #26
   13400:	ebfffebc 	bl	12ef8 <TFT_Image>
   13404:	e1a01004 	mov	r1, r4
   13408:	e1a00007 	mov	r0, r7
   1340c:	e58d4004 	str	r4, [sp, #4]
   13410:	e58d8000 	str	r8, [sp]
   13414:	e3a03008 	mov	r3, #8
   13418:	e3a0202e 	mov	r2, #46	; 0x2e
   1341c:	ebfffe94 	bl	12e74 <TFT_Text>
   13420:	e2870014 	add	r0, r7, #20
   13424:	e58d4004 	str	r4, [sp, #4]
   13428:	e58d8000 	str	r8, [sp]
   1342c:	e3a03008 	mov	r3, #8
   13430:	e3a0202e 	mov	r2, #46	; 0x2e
   13434:	e3a0100a 	mov	r1, #10
   13438:	ebfffe8d 	bl	12e74 <TFT_Text>
   1343c:	e2870028 	add	r0, r7, #40	; 0x28
   13440:	e58d4004 	str	r4, [sp, #4]
   13444:	e58d8000 	str	r8, [sp]
   13448:	e3a03008 	mov	r3, #8
   1344c:	e3a0202e 	mov	r2, #46	; 0x2e
   13450:	e3a01014 	mov	r1, #20
   13454:	ebfffe86 	bl	12e74 <TFT_Text>
   13458:	e3a03b3e 	mov	r3, #63488	; 0xf800
   1345c:	e3a0202e 	mov	r2, #46	; 0x2e
   13460:	e2870044 	add	r0, r7, #68	; 0x44
   13464:	e58d3000 	str	r3, [sp]
   13468:	e58d4004 	str	r4, [sp, #4]
   1346c:	e3a03008 	mov	r3, #8
   13470:	e3a0101e 	mov	r1, #30
   13474:	ebfffe7e 	bl	12e74 <TFT_Text>
   13478:	e3a01000 	mov	r1, #0
   1347c:	e59f0128 	ldr	r0, [pc, #296]	; 135ac <TFT_Init+0x5d8>
   13480:	ebfff27d 	bl	fe7c <timer_wait>
   13484:	e1a00004 	mov	r0, r4
   13488:	ebfffcfb 	bl	1287c <TFT_Fill>
   1348c:	e59f311c 	ldr	r3, [pc, #284]	; 135b0 <TFT_Init+0x5dc>
   13490:	e59f211c 	ldr	r2, [pc, #284]	; 135b4 <TFT_Init+0x5e0>
   13494:	e7951003 	ldr	r1, [r5, r3]
   13498:	e59f3118 	ldr	r3, [pc, #280]	; 135b8 <TFT_Init+0x5e4>
   1349c:	e5c14000 	strb	r4, [r1]
   134a0:	e7951002 	ldr	r1, [r5, r2]
   134a4:	e59f2110 	ldr	r2, [pc, #272]	; 135bc <TFT_Init+0x5e8>
   134a8:	e5c14000 	strb	r4, [r1]
   134ac:	e7951003 	ldr	r1, [r5, r3]
   134b0:	e59f3108 	ldr	r3, [pc, #264]	; 135c0 <TFT_Init+0x5ec>
   134b4:	e5c14000 	strb	r4, [r1]
   134b8:	e7951002 	ldr	r1, [r5, r2]
   134bc:	e59f2100 	ldr	r2, [pc, #256]	; 135c4 <TFT_Init+0x5f0>
   134c0:	e5c14000 	strb	r4, [r1]
   134c4:	e7951003 	ldr	r1, [r5, r3]
   134c8:	e59f30f8 	ldr	r3, [pc, #248]	; 135c8 <TFT_Init+0x5f4>
   134cc:	e5814000 	str	r4, [r1]
   134d0:	e7951002 	ldr	r1, [r5, r2]
   134d4:	e59f20f0 	ldr	r2, [pc, #240]	; 135cc <TFT_Init+0x5f8>
   134d8:	e5814000 	str	r4, [r1]
   134dc:	e7951003 	ldr	r1, [r5, r3]
   134e0:	e59f30e8 	ldr	r3, [pc, #232]	; 135d0 <TFT_Init+0x5fc>
   134e4:	e5c14000 	strb	r4, [r1]
   134e8:	e7951002 	ldr	r1, [r5, r2]
   134ec:	e59f20e0 	ldr	r2, [pc, #224]	; 135d4 <TFT_Init+0x600>
   134f0:	e5814000 	str	r4, [r1]
   134f4:	e7951003 	ldr	r1, [r5, r3]
   134f8:	e59f30d8 	ldr	r3, [pc, #216]	; 135d8 <TFT_Init+0x604>
   134fc:	e5814000 	str	r4, [r1]
   13500:	e7951002 	ldr	r1, [r5, r2]
   13504:	e59f20d0 	ldr	r2, [pc, #208]	; 135dc <TFT_Init+0x608>
   13508:	e5814000 	str	r4, [r1]
   1350c:	e7951003 	ldr	r1, [r5, r3]
   13510:	e59f30c8 	ldr	r3, [pc, #200]	; 135e0 <TFT_Init+0x60c>
   13514:	e5814000 	str	r4, [r1]
   13518:	e7951002 	ldr	r1, [r5, r2]
   1351c:	e59f20c0 	ldr	r2, [pc, #192]	; 135e4 <TFT_Init+0x610>
   13520:	e5814000 	str	r4, [r1]
   13524:	e7951003 	ldr	r1, [r5, r3]
   13528:	e59f30b8 	ldr	r3, [pc, #184]	; 135e8 <TFT_Init+0x614>
   1352c:	e5c14000 	strb	r4, [r1]
   13530:	e7951002 	ldr	r1, [r5, r2]
   13534:	e59f20b0 	ldr	r2, [pc, #176]	; 135ec <TFT_Init+0x618>
   13538:	e5c14000 	strb	r4, [r1]
   1353c:	e7951003 	ldr	r1, [r5, r3]
   13540:	e59f30a8 	ldr	r3, [pc, #168]	; 135f0 <TFT_Init+0x61c>
   13544:	e5c14000 	strb	r4, [r1]
   13548:	e7952002 	ldr	r2, [r5, r2]
   1354c:	e5c24000 	strb	r4, [r2]
   13550:	e7953003 	ldr	r3, [r5, r3]
   13554:	e5834000 	str	r4, [r3]
   13558:	e28dd008 	add	sp, sp, #8
   1355c:	e8bd87f0 	pop	{r4, r5, r6, r7, r8, r9, sl, pc}
   13560:	0000a8a4 	andeq	sl, r0, r4, lsr #17
   13564:	0000080c 	andeq	r0, r0, ip, lsl #16
   13568:	0000293f 	andeq	r2, r0, pc, lsr r9
   1356c:	00006078 	andeq	r6, r0, r8, ror r0
   13570:	0000ef1c 	andeq	lr, r0, ip, lsl pc
   13574:	0000013f 	andeq	r0, r0, pc, lsr r1
   13578:	00000707 	andeq	r0, r0, r7, lsl #14
   1357c:	00000502 	andeq	r0, r0, r2, lsl #10
   13580:	00000507 	andeq	r0, r0, r7, lsl #10
   13584:	00000302 	andeq	r0, r0, r2, lsl #6
   13588:	0000bb44 	andeq	fp, r0, r4, asr #22
   1358c:	000001c0 	andeq	r0, r0, r0, asr #3
   13590:	000000ec 	andeq	r0, r0, ip, ror #1
   13594:	00000014 	andeq	r0, r0, r4, lsl r0
   13598:	00000144 	andeq	r0, r0, r4, asr #2
   1359c:	000001f4 	strdeq	r0, [r0], -r4
   135a0:	00000347 	andeq	r0, r0, r7, asr #6
   135a4:	00007e8c 	andeq	r7, r0, ip, lsl #29
   135a8:	0000ffff 	strdeq	pc, [r0], -pc	; <UNPREDICTABLE>
   135ac:	001e8480 	andseq	r8, lr, r0, lsl #9
   135b0:	00000208 	andeq	r0, r0, r8, lsl #4
   135b4:	00000174 	andeq	r0, r0, r4, ror r1
   135b8:	0000021c 	andeq	r0, r0, ip, lsl r2
   135bc:	00000240 	andeq	r0, r0, r0, asr #4
   135c0:	00000250 	andeq	r0, r0, r0, asr r2
   135c4:	00000054 	andeq	r0, r0, r4, asr r0
   135c8:	00000110 	andeq	r0, r0, r0, lsl r1
   135cc:	00000234 	andeq	r0, r0, r4, lsr r2
   135d0:	0000011c 	andeq	r0, r0, ip, lsl r1
   135d4:	000000a8 	andeq	r0, r0, r8, lsr #1
   135d8:	00000004 	andeq	r0, r0, r4
   135dc:	00000204 	andeq	r0, r0, r4, lsl #4
   135e0:	00000168 	andeq	r0, r0, r8, ror #2
   135e4:	000001e4 	andeq	r0, r0, r4, ror #3
   135e8:	00000114 	andeq	r0, r0, r4, lsl r1
   135ec:	000001d0 	ldrdeq	r0, [r0], -r0	; <UNPREDICTABLE>
   135f0:	00000124 	andeq	r0, r0, r4, lsr #2

000135f4 <TFT_InvertRect>:
   135f4:	e92d4ff0 	push	{r4, r5, r6, r7, r8, r9, sl, fp, lr}
   135f8:	e0916002 	adds	r6, r1, r2
   135fc:	23a02001 	movcs	r2, #1
   13600:	33a02000 	movcc	r2, #0
   13604:	e0903003 	adds	r3, r0, r3
   13608:	23a04001 	movcs	r4, #1
   1360c:	33a04000 	movcc	r4, #0
   13610:	e1a07000 	mov	r7, r0
   13614:	e24dd014 	sub	sp, sp, #20
   13618:	e58d1000 	str	r1, [sp]
   1361c:	e1a08001 	mov	r8, r1
   13620:	e3a00012 	mov	r0, #18
   13624:	e3a01000 	mov	r1, #0
   13628:	e59fa0fc 	ldr	sl, [pc, #252]	; 1372c <TFT_InvertRect+0x138>
   1362c:	e58d3008 	str	r3, [sp, #8]
   13630:	e58d2004 	str	r2, [sp, #4]
   13634:	ebfff68b 	bl	11068 <bcm2835_gpio_write>
   13638:	e59f30f0 	ldr	r3, [pc, #240]	; 13730 <TFT_InvertRect+0x13c>
   1363c:	e08fa00a 	add	sl, pc, sl
   13640:	e79a5003 	ldr	r5, [sl, r3]
   13644:	e3540000 	cmp	r4, #0
   13648:	e5857000 	str	r7, [r5]
   1364c:	1a00002c 	bne	13704 <TFT_InvertRect+0x110>
   13650:	e1a02007 	mov	r2, r7
   13654:	e0683208 	rsb	r3, r8, r8, lsl #4
   13658:	e1a03203 	lsl	r3, r3, #4
   1365c:	e58d300c 	str	r3, [sp, #12]
   13660:	e2869001 	add	r9, r6, #1
   13664:	e59d3004 	ldr	r3, [sp, #4]
   13668:	e3530000 	cmp	r3, #0
   1366c:	1a000029 	bne	13718 <TFT_InvertRect+0x124>
   13670:	e59f10bc 	ldr	r1, [pc, #188]	; 13734 <TFT_InvertRect+0x140>
   13674:	e59fc0bc 	ldr	ip, [pc, #188]	; 13738 <TFT_InvertRect+0x144>
   13678:	e79a0001 	ldr	r0, [sl, r1]
   1367c:	e59d100c 	ldr	r1, [sp, #12]
   13680:	e59d3000 	ldr	r3, [sp]
   13684:	e0821001 	add	r1, r2, r1
   13688:	e79a400c 	ldr	r4, [sl, ip]
   1368c:	e0801101 	add	r1, r0, r1, lsl #2
   13690:	e49103c0 	ldr	r0, [r1], #960	; 0x3c0
   13694:	e7840103 	str	r0, [r4, r3, lsl #2]
   13698:	e2833001 	add	r3, r3, #1
   1369c:	e1560003 	cmp	r6, r3
   136a0:	2afffffa 	bcs	13690 <TFT_InvertRect+0x9c>
   136a4:	e59db000 	ldr	fp, [sp]
   136a8:	e1a03006 	mov	r3, r6
   136ac:	e1a00002 	mov	r0, r2
   136b0:	e1a0100b 	mov	r1, fp
   136b4:	ebfffc3f 	bl	127b8 <TFT_Set_Address>
   136b8:	e59f207c 	ldr	r2, [pc, #124]	; 1373c <TFT_InvertRect+0x148>
   136bc:	e59f307c 	ldr	r3, [pc, #124]	; 13740 <TFT_InvertRect+0x14c>
   136c0:	e79a8002 	ldr	r8, [sl, r2]
   136c4:	e79a7003 	ldr	r7, [sl, r3]
   136c8:	e794010b 	ldr	r0, [r4, fp, lsl #2]
   136cc:	e5953000 	ldr	r3, [r5]
   136d0:	e588b000 	str	fp, [r8]
   136d4:	e1e00000 	mvn	r0, r0
   136d8:	e28bb001 	add	fp, fp, #1
   136dc:	e5873000 	str	r3, [r7]
   136e0:	ebfffbf7 	bl	126c4 <Write_Data>
   136e4:	e15b0009 	cmp	fp, r9
   136e8:	1afffff6 	bne	136c8 <TFT_InvertRect+0xd4>
   136ec:	e5952000 	ldr	r2, [r5]
   136f0:	e59d3008 	ldr	r3, [sp, #8]
   136f4:	e2822001 	add	r2, r2, #1
   136f8:	e1520003 	cmp	r2, r3
   136fc:	e5852000 	str	r2, [r5]
   13700:	9affffd7 	bls	13664 <TFT_InvertRect+0x70>
   13704:	e3a01001 	mov	r1, #1
   13708:	e3a00012 	mov	r0, #18
   1370c:	e28dd014 	add	sp, sp, #20
   13710:	e8bd4ff0 	pop	{r4, r5, r6, r7, r8, r9, sl, fp, lr}
   13714:	eafff653 	b	11068 <bcm2835_gpio_write>
   13718:	e1a03006 	mov	r3, r6
   1371c:	e1a00002 	mov	r0, r2
   13720:	e59d1000 	ldr	r1, [sp]
   13724:	ebfffc23 	bl	127b8 <TFT_Set_Address>
   13728:	eaffffef 	b	136ec <TFT_InvertRect+0xf8>
   1372c:	0000b83c 	andeq	fp, r0, ip, lsr r8
   13730:	000001f4 	strdeq	r0, [r0], -r4
   13734:	00000098 	muleq	r0, r8, r0
   13738:	00000014 	andeq	r0, r0, r4, lsl r0
   1373c:	00000088 	andeq	r0, r0, r8, lsl #1
   13740:	0000017c 	andeq	r0, r0, ip, ror r1

00013744 <TFT_Scroll>:
   13744:	e92d4ff0 	push	{r4, r5, r6, r7, r8, r9, sl, fp, lr}
   13748:	e1a0a000 	mov	sl, r0
   1374c:	e59fb104 	ldr	fp, [pc, #260]	; 13858 <TFT_Scroll+0x114>
   13750:	e59f2104 	ldr	r2, [pc, #260]	; 1385c <TFT_Scroll+0x118>
   13754:	e59f3104 	ldr	r3, [pc, #260]	; 13860 <TFT_Scroll+0x11c>
   13758:	e08fb00b 	add	fp, pc, fp
   1375c:	e79b3003 	ldr	r3, [fp, r3]
   13760:	e79b2002 	ldr	r2, [fp, r2]
   13764:	e24dd01c 	sub	sp, sp, #28
   13768:	e5926000 	ldr	r6, [r2]
   1376c:	e5934000 	ldr	r4, [r3]
   13770:	e3a00012 	mov	r0, #18
   13774:	e3a01000 	mov	r1, #0
   13778:	e58d600c 	str	r6, [sp, #12]
   1377c:	e58d4010 	str	r4, [sp, #16]
   13780:	ebfff638 	bl	11068 <bcm2835_gpio_write>
   13784:	e59f30d8 	ldr	r3, [pc, #216]	; 13864 <TFT_Scroll+0x120>
   13788:	e15a0004 	cmp	sl, r4
   1378c:	e79b5003 	ldr	r5, [fp, r3]
   13790:	83a00001 	movhi	r0, #1
   13794:	e585a000 	str	sl, [r5]
   13798:	8a000021 	bhi	13824 <TFT_Scroll+0xe0>
   1379c:	e1a0300a 	mov	r3, sl
   137a0:	e59f00c0 	ldr	r0, [pc, #192]	; 13868 <TFT_Scroll+0x124>
   137a4:	e59f10c0 	ldr	r1, [pc, #192]	; 1386c <TFT_Scroll+0x128>
   137a8:	e59f20c0 	ldr	r2, [pc, #192]	; 13870 <TFT_Scroll+0x12c>
   137ac:	e79b9000 	ldr	r9, [fp, r0]
   137b0:	e79b8001 	ldr	r8, [fp, r1]
   137b4:	e79b7002 	ldr	r7, [fp, r2]
   137b8:	e2866001 	add	r6, r6, #1
   137bc:	e58db014 	str	fp, [sp, #20]
   137c0:	e043400a 	sub	r4, r3, sl
   137c4:	e1a02004 	mov	r2, r4
   137c8:	e1a00004 	mov	r0, r4
   137cc:	e59d300c 	ldr	r3, [sp, #12]
   137d0:	e3a01000 	mov	r1, #0
   137d4:	ebfffbf7 	bl	127b8 <TFT_Set_Address>
   137d8:	e3a0b000 	mov	fp, #0
   137dc:	e5953000 	ldr	r3, [r5]
   137e0:	e06b220b 	rsb	r2, fp, fp, lsl #4
   137e4:	e0833202 	add	r3, r3, r2, lsl #4
   137e8:	e588b000 	str	fp, [r8]
   137ec:	e7990103 	ldr	r0, [r9, r3, lsl #2]
   137f0:	e28bb001 	add	fp, fp, #1
   137f4:	e5874000 	str	r4, [r7]
   137f8:	ebfffbb1 	bl	126c4 <Write_Data>
   137fc:	e15b0006 	cmp	fp, r6
   13800:	1afffff5 	bne	137dc <TFT_Scroll+0x98>
   13804:	e5953000 	ldr	r3, [r5]
   13808:	e59d2010 	ldr	r2, [sp, #16]
   1380c:	e2833001 	add	r3, r3, #1
   13810:	e1530002 	cmp	r3, r2
   13814:	e5853000 	str	r3, [r5]
   13818:	9affffe8 	bls	137c0 <TFT_Scroll+0x7c>
   1381c:	e59db014 	ldr	fp, [sp, #20]
   13820:	e2840001 	add	r0, r4, #1
   13824:	e59f2048 	ldr	r2, [pc, #72]	; 13874 <TFT_Scroll+0x130>
   13828:	e59d300c 	ldr	r3, [sp, #12]
   1382c:	e79b1002 	ldr	r1, [fp, r2]
   13830:	e59d2010 	ldr	r2, [sp, #16]
   13834:	e5911000 	ldr	r1, [r1]
   13838:	e58d1000 	str	r1, [sp]
   1383c:	e3a01000 	mov	r1, #0
   13840:	ebfffc41 	bl	1294c <TFT_Box>
   13844:	e3a01001 	mov	r1, #1
   13848:	e3a00012 	mov	r0, #18
   1384c:	e28dd01c 	add	sp, sp, #28
   13850:	e8bd4ff0 	pop	{r4, r5, r6, r7, r8, r9, sl, fp, lr}
   13854:	eafff603 	b	11068 <bcm2835_gpio_write>
   13858:	0000b720 	andeq	fp, r0, r0, lsr #14
   1385c:	000000fc 	strdeq	r0, [r0], -ip
   13860:	000001e0 	andeq	r0, r0, r0, ror #3
   13864:	000001f4 	strdeq	r0, [r0], -r4
   13868:	00000098 	muleq	r0, r8, r0
   1386c:	00000088 	andeq	r0, r0, r8, lsl #1
   13870:	0000017c 	andeq	r0, r0, ip, ror r1
   13874:	000001dc 	ldrdeq	r0, [r0], -ip

00013878 <TFT_SaveScreen>:
   13878:	e92d43f0 	push	{r4, r5, r6, r7, r8, r9, lr}
   1387c:	e59d501c 	ldr	r5, [sp, #28]
   13880:	e59f70a0 	ldr	r7, [pc, #160]	; 13928 <TFT_SaveScreen+0xb0>
   13884:	e0925005 	adds	r5, r2, r5
   13888:	23a0e001 	movcs	lr, #1
   1388c:	33a0e000 	movcc	lr, #0
   13890:	e59fc094 	ldr	ip, [pc, #148]	; 1392c <TFT_SaveScreen+0xb4>
   13894:	e08f7007 	add	r7, pc, r7
   13898:	e0913003 	adds	r3, r1, r3
   1389c:	e797800c 	ldr	r8, [r7, ip]
   138a0:	23a06001 	movcs	r6, #1
   138a4:	33a06000 	movcc	r6, #0
   138a8:	e35e0000 	cmp	lr, #0
   138ac:	e5882000 	str	r2, [r8]
   138b0:	18bd83f0 	popne	{r4, r5, r6, r7, r8, r9, pc}
   138b4:	e0800100 	add	r0, r0, r0, lsl #2
   138b8:	e0600200 	rsb	r0, r0, r0, lsl #4
   138bc:	e59fc06c 	ldr	ip, [pc, #108]	; 13930 <TFT_SaveScreen+0xb8>
   138c0:	e1a04600 	lsl	r4, r0, #12
   138c4:	e0619201 	rsb	r9, r1, r1, lsl #4
   138c8:	e0849309 	add	r9, r4, r9, lsl #6
   138cc:	e797000c 	ldr	r0, [r7, ip]
   138d0:	e0899102 	add	r9, r9, r2, lsl #2
   138d4:	e2644000 	rsb	r4, r4, #0
   138d8:	e0899000 	add	r9, r9, r0
   138dc:	e3560000 	cmp	r6, #0
   138e0:	11a00001 	movne	r0, r1
   138e4:	1a000006 	bne	13904 <TFT_SaveScreen+0x8c>
   138e8:	e1a0c009 	mov	ip, r9
   138ec:	e1a00001 	mov	r0, r1
   138f0:	e2800001 	add	r0, r0, #1
   138f4:	e79ce004 	ldr	lr, [ip, r4]
   138f8:	e1500003 	cmp	r0, r3
   138fc:	e48ce3c0 	str	lr, [ip], #960	; 0x3c0
   13900:	9afffffa 	bls	138f0 <TFT_SaveScreen+0x78>
   13904:	e2822001 	add	r2, r2, #1
   13908:	e1520005 	cmp	r2, r5
   1390c:	e2899004 	add	r9, r9, #4
   13910:	9afffff1 	bls	138dc <TFT_SaveScreen+0x64>
   13914:	e59f3018 	ldr	r3, [pc, #24]	; 13934 <TFT_SaveScreen+0xbc>
   13918:	e7973003 	ldr	r3, [r7, r3]
   1391c:	e5882000 	str	r2, [r8]
   13920:	e5830000 	str	r0, [r3]
   13924:	e8bd83f0 	pop	{r4, r5, r6, r7, r8, r9, pc}
   13928:	0000b5e4 	andeq	fp, r0, r4, ror #11
   1392c:	000001f4 	strdeq	r0, [r0], -r4
   13930:	00000098 	muleq	r0, r8, r0
   13934:	00000144 	andeq	r0, r0, r4, asr #2

00013938 <TFT_RestoreScreen>:
   13938:	e92d4ff0 	push	{r4, r5, r6, r7, r8, r9, sl, fp, lr}
   1393c:	e24dd01c 	sub	sp, sp, #28
   13940:	e1a0c001 	mov	ip, r1
   13944:	e58d1008 	str	r1, [sp, #8]
   13948:	e59d1040 	ldr	r1, [sp, #64]	; 0x40
   1394c:	e1a04000 	mov	r4, r0
   13950:	e0921001 	adds	r1, r2, r1
   13954:	e58d100c 	str	r1, [sp, #12]
   13958:	e3a01000 	mov	r1, #0
   1395c:	23a05001 	movcs	r5, #1
   13960:	33a05000 	movcc	r5, #0
   13964:	e09c7003 	adds	r7, ip, r3
   13968:	23a03001 	movcs	r3, #1
   1396c:	31a03001 	movcc	r3, r1
   13970:	e3a00012 	mov	r0, #18
   13974:	e59fb0ec 	ldr	fp, [pc, #236]	; 13a68 <TFT_RestoreScreen+0x130>
   13978:	e58d2010 	str	r2, [sp, #16]
   1397c:	e58d3004 	str	r3, [sp, #4]
   13980:	ebfff5b8 	bl	11068 <bcm2835_gpio_write>
   13984:	e59f30e0 	ldr	r3, [pc, #224]	; 13a6c <TFT_RestoreScreen+0x134>
   13988:	e08fb00b 	add	fp, pc, fp
   1398c:	e79b6003 	ldr	r6, [fp, r3]
   13990:	e59d2010 	ldr	r2, [sp, #16]
   13994:	e3550000 	cmp	r5, #0
   13998:	e5862000 	str	r2, [r6]
   1399c:	1a00002c 	bne	13a54 <TFT_RestoreScreen+0x11c>
   139a0:	e0841104 	add	r1, r4, r4, lsl #2
   139a4:	e59f30c4 	ldr	r3, [pc, #196]	; 13a70 <TFT_RestoreScreen+0x138>
   139a8:	e58d1010 	str	r1, [sp, #16]
   139ac:	e79b4003 	ldr	r4, [fp, r3]
   139b0:	e1a03201 	lsl	r3, r1, #4
   139b4:	e58d3014 	str	r3, [sp, #20]
   139b8:	e59d5008 	ldr	r5, [sp, #8]
   139bc:	e1a03007 	mov	r3, r7
   139c0:	e1a00002 	mov	r0, r2
   139c4:	e1a01005 	mov	r1, r5
   139c8:	ebfffb7a 	bl	127b8 <TFT_Set_Address>
   139cc:	e59d3004 	ldr	r3, [sp, #4]
   139d0:	e5845000 	str	r5, [r4]
   139d4:	e3530000 	cmp	r3, #0
   139d8:	e1a03005 	mov	r3, r5
   139dc:	1a000016 	bne	13a3c <TFT_RestoreScreen+0x104>
   139e0:	e59f108c 	ldr	r1, [pc, #140]	; 13a74 <TFT_RestoreScreen+0x13c>
   139e4:	e59f208c 	ldr	r2, [pc, #140]	; 13a78 <TFT_RestoreScreen+0x140>
   139e8:	e59f008c 	ldr	r0, [pc, #140]	; 13a7c <TFT_RestoreScreen+0x144>
   139ec:	e79b9001 	ldr	r9, [fp, r1]
   139f0:	e79b8002 	ldr	r8, [fp, r2]
   139f4:	e59d1010 	ldr	r1, [sp, #16]
   139f8:	e59d2014 	ldr	r2, [sp, #20]
   139fc:	e79ba000 	ldr	sl, [fp, r0]
   13a00:	e0425001 	sub	r5, r2, r1
   13a04:	e1a05505 	lsl	r5, r5, #10
   13a08:	e0632203 	rsb	r2, r3, r3, lsl #4
   13a0c:	e5961000 	ldr	r1, [r6]
   13a10:	e0852202 	add	r2, r5, r2, lsl #4
   13a14:	e0822001 	add	r2, r2, r1
   13a18:	e79a0102 	ldr	r0, [sl, r2, lsl #2]
   13a1c:	e5893000 	str	r3, [r9]
   13a20:	e5881000 	str	r1, [r8]
   13a24:	ebfffb26 	bl	126c4 <Write_Data>
   13a28:	e5943000 	ldr	r3, [r4]
   13a2c:	e2833001 	add	r3, r3, #1
   13a30:	e1530007 	cmp	r3, r7
   13a34:	e5843000 	str	r3, [r4]
   13a38:	9afffff2 	bls	13a08 <TFT_RestoreScreen+0xd0>
   13a3c:	e5962000 	ldr	r2, [r6]
   13a40:	e59d300c 	ldr	r3, [sp, #12]
   13a44:	e2822001 	add	r2, r2, #1
   13a48:	e1520003 	cmp	r2, r3
   13a4c:	e5862000 	str	r2, [r6]
   13a50:	9affffd8 	bls	139b8 <TFT_RestoreScreen+0x80>
   13a54:	e3a01001 	mov	r1, #1
   13a58:	e3a00012 	mov	r0, #18
   13a5c:	e28dd01c 	add	sp, sp, #28
   13a60:	e8bd4ff0 	pop	{r4, r5, r6, r7, r8, r9, sl, fp, lr}
   13a64:	eafff57f 	b	11068 <bcm2835_gpio_write>
   13a68:	0000b4f0 	strdeq	fp, [r0], -r0
   13a6c:	000001f4 	strdeq	r0, [r0], -r4
   13a70:	00000144 	andeq	r0, r0, r4, asr #2
   13a74:	00000088 	andeq	r0, r0, r8, lsl #1
   13a78:	0000017c 	andeq	r0, r0, ip, ror r1
   13a7c:	00000098 	muleq	r0, r8, r0

00013a80 <fabs>:
   13a80:	e3500000 	cmp	r0, #0
   13a84:	b2600000 	rsblt	r0, r0, #0
   13a88:	e12fff1e 	bx	lr

00013a8c <TFT_Line>:
   13a8c:	e92d4ff0 	push	{r4, r5, r6, r7, r8, r9, sl, fp, lr}
   13a90:	e1a04000 	mov	r4, r0
   13a94:	e24dd00c 	sub	sp, sp, #12
   13a98:	e0420000 	sub	r0, r2, r0
   13a9c:	e1a05001 	mov	r5, r1
   13aa0:	e1a06003 	mov	r6, r3
   13aa4:	e1a07002 	mov	r7, r2
   13aa8:	ebfffff4 	bl	13a80 <fabs>
   13aac:	e1a08000 	mov	r8, r0
   13ab0:	e0460005 	sub	r0, r6, r5
   13ab4:	ebfffff1 	bl	13a80 <fabs>
   13ab8:	e1570004 	cmp	r7, r4
   13abc:	23a09001 	movcs	r9, #1
   13ac0:	33e09000 	mvncc	r9, #0
   13ac4:	e1560005 	cmp	r6, r5
   13ac8:	23a0a001 	movcs	sl, #1
   13acc:	33e0a000 	mvncc	sl, #0
   13ad0:	e1580000 	cmp	r8, r0
   13ad4:	3a000015 	bcc	13b30 <TFT_Line+0xa4>
   13ad8:	e1a03080 	lsl	r3, r0, #1
   13adc:	e298b001 	adds	fp, r8, #1
   13ae0:	e58d3004 	str	r3, [sp, #4]
   13ae4:	e0436008 	sub	r6, r3, r8
   13ae8:	0a00000e 	beq	13b28 <TFT_Line+0x9c>
   13aec:	e3a07001 	mov	r7, #1
   13af0:	e0468008 	sub	r8, r6, r8
   13af4:	e1a01005 	mov	r1, r5
   13af8:	e1a00004 	mov	r0, r4
   13afc:	e59d2030 	ldr	r2, [sp, #48]	; 0x30
   13b00:	ebfffbc6 	bl	12a20 <TFT_Dot>
   13b04:	e3560000 	cmp	r6, #0
   13b08:	b59d3004 	ldrlt	r3, [sp, #4]
   13b0c:	e2877001 	add	r7, r7, #1
   13b10:	b0836006 	addlt	r6, r3, r6
   13b14:	a0866008 	addge	r6, r6, r8
   13b18:	a085500a 	addge	r5, r5, sl
   13b1c:	e157000b 	cmp	r7, fp
   13b20:	e0844009 	add	r4, r4, r9
   13b24:	9afffff2 	bls	13af4 <TFT_Line+0x68>
   13b28:	e28dd00c 	add	sp, sp, #12
   13b2c:	e8bd8ff0 	pop	{r4, r5, r6, r7, r8, r9, sl, fp, pc}
   13b30:	e1a03088 	lsl	r3, r8, #1
   13b34:	e290b001 	adds	fp, r0, #1
   13b38:	e58d3004 	str	r3, [sp, #4]
   13b3c:	e0436000 	sub	r6, r3, r0
   13b40:	0afffff8 	beq	13b28 <TFT_Line+0x9c>
   13b44:	e3a08001 	mov	r8, #1
   13b48:	e0467000 	sub	r7, r6, r0
   13b4c:	e1a01005 	mov	r1, r5
   13b50:	e1a00004 	mov	r0, r4
   13b54:	e59d2030 	ldr	r2, [sp, #48]	; 0x30
   13b58:	ebfffbb0 	bl	12a20 <TFT_Dot>
   13b5c:	e3560000 	cmp	r6, #0
   13b60:	b59d3004 	ldrlt	r3, [sp, #4]
   13b64:	e2888001 	add	r8, r8, #1
   13b68:	b0836006 	addlt	r6, r3, r6
   13b6c:	a0876006 	addge	r6, r7, r6
   13b70:	a0844009 	addge	r4, r4, r9
   13b74:	e158000b 	cmp	r8, fp
   13b78:	e085500a 	add	r5, r5, sl
   13b7c:	9afffff2 	bls	13b4c <TFT_Line+0xc0>
   13b80:	e28dd00c 	add	sp, sp, #12
   13b84:	e8bd8ff0 	pop	{r4, r5, r6, r7, r8, r9, sl, fp, pc}

00013b88 <ReadKeyMatrix>:
   13b88:	e3a0c000 	mov	ip, #0
   13b8c:	e92d4030 	push	{r4, r5, lr}
   13b90:	e59f503c 	ldr	r5, [pc, #60]	; 13bd4 <ReadKeyMatrix+0x4c>
   13b94:	e59fe03c 	ldr	lr, [pc, #60]	; 13bd8 <ReadKeyMatrix+0x50>
   13b98:	e08f5005 	add	r5, pc, r5
   13b9c:	e59f4038 	ldr	r4, [pc, #56]	; 13bdc <ReadKeyMatrix+0x54>
   13ba0:	e795e00e 	ldr	lr, [r5, lr]
   13ba4:	e0811081 	add	r1, r1, r1, lsl #1
   13ba8:	e1a0300c 	mov	r3, ip
   13bac:	e7954004 	ldr	r4, [r5, r4]
   13bb0:	e08e1101 	add	r1, lr, r1, lsl #2
   13bb4:	e084e003 	add	lr, r4, r3
   13bb8:	e7dee000 	ldrb	lr, [lr, r0]
   13bbc:	e28cc001 	add	ip, ip, #1
   13bc0:	e7c1e003 	strb	lr, [r1, r3]
   13bc4:	e6ef307c 	uxtb	r3, ip
   13bc8:	e1520003 	cmp	r2, r3
   13bcc:	2afffff8 	bcs	13bb4 <ReadKeyMatrix+0x2c>
   13bd0:	e8bd8030 	pop	{r4, r5, pc}
   13bd4:	0000b2e0 	andeq	fp, r0, r0, ror #5
   13bd8:	000001ec 	andeq	r0, r0, ip, ror #3
   13bdc:	00000024 	andeq	r0, r0, r4, lsr #32

00013be0 <HideKeyboard>:
   13be0:	e92d4010 	push	{r4, lr}
   13be4:	e3a0e000 	mov	lr, #0
   13be8:	e3a04048 	mov	r4, #72	; 0x48
   13bec:	e59f3030 	ldr	r3, [pc, #48]	; 13c24 <HideKeyboard+0x44>
   13bf0:	e59fc030 	ldr	ip, [pc, #48]	; 13c28 <HideKeyboard+0x48>
   13bf4:	e08f3003 	add	r3, pc, r3
   13bf8:	e793c00c 	ldr	ip, [r3, ip]
   13bfc:	e24dd008 	sub	sp, sp, #8
   13c00:	e1a02001 	mov	r2, r1
   13c04:	e1a01000 	mov	r1, r0
   13c08:	e58d4000 	str	r4, [sp]
   13c0c:	e3a030dd 	mov	r3, #221	; 0xdd
   13c10:	e3a00001 	mov	r0, #1
   13c14:	e5cce000 	strb	lr, [ip]
   13c18:	ebffff46 	bl	13938 <TFT_RestoreScreen>
   13c1c:	e28dd008 	add	sp, sp, #8
   13c20:	e8bd8010 	pop	{r4, pc}
   13c24:	0000b284 	andeq	fp, r0, r4, lsl #5
   13c28:	000001e4 	andeq	r0, r0, r4, ror #3

00013c2c <ShowKeyboard>:
   13c2c:	e92d4ff0 	push	{r4, r5, r6, r7, r8, r9, sl, fp, lr}
   13c30:	e59f7594 	ldr	r7, [pc, #1428]	; 141cc <ShowKeyboard+0x5a0>
   13c34:	e59f3594 	ldr	r3, [pc, #1428]	; 141d0 <ShowKeyboard+0x5a4>
   13c38:	e08f7007 	add	r7, pc, r7
   13c3c:	e7974003 	ldr	r4, [r7, r3]
   13c40:	e24dd044 	sub	sp, sp, #68	; 0x44
   13c44:	e5d43000 	ldrb	r3, [r4]
   13c48:	e1a0a000 	mov	sl, r0
   13c4c:	e3530000 	cmp	r3, #0
   13c50:	e58d1008 	str	r1, [sp, #8]
   13c54:	e1a05002 	mov	r5, r2
   13c58:	0a0000b3 	beq	13f2c <ShowKeyboard+0x300>
   13c5c:	e59f3570 	ldr	r3, [pc, #1392]	; 141d4 <ShowKeyboard+0x5a8>
   13c60:	e7978003 	ldr	r8, [r7, r3]
   13c64:	e5d83000 	ldrb	r3, [r8]
   13c68:	e21330ff 	ands	r3, r3, #255	; 0xff
   13c6c:	0a0000a7 	beq	13f10 <ShowKeyboard+0x2e4>
   13c70:	e3530001 	cmp	r3, #1
   13c74:	0a00009a 	beq	13ee4 <ShowKeyboard+0x2b8>
   13c78:	e3a03000 	mov	r3, #0
   13c7c:	e58d301c 	str	r3, [sp, #28]
   13c80:	e58d3018 	str	r3, [sp, #24]
   13c84:	e58d3014 	str	r3, [sp, #20]
   13c88:	e58d3010 	str	r3, [sp, #16]
   13c8c:	e59f2544 	ldr	r2, [pc, #1348]	; 141d8 <ShowKeyboard+0x5ac>
   13c90:	e59f3544 	ldr	r3, [pc, #1348]	; 141dc <ShowKeyboard+0x5b0>
   13c94:	e7972002 	ldr	r2, [r7, r2]
   13c98:	e7974003 	ldr	r4, [r7, r3]
   13c9c:	e5d23000 	ldrb	r3, [r2]
   13ca0:	e5d41000 	ldrb	r1, [r4]
   13ca4:	e3530000 	cmp	r3, #0
   13ca8:	03a03070 	moveq	r3, #112	; 0x70
   13cac:	13a03050 	movne	r3, #80	; 0x50
   13cb0:	e58d3028 	str	r3, [sp, #40]	; 0x28
   13cb4:	03a03061 	moveq	r3, #97	; 0x61
   13cb8:	13a03041 	movne	r3, #65	; 0x41
   13cbc:	e58d3024 	str	r3, [sp, #36]	; 0x24
   13cc0:	03a03063 	moveq	r3, #99	; 0x63
   13cc4:	13a03043 	movne	r3, #67	; 0x43
   13cc8:	e21110ff 	ands	r1, r1, #255	; 0xff
   13ccc:	e58d3020 	str	r3, [sp, #32]
   13cd0:	0a00009f 	beq	13f54 <ShowKeyboard+0x328>
   13cd4:	e5d46000 	ldrb	r6, [r4]
   13cd8:	e6ef6076 	uxtb	r6, r6
   13cdc:	e3560001 	cmp	r6, #1
   13ce0:	0a00010f 	beq	14124 <ShowKeyboard+0x4f8>
   13ce4:	e5d46000 	ldrb	r6, [r4]
   13ce8:	e6ef6076 	uxtb	r6, r6
   13cec:	e3560002 	cmp	r6, #2
   13cf0:	0a00011d 	beq	1416c <ShowKeyboard+0x540>
   13cf4:	e3a00042 	mov	r0, #66	; 0x42
   13cf8:	e3a01043 	mov	r1, #67	; 0x43
   13cfc:	e3a03041 	mov	r3, #65	; 0x41
   13d00:	e1cd03f0 	strd	r0, [sp, #48]	; 0x30
   13d04:	e58d302c 	str	r3, [sp, #44]	; 0x2c
   13d08:	e59f34d0 	ldr	r3, [pc, #1232]	; 141e0 <ShowKeyboard+0x5b4>
   13d0c:	e7973003 	ldr	r3, [r7, r3]
   13d10:	e5d32000 	ldrb	r2, [r3]
   13d14:	e3520000 	cmp	r2, #0
   13d18:	0a000005 	beq	13d34 <ShowKeyboard+0x108>
   13d1c:	e5d32000 	ldrb	r2, [r3]
   13d20:	e3520000 	cmp	r2, #0
   13d24:	0a000075 	beq	13f00 <ShowKeyboard+0x2d4>
   13d28:	e5d42000 	ldrb	r2, [r4]
   13d2c:	e3520000 	cmp	r2, #0
   13d30:	0a000072 	beq	13f00 <ShowKeyboard+0x2d4>
   13d34:	e3550000 	cmp	r5, #0
   13d38:	1a000096 	bne	13f98 <ShowKeyboard+0x36c>
   13d3c:	e28a3007 	add	r3, sl, #7
   13d40:	e58d300c 	str	r3, [sp, #12]
   13d44:	e59d5008 	ldr	r5, [sp, #8]
   13d48:	e59f4494 	ldr	r4, [pc, #1172]	; 141e4 <ShowKeyboard+0x5b8>
   13d4c:	e2857036 	add	r7, r5, #54	; 0x36
   13d50:	e2858046 	add	r8, r5, #70	; 0x46
   13d54:	e1a00007 	mov	r0, r7
   13d58:	e1a02008 	mov	r2, r8
   13d5c:	e28a30ba 	add	r3, sl, #186	; 0xba
   13d60:	e28a1028 	add	r1, sl, #40	; 0x28
   13d64:	e58d4000 	str	r4, [sp]
   13d68:	ebfffaf7 	bl	1294c <TFT_Box>
   13d6c:	e28ae00b 	add	lr, sl, #11
   13d70:	e1a00005 	mov	r0, r5
   13d74:	e1a0900e 	mov	r9, lr
   13d78:	e3a06000 	mov	r6, #0
   13d7c:	e28ab025 	add	fp, sl, #37	; 0x25
   13d80:	e2855028 	add	r5, r5, #40	; 0x28
   13d84:	e1a0300b 	mov	r3, fp
   13d88:	e2802034 	add	r2, r0, #52	; 0x34
   13d8c:	e59d100c 	ldr	r1, [sp, #12]
   13d90:	e58d0008 	str	r0, [sp, #8]
   13d94:	e58d4000 	str	r4, [sp]
   13d98:	e2800024 	add	r0, r0, #36	; 0x24
   13d9c:	ebfffaea 	bl	1294c <TFT_Box>
   13da0:	e59d0020 	ldr	r0, [sp, #32]
   13da4:	e1a01005 	mov	r1, r5
   13da8:	e58d9020 	str	r9, [sp, #32]
   13dac:	e1a02009 	mov	r2, r9
   13db0:	e58d4004 	str	r4, [sp, #4]
   13db4:	e28a9013 	add	r9, sl, #19
   13db8:	e58d6000 	str	r6, [sp]
   13dbc:	e3a03008 	mov	r3, #8
   13dc0:	ebfffbae 	bl	12c80 <TFT_Char>
   13dc4:	e59d0024 	ldr	r0, [sp, #36]	; 0x24
   13dc8:	e1a01005 	mov	r1, r5
   13dcc:	e1a02009 	mov	r2, r9
   13dd0:	e58d4004 	str	r4, [sp, #4]
   13dd4:	e58d6000 	str	r6, [sp]
   13dd8:	e3a03008 	mov	r3, #8
   13ddc:	ebfffba7 	bl	12c80 <TFT_Char>
   13de0:	e59dc008 	ldr	ip, [sp, #8]
   13de4:	e1a01005 	mov	r1, r5
   13de8:	e59d0028 	ldr	r0, [sp, #40]	; 0x28
   13dec:	e28a201b 	add	r2, sl, #27
   13df0:	e58d4004 	str	r4, [sp, #4]
   13df4:	e58d6000 	str	r6, [sp]
   13df8:	e3a03008 	mov	r3, #8
   13dfc:	e28c503a 	add	r5, ip, #58	; 0x3a
   13e00:	ebfffb9e 	bl	12c80 <TFT_Char>
   13e04:	e1a0300b 	mov	r3, fp
   13e08:	e59d100c 	ldr	r1, [sp, #12]
   13e0c:	e1a02008 	mov	r2, r8
   13e10:	e1a00007 	mov	r0, r7
   13e14:	e58d4000 	str	r4, [sp]
   13e18:	ebfffacb 	bl	1294c <TFT_Box>
   13e1c:	e59d2020 	ldr	r2, [sp, #32]
   13e20:	e59d002c 	ldr	r0, [sp, #44]	; 0x2c
   13e24:	e1a01005 	mov	r1, r5
   13e28:	e58d4004 	str	r4, [sp, #4]
   13e2c:	e58d6000 	str	r6, [sp]
   13e30:	e3a03008 	mov	r3, #8
   13e34:	ebfffb91 	bl	12c80 <TFT_Char>
   13e38:	e1a02009 	mov	r2, r9
   13e3c:	e59d0030 	ldr	r0, [sp, #48]	; 0x30
   13e40:	e1a01005 	mov	r1, r5
   13e44:	e58d4004 	str	r4, [sp, #4]
   13e48:	e58d6000 	str	r6, [sp]
   13e4c:	e3a03008 	mov	r3, #8
   13e50:	ebfffb8a 	bl	12c80 <TFT_Char>
   13e54:	e28a201b 	add	r2, sl, #27
   13e58:	e1a01005 	mov	r1, r5
   13e5c:	e59d0034 	ldr	r0, [sp, #52]	; 0x34
   13e60:	e58d4004 	str	r4, [sp, #4]
   13e64:	e58d6000 	str	r6, [sp]
   13e68:	e3a03008 	mov	r3, #8
   13e6c:	ebfffb83 	bl	12c80 <TFT_Char>
   13e70:	e1a02008 	mov	r2, r8
   13e74:	e1a00007 	mov	r0, r7
   13e78:	e28a30db 	add	r3, sl, #219	; 0xdb
   13e7c:	e28a10bd 	add	r1, sl, #189	; 0xbd
   13e80:	e58d4000 	str	r4, [sp]
   13e84:	ebfffab0 	bl	1294c <TFT_Box>
   13e88:	e59d0014 	ldr	r0, [sp, #20]
   13e8c:	e1a01007 	mov	r1, r7
   13e90:	e28a20c1 	add	r2, sl, #193	; 0xc1
   13e94:	e58d4004 	str	r4, [sp, #4]
   13e98:	e58d6000 	str	r6, [sp]
   13e9c:	e3a03008 	mov	r3, #8
   13ea0:	ebfffb76 	bl	12c80 <TFT_Char>
   13ea4:	e59d3010 	ldr	r3, [sp, #16]
   13ea8:	e59d0018 	ldr	r0, [sp, #24]
   13eac:	e1a01007 	mov	r1, r7
   13eb0:	e28a20c9 	add	r2, sl, #201	; 0xc9
   13eb4:	e58d4004 	str	r4, [sp, #4]
   13eb8:	e58d6000 	str	r6, [sp]
   13ebc:	ebfffb6f 	bl	12c80 <TFT_Char>
   13ec0:	e58d4004 	str	r4, [sp, #4]
   13ec4:	e58d6000 	str	r6, [sp]
   13ec8:	e1a01007 	mov	r1, r7
   13ecc:	e28a20d1 	add	r2, sl, #209	; 0xd1
   13ed0:	e59d001c 	ldr	r0, [sp, #28]
   13ed4:	e3a03008 	mov	r3, #8
   13ed8:	ebfffb68 	bl	12c80 <TFT_Char>
   13edc:	e28dd044 	add	sp, sp, #68	; 0x44
   13ee0:	e8bd8ff0 	pop	{r4, r5, r6, r7, r8, r9, sl, fp, pc}
   13ee4:	e3a03020 	mov	r3, #32
   13ee8:	e3a02083 	mov	r2, #131	; 0x83
   13eec:	e58d3014 	str	r3, [sp, #20]
   13ef0:	e1cd21f8 	strd	r2, [sp, #24]
   13ef4:	e3a03010 	mov	r3, #16
   13ef8:	e58d3010 	str	r3, [sp, #16]
   13efc:	eaffff62 	b	13c8c <ShowKeyboard+0x60>
   13f00:	e3a02000 	mov	r2, #0
   13f04:	e5c32000 	strb	r2, [r3]
   13f08:	e28dd044 	add	sp, sp, #68	; 0x44
   13f0c:	e8bd8ff0 	pop	{r4, r5, r6, r7, r8, r9, sl, fp, pc}
   13f10:	e3a0006e 	mov	r0, #110	; 0x6e
   13f14:	e3a01064 	mov	r1, #100	; 0x64
   13f18:	e1cd01f8 	strd	r0, [sp, #24]
   13f1c:	e3a00008 	mov	r0, #8
   13f20:	e3a01065 	mov	r1, #101	; 0x65
   13f24:	e1cd01f0 	strd	r0, [sp, #16]
   13f28:	eaffff57 	b	13c8c <ShowKeyboard+0x60>
   13f2c:	e3a02048 	mov	r2, #72	; 0x48
   13f30:	e3a030dd 	mov	r3, #221	; 0xdd
   13f34:	e58d2000 	str	r2, [sp]
   13f38:	e1a02001 	mov	r2, r1
   13f3c:	e1a01000 	mov	r1, r0
   13f40:	e3a00001 	mov	r0, #1
   13f44:	ebfffe4b 	bl	13878 <TFT_SaveScreen>
   13f48:	e3a03001 	mov	r3, #1
   13f4c:	e5c43000 	strb	r3, [r4]
   13f50:	eaffff41 	b	13c5c <ShowKeyboard+0x30>
   13f54:	e1a00001 	mov	r0, r1
   13f58:	e3a02009 	mov	r2, #9
   13f5c:	ebffff09 	bl	13b88 <ReadKeyMatrix>
   13f60:	e3a02009 	mov	r2, #9
   13f64:	e3a01001 	mov	r1, #1
   13f68:	e3a0000a 	mov	r0, #10
   13f6c:	ebffff05 	bl	13b88 <ReadKeyMatrix>
   13f70:	e3a01002 	mov	r1, #2
   13f74:	e3a00014 	mov	r0, #20
   13f78:	e3a02009 	mov	r2, #9
   13f7c:	ebffff01 	bl	13b88 <ReadKeyMatrix>
   13f80:	e3a00032 	mov	r0, #50	; 0x32
   13f84:	e3a01033 	mov	r1, #51	; 0x33
   13f88:	e3a03031 	mov	r3, #49	; 0x31
   13f8c:	e1cd03f0 	strd	r0, [sp, #48]	; 0x30
   13f90:	e58d302c 	str	r3, [sp, #44]	; 0x2c
   13f94:	eaffff5b 	b	13d08 <ShowKeyboard+0xdc>
   13f98:	e3a02000 	mov	r2, #0
   13f9c:	e59d0008 	ldr	r0, [sp, #8]
   13fa0:	e28a30dd 	add	r3, sl, #221	; 0xdd
   13fa4:	e58d2000 	str	r2, [sp]
   13fa8:	e1a0100a 	mov	r1, sl
   13fac:	e2802048 	add	r2, r0, #72	; 0x48
   13fb0:	ebfffa65 	bl	1294c <TFT_Box>
   13fb4:	e5d83000 	ldrb	r3, [r8]
   13fb8:	e3530000 	cmp	r3, #0
   13fbc:	1a00004f 	bne	14100 <ShowKeyboard+0x4d4>
   13fc0:	e59d2008 	ldr	r2, [sp, #8]
   13fc4:	e59f321c 	ldr	r3, [pc, #540]	; 141e8 <ShowKeyboard+0x5bc>
   13fc8:	e2822002 	add	r2, r2, #2
   13fcc:	e58d203c 	str	r2, [sp, #60]	; 0x3c
   13fd0:	e7978003 	ldr	r8, [r7, r3]
   13fd4:	e3a06000 	mov	r6, #0
   13fd8:	e1a03002 	mov	r3, r2
   13fdc:	e58da038 	str	sl, [sp, #56]	; 0x38
   13fe0:	e28a2007 	add	r2, sl, #7
   13fe4:	e1a0b006 	mov	fp, r6
   13fe8:	e1a0a003 	mov	sl, r3
   13fec:	e58d200c 	str	r2, [sp, #12]
   13ff0:	e0869086 	add	r9, r6, r6, lsl #1
   13ff4:	e1a09109 	lsl	r9, r9, #2
   13ff8:	e59d500c 	ldr	r5, [sp, #12]
   13ffc:	e3a04001 	mov	r4, #1
   14000:	ea000014 	b	14058 <ShowKeyboard+0x42c>
   14004:	e3560001 	cmp	r6, #1
   14008:	0a000064 	beq	141a0 <ShowKeyboard+0x574>
   1400c:	e3500001 	cmp	r0, #1
   14010:	e7882103 	str	r2, [r8, r3, lsl #2]
   14014:	9a00000d 	bls	14050 <ShowKeyboard+0x424>
   14018:	e3500009 	cmp	r0, #9
   1401c:	0a00002d 	beq	140d8 <ShowKeyboard+0x4ac>
   14020:	e797200c 	ldr	r2, [r7, ip]
   14024:	e3a03010 	mov	r3, #16
   14028:	e0821001 	add	r1, r2, r1
   1402c:	e5d10018 	ldrb	r0, [r1, #24]
   14030:	e59f11ac 	ldr	r1, [pc, #428]	; 141e4 <ShowKeyboard+0x5b8>
   14034:	e1a02005 	mov	r2, r5
   14038:	e58d1004 	str	r1, [sp, #4]
   1403c:	e58db000 	str	fp, [sp]
   14040:	e1a0100a 	mov	r1, sl
   14044:	ebfffb0d 	bl	12c80 <TFT_Char>
   14048:	e354000a 	cmp	r4, #10
   1404c:	0a00001f 	beq	140d0 <ShowKeyboard+0x4a4>
   14050:	e2844001 	add	r4, r4, #1
   14054:	e2855013 	add	r5, r5, #19
   14058:	e3560000 	cmp	r6, #0
   1405c:	e59fc188 	ldr	ip, [pc, #392]	; 141ec <ShowKeyboard+0x5c0>
   14060:	e2441003 	sub	r1, r4, #3
   14064:	e2452003 	sub	r2, r5, #3
   14068:	e2843017 	add	r3, r4, #23
   1406c:	e2440001 	sub	r0, r4, #1
   14070:	1affffe3 	bne	14004 <ShowKeyboard+0x3d8>
   14074:	e0842104 	add	r2, r4, r4, lsl #2
   14078:	e1a03102 	lsl	r3, r2, #2
   1407c:	e59d2038 	ldr	r2, [sp, #56]	; 0x38
   14080:	e2421010 	sub	r1, r2, #16
   14084:	e0811003 	add	r1, r1, r3
   14088:	e242200d 	sub	r2, r2, #13
   1408c:	e7881100 	str	r1, [r8, r0, lsl #2]
   14090:	e59d103c 	ldr	r1, [sp, #60]	; 0x3c
   14094:	e0822003 	add	r2, r2, r3
   14098:	e59fc14c 	ldr	ip, [pc, #332]	; 141ec <ShowKeyboard+0x5c0>
   1409c:	e3a03010 	mov	r3, #16
   140a0:	e797c00c 	ldr	ip, [r7, ip]
   140a4:	e08cc009 	add	ip, ip, r9
   140a8:	e7dc0000 	ldrb	r0, [ip, r0]
   140ac:	e59fc130 	ldr	ip, [pc, #304]	; 141e4 <ShowKeyboard+0x5b8>
   140b0:	e88d1800 	stm	sp, {fp, ip}
   140b4:	ebfffaf1 	bl	12c80 <TFT_Char>
   140b8:	e354000a 	cmp	r4, #10
   140bc:	1affffe3 	bne	14050 <ShowKeyboard+0x424>
   140c0:	e2866001 	add	r6, r6, #1
   140c4:	e3560003 	cmp	r6, #3
   140c8:	e28aa011 	add	sl, sl, #17
   140cc:	1affffc7 	bne	13ff0 <ShowKeyboard+0x3c4>
   140d0:	e59da038 	ldr	sl, [sp, #56]	; 0x38
   140d4:	eaffff1a 	b	13d44 <ShowKeyboard+0x118>
   140d8:	e3a00000 	mov	r0, #0
   140dc:	e59f3100 	ldr	r3, [pc, #256]	; 141e4 <ShowKeyboard+0x5b8>
   140e0:	e1a0100a 	mov	r1, sl
   140e4:	e88d0009 	stm	sp, {r0, r3}
   140e8:	e1a02005 	mov	r2, r5
   140ec:	e3a03010 	mov	r3, #16
   140f0:	e3a00082 	mov	r0, #130	; 0x82
   140f4:	e59da038 	ldr	sl, [sp, #56]	; 0x38
   140f8:	ebfffae0 	bl	12c80 <TFT_Char>
   140fc:	eaffff10 	b	13d44 <ShowKeyboard+0x118>
   14100:	e3a03b3e 	mov	r3, #63488	; 0xf800
   14104:	e59f20d8 	ldr	r2, [pc, #216]	; 141e4 <ShowKeyboard+0x5b8>
   14108:	e59d1008 	ldr	r1, [sp, #8]
   1410c:	e1cd20f0 	strd	r2, [sp]
   14110:	e3a00058 	mov	r0, #88	; 0x58
   14114:	e3a03010 	mov	r3, #16
   14118:	e28a20ce 	add	r2, sl, #206	; 0xce
   1411c:	ebfffad7 	bl	12c80 <TFT_Char>
   14120:	eaffffa6 	b	13fc0 <ShowKeyboard+0x394>
   14124:	e3a02009 	mov	r2, #9
   14128:	e3a01000 	mov	r1, #0
   1412c:	e3a00020 	mov	r0, #32
   14130:	ebfffe94 	bl	13b88 <ReadKeyMatrix>
   14134:	e1a01006 	mov	r1, r6
   14138:	e3a02009 	mov	r2, #9
   1413c:	e3a0002a 	mov	r0, #42	; 0x2a
   14140:	ebfffe90 	bl	13b88 <ReadKeyMatrix>
   14144:	e3a01002 	mov	r1, #2
   14148:	e3a00034 	mov	r0, #52	; 0x34
   1414c:	e3a02009 	mov	r2, #9
   14150:	ebfffe8c 	bl	13b88 <ReadKeyMatrix>
   14154:	e3a0002b 	mov	r0, #43	; 0x2b
   14158:	e3a0103d 	mov	r1, #61	; 0x3d
   1415c:	e3a03023 	mov	r3, #35	; 0x23
   14160:	e1cd03f0 	strd	r0, [sp, #48]	; 0x30
   14164:	e58d302c 	str	r3, [sp, #44]	; 0x2c
   14168:	eafffee6 	b	13d08 <ShowKeyboard+0xdc>
   1416c:	e3a02009 	mov	r2, #9
   14170:	e3a01000 	mov	r1, #0
   14174:	e3a00040 	mov	r0, #64	; 0x40
   14178:	ebfffe82 	bl	13b88 <ReadKeyMatrix>
   1417c:	e3a02009 	mov	r2, #9
   14180:	e3a01001 	mov	r1, #1
   14184:	e3a0004a 	mov	r0, #74	; 0x4a
   14188:	ebfffe7e 	bl	13b88 <ReadKeyMatrix>
   1418c:	e1a01006 	mov	r1, r6
   14190:	e3a02009 	mov	r2, #9
   14194:	e3a00054 	mov	r0, #84	; 0x54
   14198:	ebfffe7a 	bl	13b88 <ReadKeyMatrix>
   1419c:	eafffed4 	b	13cf4 <ShowKeyboard+0xc8>
   141a0:	e59d2038 	ldr	r2, [sp, #56]	; 0x38
   141a4:	e0843104 	add	r3, r4, r4, lsl #2
   141a8:	e1a03103 	lsl	r3, r3, #2
   141ac:	e242c00e 	sub	ip, r2, #14
   141b0:	e284100b 	add	r1, r4, #11
   141b4:	e08cc003 	add	ip, ip, r3
   141b8:	e242200b 	sub	r2, r2, #11
   141bc:	e788c101 	str	ip, [r8, r1, lsl #2]
   141c0:	e0822003 	add	r2, r2, r3
   141c4:	e1a0100a 	mov	r1, sl
   141c8:	eaffffb2 	b	14098 <ShowKeyboard+0x46c>
   141cc:	0000b240 	andeq	fp, r0, r0, asr #4
   141d0:	000001e4 	andeq	r0, r0, r4, ror #3
   141d4:	00000044 	andeq	r0, r0, r4, asr #32
   141d8:	00000060 	andeq	r0, r0, r0, rrx
   141dc:	000001a4 	andeq	r0, r0, r4, lsr #3
   141e0:	0000005c 	andeq	r0, r0, ip, asr r0
   141e4:	0000ffff 	strdeq	pc, [r0], -pc	; <UNPREDICTABLE>
   141e8:	00000158 	andeq	r0, r0, r8, asr r1
   141ec:	000001ec 	andeq	r0, r0, ip, ror #3

000141f0 <ReturnKeyboard>:
   141f0:	e92d41f0 	push	{r4, r5, r6, r7, r8, lr}
   141f4:	e3a06000 	mov	r6, #0
   141f8:	e59fc3e0 	ldr	ip, [pc, #992]	; 145e0 <ReturnKeyboard+0x3f0>
   141fc:	e59fe3e0 	ldr	lr, [pc, #992]	; 145e4 <ReturnKeyboard+0x3f4>
   14200:	e08fc00c 	add	ip, pc, ip
   14204:	e79ce00e 	ldr	lr, [ip, lr]
   14208:	e1530001 	cmp	r3, r1
   1420c:	e5ce6001 	strb	r6, [lr, #1]
   14210:	3a000025 	bcc	142ac <ReturnKeyboard+0xbc>
   14214:	e2814011 	add	r4, r1, #17
   14218:	e1540003 	cmp	r4, r3
   1421c:	3a000022 	bcc	142ac <ReturnKeyboard+0xbc>
   14220:	e28050cd 	add	r5, r0, #205	; 0xcd
   14224:	e1550002 	cmp	r5, r2
   14228:	e2814001 	add	r4, r1, #1
   1422c:	9a0000a0 	bls	144b4 <ReturnKeyboard+0x2c4>
   14230:	e1a03006 	mov	r3, r6
   14234:	e59f13ac 	ldr	r1, [pc, #940]	; 145e8 <ReturnKeyboard+0x3f8>
   14238:	e79c0001 	ldr	r0, [ip, r1]
   1423c:	e7901103 	ldr	r1, [r0, r3, lsl #2]
   14240:	e1510002 	cmp	r1, r2
   14244:	8a0000c5 	bhi	14560 <ReturnKeyboard+0x370>
   14248:	e7901103 	ldr	r1, [r0, r3, lsl #2]
   1424c:	e2811013 	add	r1, r1, #19
   14250:	e1510002 	cmp	r1, r2
   14254:	3a0000c1 	bcc	14560 <ReturnKeyboard+0x370>
   14258:	e3a01001 	mov	r1, #1
   1425c:	e59f2388 	ldr	r2, [pc, #904]	; 145ec <ReturnKeyboard+0x3fc>
   14260:	e7905103 	ldr	r5, [r0, r3, lsl #2]
   14264:	e5ce1001 	strb	r1, [lr, #1]
   14268:	e79c2002 	ldr	r2, [ip, r2]
   1426c:	e2855002 	add	r5, r5, #2
   14270:	e5d22000 	ldrb	r2, [r2]
   14274:	e3520000 	cmp	r2, #0
   14278:	1a0000c0 	bne	14580 <ReturnKeyboard+0x390>
   1427c:	e59f236c 	ldr	r2, [pc, #876]	; 145f0 <ReturnKeyboard+0x400>
   14280:	e79c2002 	ldr	r2, [ip, r2]
   14284:	e5d22000 	ldrb	r2, [r2]
   14288:	e3520000 	cmp	r2, #0
   1428c:	1a0000bb 	bne	14580 <ReturnKeyboard+0x390>
   14290:	e59f235c 	ldr	r2, [pc, #860]	; 145f4 <ReturnKeyboard+0x404>
   14294:	e79c2002 	ldr	r2, [ip, r2]
   14298:	e7d23003 	ldrb	r3, [r2, r3]
   1429c:	e2833020 	add	r3, r3, #32
   142a0:	e6ef3073 	uxtb	r3, r3
   142a4:	e5ce3002 	strb	r3, [lr, #2]
   142a8:	ea00002a 	b	14358 <ReturnKeyboard+0x168>
   142ac:	e2814012 	add	r4, r1, #18
   142b0:	e1540003 	cmp	r4, r3
   142b4:	8a00003a 	bhi	143a4 <ReturnKeyboard+0x1b4>
   142b8:	e2815022 	add	r5, r1, #34	; 0x22
   142bc:	e1550003 	cmp	r5, r3
   142c0:	3a000037 	bcc	143a4 <ReturnKeyboard+0x1b4>
   142c4:	e3a06000 	mov	r6, #0
   142c8:	e59f3318 	ldr	r3, [pc, #792]	; 145e8 <ReturnKeyboard+0x3f8>
   142cc:	e79c0003 	ldr	r0, [ip, r3]
   142d0:	e286300c 	add	r3, r6, #12
   142d4:	e7901103 	ldr	r1, [r0, r3, lsl #2]
   142d8:	e6ef7076 	uxtb	r7, r6
   142dc:	e1510002 	cmp	r1, r2
   142e0:	8a00009a 	bhi	14550 <ReturnKeyboard+0x360>
   142e4:	e7901103 	ldr	r1, [r0, r3, lsl #2]
   142e8:	e2811013 	add	r1, r1, #19
   142ec:	e1510002 	cmp	r1, r2
   142f0:	3a000096 	bcc	14550 <ReturnKeyboard+0x360>
   142f4:	e3a02001 	mov	r2, #1
   142f8:	e7905103 	ldr	r5, [r0, r3, lsl #2]
   142fc:	e59f32e8 	ldr	r3, [pc, #744]	; 145ec <ReturnKeyboard+0x3fc>
   14300:	e5ce2001 	strb	r2, [lr, #1]
   14304:	e79c3003 	ldr	r3, [ip, r3]
   14308:	e2855002 	add	r5, r5, #2
   1430c:	e5d33000 	ldrb	r3, [r3]
   14310:	e3530000 	cmp	r3, #0
   14314:	1a000009 	bne	14340 <ReturnKeyboard+0x150>
   14318:	e59f32d0 	ldr	r3, [pc, #720]	; 145f0 <ReturnKeyboard+0x400>
   1431c:	e79c3003 	ldr	r3, [ip, r3]
   14320:	e5d33000 	ldrb	r3, [r3]
   14324:	e2933000 	adds	r3, r3, #0
   14328:	13a03001 	movne	r3, #1
   1432c:	e3570009 	cmp	r7, #9
   14330:	11a07003 	movne	r7, r3
   14334:	03837001 	orreq	r7, r3, #1
   14338:	e3570000 	cmp	r7, #0
   1433c:	0a00009f 	beq	145c0 <ReturnKeyboard+0x3d0>
   14340:	e59f32ac 	ldr	r3, [pc, #684]	; 145f4 <ReturnKeyboard+0x404>
   14344:	e79c3003 	ldr	r3, [ip, r3]
   14348:	e0836006 	add	r6, r3, r6
   1434c:	e5d6300c 	ldrb	r3, [r6, #12]
   14350:	e6ef3073 	uxtb	r3, r3
   14354:	e5ce3002 	strb	r3, [lr, #2]
   14358:	e5de3001 	ldrb	r3, [lr, #1]
   1435c:	e3530000 	cmp	r3, #0
   14360:	08bd81f0 	popeq	{r4, r5, r6, r7, r8, pc}
   14364:	e3550000 	cmp	r5, #0
   14368:	13540000 	cmpne	r4, #0
   1436c:	08bd81f0 	popeq	{r4, r5, r6, r7, r8, pc}
   14370:	e3a03010 	mov	r3, #16
   14374:	e1a01005 	mov	r1, r5
   14378:	e1a02003 	mov	r2, r3
   1437c:	e1a00004 	mov	r0, r4
   14380:	ebfffc9b 	bl	135f4 <TFT_InvertRect>
   14384:	e3a000c8 	mov	r0, #200	; 0xc8
   14388:	ebfff2ba 	bl	10e78 <Delayms>
   1438c:	e3a03010 	mov	r3, #16
   14390:	e1a01005 	mov	r1, r5
   14394:	e1a00004 	mov	r0, r4
   14398:	e8bd41f0 	pop	{r4, r5, r6, r7, r8, lr}
   1439c:	e1a02003 	mov	r2, r3
   143a0:	eafffc93 	b	135f4 <TFT_InvertRect>
   143a4:	e2814023 	add	r4, r1, #35	; 0x23
   143a8:	e1540003 	cmp	r4, r3
   143ac:	9a000010 	bls	143f4 <ReturnKeyboard+0x204>
   143b0:	e2814036 	add	r4, r1, #54	; 0x36
   143b4:	e1540003 	cmp	r4, r3
   143b8:	8a000045 	bhi	144d4 <ReturnKeyboard+0x2e4>
   143bc:	e2811046 	add	r1, r1, #70	; 0x46
   143c0:	e1510003 	cmp	r1, r3
   143c4:	3a000042 	bcc	144d4 <ReturnKeyboard+0x2e4>
   143c8:	e2805028 	add	r5, r0, #40	; 0x28
   143cc:	e1550002 	cmp	r5, r2
   143d0:	8a000048 	bhi	144f8 <ReturnKeyboard+0x308>
   143d4:	e28030ba 	add	r3, r0, #186	; 0xba
   143d8:	e1530002 	cmp	r3, r2
   143dc:	3a000045 	bcc	144f8 <ReturnKeyboard+0x308>
   143e0:	e3a02001 	mov	r2, #1
   143e4:	e3a03020 	mov	r3, #32
   143e8:	e5ce2001 	strb	r2, [lr, #1]
   143ec:	e5ce3002 	strb	r3, [lr, #2]
   143f0:	eaffffd8 	b	14358 <ReturnKeyboard+0x168>
   143f4:	e2815034 	add	r5, r1, #52	; 0x34
   143f8:	e1550003 	cmp	r5, r3
   143fc:	3affffeb 	bcc	143b0 <ReturnKeyboard+0x1c0>
   14400:	e2805007 	add	r5, r0, #7
   14404:	e1550002 	cmp	r5, r2
   14408:	8a000002 	bhi	14418 <ReturnKeyboard+0x228>
   1440c:	e2800025 	add	r0, r0, #37	; 0x25
   14410:	e1500002 	cmp	r0, r2
   14414:	2a00005f 	bcs	14598 <ReturnKeyboard+0x3a8>
   14418:	e3a03002 	mov	r3, #2
   1441c:	e59f11c4 	ldr	r1, [pc, #452]	; 145e8 <ReturnKeyboard+0x3f8>
   14420:	e79c0001 	ldr	r0, [ip, r1]
   14424:	e2831018 	add	r1, r3, #24
   14428:	e7905101 	ldr	r5, [r0, r1, lsl #2]
   1442c:	e6ef6073 	uxtb	r6, r3
   14430:	e1550002 	cmp	r5, r2
   14434:	8a00004d 	bhi	14570 <ReturnKeyboard+0x380>
   14438:	e7905101 	ldr	r5, [r0, r1, lsl #2]
   1443c:	e2855013 	add	r5, r5, #19
   14440:	e1550002 	cmp	r5, r2
   14444:	3a000049 	bcc	14570 <ReturnKeyboard+0x380>
   14448:	e3560009 	cmp	r6, #9
   1444c:	e3a02001 	mov	r2, #1
   14450:	03a03008 	moveq	r3, #8
   14454:	e7905101 	ldr	r5, [r0, r1, lsl #2]
   14458:	e5ce2001 	strb	r2, [lr, #1]
   1445c:	e2855002 	add	r5, r5, #2
   14460:	05ce3002 	strbeq	r3, [lr, #2]
   14464:	0affffbb 	beq	14358 <ReturnKeyboard+0x168>
   14468:	e59f217c 	ldr	r2, [pc, #380]	; 145ec <ReturnKeyboard+0x3fc>
   1446c:	e2433002 	sub	r3, r3, #2
   14470:	e79c2002 	ldr	r2, [ip, r2]
   14474:	e5d22000 	ldrb	r2, [r2]
   14478:	e3520000 	cmp	r2, #0
   1447c:	1a000016 	bne	144dc <ReturnKeyboard+0x2ec>
   14480:	e59f2168 	ldr	r2, [pc, #360]	; 145f0 <ReturnKeyboard+0x400>
   14484:	e79c2002 	ldr	r2, [ip, r2]
   14488:	e5d22000 	ldrb	r2, [r2]
   1448c:	e3520000 	cmp	r2, #0
   14490:	1a000011 	bne	144dc <ReturnKeyboard+0x2ec>
   14494:	e59f2158 	ldr	r2, [pc, #344]	; 145f4 <ReturnKeyboard+0x404>
   14498:	e79c2002 	ldr	r2, [ip, r2]
   1449c:	e0823003 	add	r3, r2, r3
   144a0:	e5d33018 	ldrb	r3, [r3, #24]
   144a4:	e2833020 	add	r3, r3, #32
   144a8:	e6ef3073 	uxtb	r3, r3
   144ac:	e5ce3002 	strb	r3, [lr, #2]
   144b0:	eaffffa8 	b	14358 <ReturnKeyboard+0x168>
   144b4:	e28000df 	add	r0, r0, #223	; 0xdf
   144b8:	e1500002 	cmp	r0, r2
   144bc:	3affff5b 	bcc	14230 <ReturnKeyboard+0x40>
   144c0:	e59f3130 	ldr	r3, [pc, #304]	; 145f8 <ReturnKeyboard+0x408>
   144c4:	e79c3003 	ldr	r3, [ip, r3]
   144c8:	e5d33000 	ldrb	r3, [r3]
   144cc:	e1530006 	cmp	r3, r6
   144d0:	1a000035 	bne	145ac <ReturnKeyboard+0x3bc>
   144d4:	e5de3001 	ldrb	r3, [lr, #1]
   144d8:	e8bd81f0 	pop	{r4, r5, r6, r7, r8, pc}
   144dc:	e59f2110 	ldr	r2, [pc, #272]	; 145f4 <ReturnKeyboard+0x404>
   144e0:	e79c2002 	ldr	r2, [ip, r2]
   144e4:	e0823003 	add	r3, r2, r3
   144e8:	e5d33018 	ldrb	r3, [r3, #24]
   144ec:	e6ef3073 	uxtb	r3, r3
   144f0:	e5ce3002 	strb	r3, [lr, #2]
   144f4:	eaffff97 	b	14358 <ReturnKeyboard+0x168>
   144f8:	e28030bd 	add	r3, r0, #189	; 0xbd
   144fc:	e1530002 	cmp	r3, r2
   14500:	8a000008 	bhi	14528 <ReturnKeyboard+0x338>
   14504:	e28030db 	add	r3, r0, #219	; 0xdb
   14508:	e1530002 	cmp	r3, r2
   1450c:	3a000005 	bcc	14528 <ReturnKeyboard+0x338>
   14510:	e3a02001 	mov	r2, #1
   14514:	e3a0300d 	mov	r3, #13
   14518:	e5ce2001 	strb	r2, [lr, #1]
   1451c:	e28050c9 	add	r5, r0, #201	; 0xc9
   14520:	e5ce3002 	strb	r3, [lr, #2]
   14524:	eaffff8b 	b	14358 <ReturnKeyboard+0x168>
   14528:	e2805007 	add	r5, r0, #7
   1452c:	e1550002 	cmp	r5, r2
   14530:	8affffe7 	bhi	144d4 <ReturnKeyboard+0x2e4>
   14534:	e2800025 	add	r0, r0, #37	; 0x25
   14538:	e1500002 	cmp	r0, r2
   1453c:	3affffe4 	bcc	144d4 <ReturnKeyboard+0x2e4>
   14540:	e3a03001 	mov	r3, #1
   14544:	e5ce3001 	strb	r3, [lr, #1]
   14548:	e5ce3002 	strb	r3, [lr, #2]
   1454c:	eaffff81 	b	14358 <ReturnKeyboard+0x168>
   14550:	e2866001 	add	r6, r6, #1
   14554:	e356000a 	cmp	r6, #10
   14558:	1affff5c 	bne	142d0 <ReturnKeyboard+0xe0>
   1455c:	eaffffdc 	b	144d4 <ReturnKeyboard+0x2e4>
   14560:	e2833001 	add	r3, r3, #1
   14564:	e353000a 	cmp	r3, #10
   14568:	1affff33 	bne	1423c <ReturnKeyboard+0x4c>
   1456c:	eaffffd8 	b	144d4 <ReturnKeyboard+0x2e4>
   14570:	e2833001 	add	r3, r3, #1
   14574:	e353000a 	cmp	r3, #10
   14578:	1affffa9 	bne	14424 <ReturnKeyboard+0x234>
   1457c:	eaffffd4 	b	144d4 <ReturnKeyboard+0x2e4>
   14580:	e59f206c 	ldr	r2, [pc, #108]	; 145f4 <ReturnKeyboard+0x404>
   14584:	e79c2002 	ldr	r2, [ip, r2]
   14588:	e7d23003 	ldrb	r3, [r2, r3]
   1458c:	e6ef3073 	uxtb	r3, r3
   14590:	e5ce3002 	strb	r3, [lr, #2]
   14594:	eaffff6f 	b	14358 <ReturnKeyboard+0x168>
   14598:	e3a02001 	mov	r2, #1
   1459c:	e3a03002 	mov	r3, #2
   145a0:	e5ce2001 	strb	r2, [lr, #1]
   145a4:	e5ce3002 	strb	r3, [lr, #2]
   145a8:	eaffff6a 	b	14358 <ReturnKeyboard+0x168>
   145ac:	e3a02001 	mov	r2, #1
   145b0:	e3a03003 	mov	r3, #3
   145b4:	e5ce2001 	strb	r2, [lr, #1]
   145b8:	e5ce3002 	strb	r3, [lr, #2]
   145bc:	eaffff65 	b	14358 <ReturnKeyboard+0x168>
   145c0:	e59f302c 	ldr	r3, [pc, #44]	; 145f4 <ReturnKeyboard+0x404>
   145c4:	e79c3003 	ldr	r3, [ip, r3]
   145c8:	e0836006 	add	r6, r3, r6
   145cc:	e5d6300c 	ldrb	r3, [r6, #12]
   145d0:	e2833020 	add	r3, r3, #32
   145d4:	e6ef3073 	uxtb	r3, r3
   145d8:	e5ce3002 	strb	r3, [lr, #2]
   145dc:	eaffff5d 	b	14358 <ReturnKeyboard+0x168>
   145e0:	0000ac78 	andeq	sl, r0, r8, ror ip
   145e4:	0000013c 	andeq	r0, r0, ip, lsr r1
   145e8:	00000158 	andeq	r0, r0, r8, asr r1
   145ec:	00000060 	andeq	r0, r0, r0, rrx
   145f0:	000001a4 	andeq	r0, r0, r4, lsr #3
   145f4:	000001ec 	andeq	r0, r0, ip, ror #3
   145f8:	00000044 	andeq	r0, r0, r4, asr #32

000145fc <TCHVerif>:
   145fc:	e92d47f0 	push	{r4, r5, r6, r7, r8, r9, sl, lr}
   14600:	e59f42c0 	ldr	r4, [pc, #704]	; 148c8 <TCHVerif+0x2cc>
   14604:	e59f32c0 	ldr	r3, [pc, #704]	; 148cc <TCHVerif+0x2d0>
   14608:	e08f4004 	add	r4, pc, r4
   1460c:	e7945003 	ldr	r5, [r4, r3]
   14610:	e1a00005 	mov	r0, r5
   14614:	ebfff6e0 	bl	1219c <Read_Ads7843>
   14618:	e3500000 	cmp	r0, #0
   1461c:	0a000005 	beq	14638 <TCHVerif+0x3c>
   14620:	e5953000 	ldr	r3, [r5]
   14624:	e3530000 	cmp	r3, #0
   14628:	0a000002 	beq	14638 <TCHVerif+0x3c>
   1462c:	e5952004 	ldr	r2, [r5, #4]
   14630:	e3520000 	cmp	r2, #0
   14634:	1a000008 	bne	1465c <TCHVerif+0x60>
   14638:	e59f3290 	ldr	r3, [pc, #656]	; 148d0 <TCHVerif+0x2d4>
   1463c:	e7943003 	ldr	r3, [r4, r3]
   14640:	e5d32000 	ldrb	r2, [r3]
   14644:	e3520000 	cmp	r2, #0
   14648:	0a000014 	beq	146a0 <TCHVerif+0xa4>
   1464c:	e3a02000 	mov	r2, #0
   14650:	e1a00002 	mov	r0, r2
   14654:	e5c32000 	strb	r2, [r3]
   14658:	e8bd87f0 	pop	{r4, r5, r6, r7, r8, r9, sl, pc}
   1465c:	e3a0c000 	mov	ip, #0
   14660:	e59f126c 	ldr	r1, [pc, #620]	; 148d4 <TCHVerif+0x2d8>
   14664:	e59f026c 	ldr	r0, [pc, #620]	; 148d8 <TCHVerif+0x2dc>
   14668:	e7946001 	ldr	r6, [r4, r1]
   1466c:	e59f1268 	ldr	r1, [pc, #616]	; 148dc <TCHVerif+0x2e0>
   14670:	e5c6c001 	strb	ip, [r6, #1]
   14674:	e5c6c002 	strb	ip, [r6, #2]
   14678:	e7947000 	ldr	r7, [r4, r0]
   1467c:	e7949001 	ldr	r9, [r4, r1]
   14680:	e5971000 	ldr	r1, [r7]
   14684:	e5990000 	ldr	r0, [r9]
   14688:	ebfffed8 	bl	141f0 <ReturnKeyboard>
   1468c:	e59f324c 	ldr	r3, [pc, #588]	; 148e0 <TCHVerif+0x2e4>
   14690:	e7948003 	ldr	r8, [r4, r3]
   14694:	e5983000 	ldr	r3, [r8]
   14698:	e3530000 	cmp	r3, #0
   1469c:	0a000001 	beq	146a8 <TCHVerif+0xac>
   146a0:	e3a00000 	mov	r0, #0
   146a4:	e8bd87f0 	pop	{r4, r5, r6, r7, r8, r9, sl, pc}
   146a8:	e59f3234 	ldr	r3, [pc, #564]	; 148e4 <TCHVerif+0x2e8>
   146ac:	e7943003 	ldr	r3, [r4, r3]
   146b0:	e5d33000 	ldrb	r3, [r3]
   146b4:	e3530000 	cmp	r3, #0
   146b8:	e59f3228 	ldr	r3, [pc, #552]	; 148e8 <TCHVerif+0x2ec>
   146bc:	e7943003 	ldr	r3, [r4, r3]
   146c0:	0a000026 	beq	14760 <TCHVerif+0x164>
   146c4:	e5d32000 	ldrb	r2, [r3]
   146c8:	e3520000 	cmp	r2, #0
   146cc:	1a000023 	bne	14760 <TCHVerif+0x164>
   146d0:	e59f31f8 	ldr	r3, [pc, #504]	; 148d0 <TCHVerif+0x2d4>
   146d4:	e794c003 	ldr	ip, [r4, r3]
   146d8:	e5dc3000 	ldrb	r3, [ip]
   146dc:	e21330ff 	ands	r3, r3, #255	; 0xff
   146e0:	1a000007 	bne	14704 <TCHVerif+0x108>
   146e4:	e3a02001 	mov	r2, #1
   146e8:	e3e0e000 	mvn	lr, #0
   146ec:	e5971000 	ldr	r1, [r7]
   146f0:	e5990000 	ldr	r0, [r9]
   146f4:	e5cc2000 	strb	r2, [ip]
   146f8:	e5c6e001 	strb	lr, [r6, #1]
   146fc:	e5c63002 	strb	r3, [r6, #2]
   14700:	ebfffd49 	bl	13c2c <ShowKeyboard>
   14704:	e5d63001 	ldrb	r3, [r6, #1]
   14708:	e3530000 	cmp	r3, #0
   1470c:	0a000005 	beq	14728 <TCHVerif+0x12c>
   14710:	e5d63001 	ldrb	r3, [r6, #1]
   14714:	e3530000 	cmp	r3, #0
   14718:	0affffe0 	beq	146a0 <TCHVerif+0xa4>
   1471c:	e5d63002 	ldrb	r3, [r6, #2]
   14720:	e3530003 	cmp	r3, #3
   14724:	9affffdd 	bls	146a0 <TCHVerif+0xa4>
   14728:	e5d63001 	ldrb	r3, [r6, #1]
   1472c:	e3530000 	cmp	r3, #0
   14730:	0a000034 	beq	14808 <TCHVerif+0x20c>
   14734:	e59f31b0 	ldr	r3, [pc, #432]	; 148ec <TCHVerif+0x2f0>
   14738:	e7943003 	ldr	r3, [r4, r3]
   1473c:	e5932000 	ldr	r2, [r3]
   14740:	e3a00001 	mov	r0, #1
   14744:	e352000f 	cmp	r2, #15
   14748:	95932000 	ldrls	r2, [r3]
   1474c:	92822001 	addls	r2, r2, #1
   14750:	95832000 	strls	r2, [r3]
   14754:	e3a03000 	mov	r3, #0
   14758:	e5883000 	str	r3, [r8]
   1475c:	e8bd87f0 	pop	{r4, r5, r6, r7, r8, r9, sl, pc}
   14760:	e5d33000 	ldrb	r3, [r3]
   14764:	e3530000 	cmp	r3, #0
   14768:	0affffe5 	beq	14704 <TCHVerif+0x108>
   1476c:	e59f315c 	ldr	r3, [pc, #348]	; 148d0 <TCHVerif+0x2d4>
   14770:	e7940003 	ldr	r0, [r4, r3]
   14774:	e5d03000 	ldrb	r3, [r0]
   14778:	e213a0ff 	ands	sl, r3, #255	; 0xff
   1477c:	1affffe0 	bne	14704 <TCHVerif+0x108>
   14780:	e3a0c001 	mov	ip, #1
   14784:	e5953000 	ldr	r3, [r5]
   14788:	e5c0c000 	strb	ip, [r0]
   1478c:	e5952004 	ldr	r2, [r5, #4]
   14790:	e5971000 	ldr	r1, [r7]
   14794:	e5990000 	ldr	r0, [r9]
   14798:	ebfffe94 	bl	141f0 <ReturnKeyboard>
   1479c:	e5d63001 	ldrb	r3, [r6, #1]
   147a0:	e3530000 	cmp	r3, #0
   147a4:	0affffd6 	beq	14704 <TCHVerif+0x108>
   147a8:	e5d63002 	ldrb	r3, [r6, #2]
   147ac:	e3530003 	cmp	r3, #3
   147b0:	8a00002d 	bhi	1486c <TCHVerif+0x270>
   147b4:	e5d62002 	ldrb	r2, [r6, #2]
   147b8:	e6ef2072 	uxtb	r2, r2
   147bc:	e3520001 	cmp	r2, #1
   147c0:	0a000032 	beq	14890 <TCHVerif+0x294>
   147c4:	e5d63002 	ldrb	r3, [r6, #2]
   147c8:	e3530002 	cmp	r3, #2
   147cc:	1a000005 	bne	147e8 <TCHVerif+0x1ec>
   147d0:	e59f3118 	ldr	r3, [pc, #280]	; 148f0 <TCHVerif+0x2f4>
   147d4:	e7942003 	ldr	r2, [r4, r3]
   147d8:	e5d23000 	ldrb	r3, [r2]
   147dc:	e1e03003 	mvn	r3, r3
   147e0:	e6ef3073 	uxtb	r3, r3
   147e4:	e5c23000 	strb	r3, [r2]
   147e8:	e5d63002 	ldrb	r3, [r6, #2]
   147ec:	e5990000 	ldr	r0, [r9]
   147f0:	e3530003 	cmp	r3, #3
   147f4:	e5971000 	ldr	r1, [r7]
   147f8:	0a000030 	beq	148c0 <TCHVerif+0x2c4>
   147fc:	e3a02001 	mov	r2, #1
   14800:	ebfffd09 	bl	13c2c <ShowKeyboard>
   14804:	eaffffbe 	b	14704 <TCHVerif+0x108>
   14808:	e3e0c000 	mvn	ip, #0
   1480c:	e59f30d8 	ldr	r3, [pc, #216]	; 148ec <TCHVerif+0x2f0>
   14810:	e59f20dc 	ldr	r2, [pc, #220]	; 148f4 <TCHVerif+0x2f8>
   14814:	e7943003 	ldr	r3, [r4, r3]
   14818:	e7940002 	ldr	r0, [r4, r2]
   1481c:	e5931000 	ldr	r1, [r3]
   14820:	e59f20d0 	ldr	r2, [pc, #208]	; 148f8 <TCHVerif+0x2fc>
   14824:	e7c0c001 	strb	ip, [r0, r1]
   14828:	e7942002 	ldr	r2, [r4, r2]
   1482c:	e59f10c8 	ldr	r1, [pc, #200]	; 148fc <TCHVerif+0x300>
   14830:	e592c000 	ldr	ip, [r2]
   14834:	e7940001 	ldr	r0, [r4, r1]
   14838:	e595e004 	ldr	lr, [r5, #4]
   1483c:	e59f10bc 	ldr	r1, [pc, #188]	; 14900 <TCHVerif+0x304>
   14840:	e780e10c 	str	lr, [r0, ip, lsl #2]
   14844:	e5920000 	ldr	r0, [r2]
   14848:	e7941001 	ldr	r1, [r4, r1]
   1484c:	e595c000 	ldr	ip, [r5]
   14850:	e781c100 	str	ip, [r1, r0, lsl #2]
   14854:	e5921000 	ldr	r1, [r2]
   14858:	e351000f 	cmp	r1, #15
   1485c:	95921000 	ldrls	r1, [r2]
   14860:	92811001 	addls	r1, r1, #1
   14864:	95821000 	strls	r1, [r2]
   14868:	eaffffb3 	b	1473c <TCHVerif+0x140>
   1486c:	e59f3078 	ldr	r3, [pc, #120]	; 148ec <TCHVerif+0x2f0>
   14870:	e59f207c 	ldr	r2, [pc, #124]	; 148f4 <TCHVerif+0x2f8>
   14874:	e7943003 	ldr	r3, [r4, r3]
   14878:	e7941002 	ldr	r1, [r4, r2]
   1487c:	e5932000 	ldr	r2, [r3]
   14880:	e5d63002 	ldrb	r3, [r6, #2]
   14884:	e6ef3073 	uxtb	r3, r3
   14888:	e7c13002 	strb	r3, [r1, r2]
   1488c:	eaffff9c 	b	14704 <TCHVerif+0x108>
   14890:	e59f306c 	ldr	r3, [pc, #108]	; 14904 <TCHVerif+0x308>
   14894:	e7943003 	ldr	r3, [r4, r3]
   14898:	e5d31000 	ldrb	r1, [r3]
   1489c:	e3510000 	cmp	r1, #0
   148a0:	0a000004 	beq	148b8 <TCHVerif+0x2bc>
   148a4:	e5d32000 	ldrb	r2, [r3]
   148a8:	e3520001 	cmp	r2, #1
   148ac:	15c3a000 	strbne	sl, [r3]
   148b0:	1affffcc 	bne	147e8 <TCHVerif+0x1ec>
   148b4:	e3a02002 	mov	r2, #2
   148b8:	e5c32000 	strb	r2, [r3]
   148bc:	eaffffc9 	b	147e8 <TCHVerif+0x1ec>
   148c0:	ebfffcc6 	bl	13be0 <HideKeyboard>
   148c4:	eaffff8e 	b	14704 <TCHVerif+0x108>
   148c8:	0000a870 	andeq	sl, r0, r0, ror r8
   148cc:	00000030 	andeq	r0, r0, r0, lsr r0
   148d0:	00000238 	andeq	r0, r0, r8, lsr r2
   148d4:	0000013c 	andeq	r0, r0, ip, lsr r1
   148d8:	00000004 	andeq	r0, r0, r4
   148dc:	00000204 	andeq	r0, r0, r4, lsl #4
   148e0:	00000124 	andeq	r0, r0, r4, lsr #2
   148e4:	00000168 	andeq	r0, r0, r8, ror #2
   148e8:	000001e4 	andeq	r0, r0, r4, ror #3
   148ec:	0000011c 	andeq	r0, r0, ip, lsl r1
   148f0:	00000060 	andeq	r0, r0, r0, rrx
   148f4:	00000090 	muleq	r0, r0, r0
   148f8:	000000a8 	andeq	r0, r0, r8, lsr #1
   148fc:	000000b8 	strheq	r0, [r0], -r8
   14900:	000000c4 	andeq	r0, r0, r4, asr #1
   14904:	000001a4 	andeq	r0, r0, r4, lsr #3

00014908 <commVDG>:
   14908:	e92d4ff0 	push	{r4, r5, r6, r7, r8, r9, sl, fp, lr}
   1490c:	e1a04000 	mov	r4, r0
   14910:	e59f5814 	ldr	r5, [pc, #2068]	; 1512c <commVDG+0x824>
   14914:	e1d0c0b2 	ldrh	ip, [r0, #2]
   14918:	e59f3810 	ldr	r3, [pc, #2064]	; 15130 <commVDG+0x828>
   1491c:	e08f5005 	add	r5, pc, r5
   14920:	e7952003 	ldr	r2, [r5, r3]
   14924:	e6bfcfbc 	rev16	ip, ip
   14928:	e24dd02c 	sub	sp, sp, #44	; 0x2c
   1492c:	e59f3800 	ldr	r3, [pc, #2048]	; 15134 <commVDG+0x82c>
   14930:	e1d000b4 	ldrh	r0, [r0, #4]
   14934:	e6ffc07c 	uxth	ip, ip
   14938:	e58d2010 	str	r2, [sp, #16]
   1493c:	e582c000 	str	ip, [r2]
   14940:	e7951003 	ldr	r1, [r5, r3]
   14944:	e6bf0fb0 	rev16	r0, r0
   14948:	e59f27e8 	ldr	r2, [pc, #2024]	; 15138 <commVDG+0x830>
   1494c:	e1d430b6 	ldrh	r3, [r4, #6]
   14950:	e6ff0070 	uxth	r0, r0
   14954:	e58d1008 	str	r1, [sp, #8]
   14958:	e5810000 	str	r0, [r1]
   1495c:	e795e002 	ldr	lr, [r5, r2]
   14960:	e6bf3fb3 	rev16	r3, r3
   14964:	e59f17d0 	ldr	r1, [pc, #2000]	; 1513c <commVDG+0x834>
   14968:	e1d420b8 	ldrh	r2, [r4, #8]
   1496c:	e6ff3073 	uxth	r3, r3
   14970:	e58e3000 	str	r3, [lr]
   14974:	e795e001 	ldr	lr, [r5, r1]
   14978:	e6bf2fb2 	rev16	r2, r2
   1497c:	e6ff2072 	uxth	r2, r2
   14980:	e59f17b8 	ldr	r1, [pc, #1976]	; 15140 <commVDG+0x838>
   14984:	e58e2000 	str	r2, [lr]
   14988:	e7951001 	ldr	r1, [r5, r1]
   1498c:	e5d46008 	ldrb	r6, [r4, #8]
   14990:	e1a0e001 	mov	lr, r1
   14994:	e5d47006 	ldrb	r7, [r4, #6]
   14998:	e58d101c 	str	r1, [sp, #28]
   1499c:	e59f17a0 	ldr	r1, [pc, #1952]	; 15144 <commVDG+0x83c>
   149a0:	e5ce7000 	strb	r7, [lr]
   149a4:	e58d6020 	str	r6, [sp, #32]
   149a8:	e7951001 	ldr	r1, [r5, r1]
   149ac:	e5d4a007 	ldrb	sl, [r4, #7]
   149b0:	e1a0e001 	mov	lr, r1
   149b4:	e186840a 	orr	r8, r6, sl, lsl #8
   149b8:	e5d46009 	ldrb	r6, [r4, #9]
   149bc:	e58d1018 	str	r1, [sp, #24]
   149c0:	e59f1780 	ldr	r1, [pc, #1920]	; 15148 <commVDG+0x840>
   149c4:	e58e8000 	str	r8, [lr]
   149c8:	e58d6024 	str	r6, [sp, #36]	; 0x24
   149cc:	e7951001 	ldr	r1, [r5, r1]
   149d0:	e5d4e00a 	ldrb	lr, [r4, #10]
   149d4:	e1a0b001 	mov	fp, r1
   149d8:	e18e9406 	orr	r9, lr, r6, lsl #8
   149dc:	e58d100c 	str	r1, [sp, #12]
   149e0:	e59f1764 	ldr	r1, [pc, #1892]	; 1514c <commVDG+0x844>
   149e4:	e58b9000 	str	r9, [fp]
   149e8:	e5d4600b 	ldrb	r6, [r4, #11]
   149ec:	e7951001 	ldr	r1, [r5, r1]
   149f0:	e186e40e 	orr	lr, r6, lr, lsl #8
   149f4:	e581e000 	str	lr, [r1]
   149f8:	e58d1014 	str	r1, [sp, #20]
   149fc:	e5d41001 	ldrb	r1, [r4, #1]
   14a00:	e5d4b004 	ldrb	fp, [r4, #4]
   14a04:	e24110d0 	sub	r1, r1, #208	; 0xd0
   14a08:	e3510020 	cmp	r1, #32
   14a0c:	908ff101 	addls	pc, pc, r1, lsl #2
   14a10:	ea00004f 	b	14b54 <commVDG+0x24c>
   14a14:	ea000157 	b	14f78 <commVDG+0x670>
   14a18:	ea000132 	b	14ee8 <commVDG+0x5e0>
   14a1c:	ea00011d 	b	14e98 <commVDG+0x590>
   14a20:	ea000118 	b	14e88 <commVDG+0x580>
   14a24:	ea000113 	b	14e78 <commVDG+0x570>
   14a28:	ea00010e 	b	14e68 <commVDG+0x560>
   14a2c:	ea000107 	b	14e50 <commVDG+0x548>
   14a30:	ea000102 	b	14e40 <commVDG+0x538>
   14a34:	ea000157 	b	14f98 <commVDG+0x690>
   14a38:	ea0000f9 	b	14e24 <commVDG+0x51c>
   14a3c:	ea000044 	b	14b54 <commVDG+0x24c>
   14a40:	ea0000e4 	b	14dd8 <commVDG+0x4d0>
   14a44:	ea0000c0 	b	14d4c <commVDG+0x444>
   14a48:	ea00008f 	b	14c8c <commVDG+0x384>
   14a4c:	ea00006e 	b	14c0c <commVDG+0x304>
   14a50:	ea000067 	b	14bf4 <commVDG+0x2ec>
   14a54:	ea00003e 	b	14b54 <commVDG+0x24c>
   14a58:	ea00003d 	b	14b54 <commVDG+0x24c>
   14a5c:	ea00003c 	b	14b54 <commVDG+0x24c>
   14a60:	ea00003b 	b	14b54 <commVDG+0x24c>
   14a64:	ea00003a 	b	14b54 <commVDG+0x24c>
   14a68:	ea000039 	b	14b54 <commVDG+0x24c>
   14a6c:	ea000038 	b	14b54 <commVDG+0x24c>
   14a70:	ea000037 	b	14b54 <commVDG+0x24c>
   14a74:	ea000036 	b	14b54 <commVDG+0x24c>
   14a78:	ea000035 	b	14b54 <commVDG+0x24c>
   14a7c:	ea000055 	b	14bd8 <commVDG+0x2d0>
   14a80:	ea00004d 	b	14bbc <commVDG+0x2b4>
   14a84:	ea000049 	b	14bb0 <commVDG+0x2a8>
   14a88:	ea000045 	b	14ba4 <commVDG+0x29c>
   14a8c:	ea000030 	b	14b54 <commVDG+0x24c>
   14a90:	ea000032 	b	14b60 <commVDG+0x258>
   14a94:	eaffffff 	b	14a98 <commVDG+0x190>
   14a98:	e59f36b0 	ldr	r3, [pc, #1712]	; 15150 <commVDG+0x848>
   14a9c:	e7953003 	ldr	r3, [r5, r3]
   14aa0:	e5d33000 	ldrb	r3, [r3]
   14aa4:	e3530000 	cmp	r3, #0
   14aa8:	0a000029 	beq	14b54 <commVDG+0x24c>
   14aac:	e59f36a0 	ldr	r3, [pc, #1696]	; 15154 <commVDG+0x84c>
   14ab0:	e7954003 	ldr	r4, [r5, r3]
   14ab4:	e5943000 	ldr	r3, [r4]
   14ab8:	e3530a05 	cmp	r3, #20480	; 0x5000
   14abc:	0a00015e 	beq	1503c <commVDG+0x734>
   14ac0:	e3530801 	cmp	r3, #65536	; 0x10000
   14ac4:	0a000005 	beq	14ae0 <commVDG+0x1d8>
   14ac8:	e59f2688 	ldr	r2, [pc, #1672]	; 15158 <commVDG+0x850>
   14acc:	e7952002 	ldr	r2, [r5, r2]
   14ad0:	e5d22000 	ldrb	r2, [r2]
   14ad4:	e3520000 	cmp	r2, #0
   14ad8:	02833001 	addeq	r3, r3, #1
   14adc:	0a00001b 	beq	14b50 <commVDG+0x248>
   14ae0:	e59f2674 	ldr	r2, [pc, #1652]	; 1515c <commVDG+0x854>
   14ae4:	e59f3674 	ldr	r3, [pc, #1652]	; 15160 <commVDG+0x858>
   14ae8:	e7952002 	ldr	r2, [r5, r2]
   14aec:	e7953003 	ldr	r3, [r5, r3]
   14af0:	e5921000 	ldr	r1, [r2]
   14af4:	e5933000 	ldr	r3, [r3]
   14af8:	e1510003 	cmp	r1, r3
   14afc:	2a000012 	bcs	14b4c <commVDG+0x244>
   14b00:	e59f265c 	ldr	r2, [pc, #1628]	; 15164 <commVDG+0x85c>
   14b04:	e59f365c 	ldr	r3, [pc, #1628]	; 15168 <commVDG+0x860>
   14b08:	e7952002 	ldr	r2, [r5, r2]
   14b0c:	e7953003 	ldr	r3, [r5, r3]
   14b10:	e5922000 	ldr	r2, [r2]
   14b14:	e5933000 	ldr	r3, [r3]
   14b18:	e1520003 	cmp	r2, r3
   14b1c:	2a00000a 	bcs	14b4c <commVDG+0x244>
   14b20:	e59f3644 	ldr	r3, [pc, #1604]	; 1516c <commVDG+0x864>
   14b24:	e7953003 	ldr	r3, [r5, r3]
   14b28:	e5930000 	ldr	r0, [r3]
   14b2c:	e59f363c 	ldr	r3, [pc, #1596]	; 15170 <commVDG+0x868>
   14b30:	e58d0004 	str	r0, [sp, #4]
   14b34:	e7950003 	ldr	r0, [r5, r3]
   14b38:	e3a03008 	mov	r3, #8
   14b3c:	e590c000 	ldr	ip, [r0]
   14b40:	e3a00020 	mov	r0, #32
   14b44:	e58dc000 	str	ip, [sp]
   14b48:	ebfff84c 	bl	12c80 <TFT_Char>
   14b4c:	e3a03001 	mov	r3, #1
   14b50:	e5843000 	str	r3, [r4]
   14b54:	e3a00001 	mov	r0, #1
   14b58:	e28dd02c 	add	sp, sp, #44	; 0x2c
   14b5c:	e8bd8ff0 	pop	{r4, r5, r6, r7, r8, r9, sl, fp, pc}
   14b60:	e3e0207d 	mvn	r2, #125	; 0x7d
   14b64:	e59f35fc 	ldr	r3, [pc, #1532]	; 15168 <commVDG+0x860>
   14b68:	e5c42000 	strb	r2, [r4]
   14b6c:	e7951003 	ldr	r1, [r5, r3]
   14b70:	e59f35e8 	ldr	r3, [pc, #1512]	; 15160 <commVDG+0x858>
   14b74:	e5912000 	ldr	r2, [r1]
   14b78:	e1a02422 	lsr	r2, r2, #8
   14b7c:	e5c42001 	strb	r2, [r4, #1]
   14b80:	e5912000 	ldr	r2, [r1]
   14b84:	e5c42002 	strb	r2, [r4, #2]
   14b88:	e7952003 	ldr	r2, [r5, r3]
   14b8c:	e5923000 	ldr	r3, [r2]
   14b90:	e1a03423 	lsr	r3, r3, #8
   14b94:	e5c43003 	strb	r3, [r4, #3]
   14b98:	e5923000 	ldr	r3, [r2]
   14b9c:	e5c43004 	strb	r3, [r4, #4]
   14ba0:	eaffffeb 	b	14b54 <commVDG+0x24c>
   14ba4:	ebfffe94 	bl	145fc <TCHVerif>
   14ba8:	e5c40000 	strb	r0, [r4]
   14bac:	eaffffe8 	b	14b54 <commVDG+0x24c>
   14bb0:	e1a0100c 	mov	r1, ip
   14bb4:	ebfffa8e 	bl	135f4 <TFT_InvertRect>
   14bb8:	eaffffe5 	b	14b54 <commVDG+0x24c>
   14bbc:	e58d3000 	str	r3, [sp]
   14bc0:	e1a01000 	mov	r1, r0
   14bc4:	e1a03002 	mov	r3, r2
   14bc8:	e1a0000e 	mov	r0, lr
   14bcc:	e1a0200c 	mov	r2, ip
   14bd0:	ebfffb58 	bl	13938 <TFT_RestoreScreen>
   14bd4:	eaffffde 	b	14b54 <commVDG+0x24c>
   14bd8:	e58d3000 	str	r3, [sp]
   14bdc:	e1a01000 	mov	r1, r0
   14be0:	e1a03002 	mov	r3, r2
   14be4:	e1a0000e 	mov	r0, lr
   14be8:	e1a0200c 	mov	r2, ip
   14bec:	ebfffb21 	bl	13878 <TFT_SaveScreen>
   14bf0:	eaffffd7 	b	14b54 <commVDG+0x24c>
   14bf4:	e59f1578 	ldr	r1, [pc, #1400]	; 15174 <commVDG+0x86c>
   14bf8:	e795e001 	ldr	lr, [r5, r1]
   14bfc:	e1a0100c 	mov	r1, ip
   14c00:	e58de000 	str	lr, [sp]
   14c04:	ebfff8bb 	bl	12ef8 <TFT_Image>
   14c08:	eaffffd1 	b	14b54 <commVDG+0x24c>
   14c0c:	e3a06003 	mov	r6, #3
   14c10:	e1a00004 	mov	r0, r4
   14c14:	e59f155c 	ldr	r1, [pc, #1372]	; 15178 <commVDG+0x870>
   14c18:	e5d43002 	ldrb	r3, [r4, #2]
   14c1c:	e7957001 	ldr	r7, [r5, r1]
   14c20:	e1a03303 	lsl	r3, r3, #6
   14c24:	e59f1550 	ldr	r1, [pc, #1360]	; 1517c <commVDG+0x874>
   14c28:	e5873000 	str	r3, [r7]
   14c2c:	e7951001 	ldr	r1, [r5, r1]
   14c30:	e59fe548 	ldr	lr, [pc, #1352]	; 15180 <commVDG+0x878>
   14c34:	e59fc538 	ldr	ip, [pc, #1336]	; 15174 <commVDG+0x86c>
   14c38:	e5816000 	str	r6, [r1]
   14c3c:	e1a02006 	mov	r2, r6
   14c40:	e795600e 	ldr	r6, [r5, lr]
   14c44:	e795e00c 	ldr	lr, [r5, ip]
   14c48:	e5d0c003 	ldrb	ip, [r0, #3]
   14c4c:	e2822002 	add	r2, r2, #2
   14c50:	e1a0440c 	lsl	r4, ip, #8
   14c54:	e78e4103 	str	r4, [lr, r3, lsl #2]
   14c58:	e586c000 	str	ip, [r6]
   14c5c:	e5d04004 	ldrb	r4, [r0, #4]
   14c60:	e79ec103 	ldr	ip, [lr, r3, lsl #2]
   14c64:	e3520083 	cmp	r2, #131	; 0x83
   14c68:	e184c00c 	orr	ip, r4, ip
   14c6c:	e78ec103 	str	ip, [lr, r3, lsl #2]
   14c70:	e2833001 	add	r3, r3, #1
   14c74:	e5864000 	str	r4, [r6]
   14c78:	e5812000 	str	r2, [r1]
   14c7c:	e2800002 	add	r0, r0, #2
   14c80:	e5873000 	str	r3, [r7]
   14c84:	1affffef 	bne	14c48 <commVDG+0x340>
   14c88:	eaffffb1 	b	14b54 <commVDG+0x24c>
   14c8c:	e59f34f0 	ldr	r3, [pc, #1264]	; 15184 <commVDG+0x87c>
   14c90:	e59f14f0 	ldr	r1, [pc, #1264]	; 15188 <commVDG+0x880>
   14c94:	e7952003 	ldr	r2, [r5, r3]
   14c98:	e59f34ec 	ldr	r3, [pc, #1260]	; 1518c <commVDG+0x884>
   14c9c:	e5920000 	ldr	r0, [r2]
   14ca0:	e1a00420 	lsr	r0, r0, #8
   14ca4:	e5c40000 	strb	r0, [r4]
   14ca8:	e5920000 	ldr	r0, [r2]
   14cac:	e5c40001 	strb	r0, [r4, #1]
   14cb0:	e7950001 	ldr	r0, [r5, r1]
   14cb4:	e5901000 	ldr	r1, [r0]
   14cb8:	e1a01421 	lsr	r1, r1, #8
   14cbc:	e5c41002 	strb	r1, [r4, #2]
   14cc0:	e5901000 	ldr	r1, [r0]
   14cc4:	e5c41003 	strb	r1, [r4, #3]
   14cc8:	e795e003 	ldr	lr, [r5, r3]
   14ccc:	e59e3000 	ldr	r3, [lr]
   14cd0:	e3530000 	cmp	r3, #0
   14cd4:	0affff9e 	beq	14b54 <commVDG+0x24c>
   14cd8:	e3a03001 	mov	r3, #1
   14cdc:	e59f1498 	ldr	r1, [pc, #1176]	; 1517c <commVDG+0x874>
   14ce0:	e59ec000 	ldr	ip, [lr]
   14ce4:	e7951001 	ldr	r1, [r5, r1]
   14ce8:	e35c0000 	cmp	ip, #0
   14cec:	e5813000 	str	r3, [r1]
   14cf0:	0a00000c 	beq	14d28 <commVDG+0x420>
   14cf4:	e7904103 	ldr	r4, [r0, r3, lsl #2]
   14cf8:	e243c001 	sub	ip, r3, #1
   14cfc:	e780410c 	str	r4, [r0, ip, lsl #2]
   14d00:	e7924103 	ldr	r4, [r2, r3, lsl #2]
   14d04:	e2833001 	add	r3, r3, #1
   14d08:	e782410c 	str	r4, [r2, ip, lsl #2]
   14d0c:	e59ec000 	ldr	ip, [lr]
   14d10:	e153000c 	cmp	r3, ip
   14d14:	9afffff6 	bls	14cf4 <commVDG+0x3ec>
   14d18:	e59fc460 	ldr	ip, [pc, #1120]	; 15180 <commVDG+0x878>
   14d1c:	e5813000 	str	r3, [r1]
   14d20:	e795300c 	ldr	r3, [r5, ip]
   14d24:	e5834000 	str	r4, [r3]
   14d28:	e3a03000 	mov	r3, #0
   14d2c:	e59e1000 	ldr	r1, [lr]
   14d30:	e7803101 	str	r3, [r0, r1, lsl #2]
   14d34:	e59e1000 	ldr	r1, [lr]
   14d38:	e7823101 	str	r3, [r2, r1, lsl #2]
   14d3c:	e59e3000 	ldr	r3, [lr]
   14d40:	e2433001 	sub	r3, r3, #1
   14d44:	e58e3000 	str	r3, [lr]
   14d48:	eaffff81 	b	14b54 <commVDG+0x24c>
   14d4c:	e59f243c 	ldr	r2, [pc, #1084]	; 15190 <commVDG+0x888>
   14d50:	e59f343c 	ldr	r3, [pc, #1084]	; 15194 <commVDG+0x88c>
   14d54:	e7950002 	ldr	r0, [r5, r2]
   14d58:	e5d02000 	ldrb	r2, [r0]
   14d5c:	e5c42000 	strb	r2, [r4]
   14d60:	e795c003 	ldr	ip, [r5, r3]
   14d64:	e59c3000 	ldr	r3, [ip]
   14d68:	e3530000 	cmp	r3, #0
   14d6c:	0a0000a0 	beq	14ff4 <commVDG+0x6ec>
   14d70:	e3a03001 	mov	r3, #1
   14d74:	e59f2400 	ldr	r2, [pc, #1024]	; 1517c <commVDG+0x874>
   14d78:	e59ce000 	ldr	lr, [ip]
   14d7c:	e7951002 	ldr	r1, [r5, r2]
   14d80:	e35e0000 	cmp	lr, #0
   14d84:	e5813000 	str	r3, [r1]
   14d88:	0a00000b 	beq	14dbc <commVDG+0x4b4>
   14d8c:	e7d02003 	ldrb	r2, [r0, r3]
   14d90:	e243e001 	sub	lr, r3, #1
   14d94:	e6ef2072 	uxtb	r2, r2
   14d98:	e7c0200e 	strb	r2, [r0, lr]
   14d9c:	e59ce000 	ldr	lr, [ip]
   14da0:	e2833001 	add	r3, r3, #1
   14da4:	e153000e 	cmp	r3, lr
   14da8:	9afffff7 	bls	14d8c <commVDG+0x484>
   14dac:	e59fe3c4 	ldr	lr, [pc, #964]	; 15178 <commVDG+0x870>
   14db0:	e5813000 	str	r3, [r1]
   14db4:	e795300e 	ldr	r3, [r5, lr]
   14db8:	e5832000 	str	r2, [r3]
   14dbc:	e3a02000 	mov	r2, #0
   14dc0:	e59c3000 	ldr	r3, [ip]
   14dc4:	e7c02003 	strb	r2, [r0, r3]
   14dc8:	e59c3000 	ldr	r3, [ip]
   14dcc:	e2433001 	sub	r3, r3, #1
   14dd0:	e58c3000 	str	r3, [ip]
   14dd4:	eaffff5e 	b	14b54 <commVDG+0x24c>
   14dd8:	e3570001 	cmp	r7, #1
   14ddc:	0a0000a8 	beq	15084 <commVDG+0x77c>
   14de0:	e3570002 	cmp	r7, #2
   14de4:	1affff5a 	bne	14b54 <commVDG+0x24c>
   14de8:	e3a01000 	mov	r1, #0
   14dec:	e59f23a4 	ldr	r2, [pc, #932]	; 15198 <commVDG+0x890>
   14df0:	e59f33a4 	ldr	r3, [pc, #932]	; 1519c <commVDG+0x894>
   14df4:	e7950002 	ldr	r0, [r5, r2]
   14df8:	e59f23a0 	ldr	r2, [pc, #928]	; 151a0 <commVDG+0x898>
   14dfc:	e5c01000 	strb	r1, [r0]
   14e00:	e7950003 	ldr	r0, [r5, r3]
   14e04:	e59f3398 	ldr	r3, [pc, #920]	; 151a4 <commVDG+0x89c>
   14e08:	e5c01000 	strb	r1, [r0]
   14e0c:	e7952002 	ldr	r2, [r5, r2]
   14e10:	e7953003 	ldr	r3, [r5, r3]
   14e14:	e5921000 	ldr	r1, [r2]
   14e18:	e5930000 	ldr	r0, [r3]
   14e1c:	ebfffb6f 	bl	13be0 <HideKeyboard>
   14e20:	eaffff4b 	b	14b54 <commVDG+0x24c>
   14e24:	e5d43003 	ldrb	r3, [r4, #3]
   14e28:	e18bb403 	orr	fp, fp, r3, lsl #8
   14e2c:	e59d300c 	ldr	r3, [sp, #12]
   14e30:	e583b000 	str	fp, [r3]
   14e34:	e5d40002 	ldrb	r0, [r4, #2]
   14e38:	ebfffa41 	bl	13744 <TFT_Scroll>
   14e3c:	eaffff44 	b	14b54 <commVDG+0x24c>
   14e40:	e1a02008 	mov	r2, r8
   14e44:	e1a0100c 	mov	r1, ip
   14e48:	ebfff6f4 	bl	12a20 <TFT_Dot>
   14e4c:	eaffff40 	b	14b54 <commVDG+0x24c>
   14e50:	e58d9000 	str	r9, [sp]
   14e54:	e1a0300a 	mov	r3, sl
   14e58:	e1a02007 	mov	r2, r7
   14e5c:	e1a0100c 	mov	r1, ip
   14e60:	ebfff730 	bl	12b28 <TFT_Circle>
   14e64:	eaffff3a 	b	14b54 <commVDG+0x24c>
   14e68:	e58de000 	str	lr, [sp]
   14e6c:	e1a0100c 	mov	r1, ip
   14e70:	ebfff711 	bl	12abc <TFT_Rectangle>
   14e74:	eaffff36 	b	14b54 <commVDG+0x24c>
   14e78:	e58de000 	str	lr, [sp]
   14e7c:	e1a0100c 	mov	r1, ip
   14e80:	ebfffb01 	bl	13a8c <TFT_Line>
   14e84:	eaffff32 	b	14b54 <commVDG+0x24c>
   14e88:	e58de000 	str	lr, [sp]
   14e8c:	e1a0100c 	mov	r1, ip
   14e90:	ebfff6ad 	bl	1294c <TFT_Box>
   14e94:	eaffff2e 	b	14b54 <commVDG+0x24c>
   14e98:	e3560008 	cmp	r6, #8
   14e9c:	e1cd80f0 	strd	r8, [sp]
   14ea0:	e1a03007 	mov	r3, r7
   14ea4:	e1a0200c 	mov	r2, ip
   14ea8:	e1a01000 	mov	r1, r0
   14eac:	0a000055 	beq	15008 <commVDG+0x700>
   14eb0:	e1a00006 	mov	r0, r6
   14eb4:	ebfff771 	bl	12c80 <TFT_Char>
   14eb8:	e59f329c 	ldr	r3, [pc, #668]	; 1515c <commVDG+0x854>
   14ebc:	e59d2008 	ldr	r2, [sp, #8]
   14ec0:	e7951003 	ldr	r1, [r5, r3]
   14ec4:	e5920000 	ldr	r0, [r2]
   14ec8:	e59d3010 	ldr	r3, [sp, #16]
   14ecc:	e59f2290 	ldr	r2, [pc, #656]	; 15164 <commVDG+0x85c>
   14ed0:	e5933000 	ldr	r3, [r3]
   14ed4:	e5810000 	str	r0, [r1]
   14ed8:	e7952002 	ldr	r2, [r5, r2]
   14edc:	e2833008 	add	r3, r3, #8
   14ee0:	e5823000 	str	r3, [r2]
   14ee4:	eaffff1a 	b	14b54 <commVDG+0x24c>
   14ee8:	e3a0300b 	mov	r3, #11
   14eec:	e59f2288 	ldr	r2, [pc, #648]	; 1517c <commVDG+0x874>
   14ef0:	e3560000 	cmp	r6, #0
   14ef4:	e7951002 	ldr	r1, [r5, r2]
   14ef8:	01a02004 	moveq	r2, r4
   14efc:	e5813000 	str	r3, [r1]
   14f00:	0a00000c 	beq	14f38 <commVDG+0x630>
   14f04:	e59f229c 	ldr	r2, [pc, #668]	; 151a8 <commVDG+0x8a0>
   14f08:	e7950002 	ldr	r0, [r5, r2]
   14f0c:	e0843003 	add	r3, r4, r3
   14f10:	e5c06000 	strb	r6, [r0]
   14f14:	e543600b 	strb	r6, [r3, #-11]
   14f18:	e5912000 	ldr	r2, [r1]
   14f1c:	e2823001 	add	r3, r2, #1
   14f20:	e5813000 	str	r3, [r1]
   14f24:	e7d46003 	ldrb	r6, [r4, r3]
   14f28:	e3560000 	cmp	r6, #0
   14f2c:	1afffff6 	bne	14f0c <commVDG+0x604>
   14f30:	e242200a 	sub	r2, r2, #10
   14f34:	e0842002 	add	r2, r4, r2
   14f38:	e3a03000 	mov	r3, #0
   14f3c:	e59d000c 	ldr	r0, [sp, #12]
   14f40:	e5c23000 	strb	r3, [r2]
   14f44:	e590e000 	ldr	lr, [r0]
   14f48:	e59d0018 	ldr	r0, [sp, #24]
   14f4c:	e59d301c 	ldr	r3, [sp, #28]
   14f50:	e590c000 	ldr	ip, [r0]
   14f54:	e59d2010 	ldr	r2, [sp, #16]
   14f58:	e59d1008 	ldr	r1, [sp, #8]
   14f5c:	e5d33000 	ldrb	r3, [r3]
   14f60:	e5922000 	ldr	r2, [r2]
   14f64:	e5911000 	ldr	r1, [r1]
   14f68:	e1a00004 	mov	r0, r4
   14f6c:	e88d5000 	stm	sp, {ip, lr}
   14f70:	ebfff7bf 	bl	12e74 <TFT_Text>
   14f74:	eafffef6 	b	14b54 <commVDG+0x24c>
   14f78:	e1d430b2 	ldrh	r3, [r4, #2]
   14f7c:	e59d2014 	ldr	r2, [sp, #20]
   14f80:	e6bf3fb3 	rev16	r3, r3
   14f84:	e6ff3073 	uxth	r3, r3
   14f88:	e1a00003 	mov	r0, r3
   14f8c:	e5823000 	str	r3, [r2]
   14f90:	ebfff639 	bl	1287c <TFT_Fill>
   14f94:	eafffeee 	b	14b54 <commVDG+0x24c>
   14f98:	e59f31b0 	ldr	r3, [pc, #432]	; 15150 <commVDG+0x848>
   14f9c:	e5d41002 	ldrb	r1, [r4, #2]
   14fa0:	e7952003 	ldr	r2, [r5, r3]
   14fa4:	e59f31c4 	ldr	r3, [pc, #452]	; 15170 <commVDG+0x868>
   14fa8:	e5c21000 	strb	r1, [r2]
   14fac:	e7952003 	ldr	r2, [r5, r3]
   14fb0:	e59f31b4 	ldr	r3, [pc, #436]	; 1516c <commVDG+0x864>
   14fb4:	e5828000 	str	r8, [r2]
   14fb8:	e7953003 	ldr	r3, [r5, r3]
   14fbc:	e59f2198 	ldr	r2, [pc, #408]	; 1515c <commVDG+0x854>
   14fc0:	e5839000 	str	r9, [r3]
   14fc4:	e59f3198 	ldr	r3, [pc, #408]	; 15164 <commVDG+0x85c>
   14fc8:	e7952002 	ldr	r2, [r5, r2]
   14fcc:	e7953003 	ldr	r3, [r5, r3]
   14fd0:	e3510000 	cmp	r1, #0
   14fd4:	03a00020 	moveq	r0, #32
   14fd8:	e5921000 	ldr	r1, [r2]
   14fdc:	13a0005f 	movne	r0, #95	; 0x5f
   14fe0:	e5932000 	ldr	r2, [r3]
   14fe4:	e1cd80f0 	strd	r8, [sp]
   14fe8:	e3a03008 	mov	r3, #8
   14fec:	ebfff723 	bl	12c80 <TFT_Char>
   14ff0:	eafffed7 	b	14b54 <commVDG+0x24c>
   14ff4:	e3a02001 	mov	r2, #1
   14ff8:	e59f31ac 	ldr	r3, [pc, #428]	; 151ac <commVDG+0x8a4>
   14ffc:	e7953003 	ldr	r3, [r5, r3]
   15000:	e5c32000 	strb	r2, [r3]
   15004:	eafffed2 	b	14b54 <commVDG+0x24c>
   15008:	e3a00020 	mov	r0, #32
   1500c:	ebfff71b 	bl	12c80 <TFT_Char>
   15010:	e59f3144 	ldr	r3, [pc, #324]	; 1515c <commVDG+0x854>
   15014:	e59d2008 	ldr	r2, [sp, #8]
   15018:	e5921000 	ldr	r1, [r2]
   1501c:	e7952003 	ldr	r2, [r5, r3]
   15020:	e59f313c 	ldr	r3, [pc, #316]	; 15164 <commVDG+0x85c>
   15024:	e5821000 	str	r1, [r2]
   15028:	e59d2010 	ldr	r2, [sp, #16]
   1502c:	e7953003 	ldr	r3, [r5, r3]
   15030:	e5922000 	ldr	r2, [r2]
   15034:	e5832000 	str	r2, [r3]
   15038:	eafffec5 	b	14b54 <commVDG+0x24c>
   1503c:	e59f2118 	ldr	r2, [pc, #280]	; 1515c <commVDG+0x854>
   15040:	e59f3118 	ldr	r3, [pc, #280]	; 15160 <commVDG+0x858>
   15044:	e7952002 	ldr	r2, [r5, r2]
   15048:	e7953003 	ldr	r3, [r5, r3]
   1504c:	e5921000 	ldr	r1, [r2]
   15050:	e5933000 	ldr	r3, [r3]
   15054:	e1510003 	cmp	r1, r3
   15058:	2a000007 	bcs	1507c <commVDG+0x774>
   1505c:	e59f2100 	ldr	r2, [pc, #256]	; 15164 <commVDG+0x85c>
   15060:	e59f3100 	ldr	r3, [pc, #256]	; 15168 <commVDG+0x860>
   15064:	e7952002 	ldr	r2, [r5, r2]
   15068:	e7953003 	ldr	r3, [r5, r3]
   1506c:	e5922000 	ldr	r2, [r2]
   15070:	e5933000 	ldr	r3, [r3]
   15074:	e1520003 	cmp	r2, r3
   15078:	3a00001d 	bcc	150f4 <commVDG+0x7ec>
   1507c:	e59f312c 	ldr	r3, [pc, #300]	; 151b0 <commVDG+0x8a8>
   15080:	eafffeb2 	b	14b50 <commVDG+0x248>
   15084:	e59f210c 	ldr	r2, [pc, #268]	; 15198 <commVDG+0x890>
   15088:	e59f310c 	ldr	r3, [pc, #268]	; 1519c <commVDG+0x894>
   1508c:	e7952002 	ldr	r2, [r5, r2]
   15090:	e59d1020 	ldr	r1, [sp, #32]
   15094:	e5c27000 	strb	r7, [r2]
   15098:	e7952003 	ldr	r2, [r5, r3]
   1509c:	e59f3110 	ldr	r3, [pc, #272]	; 151b4 <commVDG+0x8ac>
   150a0:	e5c27000 	strb	r7, [r2]
   150a4:	e7952003 	ldr	r2, [r5, r3]
   150a8:	e59f3108 	ldr	r3, [pc, #264]	; 151b8 <commVDG+0x8b0>
   150ac:	e5c2a000 	strb	sl, [r2]
   150b0:	e7952003 	ldr	r2, [r5, r3]
   150b4:	e59f3100 	ldr	r3, [pc, #256]	; 151bc <commVDG+0x8b4>
   150b8:	e5c21000 	strb	r1, [r2]
   150bc:	e7952003 	ldr	r2, [r5, r3]
   150c0:	e59d1024 	ldr	r1, [sp, #36]	; 0x24
   150c4:	e59f30d4 	ldr	r3, [pc, #212]	; 151a0 <commVDG+0x898>
   150c8:	e5c21000 	strb	r1, [r2]
   150cc:	e7952003 	ldr	r2, [r5, r3]
   150d0:	e59f30cc 	ldr	r3, [pc, #204]	; 151a4 <commVDG+0x89c>
   150d4:	e5820000 	str	r0, [r2]
   150d8:	e7953003 	ldr	r3, [r5, r3]
   150dc:	e1a01000 	mov	r1, r0
   150e0:	e1a02007 	mov	r2, r7
   150e4:	e1a0000c 	mov	r0, ip
   150e8:	e583c000 	str	ip, [r3]
   150ec:	ebffface 	bl	13c2c <ShowKeyboard>
   150f0:	eafffe97 	b	14b54 <commVDG+0x24c>
   150f4:	e59f3070 	ldr	r3, [pc, #112]	; 1516c <commVDG+0x864>
   150f8:	e7953003 	ldr	r3, [r5, r3]
   150fc:	e5930000 	ldr	r0, [r3]
   15100:	e59f3068 	ldr	r3, [pc, #104]	; 15170 <commVDG+0x868>
   15104:	e58d0004 	str	r0, [sp, #4]
   15108:	e7950003 	ldr	r0, [r5, r3]
   1510c:	e3a03008 	mov	r3, #8
   15110:	e590c000 	ldr	ip, [r0]
   15114:	e3a0005f 	mov	r0, #95	; 0x5f
   15118:	e58dc000 	str	ip, [sp]
   1511c:	ebfff6d7 	bl	12c80 <TFT_Char>
   15120:	e5943000 	ldr	r3, [r4]
   15124:	e2833001 	add	r3, r3, #1
   15128:	eafffe88 	b	14b50 <commVDG+0x248>
   1512c:	0000a55c 	andeq	sl, r0, ip, asr r5
   15130:	000001c0 	andeq	r0, r0, r0, asr #3
   15134:	00000128 	andeq	r0, r0, r8, lsr #2
   15138:	00000170 	andeq	r0, r0, r0, ror r1
   1513c:	000001cc 	andeq	r0, r0, ip, asr #3
   15140:	00000248 	andeq	r0, r0, r8, asr #4
   15144:	0000014c 	andeq	r0, r0, ip, asr #2
   15148:	000001dc 	ldrdeq	r0, [r0], -ip
   1514c:	00000028 	andeq	r0, r0, r8, lsr #32
   15150:	00000110 	andeq	r0, r0, r0, lsl r1
   15154:	00000234 	andeq	r0, r0, r4, lsr r2
   15158:	0000021c 	andeq	r0, r0, ip, lsl r2
   1515c:	00000250 	andeq	r0, r0, r0, asr r2
   15160:	000001e0 	andeq	r0, r0, r0, ror #3
   15164:	00000054 	andeq	r0, r0, r4, asr r0
   15168:	000000fc 	strdeq	r0, [r0], -ip
   1516c:	00000220 	andeq	r0, r0, r0, lsr #4
   15170:	00000100 	andeq	r0, r0, r0, lsl #2
   15174:	00000014 	andeq	r0, r0, r4, lsl r0
   15178:	0000006c 	andeq	r0, r0, ip, rrx
   1517c:	000001f4 	strdeq	r0, [r0], -r4
   15180:	00000144 	andeq	r0, r0, r4, asr #2
   15184:	000000c4 	andeq	r0, r0, r4, asr #1
   15188:	000000b8 	strheq	r0, [r0], -r8
   1518c:	000000a8 	andeq	r0, r0, r8, lsr #1
   15190:	00000090 	muleq	r0, r0, r0
   15194:	0000011c 	andeq	r0, r0, ip, lsl r1
   15198:	000001d0 	ldrdeq	r0, [r0], -r0	; <UNPREDICTABLE>
   1519c:	00000168 	andeq	r0, r0, r8, ror #2
   151a0:	00000004 	andeq	r0, r0, r4
   151a4:	00000204 	andeq	r0, r0, r4, lsl #4
   151a8:	00000178 	andeq	r0, r0, r8, ror r1
   151ac:	00000180 	andeq	r0, r0, r0, lsl #3
   151b0:	00005001 	andeq	r5, r0, r1
   151b4:	00000044 	andeq	r0, r0, r4, asr #32
   151b8:	00000060 	andeq	r0, r0, r0, rrx
   151bc:	000001a4 	andeq	r0, r0, r4, lsr #3

000151c0 <lcd_tch_irq_handler>:
   151c0:	e59f3020 	ldr	r3, [pc, #32]	; 151e8 <lcd_tch_irq_handler+0x28>
   151c4:	e59f2020 	ldr	r2, [pc, #32]	; 151ec <lcd_tch_irq_handler+0x2c>
   151c8:	e08f3003 	add	r3, pc, r3
   151cc:	e7933002 	ldr	r3, [r3, r2]
   151d0:	e5d32000 	ldrb	r2, [r3]
   151d4:	e3520000 	cmp	r2, #0
   151d8:	012fff1e 	bxeq	lr
   151dc:	e3a02000 	mov	r2, #0
   151e0:	e5c32000 	strb	r2, [r3]
   151e4:	eafffd04 	b	145fc <TCHVerif>
   151e8:	00009cb0 			; <UNDEFINED> instruction: 0x00009cb0
   151ec:	000001c4 	andeq	r0, r0, r4, asr #3

000151f0 <usb_irq_handler>:
   151f0:	e12fff1e 	bx	lr

000151f4 <usb_irq_clearer>:
   151f4:	e12fff1e 	bx	lr

000151f8 <timer_getTickCount64>:
   151f8:	e92d0030 	push	{r4, r5}
   151fc:	e59f3040 	ldr	r3, [pc, #64]	; 15244 <timer_getTickCount64+0x4c>
   15200:	e59f2040 	ldr	r2, [pc, #64]	; 15248 <timer_getTickCount64+0x50>
   15204:	e08f3003 	add	r3, pc, r3
   15208:	e7933002 	ldr	r3, [r3, r2]
   1520c:	e5933000 	ldr	r3, [r3]
   15210:	e2833a03 	add	r3, r3, #12288	; 0x3000
   15214:	e5932008 	ldr	r2, [r3, #8]
   15218:	e5930004 	ldr	r0, [r3, #4]
   1521c:	e5931008 	ldr	r1, [r3, #8]
   15220:	e1520001 	cmp	r2, r1
   15224:	1afffffa 	bne	15214 <timer_getTickCount64+0x1c>
   15228:	e3a04000 	mov	r4, #0
   1522c:	e1a05002 	mov	r5, r2
   15230:	e1842000 	orr	r2, r4, r0
   15234:	e1a01005 	mov	r1, r5
   15238:	e8bd0030 	pop	{r4, r5}
   1523c:	e1a00002 	mov	r0, r2
   15240:	e12fff1e 	bx	lr
   15244:	00009c74 	andeq	r9, r0, r4, ror ip
   15248:	00000154 	andeq	r0, r0, r4, asr r1

0001524c <myMemCopy>:
   1524c:	e3520000 	cmp	r2, #0
   15250:	012fff1e 	bxeq	lr
   15254:	e2400001 	sub	r0, r0, #1
   15258:	e0812002 	add	r2, r1, r2
   1525c:	e4d13001 	ldrb	r3, [r1], #1
   15260:	e1510002 	cmp	r1, r2
   15264:	e5e03001 	strb	r3, [r0, #1]!
   15268:	1afffffb 	bne	1525c <myMemCopy+0x10>
   1526c:	e12fff1e 	bx	lr

00015270 <HcdProcessRootHubMessage>:
   15270:	e92d41f0 	push	{r4, r5, r6, r7, r8, lr}
   15274:	e5d2c001 	ldrb	ip, [r2, #1]
   15278:	e59f6740 	ldr	r6, [pc, #1856]	; 159c0 <HcdProcessRootHubMessage+0x750>
   1527c:	e24dd008 	sub	sp, sp, #8
   15280:	e1a08000 	mov	r8, r0
   15284:	e1a07003 	mov	r7, r3
   15288:	e08f6006 	add	r6, pc, r6
   1528c:	e35c0009 	cmp	ip, #9
   15290:	908ff10c 	addls	pc, pc, ip, lsl #2
   15294:	ea00002e 	b	15354 <HcdProcessRootHubMessage+0xe4>
   15298:	ea00003e 	b	15398 <HcdProcessRootHubMessage+0x128>
   1529c:	ea000066 	b	1543c <HcdProcessRootHubMessage+0x1cc>
   152a0:	ea00002b 	b	15354 <HcdProcessRootHubMessage+0xe4>
   152a4:	ea00008c 	b	154dc <HcdProcessRootHubMessage+0x26c>
   152a8:	ea000029 	b	15354 <HcdProcessRootHubMessage+0xe4>
   152ac:	ea00002b 	b	15360 <HcdProcessRootHubMessage+0xf0>
   152b0:	ea000022 	b	15340 <HcdProcessRootHubMessage+0xd0>
   152b4:	ea000026 	b	15354 <HcdProcessRootHubMessage+0xe4>
   152b8:	ea00002f 	b	1537c <HcdProcessRootHubMessage+0x10c>
   152bc:	ea000014 	b	15314 <HcdProcessRootHubMessage+0xa4>
   152c0:	e5d23004 	ldrb	r3, [r2, #4]
   152c4:	e5d21005 	ldrb	r1, [r2, #5]
   152c8:	e1833401 	orr	r3, r3, r1, lsl #8
   152cc:	e3530001 	cmp	r3, #1
   152d0:	1a00001f 	bne	15354 <HcdProcessRootHubMessage+0xe4>
   152d4:	e5d23002 	ldrb	r3, [r2, #2]
   152d8:	e3530004 	cmp	r3, #4
   152dc:	0a000180 	beq	158e4 <HcdProcessRootHubMessage+0x674>
   152e0:	e3530008 	cmp	r3, #8
   152e4:	1a00000a 	bne	15314 <HcdProcessRootHubMessage+0xa4>
   152e8:	e59f06d4 	ldr	r0, [pc, #1748]	; 159c4 <HcdProcessRootHubMessage+0x754>
   152ec:	e08f0000 	add	r0, pc, r0
   152f0:	ebffecac 	bl	105a8 <printf>
   152f4:	e59f36cc 	ldr	r3, [pc, #1740]	; 159c8 <HcdProcessRootHubMessage+0x758>
   152f8:	e7963003 	ldr	r3, [r6, r3]
   152fc:	e5932000 	ldr	r2, [r3]
   15300:	e2822726 	add	r2, r2, #9961472	; 0x980000
   15304:	e5923440 	ldr	r3, [r2, #1088]	; 0x440
   15308:	e3c3302e 	bic	r3, r3, #46	; 0x2e
   1530c:	e3833a01 	orr	r3, r3, #4096	; 0x1000
   15310:	e5823440 	str	r3, [r2, #1088]	; 0x440
   15314:	e3a05000 	mov	r5, #0
   15318:	e1a04005 	mov	r4, r5
   1531c:	e1a00008 	mov	r0, r8
   15320:	e1a02004 	mov	r2, r4
   15324:	e28d1004 	add	r1, sp, #4
   15328:	ebffffc7 	bl	1524c <myMemCopy>
   1532c:	e1a00005 	mov	r0, r5
   15330:	e3570000 	cmp	r7, #0
   15334:	15874000 	strne	r4, [r7]
   15338:	e28dd008 	add	sp, sp, #8
   1533c:	e8bd81f0 	pop	{r4, r5, r6, r7, r8, pc}
   15340:	e5d23000 	ldrb	r3, [r2]
   15344:	e3530080 	cmp	r3, #128	; 0x80
   15348:	0a000153 	beq	1589c <HcdProcessRootHubMessage+0x62c>
   1534c:	e35300a0 	cmp	r3, #160	; 0xa0
   15350:	0a0000a6 	beq	155f0 <HcdProcessRootHubMessage+0x380>
   15354:	e3e05001 	mvn	r5, #1
   15358:	e3a04000 	mov	r4, #0
   1535c:	eaffffee 	b	1531c <HcdProcessRootHubMessage+0xac>
   15360:	e3a05000 	mov	r5, #0
   15364:	e59f3660 	ldr	r3, [pc, #1632]	; 159cc <HcdProcessRootHubMessage+0x75c>
   15368:	e5d22002 	ldrb	r2, [r2, #2]
   1536c:	e7963003 	ldr	r3, [r6, r3]
   15370:	e1a04005 	mov	r4, r5
   15374:	e5c32000 	strb	r2, [r3]
   15378:	eaffffe7 	b	1531c <HcdProcessRootHubMessage+0xac>
   1537c:	e3a03001 	mov	r3, #1
   15380:	e1510003 	cmp	r1, r3
   15384:	31a04001 	movcc	r4, r1
   15388:	21a04003 	movcs	r4, r3
   1538c:	e5cd3004 	strb	r3, [sp, #4]
   15390:	e3a05000 	mov	r5, #0
   15394:	eaffffe0 	b	1531c <HcdProcessRootHubMessage+0xac>
   15398:	e5d23000 	ldrb	r3, [r2]
   1539c:	e2433080 	sub	r3, r3, #128	; 0x80
   153a0:	e3530023 	cmp	r3, #35	; 0x23
   153a4:	908ff103 	addls	pc, pc, r3, lsl #2
   153a8:	eaffffe9 	b	15354 <HcdProcessRootHubMessage+0xe4>
   153ac:	ea00009b 	b	15620 <HcdProcessRootHubMessage+0x3b0>
   153b0:	ea0000df 	b	15734 <HcdProcessRootHubMessage+0x4c4>
   153b4:	ea0000de 	b	15734 <HcdProcessRootHubMessage+0x4c4>
   153b8:	eaffffe5 	b	15354 <HcdProcessRootHubMessage+0xe4>
   153bc:	eaffffe4 	b	15354 <HcdProcessRootHubMessage+0xe4>
   153c0:	eaffffe3 	b	15354 <HcdProcessRootHubMessage+0xe4>
   153c4:	eaffffe2 	b	15354 <HcdProcessRootHubMessage+0xe4>
   153c8:	eaffffe1 	b	15354 <HcdProcessRootHubMessage+0xe4>
   153cc:	eaffffe0 	b	15354 <HcdProcessRootHubMessage+0xe4>
   153d0:	eaffffdf 	b	15354 <HcdProcessRootHubMessage+0xe4>
   153d4:	eaffffde 	b	15354 <HcdProcessRootHubMessage+0xe4>
   153d8:	eaffffdd 	b	15354 <HcdProcessRootHubMessage+0xe4>
   153dc:	eaffffdc 	b	15354 <HcdProcessRootHubMessage+0xe4>
   153e0:	eaffffdb 	b	15354 <HcdProcessRootHubMessage+0xe4>
   153e4:	eaffffda 	b	15354 <HcdProcessRootHubMessage+0xe4>
   153e8:	eaffffd9 	b	15354 <HcdProcessRootHubMessage+0xe4>
   153ec:	eaffffd8 	b	15354 <HcdProcessRootHubMessage+0xe4>
   153f0:	eaffffd7 	b	15354 <HcdProcessRootHubMessage+0xe4>
   153f4:	eaffffd6 	b	15354 <HcdProcessRootHubMessage+0xe4>
   153f8:	eaffffd5 	b	15354 <HcdProcessRootHubMessage+0xe4>
   153fc:	eaffffd4 	b	15354 <HcdProcessRootHubMessage+0xe4>
   15400:	eaffffd3 	b	15354 <HcdProcessRootHubMessage+0xe4>
   15404:	eaffffd2 	b	15354 <HcdProcessRootHubMessage+0xe4>
   15408:	eaffffd1 	b	15354 <HcdProcessRootHubMessage+0xe4>
   1540c:	eaffffd0 	b	15354 <HcdProcessRootHubMessage+0xe4>
   15410:	eaffffcf 	b	15354 <HcdProcessRootHubMessage+0xe4>
   15414:	eaffffce 	b	15354 <HcdProcessRootHubMessage+0xe4>
   15418:	eaffffcd 	b	15354 <HcdProcessRootHubMessage+0xe4>
   1541c:	eaffffcc 	b	15354 <HcdProcessRootHubMessage+0xe4>
   15420:	eaffffcb 	b	15354 <HcdProcessRootHubMessage+0xe4>
   15424:	eaffffca 	b	15354 <HcdProcessRootHubMessage+0xe4>
   15428:	eaffffc9 	b	15354 <HcdProcessRootHubMessage+0xe4>
   1542c:	ea0000b9 	b	15718 <HcdProcessRootHubMessage+0x4a8>
   15430:	eaffffc7 	b	15354 <HcdProcessRootHubMessage+0xe4>
   15434:	eaffffc6 	b	15354 <HcdProcessRootHubMessage+0xe4>
   15438:	ea00007f 	b	1563c <HcdProcessRootHubMessage+0x3cc>
   1543c:	e5d23000 	ldrb	r3, [r2]
   15440:	e2433001 	sub	r3, r3, #1
   15444:	e3530022 	cmp	r3, #34	; 0x22
   15448:	908ff103 	addls	pc, pc, r3, lsl #2
   1544c:	eaffffc0 	b	15354 <HcdProcessRootHubMessage+0xe4>
   15450:	eaffffaf 	b	15314 <HcdProcessRootHubMessage+0xa4>
   15454:	eaffffae 	b	15314 <HcdProcessRootHubMessage+0xa4>
   15458:	eaffffbd 	b	15354 <HcdProcessRootHubMessage+0xe4>
   1545c:	eaffffbc 	b	15354 <HcdProcessRootHubMessage+0xe4>
   15460:	eaffffbb 	b	15354 <HcdProcessRootHubMessage+0xe4>
   15464:	eaffffba 	b	15354 <HcdProcessRootHubMessage+0xe4>
   15468:	eaffffb9 	b	15354 <HcdProcessRootHubMessage+0xe4>
   1546c:	eaffffb8 	b	15354 <HcdProcessRootHubMessage+0xe4>
   15470:	eaffffb7 	b	15354 <HcdProcessRootHubMessage+0xe4>
   15474:	eaffffb6 	b	15354 <HcdProcessRootHubMessage+0xe4>
   15478:	eaffffb5 	b	15354 <HcdProcessRootHubMessage+0xe4>
   1547c:	eaffffb4 	b	15354 <HcdProcessRootHubMessage+0xe4>
   15480:	eaffffb3 	b	15354 <HcdProcessRootHubMessage+0xe4>
   15484:	eaffffb2 	b	15354 <HcdProcessRootHubMessage+0xe4>
   15488:	eaffffb1 	b	15354 <HcdProcessRootHubMessage+0xe4>
   1548c:	eaffffb0 	b	15354 <HcdProcessRootHubMessage+0xe4>
   15490:	eaffffaf 	b	15354 <HcdProcessRootHubMessage+0xe4>
   15494:	eaffffae 	b	15354 <HcdProcessRootHubMessage+0xe4>
   15498:	eaffffad 	b	15354 <HcdProcessRootHubMessage+0xe4>
   1549c:	eaffffac 	b	15354 <HcdProcessRootHubMessage+0xe4>
   154a0:	eaffffab 	b	15354 <HcdProcessRootHubMessage+0xe4>
   154a4:	eaffffaa 	b	15354 <HcdProcessRootHubMessage+0xe4>
   154a8:	eaffffa9 	b	15354 <HcdProcessRootHubMessage+0xe4>
   154ac:	eaffffa8 	b	15354 <HcdProcessRootHubMessage+0xe4>
   154b0:	eaffffa7 	b	15354 <HcdProcessRootHubMessage+0xe4>
   154b4:	eaffffa6 	b	15354 <HcdProcessRootHubMessage+0xe4>
   154b8:	eaffffa5 	b	15354 <HcdProcessRootHubMessage+0xe4>
   154bc:	eaffffa4 	b	15354 <HcdProcessRootHubMessage+0xe4>
   154c0:	eaffffa3 	b	15354 <HcdProcessRootHubMessage+0xe4>
   154c4:	eaffffa2 	b	15354 <HcdProcessRootHubMessage+0xe4>
   154c8:	eaffffa1 	b	15354 <HcdProcessRootHubMessage+0xe4>
   154cc:	eaffff90 	b	15314 <HcdProcessRootHubMessage+0xa4>
   154d0:	eaffff9f 	b	15354 <HcdProcessRootHubMessage+0xe4>
   154d4:	eaffff9e 	b	15354 <HcdProcessRootHubMessage+0xe4>
   154d8:	ea000027 	b	1557c <HcdProcessRootHubMessage+0x30c>
   154dc:	e5d23000 	ldrb	r3, [r2]
   154e0:	e2433001 	sub	r3, r3, #1
   154e4:	e3530022 	cmp	r3, #34	; 0x22
   154e8:	908ff103 	addls	pc, pc, r3, lsl #2
   154ec:	eaffff98 	b	15354 <HcdProcessRootHubMessage+0xe4>
   154f0:	eaffff87 	b	15314 <HcdProcessRootHubMessage+0xa4>
   154f4:	eaffff86 	b	15314 <HcdProcessRootHubMessage+0xa4>
   154f8:	eaffff95 	b	15354 <HcdProcessRootHubMessage+0xe4>
   154fc:	eaffff94 	b	15354 <HcdProcessRootHubMessage+0xe4>
   15500:	eaffff93 	b	15354 <HcdProcessRootHubMessage+0xe4>
   15504:	eaffff92 	b	15354 <HcdProcessRootHubMessage+0xe4>
   15508:	eaffff91 	b	15354 <HcdProcessRootHubMessage+0xe4>
   1550c:	eaffff90 	b	15354 <HcdProcessRootHubMessage+0xe4>
   15510:	eaffff8f 	b	15354 <HcdProcessRootHubMessage+0xe4>
   15514:	eaffff8e 	b	15354 <HcdProcessRootHubMessage+0xe4>
   15518:	eaffff8d 	b	15354 <HcdProcessRootHubMessage+0xe4>
   1551c:	eaffff8c 	b	15354 <HcdProcessRootHubMessage+0xe4>
   15520:	eaffff8b 	b	15354 <HcdProcessRootHubMessage+0xe4>
   15524:	eaffff8a 	b	15354 <HcdProcessRootHubMessage+0xe4>
   15528:	eaffff89 	b	15354 <HcdProcessRootHubMessage+0xe4>
   1552c:	eaffff88 	b	15354 <HcdProcessRootHubMessage+0xe4>
   15530:	eaffff87 	b	15354 <HcdProcessRootHubMessage+0xe4>
   15534:	eaffff86 	b	15354 <HcdProcessRootHubMessage+0xe4>
   15538:	eaffff85 	b	15354 <HcdProcessRootHubMessage+0xe4>
   1553c:	eaffff84 	b	15354 <HcdProcessRootHubMessage+0xe4>
   15540:	eaffff83 	b	15354 <HcdProcessRootHubMessage+0xe4>
   15544:	eaffff82 	b	15354 <HcdProcessRootHubMessage+0xe4>
   15548:	eaffff81 	b	15354 <HcdProcessRootHubMessage+0xe4>
   1554c:	eaffff80 	b	15354 <HcdProcessRootHubMessage+0xe4>
   15550:	eaffff7f 	b	15354 <HcdProcessRootHubMessage+0xe4>
   15554:	eaffff7e 	b	15354 <HcdProcessRootHubMessage+0xe4>
   15558:	eaffff7d 	b	15354 <HcdProcessRootHubMessage+0xe4>
   1555c:	eaffff7c 	b	15354 <HcdProcessRootHubMessage+0xe4>
   15560:	eaffff7b 	b	15354 <HcdProcessRootHubMessage+0xe4>
   15564:	eaffff7a 	b	15354 <HcdProcessRootHubMessage+0xe4>
   15568:	eaffff79 	b	15354 <HcdProcessRootHubMessage+0xe4>
   1556c:	eaffff68 	b	15314 <HcdProcessRootHubMessage+0xa4>
   15570:	eaffff77 	b	15354 <HcdProcessRootHubMessage+0xe4>
   15574:	eaffff76 	b	15354 <HcdProcessRootHubMessage+0xe4>
   15578:	eaffff50 	b	152c0 <HcdProcessRootHubMessage+0x50>
   1557c:	e5d23004 	ldrb	r3, [r2, #4]
   15580:	e5d21005 	ldrb	r1, [r2, #5]
   15584:	e1833401 	orr	r3, r3, r1, lsl #8
   15588:	e3530001 	cmp	r3, #1
   1558c:	1affff70 	bne	15354 <HcdProcessRootHubMessage+0xe4>
   15590:	e5d23002 	ldrb	r3, [r2, #2]
   15594:	e2433001 	sub	r3, r3, #1
   15598:	e3530012 	cmp	r3, #18
   1559c:	908ff103 	addls	pc, pc, r3, lsl #2
   155a0:	eaffff5b 	b	15314 <HcdProcessRootHubMessage+0xa4>
   155a4:	ea000082 	b	157b4 <HcdProcessRootHubMessage+0x544>
   155a8:	ea000067 	b	1574c <HcdProcessRootHubMessage+0x4dc>
   155ac:	eaffff58 	b	15314 <HcdProcessRootHubMessage+0xa4>
   155b0:	eaffff57 	b	15314 <HcdProcessRootHubMessage+0xa4>
   155b4:	eaffff56 	b	15314 <HcdProcessRootHubMessage+0xa4>
   155b8:	eaffff55 	b	15314 <HcdProcessRootHubMessage+0xa4>
   155bc:	eaffff54 	b	15314 <HcdProcessRootHubMessage+0xa4>
   155c0:	ea000091 	b	1580c <HcdProcessRootHubMessage+0x59c>
   155c4:	eaffff52 	b	15314 <HcdProcessRootHubMessage+0xa4>
   155c8:	eaffff51 	b	15314 <HcdProcessRootHubMessage+0xa4>
   155cc:	eaffff50 	b	15314 <HcdProcessRootHubMessage+0xa4>
   155d0:	eaffff4f 	b	15314 <HcdProcessRootHubMessage+0xa4>
   155d4:	eaffff4e 	b	15314 <HcdProcessRootHubMessage+0xa4>
   155d8:	eaffff4d 	b	15314 <HcdProcessRootHubMessage+0xa4>
   155dc:	eaffff4c 	b	15314 <HcdProcessRootHubMessage+0xa4>
   155e0:	ea00007e 	b	157e0 <HcdProcessRootHubMessage+0x570>
   155e4:	ea0000a1 	b	15870 <HcdProcessRootHubMessage+0x600>
   155e8:	eaffff49 	b	15314 <HcdProcessRootHubMessage+0xa4>
   155ec:	ea000094 	b	15844 <HcdProcessRootHubMessage+0x5d4>
   155f0:	e59f33d8 	ldr	r3, [pc, #984]	; 159d0 <HcdProcessRootHubMessage+0x760>
   155f4:	e7963003 	ldr	r3, [r6, r3]
   155f8:	e5d34000 	ldrb	r4, [r3]
   155fc:	e58d3004 	str	r3, [sp, #4]
   15600:	e1540001 	cmp	r4, r1
   15604:	21a04001 	movcs	r4, r1
   15608:	e1a01003 	mov	r1, r3
   1560c:	e1a00008 	mov	r0, r8
   15610:	e1a02004 	mov	r2, r4
   15614:	ebffff0c 	bl	1524c <myMemCopy>
   15618:	e3a05000 	mov	r5, #0
   1561c:	eaffff42 	b	1532c <HcdProcessRootHubMessage+0xbc>
   15620:	e3a03001 	mov	r3, #1
   15624:	e3510002 	cmp	r1, #2
   15628:	31a04001 	movcc	r4, r1
   1562c:	23a04002 	movcs	r4, #2
   15630:	e1cd30b4 	strh	r3, [sp, #4]
   15634:	e3a05000 	mov	r5, #0
   15638:	eaffff37 	b	1531c <HcdProcessRootHubMessage+0xac>
   1563c:	e5d23004 	ldrb	r3, [r2, #4]
   15640:	e5d22005 	ldrb	r2, [r2, #5]
   15644:	e1833402 	orr	r3, r3, r2, lsl #8
   15648:	e3530001 	cmp	r3, #1
   1564c:	1affff40 	bne	15354 <HcdProcessRootHubMessage+0xe4>
   15650:	e3a02000 	mov	r2, #0
   15654:	e59f336c 	ldr	r3, [pc, #876]	; 159c8 <HcdProcessRootHubMessage+0x758>
   15658:	e7963003 	ldr	r3, [r6, r3]
   1565c:	e5933000 	ldr	r3, [r3]
   15660:	e2833726 	add	r3, r3, #9961472	; 0x980000
   15664:	e5933440 	ldr	r3, [r3, #1088]	; 0x440
   15668:	e58d2004 	str	r2, [sp, #4]
   1566c:	e1a0c0a3 	lsr	ip, r3, #1
   15670:	e2030001 	and	r0, r3, #1
   15674:	e20cc002 	and	ip, ip, #2
   15678:	e1a022a3 	lsr	r2, r3, #5
   1567c:	e18cc000 	orr	ip, ip, r0
   15680:	e2022004 	and	r2, r2, #4
   15684:	e1a000a3 	lsr	r0, r3, #1
   15688:	e182c00c 	orr	ip, r2, ip
   1568c:	e2000008 	and	r0, r0, #8
   15690:	e1a02223 	lsr	r2, r3, #4
   15694:	e180000c 	orr	r0, r0, ip
   15698:	e2022010 	and	r2, r2, #16
   1569c:	e1822000 	orr	r2, r2, r0
   156a0:	e1a0c623 	lsr	ip, r3, #12
   156a4:	e1a008a3 	lsr	r0, r3, #17
   156a8:	e20cc001 	and	ip, ip, #1
   156ac:	e2100003 	ands	r0, r0, #3
   156b0:	e5cd2004 	strb	r2, [sp, #4]
   156b4:	e5cdc005 	strb	ip, [sp, #5]
   156b8:	1a0000a7 	bne	1595c <HcdProcessRootHubMessage+0x6ec>
   156bc:	e6ef207c 	uxtb	r2, ip
   156c0:	e3822004 	orr	r2, r2, #4
   156c4:	e5cd2005 	strb	r2, [sp, #5]
   156c8:	e5dd2006 	ldrb	r2, [sp, #6]
   156cc:	e1a0cf03 	lsl	ip, r3, #30
   156d0:	e5dd0005 	ldrb	r0, [sp, #5]
   156d4:	e3c22001 	bic	r2, r2, #1
   156d8:	e1822fac 	orr	r2, r2, ip, lsr #31
   156dc:	e1a0c123 	lsr	ip, r3, #2
   156e0:	e1a03523 	lsr	r3, r3, #10
   156e4:	e20220e5 	and	r2, r2, #229	; 0xe5
   156e8:	e20cc008 	and	ip, ip, #8
   156ec:	e2033008 	and	r3, r3, #8
   156f0:	e3c00008 	bic	r0, r0, #8
   156f4:	e3510004 	cmp	r1, #4
   156f8:	e182200c 	orr	r2, r2, ip
   156fc:	e1833000 	orr	r3, r3, r0
   15700:	31a04001 	movcc	r4, r1
   15704:	23a04004 	movcs	r4, #4
   15708:	e5cd2006 	strb	r2, [sp, #6]
   1570c:	e5cd3005 	strb	r3, [sp, #5]
   15710:	e3a05000 	mov	r5, #0
   15714:	eaffff00 	b	1531c <HcdProcessRootHubMessage+0xac>
   15718:	e3a03001 	mov	r3, #1
   1571c:	e3510004 	cmp	r1, #4
   15720:	31a04001 	movcc	r4, r1
   15724:	23a04004 	movcs	r4, #4
   15728:	e58d3004 	str	r3, [sp, #4]
   1572c:	e3a05000 	mov	r5, #0
   15730:	eafffef9 	b	1531c <HcdProcessRootHubMessage+0xac>
   15734:	e3a05000 	mov	r5, #0
   15738:	e3510002 	cmp	r1, #2
   1573c:	31a04001 	movcc	r4, r1
   15740:	23a04002 	movcs	r4, #2
   15744:	e1cd50b4 	strh	r5, [sp, #4]
   15748:	eafffef3 	b	1531c <HcdProcessRootHubMessage+0xac>
   1574c:	e3a02000 	mov	r2, #0
   15750:	e59f3270 	ldr	r3, [pc, #624]	; 159c8 <HcdProcessRootHubMessage+0x758>
   15754:	e59f0278 	ldr	r0, [pc, #632]	; 159d4 <HcdProcessRootHubMessage+0x764>
   15758:	e7966003 	ldr	r6, [r6, r3]
   1575c:	e3a01000 	mov	r1, #0
   15760:	e5963000 	ldr	r3, [r6]
   15764:	e1a05002 	mov	r5, r2
   15768:	e2833726 	add	r3, r3, #9961472	; 0x980000
   1576c:	e5832e00 	str	r2, [r3, #3584]	; 0xe00
   15770:	e1a04002 	mov	r4, r2
   15774:	ebffe9c0 	bl	fe7c <timer_wait>
   15778:	e5962000 	ldr	r2, [r6]
   1577c:	e59f0254 	ldr	r0, [pc, #596]	; 159d8 <HcdProcessRootHubMessage+0x768>
   15780:	e2822726 	add	r2, r2, #9961472	; 0x980000
   15784:	e5923440 	ldr	r3, [r2, #1088]	; 0x440
   15788:	e3a01000 	mov	r1, #0
   1578c:	e3c3302e 	bic	r3, r3, #46	; 0x2e
   15790:	e3833040 	orr	r3, r3, #64	; 0x40
   15794:	e5823440 	str	r3, [r2, #1088]	; 0x440
   15798:	ebffe9b7 	bl	fe7c <timer_wait>
   1579c:	e5962000 	ldr	r2, [r6]
   157a0:	e2822726 	add	r2, r2, #9961472	; 0x980000
   157a4:	e5923440 	ldr	r3, [r2, #1088]	; 0x440
   157a8:	e3c330ee 	bic	r3, r3, #238	; 0xee
   157ac:	e5823440 	str	r3, [r2, #1088]	; 0x440
   157b0:	eafffed9 	b	1531c <HcdProcessRootHubMessage+0xac>
   157b4:	e3a05000 	mov	r5, #0
   157b8:	e59f3208 	ldr	r3, [pc, #520]	; 159c8 <HcdProcessRootHubMessage+0x758>
   157bc:	e1a04005 	mov	r4, r5
   157c0:	e7963003 	ldr	r3, [r6, r3]
   157c4:	e5932000 	ldr	r2, [r3]
   157c8:	e2822726 	add	r2, r2, #9961472	; 0x980000
   157cc:	e5923440 	ldr	r3, [r2, #1088]	; 0x440
   157d0:	e3c3302e 	bic	r3, r3, #46	; 0x2e
   157d4:	e3833004 	orr	r3, r3, #4
   157d8:	e5823440 	str	r3, [r2, #1088]	; 0x440
   157dc:	eafffece 	b	1531c <HcdProcessRootHubMessage+0xac>
   157e0:	e3a05000 	mov	r5, #0
   157e4:	e59f31dc 	ldr	r3, [pc, #476]	; 159c8 <HcdProcessRootHubMessage+0x758>
   157e8:	e1a04005 	mov	r4, r5
   157ec:	e7963003 	ldr	r3, [r6, r3]
   157f0:	e5932000 	ldr	r2, [r3]
   157f4:	e2822726 	add	r2, r2, #9961472	; 0x980000
   157f8:	e5923440 	ldr	r3, [r2, #1088]	; 0x440
   157fc:	e3c3302e 	bic	r3, r3, #46	; 0x2e
   15800:	e3833002 	orr	r3, r3, #2
   15804:	e5823440 	str	r3, [r2, #1088]	; 0x440
   15808:	eafffec3 	b	1531c <HcdProcessRootHubMessage+0xac>
   1580c:	e3a05000 	mov	r5, #0
   15810:	e59f01c4 	ldr	r0, [pc, #452]	; 159dc <HcdProcessRootHubMessage+0x76c>
   15814:	e1a04005 	mov	r4, r5
   15818:	e08f0000 	add	r0, pc, r0
   1581c:	ebffeb61 	bl	105a8 <printf>
   15820:	e59f31a0 	ldr	r3, [pc, #416]	; 159c8 <HcdProcessRootHubMessage+0x758>
   15824:	e7963003 	ldr	r3, [r6, r3]
   15828:	e5932000 	ldr	r2, [r3]
   1582c:	e2822726 	add	r2, r2, #9961472	; 0x980000
   15830:	e5923440 	ldr	r3, [r2, #1088]	; 0x440
   15834:	e3c33a01 	bic	r3, r3, #4096	; 0x1000
   15838:	e3c3302e 	bic	r3, r3, #46	; 0x2e
   1583c:	e5823440 	str	r3, [r2, #1088]	; 0x440
   15840:	eafffeb5 	b	1531c <HcdProcessRootHubMessage+0xac>
   15844:	e3a05000 	mov	r5, #0
   15848:	e59f3178 	ldr	r3, [pc, #376]	; 159c8 <HcdProcessRootHubMessage+0x758>
   1584c:	e1a04005 	mov	r4, r5
   15850:	e7963003 	ldr	r3, [r6, r3]
   15854:	e5932000 	ldr	r2, [r3]
   15858:	e2822726 	add	r2, r2, #9961472	; 0x980000
   1585c:	e5923440 	ldr	r3, [r2, #1088]	; 0x440
   15860:	e3c3302e 	bic	r3, r3, #46	; 0x2e
   15864:	e3833020 	orr	r3, r3, #32
   15868:	e5823440 	str	r3, [r2, #1088]	; 0x440
   1586c:	eafffeaa 	b	1531c <HcdProcessRootHubMessage+0xac>
   15870:	e3a05000 	mov	r5, #0
   15874:	e59f314c 	ldr	r3, [pc, #332]	; 159c8 <HcdProcessRootHubMessage+0x758>
   15878:	e1a04005 	mov	r4, r5
   1587c:	e7963003 	ldr	r3, [r6, r3]
   15880:	e5932000 	ldr	r2, [r3]
   15884:	e2822726 	add	r2, r2, #9961472	; 0x980000
   15888:	e5923440 	ldr	r3, [r2, #1088]	; 0x440
   1588c:	e3c3302e 	bic	r3, r3, #46	; 0x2e
   15890:	e3833008 	orr	r3, r3, #8
   15894:	e5823440 	str	r3, [r2, #1088]	; 0x440
   15898:	eafffe9f 	b	1531c <HcdProcessRootHubMessage+0xac>
   1589c:	e5d23002 	ldrb	r3, [r2, #2]
   158a0:	e5d22003 	ldrb	r2, [r2, #3]
   158a4:	e1833402 	orr	r3, r3, r2, lsl #8
   158a8:	e1a02423 	lsr	r2, r3, #8
   158ac:	e3520002 	cmp	r2, #2
   158b0:	0a000036 	beq	15990 <HcdProcessRootHubMessage+0x720>
   158b4:	e3520003 	cmp	r2, #3
   158b8:	0a00002c 	beq	15970 <HcdProcessRootHubMessage+0x700>
   158bc:	e3520001 	cmp	r2, #1
   158c0:	1afffea3 	bne	15354 <HcdProcessRootHubMessage+0xe4>
   158c4:	e59f3114 	ldr	r3, [pc, #276]	; 159e0 <HcdProcessRootHubMessage+0x770>
   158c8:	e3510012 	cmp	r1, #18
   158cc:	e7963003 	ldr	r3, [r6, r3]
   158d0:	31a04001 	movcc	r4, r1
   158d4:	23a04012 	movcs	r4, #18
   158d8:	e58d3004 	str	r3, [sp, #4]
   158dc:	e1a01003 	mov	r1, r3
   158e0:	eaffff49 	b	1560c <HcdProcessRootHubMessage+0x39c>
   158e4:	e59f30dc 	ldr	r3, [pc, #220]	; 159c8 <HcdProcessRootHubMessage+0x758>
   158e8:	e59f00f4 	ldr	r0, [pc, #244]	; 159e4 <HcdProcessRootHubMessage+0x774>
   158ec:	e7964003 	ldr	r4, [r6, r3]
   158f0:	e3a01000 	mov	r1, #0
   158f4:	e5943000 	ldr	r3, [r4]
   158f8:	e2833726 	add	r3, r3, #9961472	; 0x980000
   158fc:	e5932e00 	ldr	r2, [r3, #3584]	; 0xe00
   15900:	e3c22021 	bic	r2, r2, #33	; 0x21
   15904:	e5832e00 	str	r2, [r3, #3584]	; 0xe00
   15908:	ebffe95b 	bl	fe7c <timer_wait>
   1590c:	e3a02000 	mov	r2, #0
   15910:	e5943000 	ldr	r3, [r4]
   15914:	e59f00cc 	ldr	r0, [pc, #204]	; 159e8 <HcdProcessRootHubMessage+0x778>
   15918:	e2833726 	add	r3, r3, #9961472	; 0x980000
   1591c:	e5832e00 	str	r2, [r3, #3584]	; 0xe00
   15920:	e5942000 	ldr	r2, [r4]
   15924:	e3a01000 	mov	r1, #0
   15928:	e2822726 	add	r2, r2, #9961472	; 0x980000
   1592c:	e5923440 	ldr	r3, [r2, #1088]	; 0x440
   15930:	e3c330ae 	bic	r3, r3, #174	; 0xae
   15934:	e3833c11 	orr	r3, r3, #4352	; 0x1100
   15938:	e5823440 	str	r3, [r2, #1088]	; 0x440
   1593c:	ebffe94e 	bl	fe7c <timer_wait>
   15940:	e5942000 	ldr	r2, [r4]
   15944:	e2822726 	add	r2, r2, #9961472	; 0x980000
   15948:	e5923440 	ldr	r3, [r2, #1088]	; 0x440
   1594c:	e3c33f4b 	bic	r3, r3, #300	; 0x12c
   15950:	e3c33002 	bic	r3, r3, #2
   15954:	e5823440 	str	r3, [r2, #1088]	; 0x440
   15958:	eafffe6d 	b	15314 <HcdProcessRootHubMessage+0xa4>
   1595c:	e3500002 	cmp	r0, #2
   15960:	05dd2005 	ldrbeq	r2, [sp, #5]
   15964:	03822002 	orreq	r2, r2, #2
   15968:	05cd2005 	strbeq	r2, [sp, #5]
   1596c:	eaffff55 	b	156c8 <HcdProcessRootHubMessage+0x458>
   15970:	e6ef3073 	uxtb	r3, r3
   15974:	e3530001 	cmp	r3, #1
   15978:	0a00000c 	beq	159b0 <HcdProcessRootHubMessage+0x740>
   1597c:	3a00000d 	bcc	159b8 <HcdProcessRootHubMessage+0x748>
   15980:	e3530002 	cmp	r3, #2
   15984:	1afffe62 	bne	15314 <HcdProcessRootHubMessage+0xa4>
   15988:	e59f305c 	ldr	r3, [pc, #92]	; 159ec <HcdProcessRootHubMessage+0x77c>
   1598c:	eaffff18 	b	155f4 <HcdProcessRootHubMessage+0x384>
   15990:	e59f3058 	ldr	r3, [pc, #88]	; 159f0 <HcdProcessRootHubMessage+0x780>
   15994:	e3510019 	cmp	r1, #25
   15998:	e7963003 	ldr	r3, [r6, r3]
   1599c:	31a04001 	movcc	r4, r1
   159a0:	23a04019 	movcs	r4, #25
   159a4:	e58d3004 	str	r3, [sp, #4]
   159a8:	e1a01003 	mov	r1, r3
   159ac:	eaffff16 	b	1560c <HcdProcessRootHubMessage+0x39c>
   159b0:	e59f303c 	ldr	r3, [pc, #60]	; 159f4 <HcdProcessRootHubMessage+0x784>
   159b4:	eaffff0e 	b	155f4 <HcdProcessRootHubMessage+0x384>
   159b8:	e59f3038 	ldr	r3, [pc, #56]	; 159f8 <HcdProcessRootHubMessage+0x788>
   159bc:	eaffff0c 	b	155f4 <HcdProcessRootHubMessage+0x384>
   159c0:	00009bf0 	strdeq	r9, [r0], -r0
   159c4:	000069bc 			; <UNDEFINED> instruction: 0x000069bc
   159c8:	00000154 	andeq	r0, r0, r4, asr r1
   159cc:	000000c8 	andeq	r0, r0, r8, asr #1
   159d0:	00000048 	andeq	r0, r0, r8, asr #32
   159d4:	00001388 	andeq	r1, r0, r8, lsl #7
   159d8:	000186a0 	andeq	r8, r1, r0, lsr #13
   159dc:	00006474 	andeq	r6, r0, r4, ror r4
   159e0:	000000b0 	strheq	r0, [r0], -r0	; <UNPREDICTABLE>
   159e4:	00002710 	andeq	r2, r0, r0, lsl r7
   159e8:	0000ea60 	andeq	lr, r0, r0, ror #20
   159ec:	000000d4 	ldrdeq	r0, [r0], -r4
   159f0:	000000e0 	andeq	r0, r0, r0, ror #1
   159f4:	00000104 	andeq	r0, r0, r4, lsl #2
   159f8:	000001b8 			; <UNDEFINED> instruction: 0x000001b8

000159fc <HCDCheckErrorAndAction>:
   159fc:	e5d23003 	ldrb	r3, [r2, #3]
   15a00:	e3100004 	tst	r0, #4
   15a04:	e20330cf 	and	r3, r3, #207	; 0xcf
   15a08:	e5c23003 	strb	r3, [r2, #3]
   15a0c:	1a000049 	bne	15b38 <HCDCheckErrorAndAction+0x13c>
   15a10:	e3100b01 	tst	r0, #1024	; 0x400
   15a14:	e92d4010 	push	{r4, lr}
   15a18:	1a000041 	bne	15b24 <HCDCheckErrorAndAction+0x128>
   15a1c:	e3100020 	tst	r0, #32
   15a20:	1a000020 	bne	15aa8 <HCDCheckErrorAndAction+0xac>
   15a24:	e3510000 	cmp	r1, #0
   15a28:	e1a03002 	mov	r3, r2
   15a2c:	0a000025 	beq	15ac8 <HCDCheckErrorAndAction+0xcc>
   15a30:	e5d22000 	ldrb	r2, [r2]
   15a34:	e2822001 	add	r2, r2, #1
   15a38:	e6ef2072 	uxtb	r2, r2
   15a3c:	e3520005 	cmp	r2, #5
   15a40:	e5c32000 	strb	r2, [r3]
   15a44:	e5d32003 	ldrb	r2, [r3, #3]
   15a48:	13822010 	orrne	r2, r2, #16
   15a4c:	15c32003 	strbne	r2, [r3, #3]
   15a50:	0a000045 	beq	15b6c <HCDCheckErrorAndAction+0x170>
   15a54:	e1a011a0 	lsr	r1, r0, #3
   15a58:	e3110001 	tst	r1, #1
   15a5c:	1a000001 	bne	15a68 <HCDCheckErrorAndAction+0x6c>
   15a60:	e3100c01 	tst	r0, #256	; 0x100
   15a64:	0a000023 	beq	15af8 <HCDCheckErrorAndAction+0xfc>
   15a68:	e5d32002 	ldrb	r2, [r3, #2]
   15a6c:	e2822001 	add	r2, r2, #1
   15a70:	e6ef2072 	uxtb	r2, r2
   15a74:	e3520003 	cmp	r2, #3
   15a78:	e5c32002 	strb	r2, [r3, #2]
   15a7c:	0a000034 	beq	15b54 <HCDCheckErrorAndAction+0x158>
   15a80:	e3110001 	tst	r1, #1
   15a84:	1a000030 	bne	15b4c <HCDCheckErrorAndAction+0x150>
   15a88:	e3100c01 	tst	r0, #256	; 0x100
   15a8c:	1a000003 	bne	15aa0 <HCDCheckErrorAndAction+0xa4>
   15a90:	e3100c02 	tst	r0, #512	; 0x200
   15a94:	1a000001 	bne	15aa0 <HCDCheckErrorAndAction+0xa4>
   15a98:	e3100080 	tst	r0, #128	; 0x80
   15a9c:	0a000013 	beq	15af0 <HCDCheckErrorAndAction+0xf4>
   15aa0:	e3e00009 	mvn	r0, #9
   15aa4:	e8bd8010 	pop	{r4, pc}
   15aa8:	e3100001 	tst	r0, #1
   15aac:	e3a00000 	mov	r0, #0
   15ab0:	e5d23003 	ldrb	r3, [r2, #3]
   15ab4:	e5c20002 	strb	r0, [r2, #2]
   15ab8:	13833080 	orrne	r3, r3, #128	; 0x80
   15abc:	03833010 	orreq	r3, r3, #16
   15ac0:	e5c23003 	strb	r3, [r2, #3]
   15ac4:	e8bd8010 	pop	{r4, pc}
   15ac8:	e5d21001 	ldrb	r1, [r2, #1]
   15acc:	e2811001 	add	r1, r1, #1
   15ad0:	e6ef1071 	uxtb	r1, r1
   15ad4:	e3510003 	cmp	r1, #3
   15ad8:	e5c21001 	strb	r1, [r2, #1]
   15adc:	0a000010 	beq	15b24 <HCDCheckErrorAndAction+0x128>
   15ae0:	e5d22003 	ldrb	r2, [r2, #3]
   15ae4:	e3822020 	orr	r2, r2, #32
   15ae8:	e5c32003 	strb	r2, [r3, #3]
   15aec:	eaffffd8 	b	15a54 <HCDCheckErrorAndAction+0x58>
   15af0:	e3e00000 	mvn	r0, #0
   15af4:	e8bd8010 	pop	{r4, pc}
   15af8:	e3100c02 	tst	r0, #512	; 0x200
   15afc:	1affffd9 	bne	15a68 <HCDCheckErrorAndAction+0x6c>
   15b00:	e3100010 	tst	r0, #16
   15b04:	1affffe5 	bne	15aa0 <HCDCheckErrorAndAction+0xa4>
   15b08:	e3100040 	tst	r0, #64	; 0x40
   15b0c:	1affffe3 	bne	15aa0 <HCDCheckErrorAndAction+0xa4>
   15b10:	e59f0070 	ldr	r0, [pc, #112]	; 15b88 <HCDCheckErrorAndAction+0x18c>
   15b14:	e08f0000 	add	r0, pc, r0
   15b18:	ebffeaa2 	bl	105a8 <printf>
   15b1c:	e3e00007 	mvn	r0, #7
   15b20:	e8bd8010 	pop	{r4, pc}
   15b24:	e5d23003 	ldrb	r3, [r2, #3]
   15b28:	e3e00009 	mvn	r0, #9
   15b2c:	e3833040 	orr	r3, r3, #64	; 0x40
   15b30:	e5c23003 	strb	r3, [r2, #3]
   15b34:	e8bd8010 	pop	{r4, pc}
   15b38:	e6ef3073 	uxtb	r3, r3
   15b3c:	e3833040 	orr	r3, r3, #64	; 0x40
   15b40:	e3e00003 	mvn	r0, #3
   15b44:	e5c23003 	strb	r3, [r2, #3]
   15b48:	e12fff1e 	bx	lr
   15b4c:	e3e0000f 	mvn	r0, #15
   15b50:	e8bd8010 	pop	{r4, pc}
   15b54:	e5d32003 	ldrb	r2, [r3, #3]
   15b58:	e3e00009 	mvn	r0, #9
   15b5c:	e20220cf 	and	r2, r2, #207	; 0xcf
   15b60:	e3822040 	orr	r2, r2, #64	; 0x40
   15b64:	e5c32003 	strb	r2, [r3, #3]
   15b68:	e8bd8010 	pop	{r4, pc}
   15b6c:	e59f0018 	ldr	r0, [pc, #24]	; 15b8c <HCDCheckErrorAndAction+0x190>
   15b70:	e3822040 	orr	r2, r2, #64	; 0x40
   15b74:	e5c32003 	strb	r2, [r3, #3]
   15b78:	e08f0000 	add	r0, pc, r0
   15b7c:	ebffea89 	bl	105a8 <printf>
   15b80:	e3e00009 	mvn	r0, #9
   15b84:	e8bd8010 	pop	{r4, pc}
   15b88:	000061b4 			; <UNDEFINED> instruction: 0x000061b4
   15b8c:	00006148 	andeq	r6, r0, r8, asr #2

00015b90 <AddHidPayload>:
   15b90:	e59f107c 	ldr	r1, [pc, #124]	; 15c14 <AddHidPayload+0x84>
   15b94:	e250c000 	subs	ip, r0, #0
   15b98:	e08f1001 	add	r1, pc, r1
   15b9c:	0a00001a 	beq	15c0c <AddHidPayload+0x7c>
   15ba0:	e5dc33ee 	ldrb	r3, [ip, #1006]	; 0x3ee
   15ba4:	e3530001 	cmp	r3, #1
   15ba8:	1a000017 	bne	15c0c <AddHidPayload+0x7c>
   15bac:	e59f2064 	ldr	r2, [pc, #100]	; 15c18 <AddHidPayload+0x88>
   15bb0:	e3a03000 	mov	r3, #0
   15bb4:	e7911002 	ldr	r1, [r1, r2]
   15bb8:	e1a02001 	mov	r2, r1
   15bbc:	ea000002 	b	15bcc <AddHidPayload+0x3c>
   15bc0:	e2833001 	add	r3, r3, #1
   15bc4:	e3530010 	cmp	r3, #16
   15bc8:	0a00000d 	beq	15c04 <AddHidPayload+0x74>
   15bcc:	e5d20028 	ldrb	r0, [r2, #40]	; 0x28
   15bd0:	e282202c 	add	r2, r2, #44	; 0x2c
   15bd4:	e3500000 	cmp	r0, #0
   15bd8:	1afffff8 	bne	15bc0 <AddHidPayload+0x30>
   15bdc:	e92d4010 	push	{r4, lr}
   15be0:	e3a02003 	mov	r2, #3
   15be4:	e3a0e004 	mov	lr, #4
   15be8:	e0834103 	add	r4, r3, r3, lsl #2
   15bec:	e0833084 	add	r3, r3, r4, lsl #1
   15bf0:	e0813103 	add	r3, r1, r3, lsl #2
   15bf4:	e58c33f0 	str	r3, [ip, #1008]	; 0x3f0
   15bf8:	e5c3e028 	strb	lr, [r3, #40]	; 0x28
   15bfc:	e5cc23ee 	strb	r2, [ip, #1006]	; 0x3ee
   15c00:	e8bd8010 	pop	{r4, pc}
   15c04:	e3e00006 	mvn	r0, #6
   15c08:	e12fff1e 	bx	lr
   15c0c:	e3e00001 	mvn	r0, #1
   15c10:	e12fff1e 	bx	lr
   15c14:	000092e0 	andeq	r9, r0, r0, ror #5
   15c18:	0000010c 	andeq	r0, r0, ip, lsl #2

00015c1c <RemoveHidPayload>:
   15c1c:	e92d4010 	push	{r4, lr}
   15c20:	e2504000 	subs	r4, r0, #0
   15c24:	08bd8010 	popeq	{r4, pc}
   15c28:	e5d423ee 	ldrb	r2, [r4, #1006]	; 0x3ee
   15c2c:	e3520003 	cmp	r2, #3
   15c30:	18bd8010 	popne	{r4, pc}
   15c34:	e59403f0 	ldr	r0, [r4, #1008]	; 0x3f0
   15c38:	e3500000 	cmp	r0, #0
   15c3c:	08bd8010 	popeq	{r4, pc}
   15c40:	e3a0202c 	mov	r2, #44	; 0x2c
   15c44:	e3a01000 	mov	r1, #0
   15c48:	ebffeb65 	bl	109e4 <memset>
   15c4c:	e3a02000 	mov	r2, #0
   15c50:	e3a03001 	mov	r3, #1
   15c54:	e58423f0 	str	r2, [r4, #1008]	; 0x3f0
   15c58:	e5c433ee 	strb	r3, [r4, #1006]	; 0x3ee
   15c5c:	e8bd8010 	pop	{r4, pc}

00015c60 <AddHubPayload>:
   15c60:	e59f107c 	ldr	r1, [pc, #124]	; 15ce4 <AddHubPayload+0x84>
   15c64:	e250c000 	subs	ip, r0, #0
   15c68:	e08f1001 	add	r1, pc, r1
   15c6c:	0a00001a 	beq	15cdc <AddHubPayload+0x7c>
   15c70:	e5dc33ee 	ldrb	r3, [ip, #1006]	; 0x3ee
   15c74:	e3530001 	cmp	r3, #1
   15c78:	1a000017 	bne	15cdc <AddHubPayload+0x7c>
   15c7c:	e59f2064 	ldr	r2, [pc, #100]	; 15ce8 <AddHubPayload+0x88>
   15c80:	e3a03000 	mov	r3, #0
   15c84:	e7911002 	ldr	r1, [r1, r2]
   15c88:	e1a02001 	mov	r2, r1
   15c8c:	ea000002 	b	15c9c <AddHubPayload+0x3c>
   15c90:	e2833001 	add	r3, r3, #1
   15c94:	e3530010 	cmp	r3, #16
   15c98:	0a00000d 	beq	15cd4 <AddHubPayload+0x74>
   15c9c:	e5920000 	ldr	r0, [r2]
   15ca0:	e2822038 	add	r2, r2, #56	; 0x38
   15ca4:	e3500000 	cmp	r0, #0
   15ca8:	1afffff8 	bne	15c90 <AddHubPayload+0x30>
   15cac:	e52de004 	push	{lr}		; (str lr, [sp, #-4]!)
   15cb0:	e3a0e00a 	mov	lr, #10
   15cb4:	e3a02002 	mov	r2, #2
   15cb8:	e0633183 	rsb	r3, r3, r3, lsl #3
   15cbc:	e1a03183 	lsl	r3, r3, #3
   15cc0:	e781e003 	str	lr, [r1, r3]
   15cc4:	e0813003 	add	r3, r1, r3
   15cc8:	e58c33f0 	str	r3, [ip, #1008]	; 0x3f0
   15ccc:	e5cc23ee 	strb	r2, [ip, #1006]	; 0x3ee
   15cd0:	e49df004 	pop	{pc}		; (ldr pc, [sp], #4)
   15cd4:	e3e00006 	mvn	r0, #6
   15cd8:	e12fff1e 	bx	lr
   15cdc:	e3e00001 	mvn	r0, #1
   15ce0:	e12fff1e 	bx	lr
   15ce4:	00009210 	andeq	r9, r0, r0, lsl r2
   15ce8:	000000c0 	andeq	r0, r0, r0, asr #1

00015cec <UsbAllocateDevice>:
   15cec:	e59f1088 	ldr	r1, [pc, #136]	; 15d7c <UsbAllocateDevice+0x90>
   15cf0:	e3500000 	cmp	r0, #0
   15cf4:	e08f1001 	add	r1, pc, r1
   15cf8:	0a00001d 	beq	15d74 <UsbAllocateDevice+0x88>
   15cfc:	e92d4030 	push	{r4, r5, lr}
   15d00:	e59f2078 	ldr	r2, [pc, #120]	; 15d80 <UsbAllocateDevice+0x94>
   15d04:	e3a03000 	mov	r3, #0
   15d08:	e791e002 	ldr	lr, [r1, r2]
   15d0c:	e1a0200e 	mov	r2, lr
   15d10:	ea000002 	b	15d20 <UsbAllocateDevice+0x34>
   15d14:	e2833001 	add	r3, r3, #1
   15d18:	e3530020 	cmp	r3, #32
   15d1c:	0a000012 	beq	15d6c <UsbAllocateDevice+0x80>
   15d20:	e5d213ee 	ldrb	r1, [r2, #1006]	; 0x3ee
   15d24:	e2822ffd 	add	r2, r2, #1012	; 0x3f4
   15d28:	e3510000 	cmp	r1, #0
   15d2c:	1afffff8 	bne	15d14 <UsbAllocateDevice+0x28>
   15d30:	e3a04001 	mov	r4, #1
   15d34:	e3a050ff 	mov	r5, #255	; 0xff
   15d38:	e0632303 	rsb	r2, r3, r3, lsl #6
   15d3c:	e0832102 	add	r2, r3, r2, lsl #2
   15d40:	e1a02102 	lsl	r2, r2, #2
   15d44:	e08ec002 	add	ip, lr, r2
   15d48:	e0833004 	add	r3, r3, r4
   15d4c:	e580c000 	str	ip, [r0]
   15d50:	e5cc3005 	strb	r3, [ip, #5]
   15d54:	e5cc100e 	strb	r1, [ip, #14]
   15d58:	e1a00001 	mov	r0, r1
   15d5c:	e18e50b2 	strh	r5, [lr, r2]
   15d60:	e58c13f0 	str	r1, [ip, #1008]	; 0x3f0
   15d64:	e5cc43ee 	strb	r4, [ip, #1006]	; 0x3ee
   15d68:	e8bd8030 	pop	{r4, r5, pc}
   15d6c:	e3e00006 	mvn	r0, #6
   15d70:	e8bd8030 	pop	{r4, r5, pc}
   15d74:	e3e00001 	mvn	r0, #1
   15d78:	e12fff1e 	bx	lr
   15d7c:	00009184 	andeq	r9, r0, r4, lsl #3
   15d80:	0000009c 	muleq	r0, ip, r0

00015d84 <IsHub>:
   15d84:	e2400001 	sub	r0, r0, #1
   15d88:	e6ef3070 	uxtb	r3, r0
   15d8c:	e353001f 	cmp	r3, #31
   15d90:	e59f303c 	ldr	r3, [pc, #60]	; 15dd4 <IsHub+0x50>
   15d94:	e08f3003 	add	r3, pc, r3
   15d98:	8a000007 	bhi	15dbc <IsHub+0x38>
   15d9c:	e59f2034 	ldr	r2, [pc, #52]	; 15dd8 <IsHub+0x54>
   15da0:	e0601300 	rsb	r1, r0, r0, lsl #6
   15da4:	e7933002 	ldr	r3, [r3, r2]
   15da8:	e0800101 	add	r0, r0, r1, lsl #2
   15dac:	e0830100 	add	r0, r3, r0, lsl #2
   15db0:	e5d033ee 	ldrb	r3, [r0, #1006]	; 0x3ee
   15db4:	e3530002 	cmp	r3, #2
   15db8:	0a000001 	beq	15dc4 <IsHub+0x40>
   15dbc:	e3a00000 	mov	r0, #0
   15dc0:	e12fff1e 	bx	lr
   15dc4:	e59003f0 	ldr	r0, [r0, #1008]	; 0x3f0
   15dc8:	e2900000 	adds	r0, r0, #0
   15dcc:	13a00001 	movne	r0, #1
   15dd0:	e12fff1e 	bx	lr
   15dd4:	000090e4 	andeq	r9, r0, r4, ror #1
   15dd8:	0000009c 	muleq	r0, ip, r0

00015ddc <UsbDeallocateDevice>:
   15ddc:	e92d4070 	push	{r4, r5, r6, lr}
   15de0:	e1a04000 	mov	r4, r0
   15de4:	e5d00005 	ldrb	r0, [r0, #5]
   15de8:	ebffffe5 	bl	15d84 <IsHub>
   15dec:	e59f60c8 	ldr	r6, [pc, #200]	; 15ebc <UsbDeallocateDevice+0xe0>
   15df0:	e3500000 	cmp	r0, #0
   15df4:	e08f6006 	add	r6, pc, r6
   15df8:	0a00000e 	beq	15e38 <UsbDeallocateDevice+0x5c>
   15dfc:	e59433f0 	ldr	r3, [r4, #1008]	; 0x3f0
   15e00:	e5932000 	ldr	r2, [r3]
   15e04:	e3520000 	cmp	r2, #0
   15e08:	0a000008 	beq	15e30 <UsbDeallocateDevice+0x54>
   15e0c:	e3a05000 	mov	r5, #0
   15e10:	e0832105 	add	r2, r3, r5, lsl #2
   15e14:	e5920004 	ldr	r0, [r2, #4]
   15e18:	e2855001 	add	r5, r5, #1
   15e1c:	e3500000 	cmp	r0, #0
   15e20:	1a000022 	bne	15eb0 <UsbDeallocateDevice+0xd4>
   15e24:	e5932000 	ldr	r2, [r3]
   15e28:	e1520005 	cmp	r2, r5
   15e2c:	8afffff7 	bhi	15e10 <UsbDeallocateDevice+0x34>
   15e30:	e1a00004 	mov	r0, r4
   15e34:	eb000022 	bl	15ec4 <RemoveHubPayload>
   15e38:	e5d43000 	ldrb	r3, [r4]
   15e3c:	e353001f 	cmp	r3, #31
   15e40:	8a000008 	bhi	15e68 <UsbDeallocateDevice+0x8c>
   15e44:	e59f2074 	ldr	r2, [pc, #116]	; 15ec0 <UsbDeallocateDevice+0xe4>
   15e48:	e2433001 	sub	r3, r3, #1
   15e4c:	e7962002 	ldr	r2, [r6, r2]
   15e50:	e0631303 	rsb	r1, r3, r3, lsl #6
   15e54:	e0833101 	add	r3, r3, r1, lsl #2
   15e58:	e0823103 	add	r3, r2, r3, lsl #2
   15e5c:	e5d323ee 	ldrb	r2, [r3, #1006]	; 0x3ee
   15e60:	e3520002 	cmp	r2, #2
   15e64:	0a000004 	beq	15e7c <UsbDeallocateDevice+0xa0>
   15e68:	e1a00004 	mov	r0, r4
   15e6c:	e8bd4070 	pop	{r4, r5, r6, lr}
   15e70:	e3a02ffd 	mov	r2, #1012	; 0x3f4
   15e74:	e3a01000 	mov	r1, #0
   15e78:	eaffead9 	b	109e4 <memset>
   15e7c:	e59333f0 	ldr	r3, [r3, #1008]	; 0x3f0
   15e80:	e3530000 	cmp	r3, #0
   15e84:	0afffff7 	beq	15e68 <UsbDeallocateDevice+0x8c>
   15e88:	e5d42001 	ldrb	r2, [r4, #1]
   15e8c:	e5931000 	ldr	r1, [r3]
   15e90:	e1520001 	cmp	r2, r1
   15e94:	2afffff3 	bcs	15e68 <UsbDeallocateDevice+0x8c>
   15e98:	e0833102 	add	r3, r3, r2, lsl #2
   15e9c:	e5932004 	ldr	r2, [r3, #4]
   15ea0:	e1520004 	cmp	r2, r4
   15ea4:	03a02000 	moveq	r2, #0
   15ea8:	05832004 	streq	r2, [r3, #4]
   15eac:	eaffffed 	b	15e68 <UsbDeallocateDevice+0x8c>
   15eb0:	ebffffc9 	bl	15ddc <UsbDeallocateDevice>
   15eb4:	e59433f0 	ldr	r3, [r4, #1008]	; 0x3f0
   15eb8:	eaffffd9 	b	15e24 <UsbDeallocateDevice+0x48>
   15ebc:	00009084 	andeq	r9, r0, r4, lsl #1
   15ec0:	0000009c 	muleq	r0, ip, r0

00015ec4 <RemoveHubPayload>:
   15ec4:	e92d4070 	push	{r4, r5, r6, lr}
   15ec8:	e2505000 	subs	r5, r0, #0
   15ecc:	08bd8070 	popeq	{r4, r5, r6, pc}
   15ed0:	e5d533ee 	ldrb	r3, [r5, #1006]	; 0x3ee
   15ed4:	e3530002 	cmp	r3, #2
   15ed8:	18bd8070 	popne	{r4, r5, r6, pc}
   15edc:	e59533f0 	ldr	r3, [r5, #1008]	; 0x3f0
   15ee0:	e3530000 	cmp	r3, #0
   15ee4:	08bd8070 	popeq	{r4, r5, r6, pc}
   15ee8:	e5932000 	ldr	r2, [r3]
   15eec:	e3520000 	cmp	r2, #0
   15ef0:	0a00000a 	beq	15f20 <RemoveHubPayload+0x5c>
   15ef4:	e3a04000 	mov	r4, #0
   15ef8:	e0832104 	add	r2, r3, r4, lsl #2
   15efc:	e5920004 	ldr	r0, [r2, #4]
   15f00:	e2844001 	add	r4, r4, #1
   15f04:	e3500000 	cmp	r0, #0
   15f08:	0a000001 	beq	15f14 <RemoveHubPayload+0x50>
   15f0c:	ebffffb2 	bl	15ddc <UsbDeallocateDevice>
   15f10:	e59533f0 	ldr	r3, [r5, #1008]	; 0x3f0
   15f14:	e5932000 	ldr	r2, [r3]
   15f18:	e1520004 	cmp	r2, r4
   15f1c:	8afffff5 	bhi	15ef8 <RemoveHubPayload+0x34>
   15f20:	e1a00003 	mov	r0, r3
   15f24:	e3a02038 	mov	r2, #56	; 0x38
   15f28:	e3a01000 	mov	r1, #0
   15f2c:	ebffeaac 	bl	109e4 <memset>
   15f30:	e3a02000 	mov	r2, #0
   15f34:	e3a03001 	mov	r3, #1
   15f38:	e58523f0 	str	r2, [r5, #1008]	; 0x3f0
   15f3c:	e5c533ee 	strb	r3, [r5, #1006]	; 0x3ee
   15f40:	e8bd8070 	pop	{r4, r5, r6, pc}

00015f44 <IsHid>:
   15f44:	e2400001 	sub	r0, r0, #1
   15f48:	e6ef3070 	uxtb	r3, r0
   15f4c:	e353001f 	cmp	r3, #31
   15f50:	e59f303c 	ldr	r3, [pc, #60]	; 15f94 <IsHid+0x50>
   15f54:	e08f3003 	add	r3, pc, r3
   15f58:	8a000007 	bhi	15f7c <IsHid+0x38>
   15f5c:	e59f2034 	ldr	r2, [pc, #52]	; 15f98 <IsHid+0x54>
   15f60:	e0601300 	rsb	r1, r0, r0, lsl #6
   15f64:	e7933002 	ldr	r3, [r3, r2]
   15f68:	e0800101 	add	r0, r0, r1, lsl #2
   15f6c:	e0830100 	add	r0, r3, r0, lsl #2
   15f70:	e5d033ee 	ldrb	r3, [r0, #1006]	; 0x3ee
   15f74:	e3530003 	cmp	r3, #3
   15f78:	0a000001 	beq	15f84 <IsHid+0x40>
   15f7c:	e3a00000 	mov	r0, #0
   15f80:	e12fff1e 	bx	lr
   15f84:	e59003f0 	ldr	r0, [r0, #1008]	; 0x3f0
   15f88:	e2900000 	adds	r0, r0, #0
   15f8c:	13a00001 	movne	r0, #1
   15f90:	e12fff1e 	bx	lr
   15f94:	00008f24 	andeq	r8, r0, r4, lsr #30
   15f98:	0000009c 	muleq	r0, ip, r0

00015f9c <IsMassStorage>:
   15f9c:	e2400001 	sub	r0, r0, #1
   15fa0:	e6ef3070 	uxtb	r3, r0
   15fa4:	e353001f 	cmp	r3, #31
   15fa8:	e59f303c 	ldr	r3, [pc, #60]	; 15fec <IsMassStorage+0x50>
   15fac:	e08f3003 	add	r3, pc, r3
   15fb0:	8a000007 	bhi	15fd4 <IsMassStorage+0x38>
   15fb4:	e59f2034 	ldr	r2, [pc, #52]	; 15ff0 <IsMassStorage+0x54>
   15fb8:	e0601300 	rsb	r1, r0, r0, lsl #6
   15fbc:	e7933002 	ldr	r3, [r3, r2]
   15fc0:	e0800101 	add	r0, r0, r1, lsl #2
   15fc4:	e0830100 	add	r0, r3, r0, lsl #2
   15fc8:	e5d033ee 	ldrb	r3, [r0, #1006]	; 0x3ee
   15fcc:	e3530004 	cmp	r3, #4
   15fd0:	0a000001 	beq	15fdc <IsMassStorage+0x40>
   15fd4:	e3a00000 	mov	r0, #0
   15fd8:	e12fff1e 	bx	lr
   15fdc:	e59003f0 	ldr	r0, [r0, #1008]	; 0x3f0
   15fe0:	e2900000 	adds	r0, r0, #0
   15fe4:	13a00001 	movne	r0, #1
   15fe8:	e12fff1e 	bx	lr
   15fec:	00008ecc 	andeq	r8, r0, ip, asr #29
   15ff0:	0000009c 	muleq	r0, ip, r0

00015ff4 <IsMouse>:
   15ff4:	e2400001 	sub	r0, r0, #1
   15ff8:	e6ef3070 	uxtb	r3, r0
   15ffc:	e353001f 	cmp	r3, #31
   16000:	e59f3048 	ldr	r3, [pc, #72]	; 16050 <IsMouse+0x5c>
   16004:	e08f3003 	add	r3, pc, r3
   16008:	8a000007 	bhi	1602c <IsMouse+0x38>
   1600c:	e59f2040 	ldr	r2, [pc, #64]	; 16054 <IsMouse+0x60>
   16010:	e0601300 	rsb	r1, r0, r0, lsl #6
   16014:	e7933002 	ldr	r3, [r3, r2]
   16018:	e0800101 	add	r0, r0, r1, lsl #2
   1601c:	e0833100 	add	r3, r3, r0, lsl #2
   16020:	e5d323ee 	ldrb	r2, [r3, #1006]	; 0x3ee
   16024:	e3520003 	cmp	r2, #3
   16028:	0a000001 	beq	16034 <IsMouse+0x40>
   1602c:	e3a00000 	mov	r0, #0
   16030:	e12fff1e 	bx	lr
   16034:	e59303f0 	ldr	r0, [r3, #1008]	; 0x3f0
   16038:	e3500000 	cmp	r0, #0
   1603c:	15d3001b 	ldrbne	r0, [r3, #27]
   16040:	12400002 	subne	r0, r0, #2
   16044:	116f0f10 	clzne	r0, r0
   16048:	11a002a0 	lsrne	r0, r0, #5
   1604c:	e12fff1e 	bx	lr
   16050:	00008e74 	andeq	r8, r0, r4, ror lr
   16054:	0000009c 	muleq	r0, ip, r0

00016058 <IsKeyboard>:
   16058:	e2400001 	sub	r0, r0, #1
   1605c:	e6ef3070 	uxtb	r3, r0
   16060:	e353001f 	cmp	r3, #31
   16064:	e59f3048 	ldr	r3, [pc, #72]	; 160b4 <IsKeyboard+0x5c>
   16068:	e08f3003 	add	r3, pc, r3
   1606c:	8a000007 	bhi	16090 <IsKeyboard+0x38>
   16070:	e59f2040 	ldr	r2, [pc, #64]	; 160b8 <IsKeyboard+0x60>
   16074:	e0601300 	rsb	r1, r0, r0, lsl #6
   16078:	e7933002 	ldr	r3, [r3, r2]
   1607c:	e0800101 	add	r0, r0, r1, lsl #2
   16080:	e0833100 	add	r3, r3, r0, lsl #2
   16084:	e5d323ee 	ldrb	r2, [r3, #1006]	; 0x3ee
   16088:	e3520003 	cmp	r2, #3
   1608c:	0a000001 	beq	16098 <IsKeyboard+0x40>
   16090:	e3a00000 	mov	r0, #0
   16094:	e12fff1e 	bx	lr
   16098:	e59303f0 	ldr	r0, [r3, #1008]	; 0x3f0
   1609c:	e3500000 	cmp	r0, #0
   160a0:	15d3001b 	ldrbne	r0, [r3, #27]
   160a4:	12400001 	subne	r0, r0, #1
   160a8:	116f0f10 	clzne	r0, r0
   160ac:	11a002a0 	lsrne	r0, r0, #5
   160b0:	e12fff1e 	bx	lr
   160b4:	00008e10 	andeq	r8, r0, r0, lsl lr
   160b8:	0000009c 	muleq	r0, ip, r0

000160bc <UsbGetRootHub>:
   160bc:	e59f3018 	ldr	r3, [pc, #24]	; 160dc <UsbGetRootHub+0x20>
   160c0:	e59f2018 	ldr	r2, [pc, #24]	; 160e0 <UsbGetRootHub+0x24>
   160c4:	e08f3003 	add	r3, pc, r3
   160c8:	e7930002 	ldr	r0, [r3, r2]
   160cc:	e5d033ee 	ldrb	r3, [r0, #1006]	; 0x3ee
   160d0:	e3530000 	cmp	r3, #0
   160d4:	03a00000 	moveq	r0, #0
   160d8:	e12fff1e 	bx	lr
   160dc:	00008db4 			; <UNDEFINED> instruction: 0x00008db4
   160e0:	0000009c 	muleq	r0, ip, r0

000160e4 <UsbDeviceAtAddress>:
   160e4:	e59f2030 	ldr	r2, [pc, #48]	; 1611c <UsbDeviceAtAddress+0x38>
   160e8:	e3500000 	cmp	r0, #0
   160ec:	e08f2002 	add	r2, pc, r2
   160f0:	012fff1e 	bxeq	lr
   160f4:	e59f3024 	ldr	r3, [pc, #36]	; 16120 <UsbDeviceAtAddress+0x3c>
   160f8:	e2400001 	sub	r0, r0, #1
   160fc:	e0601300 	rsb	r1, r0, r0, lsl #6
   16100:	e7923003 	ldr	r3, [r2, r3]
   16104:	e0800101 	add	r0, r0, r1, lsl #2
   16108:	e0833100 	add	r3, r3, r0, lsl #2
   1610c:	e5d303ee 	ldrb	r0, [r3, #1006]	; 0x3ee
   16110:	e3500000 	cmp	r0, #0
   16114:	11a00003 	movne	r0, r3
   16118:	e12fff1e 	bx	lr
   1611c:	00008d8c 	andeq	r8, r0, ip, lsl #27
   16120:	0000009c 	muleq	r0, ip, r0

00016124 <UsbGetDescription>:
   16124:	e5d0300e 	ldrb	r3, [r0, #14]
   16128:	e59f23b0 	ldr	r2, [pc, #944]	; 164e0 <UsbGetDescription+0x3bc>
   1612c:	e3530000 	cmp	r3, #0
   16130:	e08f2002 	add	r2, pc, r2
   16134:	0a000010 	beq	1617c <UsbGetDescription+0x58>
   16138:	e3530001 	cmp	r3, #1
   1613c:	0a000011 	beq	16188 <UsbGetDescription+0x64>
   16140:	e59f139c 	ldr	r1, [pc, #924]	; 164e4 <UsbGetDescription+0x3c0>
   16144:	e7922001 	ldr	r2, [r2, r1]
   16148:	e1500002 	cmp	r0, r2
   1614c:	0a00001b 	beq	161c0 <UsbGetDescription+0x9c>
   16150:	e5d023e0 	ldrb	r2, [r0, #992]	; 0x3e0
   16154:	e3520009 	cmp	r2, #9
   16158:	0a000022 	beq	161e8 <UsbGetDescription+0xc4>
   1615c:	e35200ff 	cmp	r2, #255	; 0xff
   16160:	0a00000c 	beq	16198 <UsbGetDescription+0x74>
   16164:	e3520000 	cmp	r2, #0
   16168:	0a000018 	beq	161d0 <UsbGetDescription+0xac>
   1616c:	e59f0374 	ldr	r0, [pc, #884]	; 164e8 <UsbGetDescription+0x3c4>
   16170:	e08f0000 	add	r0, pc, r0
   16174:	e2800c01 	add	r0, r0, #256	; 0x100
   16178:	e12fff1e 	bx	lr
   1617c:	e59f0368 	ldr	r0, [pc, #872]	; 164ec <UsbGetDescription+0x3c8>
   16180:	e08f0000 	add	r0, pc, r0
   16184:	e12fff1e 	bx	lr
   16188:	e59f0360 	ldr	r0, [pc, #864]	; 164f0 <UsbGetDescription+0x3cc>
   1618c:	e08f0000 	add	r0, pc, r0
   16190:	e2800018 	add	r0, r0, #24
   16194:	e12fff1e 	bx	lr
   16198:	e59f2354 	ldr	r2, [pc, #852]	; 164f4 <UsbGetDescription+0x3d0>
   1619c:	e59013e4 	ldr	r1, [r0, #996]	; 0x3e4
   161a0:	e1510002 	cmp	r1, r2
   161a4:	0a000021 	beq	16230 <UsbGetDescription+0x10c>
   161a8:	e3530004 	cmp	r3, #4
   161ac:	0a000023 	beq	16240 <UsbGetDescription+0x11c>
   161b0:	e59f0340 	ldr	r0, [pc, #832]	; 164f8 <UsbGetDescription+0x3d4>
   161b4:	e08f0000 	add	r0, pc, r0
   161b8:	e28000b0 	add	r0, r0, #176	; 0xb0
   161bc:	e12fff1e 	bx	lr
   161c0:	e59f0334 	ldr	r0, [pc, #820]	; 164fc <UsbGetDescription+0x3d8>
   161c4:	e08f0000 	add	r0, pc, r0
   161c8:	e2800034 	add	r0, r0, #52	; 0x34
   161cc:	e12fff1e 	bx	lr
   161d0:	e3530004 	cmp	r3, #4
   161d4:	0a000019 	beq	16240 <UsbGetDescription+0x11c>
   161d8:	e59f0320 	ldr	r0, [pc, #800]	; 16500 <UsbGetDescription+0x3dc>
   161dc:	e08f0000 	add	r0, pc, r0
   161e0:	e28000c4 	add	r0, r0, #196	; 0xc4
   161e4:	e12fff1e 	bx	lr
   161e8:	e2800ff7 	add	r0, r0, #988	; 0x3dc
   161ec:	e1d030b2 	ldrh	r3, [r0, #2]
   161f0:	e3530e21 	cmp	r3, #528	; 0x210
   161f4:	0a000009 	beq	16220 <UsbGetDescription+0xfc>
   161f8:	e3530c02 	cmp	r3, #512	; 0x200
   161fc:	0a000039 	beq	162e8 <UsbGetDescription+0x1c4>
   16200:	e3530e11 	cmp	r3, #272	; 0x110
   16204:	0a00003b 	beq	162f8 <UsbGetDescription+0x1d4>
   16208:	e3530c01 	cmp	r3, #256	; 0x100
   1620c:	0a000048 	beq	16334 <UsbGetDescription+0x210>
   16210:	e59f02ec 	ldr	r0, [pc, #748]	; 16504 <UsbGetDescription+0x3e0>
   16214:	e08f0000 	add	r0, pc, r0
   16218:	e2800084 	add	r0, r0, #132	; 0x84
   1621c:	e12fff1e 	bx	lr
   16220:	e59f02e0 	ldr	r0, [pc, #736]	; 16508 <UsbGetDescription+0x3e4>
   16224:	e08f0000 	add	r0, pc, r0
   16228:	e2800044 	add	r0, r0, #68	; 0x44
   1622c:	e12fff1e 	bx	lr
   16230:	e59f02d4 	ldr	r0, [pc, #724]	; 1650c <UsbGetDescription+0x3e8>
   16234:	e08f0000 	add	r0, pc, r0
   16238:	e2800090 	add	r0, r0, #144	; 0x90
   1623c:	e12fff1e 	bx	lr
   16240:	e5d03019 	ldrb	r3, [r0, #25]
   16244:	e353000a 	cmp	r3, #10
   16248:	0a000064 	beq	163e0 <UsbGetDescription+0x2bc>
   1624c:	9a00000d 	bls	16288 <UsbGetDescription+0x164>
   16250:	e3530010 	cmp	r3, #16
   16254:	0a000071 	beq	16420 <UsbGetDescription+0x2fc>
   16258:	8a00002a 	bhi	16308 <UsbGetDescription+0x1e4>
   1625c:	e353000d 	cmp	r3, #13
   16260:	0a00006a 	beq	16410 <UsbGetDescription+0x2ec>
   16264:	9a000040 	bls	1636c <UsbGetDescription+0x248>
   16268:	e353000e 	cmp	r3, #14
   1626c:	0a000073 	beq	16440 <UsbGetDescription+0x31c>
   16270:	e353000f 	cmp	r3, #15
   16274:	1a000038 	bne	1635c <UsbGetDescription+0x238>
   16278:	e59f0290 	ldr	r0, [pc, #656]	; 16510 <UsbGetDescription+0x3ec>
   1627c:	e08f0000 	add	r0, pc, r0
   16280:	e2800e17 	add	r0, r0, #368	; 0x170
   16284:	e12fff1e 	bx	lr
   16288:	e3530005 	cmp	r3, #5
   1628c:	0a000067 	beq	16430 <UsbGetDescription+0x30c>
   16290:	9a00002b 	bls	16344 <UsbGetDescription+0x220>
   16294:	e3530007 	cmp	r3, #7
   16298:	0a000070 	beq	16460 <UsbGetDescription+0x33c>
   1629c:	3a00006b 	bcc	16450 <UsbGetDescription+0x32c>
   162a0:	e3530008 	cmp	r3, #8
   162a4:	0a000071 	beq	16470 <UsbGetDescription+0x34c>
   162a8:	e3530009 	cmp	r3, #9
   162ac:	1a00002a 	bne	1635c <UsbGetDescription+0x238>
   162b0:	e2800ff7 	add	r0, r0, #988	; 0x3dc
   162b4:	e1d030b2 	ldrh	r3, [r0, #2]
   162b8:	e3530e21 	cmp	r3, #528	; 0x210
   162bc:	0a000077 	beq	164a0 <UsbGetDescription+0x37c>
   162c0:	e3530c02 	cmp	r3, #512	; 0x200
   162c4:	0a000079 	beq	164b0 <UsbGetDescription+0x38c>
   162c8:	e3530e11 	cmp	r3, #272	; 0x110
   162cc:	0a00007b 	beq	164c0 <UsbGetDescription+0x39c>
   162d0:	e3530c01 	cmp	r3, #256	; 0x100
   162d4:	0a00007d 	beq	164d0 <UsbGetDescription+0x3ac>
   162d8:	e59f0234 	ldr	r0, [pc, #564]	; 16514 <UsbGetDescription+0x3f0>
   162dc:	e08f0000 	add	r0, pc, r0
   162e0:	e2800084 	add	r0, r0, #132	; 0x84
   162e4:	e12fff1e 	bx	lr
   162e8:	e59f0228 	ldr	r0, [pc, #552]	; 16518 <UsbGetDescription+0x3f4>
   162ec:	e08f0000 	add	r0, pc, r0
   162f0:	e2800054 	add	r0, r0, #84	; 0x54
   162f4:	e12fff1e 	bx	lr
   162f8:	e59f021c 	ldr	r0, [pc, #540]	; 1651c <UsbGetDescription+0x3f8>
   162fc:	e08f0000 	add	r0, pc, r0
   16300:	e2800064 	add	r0, r0, #100	; 0x64
   16304:	e12fff1e 	bx	lr
   16308:	e35300e0 	cmp	r3, #224	; 0xe0
   1630c:	0a000022 	beq	1639c <UsbGetDescription+0x278>
   16310:	9a00001b 	bls	16384 <UsbGetDescription+0x260>
   16314:	e35300ef 	cmp	r3, #239	; 0xef
   16318:	0a000034 	beq	163f0 <UsbGetDescription+0x2cc>
   1631c:	e35300ff 	cmp	r3, #255	; 0xff
   16320:	1a00000d 	bne	1635c <UsbGetDescription+0x238>
   16324:	e59f01f4 	ldr	r0, [pc, #500]	; 16520 <UsbGetDescription+0x3fc>
   16328:	e08f0000 	add	r0, pc, r0
   1632c:	e28000b0 	add	r0, r0, #176	; 0xb0
   16330:	e12fff1e 	bx	lr
   16334:	e59f01e8 	ldr	r0, [pc, #488]	; 16524 <UsbGetDescription+0x400>
   16338:	e08f0000 	add	r0, pc, r0
   1633c:	e2800074 	add	r0, r0, #116	; 0x74
   16340:	e12fff1e 	bx	lr
   16344:	e3530002 	cmp	r3, #2
   16348:	0a000020 	beq	163d0 <UsbGetDescription+0x2ac>
   1634c:	e3530003 	cmp	r3, #3
   16350:	0a000015 	beq	163ac <UsbGetDescription+0x288>
   16354:	e3530001 	cmp	r3, #1
   16358:	0a000028 	beq	16400 <UsbGetDescription+0x2dc>
   1635c:	e59f01c4 	ldr	r0, [pc, #452]	; 16528 <UsbGetDescription+0x404>
   16360:	e08f0000 	add	r0, pc, r0
   16364:	e2800c01 	add	r0, r0, #256	; 0x100
   16368:	e12fff1e 	bx	lr
   1636c:	e353000b 	cmp	r3, #11
   16370:	1afffff9 	bne	1635c <UsbGetDescription+0x238>
   16374:	e59f01b0 	ldr	r0, [pc, #432]	; 1652c <UsbGetDescription+0x408>
   16378:	e08f0000 	add	r0, pc, r0
   1637c:	e2800f6e 	add	r0, r0, #440	; 0x1b8
   16380:	e12fff1e 	bx	lr
   16384:	e35300dc 	cmp	r3, #220	; 0xdc
   16388:	1afffff3 	bne	1635c <UsbGetDescription+0x238>
   1638c:	e59f019c 	ldr	r0, [pc, #412]	; 16530 <UsbGetDescription+0x40c>
   16390:	e08f0000 	add	r0, pc, r0
   16394:	e2800f52 	add	r0, r0, #328	; 0x148
   16398:	e12fff1e 	bx	lr
   1639c:	e59f0190 	ldr	r0, [pc, #400]	; 16534 <UsbGetDescription+0x410>
   163a0:	e08f0000 	add	r0, pc, r0
   163a4:	e2800f4b 	add	r0, r0, #300	; 0x12c
   163a8:	e12fff1e 	bx	lr
   163ac:	e5d0301b 	ldrb	r3, [r0, #27]
   163b0:	e3530001 	cmp	r3, #1
   163b4:	0a000035 	beq	16490 <UsbGetDescription+0x36c>
   163b8:	e3530002 	cmp	r3, #2
   163bc:	1a00002f 	bne	16480 <UsbGetDescription+0x35c>
   163c0:	e59f0170 	ldr	r0, [pc, #368]	; 16538 <UsbGetDescription+0x414>
   163c4:	e08f0000 	add	r0, pc, r0
   163c8:	e2800f8a 	add	r0, r0, #552	; 0x228
   163cc:	e12fff1e 	bx	lr
   163d0:	e59f0164 	ldr	r0, [pc, #356]	; 1653c <UsbGetDescription+0x418>
   163d4:	e08f0000 	add	r0, pc, r0
   163d8:	e28000a0 	add	r0, r0, #160	; 0xa0
   163dc:	e12fff1e 	bx	lr
   163e0:	e59f0158 	ldr	r0, [pc, #344]	; 16540 <UsbGetDescription+0x41c>
   163e4:	e08f0000 	add	r0, pc, r0
   163e8:	e2800f72 	add	r0, r0, #456	; 0x1c8
   163ec:	e12fff1e 	bx	lr
   163f0:	e59f014c 	ldr	r0, [pc, #332]	; 16544 <UsbGetDescription+0x420>
   163f4:	e08f0000 	add	r0, pc, r0
   163f8:	e2800e11 	add	r0, r0, #272	; 0x110
   163fc:	e12fff1e 	bx	lr
   16400:	e59f0140 	ldr	r0, [pc, #320]	; 16548 <UsbGetDescription+0x424>
   16404:	e08f0000 	add	r0, pc, r0
   16408:	e28000ec 	add	r0, r0, #236	; 0xec
   1640c:	e12fff1e 	bx	lr
   16410:	e59f0134 	ldr	r0, [pc, #308]	; 1654c <UsbGetDescription+0x428>
   16414:	e08f0000 	add	r0, pc, r0
   16418:	e2800f67 	add	r0, r0, #412	; 0x19c
   1641c:	e12fff1e 	bx	lr
   16420:	e59f0128 	ldr	r0, [pc, #296]	; 16550 <UsbGetDescription+0x42c>
   16424:	e08f0000 	add	r0, pc, r0
   16428:	e2800e16 	add	r0, r0, #352	; 0x160
   1642c:	e12fff1e 	bx	lr
   16430:	e59f011c 	ldr	r0, [pc, #284]	; 16554 <UsbGetDescription+0x430>
   16434:	e08f0000 	add	r0, pc, r0
   16438:	e2800f81 	add	r0, r0, #516	; 0x204
   1643c:	e12fff1e 	bx	lr
   16440:	e59f0110 	ldr	r0, [pc, #272]	; 16558 <UsbGetDescription+0x434>
   16444:	e08f0000 	add	r0, pc, r0
   16448:	e2800f62 	add	r0, r0, #392	; 0x188
   1644c:	e12fff1e 	bx	lr
   16450:	e59f0104 	ldr	r0, [pc, #260]	; 1655c <UsbGetDescription+0x438>
   16454:	e08f0000 	add	r0, pc, r0
   16458:	e2800e1f 	add	r0, r0, #496	; 0x1f0
   1645c:	e12fff1e 	bx	lr
   16460:	e59f00f8 	ldr	r0, [pc, #248]	; 16560 <UsbGetDescription+0x43c>
   16464:	e08f0000 	add	r0, pc, r0
   16468:	e28000dc 	add	r0, r0, #220	; 0xdc
   1646c:	e12fff1e 	bx	lr
   16470:	e59f00ec 	ldr	r0, [pc, #236]	; 16564 <UsbGetDescription+0x440>
   16474:	e08f0000 	add	r0, pc, r0
   16478:	e2800f8d 	add	r0, r0, #564	; 0x234
   1647c:	e12fff1e 	bx	lr
   16480:	e59f00e0 	ldr	r0, [pc, #224]	; 16568 <UsbGetDescription+0x444>
   16484:	e08f0000 	add	r0, pc, r0
   16488:	e2800f87 	add	r0, r0, #540	; 0x21c
   1648c:	e12fff1e 	bx	lr
   16490:	e59f00d4 	ldr	r0, [pc, #212]	; 1656c <UsbGetDescription+0x448>
   16494:	e08f0000 	add	r0, pc, r0
   16498:	e2800e1e 	add	r0, r0, #480	; 0x1e0
   1649c:	e12fff1e 	bx	lr
   164a0:	e59f00c8 	ldr	r0, [pc, #200]	; 16570 <UsbGetDescription+0x44c>
   164a4:	e08f0000 	add	r0, pc, r0
   164a8:	e2800044 	add	r0, r0, #68	; 0x44
   164ac:	e12fff1e 	bx	lr
   164b0:	e59f00bc 	ldr	r0, [pc, #188]	; 16574 <UsbGetDescription+0x450>
   164b4:	e08f0000 	add	r0, pc, r0
   164b8:	e2800054 	add	r0, r0, #84	; 0x54
   164bc:	e12fff1e 	bx	lr
   164c0:	e59f00b0 	ldr	r0, [pc, #176]	; 16578 <UsbGetDescription+0x454>
   164c4:	e08f0000 	add	r0, pc, r0
   164c8:	e2800064 	add	r0, r0, #100	; 0x64
   164cc:	e12fff1e 	bx	lr
   164d0:	e59f00a4 	ldr	r0, [pc, #164]	; 1657c <UsbGetDescription+0x458>
   164d4:	e08f0000 	add	r0, pc, r0
   164d8:	e2800074 	add	r0, r0, #116	; 0x74
   164dc:	e12fff1e 	bx	lr
   164e0:	00008d48 	andeq	r8, r0, r8, asr #26
   164e4:	0000009c 	muleq	r0, ip, r0
   164e8:	00005160 	andeq	r5, r0, r0, ror #2
   164ec:	00005150 	andeq	r5, r0, r0, asr r1
   164f0:	00005144 	andeq	r5, r0, r4, asr #2
   164f4:	ec000424 	cfstrs	mvf0, [r0], {36}	; 0x24
   164f8:	0000511c 	andeq	r5, r0, ip, lsl r1
   164fc:	0000510c 	andeq	r5, r0, ip, lsl #2
   16500:	000050f4 	strdeq	r5, [r0], -r4
   16504:	000050bc 	strheq	r5, [r0], -ip
   16508:	000050ac 	andeq	r5, r0, ip, lsr #1
   1650c:	0000509c 	muleq	r0, ip, r0
   16510:	00005054 	andeq	r5, r0, r4, asr r0
   16514:	00004ff4 	strdeq	r4, [r0], -r4	; <UNPREDICTABLE>
   16518:	00004fe4 	andeq	r4, r0, r4, ror #31
   1651c:	00004fd4 	ldrdeq	r4, [r0], -r4	; <UNPREDICTABLE>
   16520:	00004fa8 	andeq	r4, r0, r8, lsr #31
   16524:	00004f98 	muleq	r0, r8, pc	; <UNPREDICTABLE>
   16528:	00004f70 	andeq	r4, r0, r0, ror pc
   1652c:	00004f58 	andeq	r4, r0, r8, asr pc
   16530:	00004f40 	andeq	r4, r0, r0, asr #30
   16534:	00004f30 	andeq	r4, r0, r0, lsr pc
   16538:	00004f0c 	andeq	r4, r0, ip, lsl #30
   1653c:	00004efc 	strdeq	r4, [r0], -ip
   16540:	00004eec 	andeq	r4, r0, ip, ror #29
   16544:	00004edc 	ldrdeq	r4, [r0], -ip
   16548:	00004ecc 	andeq	r4, r0, ip, asr #29
   1654c:	00004ebc 			; <UNDEFINED> instruction: 0x00004ebc
   16550:	00004eac 	andeq	r4, r0, ip, lsr #29
   16554:	00004e9c 	muleq	r0, ip, lr
   16558:	00004e8c 	andeq	r4, r0, ip, lsl #29
   1655c:	00004e7c 	andeq	r4, r0, ip, ror lr
   16560:	00004e6c 	andeq	r4, r0, ip, ror #28
   16564:	00004e5c 	andeq	r4, r0, ip, asr lr
   16568:	00004e4c 	andeq	r4, r0, ip, asr #28
   1656c:	00004e3c 	andeq	r4, r0, ip, lsr lr
   16570:	00004e2c 	andeq	r4, r0, ip, lsr #28
   16574:	00004e1c 	andeq	r4, r0, ip, lsl lr
   16578:	00004e0c 	andeq	r4, r0, ip, lsl #28
   1657c:	00004dfc 	strdeq	r4, [r0], -ip

00016580 <UsbShowTree>:
   16580:	e92d4ff0 	push	{r4, r5, r6, r7, r8, r9, sl, fp, lr}
   16584:	e59fa1d4 	ldr	sl, [pc, #468]	; 16760 <UsbShowTree+0x1e0>
   16588:	e24dd01c 	sub	sp, sp, #28
   1658c:	e3510001 	cmp	r1, #1
   16590:	e58d2014 	str	r2, [sp, #20]
   16594:	e1a07001 	mov	r7, r1
   16598:	e1a05000 	mov	r5, r0
   1659c:	e08fa00a 	add	sl, pc, sl
   165a0:	da000016 	ble	16600 <UsbShowTree+0x80>
   165a4:	e59fb1b8 	ldr	fp, [pc, #440]	; 16764 <UsbShowTree+0x1e4>
   165a8:	e59f91b8 	ldr	r9, [pc, #440]	; 16768 <UsbShowTree+0x1e8>
   165ac:	e08fb00b 	add	fp, pc, fp
   165b0:	e59f81b4 	ldr	r8, [pc, #436]	; 1676c <UsbShowTree+0x1ec>
   165b4:	e59f61b4 	ldr	r6, [pc, #436]	; 16770 <UsbShowTree+0x1f0>
   165b8:	e24b4004 	sub	r4, fp, #4
   165bc:	e08f9009 	add	r9, pc, r9
   165c0:	e08f8008 	add	r8, pc, r8
   165c4:	e08f6006 	add	r6, pc, r6
   165c8:	e0844101 	add	r4, r4, r1, lsl #2
   165cc:	ea000003 	b	165e0 <UsbShowTree+0x60>
   165d0:	e1a00006 	mov	r0, r6
   165d4:	ebffe7f3 	bl	105a8 <printf>
   165d8:	e15b0004 	cmp	fp, r4
   165dc:	0a000007 	beq	16600 <UsbShowTree+0x80>
   165e0:	e49b2004 	ldr	r2, [fp], #4
   165e4:	e3520000 	cmp	r2, #0
   165e8:	0afffff8 	beq	165d0 <UsbShowTree+0x50>
   165ec:	e1a01009 	mov	r1, r9
   165f0:	e1a00008 	mov	r0, r8
   165f4:	ebffe7eb 	bl	105a8 <printf>
   165f8:	e15b0004 	cmp	fp, r4
   165fc:	1afffff7 	bne	165e0 <UsbShowTree+0x60>
   16600:	e5d53004 	ldrb	r3, [r5, #4]
   16604:	e2133003 	ands	r3, r3, #3
   16608:	03a04008 	moveq	r4, #8
   1660c:	0a000005 	beq	16628 <UsbShowTree+0xa8>
   16610:	e3530001 	cmp	r3, #1
   16614:	03a04010 	moveq	r4, #16
   16618:	0a000002 	beq	16628 <UsbShowTree+0xa8>
   1661c:	e3530002 	cmp	r3, #2
   16620:	13a04040 	movne	r4, #64	; 0x40
   16624:	03a04020 	moveq	r4, #32
   16628:	e59d0014 	ldr	r0, [sp, #20]
   1662c:	ebffd883 	bl	c840 <writechar>
   16630:	e1a00005 	mov	r0, r5
   16634:	ebfffeba 	bl	16124 <UsbGetDescription>
   16638:	e1a06000 	mov	r6, r0
   1663c:	e59f0130 	ldr	r0, [pc, #304]	; 16774 <UsbShowTree+0x1f4>
   16640:	e5d53004 	ldrb	r3, [r5, #4]
   16644:	e5d58005 	ldrb	r8, [r5, #5]
   16648:	e79a2000 	ldr	r2, [sl, r0]
   1664c:	e203300c 	and	r3, r3, #12
   16650:	e1a00008 	mov	r0, r8
   16654:	e793a002 	ldr	sl, [r3, r2]
   16658:	e5d59001 	ldrb	r9, [r5, #1]
   1665c:	ebfffe38 	bl	15f44 <IsHid>
   16660:	e3500000 	cmp	r0, #0
   16664:	0a000030 	beq	1672c <UsbShowTree+0x1ac>
   16668:	e59f3108 	ldr	r3, [pc, #264]	; 16778 <UsbShowTree+0x1f8>
   1666c:	e08f3003 	add	r3, pc, r3
   16670:	e59f0104 	ldr	r0, [pc, #260]	; 1677c <UsbShowTree+0x1fc>
   16674:	e58d3008 	str	r3, [sp, #8]
   16678:	e1a02008 	mov	r2, r8
   1667c:	e1a03009 	mov	r3, r9
   16680:	e1a01006 	mov	r1, r6
   16684:	e58d4004 	str	r4, [sp, #4]
   16688:	e58da000 	str	sl, [sp]
   1668c:	e08f0000 	add	r0, pc, r0
   16690:	ebffe7c4 	bl	105a8 <printf>
   16694:	e5d50005 	ldrb	r0, [r5, #5]
   16698:	ebfffdb9 	bl	15d84 <IsHub>
   1669c:	e3500000 	cmp	r0, #0
   166a0:	0a00001f 	beq	16724 <UsbShowTree+0x1a4>
   166a4:	e59503f0 	ldr	r0, [r5, #1008]	; 0x3f0
   166a8:	e5909000 	ldr	r9, [r0]
   166ac:	e3590000 	cmp	r9, #0
   166b0:	da00001b 	ble	16724 <UsbShowTree+0x1a4>
   166b4:	e3a08008 	mov	r8, #8
   166b8:	e3a06000 	mov	r6, #0
   166bc:	e59fb0bc 	ldr	fp, [pc, #188]	; 16780 <UsbShowTree+0x200>
   166c0:	e59fa0bc 	ldr	sl, [pc, #188]	; 16784 <UsbShowTree+0x204>
   166c4:	e08fb00b 	add	fp, pc, fp
   166c8:	e08fa00a 	add	sl, pc, sl
   166cc:	e2494001 	sub	r4, r9, #1
   166d0:	e1a03006 	mov	r3, r6
   166d4:	e0802008 	add	r2, r0, r8
   166d8:	ea000003 	b	166ec <UsbShowTree+0x16c>
   166dc:	e4921004 	ldr	r1, [r2], #4
   166e0:	e2833001 	add	r3, r3, #1
   166e4:	e3510000 	cmp	r1, #0
   166e8:	1a000012 	bne	16738 <UsbShowTree+0x1b8>
   166ec:	e1530004 	cmp	r3, r4
   166f0:	bafffff9 	blt	166dc <UsbShowTree+0x15c>
   166f4:	e0800106 	add	r0, r0, r6, lsl #2
   166f8:	e5900004 	ldr	r0, [r0, #4]
   166fc:	e3a0202b 	mov	r2, #43	; 0x2b
   16700:	e3500000 	cmp	r0, #0
   16704:	1a000012 	bne	16754 <UsbShowTree+0x1d4>
   16708:	e3a03000 	mov	r3, #0
   1670c:	e2866001 	add	r6, r6, #1
   16710:	e1590006 	cmp	r9, r6
   16714:	e2888004 	add	r8, r8, #4
   16718:	e78a3107 	str	r3, [sl, r7, lsl #2]
   1671c:	159503f0 	ldrne	r0, [r5, #1008]	; 0x3f0
   16720:	1affffea 	bne	166d0 <UsbShowTree+0x150>
   16724:	e28dd01c 	add	sp, sp, #28
   16728:	e8bd8ff0 	pop	{r4, r5, r6, r7, r8, r9, sl, fp, pc}
   1672c:	e59f3054 	ldr	r3, [pc, #84]	; 16788 <UsbShowTree+0x208>
   16730:	e08f3003 	add	r3, pc, r3
   16734:	eaffffcd 	b	16670 <UsbShowTree+0xf0>
   16738:	e3a03001 	mov	r3, #1
   1673c:	e0800106 	add	r0, r0, r6, lsl #2
   16740:	e5900004 	ldr	r0, [r0, #4]
   16744:	e78b3107 	str	r3, [fp, r7, lsl #2]
   16748:	e3500000 	cmp	r0, #0
   1674c:	e3a0207c 	mov	r2, #124	; 0x7c
   16750:	0affffec 	beq	16708 <UsbShowTree+0x188>
   16754:	e2871001 	add	r1, r7, #1
   16758:	ebffff88 	bl	16580 <UsbShowTree>
   1675c:	eaffffe9 	b	16708 <UsbShowTree+0x188>
   16760:	000088dc 	ldrdeq	r8, [r0], -ip
   16764:	00342d14 	eorseq	r2, r4, r4, lsl sp
   16768:	0000572c 	andeq	r5, r0, ip, lsr #14
   1676c:	0000572c 	andeq	r5, r0, ip, lsr #14
   16770:	00005720 	andeq	r5, r0, r0, lsr #14
   16774:	000000d8 	ldrdeq	r0, [r0], -r8
   16778:	00005664 	andeq	r5, r0, r4, ror #12
   1677c:	00005668 	andeq	r5, r0, r8, ror #12
   16780:	00342bfc 	ldrshteq	r2, [r4], -ip
   16784:	00342bf8 	ldrshteq	r2, [r4], -r8
   16788:	000055b0 			; <UNDEFINED> instruction: 0x000055b0

0001678c <mailbox_write>:
   1678c:	e59f3044 	ldr	r3, [pc, #68]	; 167d8 <mailbox_write+0x4c>
   16790:	e3500009 	cmp	r0, #9
   16794:	e08f3003 	add	r3, pc, r3
   16798:	8a00000c 	bhi	167d0 <mailbox_write+0x44>
   1679c:	e59f2038 	ldr	r2, [pc, #56]	; 167dc <mailbox_write+0x50>
   167a0:	e3c1100f 	bic	r1, r1, #15
   167a4:	e7933002 	ldr	r3, [r3, r2]
   167a8:	e1800001 	orr	r0, r0, r1
   167ac:	e5932000 	ldr	r2, [r3]
   167b0:	e2822b2e 	add	r2, r2, #47104	; 0xb800
   167b4:	e2822080 	add	r2, r2, #128	; 0x80
   167b8:	e5923038 	ldr	r3, [r2, #56]	; 0x38
   167bc:	e3530000 	cmp	r3, #0
   167c0:	bafffffc 	blt	167b8 <mailbox_write+0x2c>
   167c4:	e5820020 	str	r0, [r2, #32]
   167c8:	e3a00001 	mov	r0, #1
   167cc:	e12fff1e 	bx	lr
   167d0:	e3a00000 	mov	r0, #0
   167d4:	e12fff1e 	bx	lr
   167d8:	000086e4 	andeq	r8, r0, r4, ror #13
   167dc:	00000154 	andeq	r0, r0, r4, asr r1

000167e0 <mailbox_read>:
   167e0:	e59f3048 	ldr	r3, [pc, #72]	; 16830 <mailbox_read+0x50>
   167e4:	e3500009 	cmp	r0, #9
   167e8:	e08f3003 	add	r3, pc, r3
   167ec:	8a00000d 	bhi	16828 <mailbox_read+0x48>
   167f0:	e59f203c 	ldr	r2, [pc, #60]	; 16834 <mailbox_read+0x54>
   167f4:	e7933002 	ldr	r3, [r3, r2]
   167f8:	e5932000 	ldr	r2, [r3]
   167fc:	e2822b2e 	add	r2, r2, #47104	; 0xb800
   16800:	e2822080 	add	r2, r2, #128	; 0x80
   16804:	e5923018 	ldr	r3, [r2, #24]
   16808:	e3130101 	tst	r3, #1073741824	; 0x40000000
   1680c:	1afffffc 	bne	16804 <mailbox_read+0x24>
   16810:	e5923000 	ldr	r3, [r2]
   16814:	e203100f 	and	r1, r3, #15
   16818:	e1510000 	cmp	r1, r0
   1681c:	1afffff8 	bne	16804 <mailbox_read+0x24>
   16820:	e3c3000f 	bic	r0, r3, #15
   16824:	e12fff1e 	bx	lr
   16828:	e59f0008 	ldr	r0, [pc, #8]	; 16838 <mailbox_read+0x58>
   1682c:	e12fff1e 	bx	lr
   16830:	00008690 	muleq	r0, r0, r6
   16834:	00000154 	andeq	r0, r0, r4, asr r1
   16838:	feeddead 	cdp2	14, 14, cr13, cr13, cr13, {5}

0001683c <PowerOnUsb>:
   1683c:	e92d4070 	push	{r4, r5, r6, lr}
   16840:	e3a01020 	mov	r1, #32
   16844:	e3a04a07 	mov	r4, #28672	; 0x7000
   16848:	e3a03000 	mov	r3, #0
   1684c:	e3a05008 	mov	r5, #8
   16850:	e3a02001 	mov	r2, #1
   16854:	e3a00003 	mov	r0, #3
   16858:	e5841000 	str	r1, [r4]
   1685c:	e59f1064 	ldr	r1, [pc, #100]	; 168c8 <PowerOnUsb+0x8c>
   16860:	e5843004 	str	r3, [r4, #4]
   16864:	e584301c 	str	r3, [r4, #28]
   16868:	e5840014 	str	r0, [r4, #20]
   1686c:	e5841008 	str	r1, [r4, #8]
   16870:	e5842018 	str	r2, [r4, #24]
   16874:	e1a01004 	mov	r1, r4
   16878:	e584500c 	str	r5, [r4, #12]
   1687c:	e5845010 	str	r5, [r4, #16]
   16880:	e1a00005 	mov	r0, r5
   16884:	ebffffc0 	bl	1678c <mailbox_write>
   16888:	e1a00005 	mov	r0, r5
   1688c:	ebffffd3 	bl	167e0 <mailbox_read>
   16890:	e5943004 	ldr	r3, [r4, #4]
   16894:	e3530102 	cmp	r3, #-2147483648	; 0x80000000
   16898:	1a000008 	bne	168c0 <PowerOnUsb+0x84>
   1689c:	e5943014 	ldr	r3, [r4, #20]
   168a0:	e3530003 	cmp	r3, #3
   168a4:	1a000005 	bne	168c0 <PowerOnUsb+0x84>
   168a8:	e5943018 	ldr	r3, [r4, #24]
   168ac:	e2033003 	and	r3, r3, #3
   168b0:	e3530001 	cmp	r3, #1
   168b4:	13e00003 	mvnne	r0, #3
   168b8:	03a00000 	moveq	r0, #0
   168bc:	e8bd8070 	pop	{r4, r5, r6, pc}
   168c0:	e3e00003 	mvn	r0, #3
   168c4:	e8bd8070 	pop	{r4, r5, r6, pc}
   168c8:	00028001 	andeq	r8, r2, r1

000168cc <HCDInitialise>:
   168cc:	e92d40f0 	push	{r4, r5, r6, r7, lr}
   168d0:	e59f3184 	ldr	r3, [pc, #388]	; 16a5c <HCDInitialise+0x190>
   168d4:	e59f2184 	ldr	r2, [pc, #388]	; 16a60 <HCDInitialise+0x194>
   168d8:	e08f3003 	add	r3, pc, r3
   168dc:	e7935002 	ldr	r5, [r3, r2]
   168e0:	e59f117c 	ldr	r1, [pc, #380]	; 16a64 <HCDInitialise+0x198>
   168e4:	e5953000 	ldr	r3, [r5]
   168e8:	e24dd014 	sub	sp, sp, #20
   168ec:	e2833726 	add	r3, r3, #9961472	; 0x980000
   168f0:	e5934040 	ldr	r4, [r3, #64]	; 0x40
   168f4:	e593603c 	ldr	r6, [r3, #60]	; 0x3c
   168f8:	e3c43eff 	bic	r3, r4, #4080	; 0xff0
   168fc:	e3c3300f 	bic	r3, r3, #15
   16900:	e1530001 	cmp	r3, r1
   16904:	1a000029 	bne	169b0 <HCDInitialise+0xe4>
   16908:	e59f0158 	ldr	r0, [pc, #344]	; 16a68 <HCDInitialise+0x19c>
   1690c:	e1a06626 	lsr	r6, r6, #12
   16910:	e08f0000 	add	r0, pc, r0
   16914:	ebffe723 	bl	105a8 <printf>
   16918:	e3a0004f 	mov	r0, #79	; 0x4f
   1691c:	ebffd7c7 	bl	c840 <writechar>
   16920:	e3a00054 	mov	r0, #84	; 0x54
   16924:	ebffd7c5 	bl	c840 <writechar>
   16928:	e59f013c 	ldr	r0, [pc, #316]	; 16a6c <HCDInitialise+0x1a0>
   1692c:	e1a03224 	lsr	r3, r4, #4
   16930:	e1a02424 	lsr	r2, r4, #8
   16934:	e204400f 	and	r4, r4, #15
   16938:	e3a01002 	mov	r1, #2
   1693c:	e203300f 	and	r3, r3, #15
   16940:	e202200f 	and	r2, r2, #15
   16944:	e58d6004 	str	r6, [sp, #4]
   16948:	e58d4000 	str	r4, [sp]
   1694c:	e08f0000 	add	r0, pc, r0
   16950:	ebffe714 	bl	105a8 <printf>
   16954:	e5952000 	ldr	r2, [r5]
   16958:	e2822726 	add	r2, r2, #9961472	; 0x980000
   1695c:	e2821044 	add	r1, r2, #68	; 0x44
   16960:	e5d13004 	ldrb	r3, [r1, #4]
   16964:	e1a031a3 	lsr	r3, r3, #3
   16968:	e2033003 	and	r3, r3, #3
   1696c:	e3530002 	cmp	r3, #2
   16970:	1a00002f 	bne	16a34 <HCDInitialise+0x168>
   16974:	e5d13004 	ldrb	r3, [r1, #4]
   16978:	e1b03323 	lsrs	r3, r3, #6
   1697c:	0a000027 	beq	16a20 <HCDInitialise+0x154>
   16980:	e3a01000 	mov	r1, #0
   16984:	e5923008 	ldr	r3, [r2, #8]
   16988:	e3c33001 	bic	r3, r3, #1
   1698c:	e5823008 	str	r3, [r2, #8]
   16990:	e5953000 	ldr	r3, [r5]
   16994:	e2833726 	add	r3, r3, #9961472	; 0x980000
   16998:	e5831018 	str	r1, [r3, #24]
   1699c:	ebffffa6 	bl	1683c <PowerOnUsb>
   169a0:	e3500000 	cmp	r0, #0
   169a4:	1a000027 	bne	16a48 <HCDInitialise+0x17c>
   169a8:	e28dd014 	add	sp, sp, #20
   169ac:	e8bd80f0 	pop	{r4, r5, r6, r7, pc}
   169b0:	e59f00b8 	ldr	r0, [pc, #184]	; 16a70 <HCDInitialise+0x1a4>
   169b4:	e1a07c24 	lsr	r7, r4, #24
   169b8:	e1a05824 	lsr	r5, r4, #16
   169bc:	e08f0000 	add	r0, pc, r0
   169c0:	ebffe6f8 	bl	105a8 <printf>
   169c4:	e6ef5075 	uxtb	r5, r5
   169c8:	e1a00007 	mov	r0, r7
   169cc:	ebffd79b 	bl	c840 <writechar>
   169d0:	e1a00005 	mov	r0, r5
   169d4:	ebffd799 	bl	c840 <writechar>
   169d8:	e1a0c224 	lsr	ip, r4, #4
   169dc:	e1a00424 	lsr	r0, r4, #8
   169e0:	e20cc00f 	and	ip, ip, #15
   169e4:	e200000f 	and	r0, r0, #15
   169e8:	e88d1001 	stm	sp, {r0, ip}
   169ec:	e59f0080 	ldr	r0, [pc, #128]	; 16a74 <HCDInitialise+0x1a8>
   169f0:	e1a03624 	lsr	r3, r4, #12
   169f4:	e1a06626 	lsr	r6, r6, #12
   169f8:	e204400f 	and	r4, r4, #15
   169fc:	e1a02005 	mov	r2, r5
   16a00:	e1a01007 	mov	r1, r7
   16a04:	e58d600c 	str	r6, [sp, #12]
   16a08:	e203300f 	and	r3, r3, #15
   16a0c:	e58d4008 	str	r4, [sp, #8]
   16a10:	e08f0000 	add	r0, pc, r0
   16a14:	ebffe6e3 	bl	105a8 <printf>
   16a18:	e3e00004 	mvn	r0, #4
   16a1c:	eaffffe1 	b	169a8 <HCDInitialise+0xdc>
   16a20:	e59f0050 	ldr	r0, [pc, #80]	; 16a78 <HCDInitialise+0x1ac>
   16a24:	e08f0000 	add	r0, pc, r0
   16a28:	ebffe6de 	bl	105a8 <printf>
   16a2c:	e3e00004 	mvn	r0, #4
   16a30:	eaffffdc 	b	169a8 <HCDInitialise+0xdc>
   16a34:	e59f0040 	ldr	r0, [pc, #64]	; 16a7c <HCDInitialise+0x1b0>
   16a38:	e08f0000 	add	r0, pc, r0
   16a3c:	ebffe6d9 	bl	105a8 <printf>
   16a40:	e3e00004 	mvn	r0, #4
   16a44:	eaffffd7 	b	169a8 <HCDInitialise+0xdc>
   16a48:	e59f0030 	ldr	r0, [pc, #48]	; 16a80 <HCDInitialise+0x1b4>
   16a4c:	e08f0000 	add	r0, pc, r0
   16a50:	ebffe6d4 	bl	105a8 <printf>
   16a54:	e3e00004 	mvn	r0, #4
   16a58:	eaffffd2 	b	169a8 <HCDInitialise+0xdc>
   16a5c:	000085a0 	andeq	r8, r0, r0, lsr #11
   16a60:	00000154 	andeq	r0, r0, r4, asr r1
   16a64:	4f542000 	svcmi	0x00542000
   16a68:	00005418 	andeq	r5, r0, r8, lsl r4
   16a6c:	00005434 	andeq	r5, r0, r4, lsr r4
   16a70:	0000536c 	andeq	r5, r0, ip, ror #6
   16a74:	00005328 	andeq	r5, r0, r8, lsr #6
   16a78:	000053ac 	andeq	r5, r0, ip, lsr #7
   16a7c:	00005360 	andeq	r5, r0, r0, ror #6
   16a80:	000053ac 	andeq	r5, r0, ip, lsr #7

00016a84 <PowerOffUsb>:
   16a84:	e92d4070 	push	{r4, r5, r6, lr}
   16a88:	e3a03000 	mov	r3, #0
   16a8c:	e3a04a07 	mov	r4, #28672	; 0x7000
   16a90:	e3a05008 	mov	r5, #8
   16a94:	e3a02003 	mov	r2, #3
   16a98:	e3a00020 	mov	r0, #32
   16a9c:	e59f1064 	ldr	r1, [pc, #100]	; 16b08 <PowerOffUsb+0x84>
   16aa0:	e5843004 	str	r3, [r4, #4]
   16aa4:	e5843018 	str	r3, [r4, #24]
   16aa8:	e584301c 	str	r3, [r4, #28]
   16aac:	e5840000 	str	r0, [r4]
   16ab0:	e5841008 	str	r1, [r4, #8]
   16ab4:	e5842014 	str	r2, [r4, #20]
   16ab8:	e1a01004 	mov	r1, r4
   16abc:	e584500c 	str	r5, [r4, #12]
   16ac0:	e5845010 	str	r5, [r4, #16]
   16ac4:	e1a00005 	mov	r0, r5
   16ac8:	ebffff2f 	bl	1678c <mailbox_write>
   16acc:	e1a00005 	mov	r0, r5
   16ad0:	ebffff42 	bl	167e0 <mailbox_read>
   16ad4:	e5943004 	ldr	r3, [r4, #4]
   16ad8:	e3530102 	cmp	r3, #-2147483648	; 0x80000000
   16adc:	1a000007 	bne	16b00 <PowerOffUsb+0x7c>
   16ae0:	e5943014 	ldr	r3, [r4, #20]
   16ae4:	e3530003 	cmp	r3, #3
   16ae8:	1a000004 	bne	16b00 <PowerOffUsb+0x7c>
   16aec:	e5943018 	ldr	r3, [r4, #24]
   16af0:	e3130003 	tst	r3, #3
   16af4:	13e00003 	mvnne	r0, #3
   16af8:	03a00000 	moveq	r0, #0
   16afc:	e8bd8070 	pop	{r4, r5, r6, pc}
   16b00:	e3e00003 	mvn	r0, #3
   16b04:	e8bd8070 	pop	{r4, r5, r6, pc}
   16b08:	00028001 	andeq	r8, r2, r1

00016b0c <tick_difference>:
   16b0c:	e0520000 	subs	r0, r2, r0
   16b10:	e0c31001 	sbc	r1, r3, r1
   16b14:	e12fff1e 	bx	lr

00016b18 <HCDReset>:
   16b18:	e92d43f0 	push	{r4, r5, r6, r7, r8, r9, lr}
   16b1c:	e24dd00c 	sub	sp, sp, #12
   16b20:	ebfff9b4 	bl	151f8 <timer_getTickCount64>
   16b24:	e59f90f8 	ldr	r9, [pc, #248]	; 16c24 <HCDReset+0x10c>
   16b28:	e1a06000 	mov	r6, r0
   16b2c:	e1a07001 	mov	r7, r1
   16b30:	e59f40f0 	ldr	r4, [pc, #240]	; 16c28 <HCDReset+0x110>
   16b34:	e3a05000 	mov	r5, #0
   16b38:	e08f9009 	add	r9, pc, r9
   16b3c:	ea000006 	b	16b5c <HCDReset+0x44>
   16b40:	e7998003 	ldr	r8, [r9, r3]
   16b44:	e5983000 	ldr	r3, [r8]
   16b48:	e2833726 	add	r3, r3, #9961472	; 0x980000
   16b4c:	e5d32013 	ldrb	r2, [r3, #19]
   16b50:	e2833010 	add	r3, r3, #16
   16b54:	e1b023a2 	lsrs	r2, r2, #7
   16b58:	1a00000f 	bne	16b9c <HCDReset+0x84>
   16b5c:	ebfff9a5 	bl	151f8 <timer_getTickCount64>
   16b60:	e1a03001 	mov	r3, r1
   16b64:	e1a02000 	mov	r2, r0
   16b68:	e1a01007 	mov	r1, r7
   16b6c:	e1a00006 	mov	r0, r6
   16b70:	ebffffe5 	bl	16b0c <tick_difference>
   16b74:	e1510005 	cmp	r1, r5
   16b78:	01500004 	cmpeq	r0, r4
   16b7c:	e59f30a8 	ldr	r3, [pc, #168]	; 16c2c <HCDReset+0x114>
   16b80:	9affffee 	bls	16b40 <HCDReset+0x28>
   16b84:	e59f00a4 	ldr	r0, [pc, #164]	; 16c30 <HCDReset+0x118>
   16b88:	e08f0000 	add	r0, pc, r0
   16b8c:	ebffe685 	bl	105a8 <printf>
   16b90:	e3e00007 	mvn	r0, #7
   16b94:	e28dd00c 	add	sp, sp, #12
   16b98:	e8bd83f0 	pop	{r4, r5, r6, r7, r8, r9, pc}
   16b9c:	e5d32000 	ldrb	r2, [r3]
   16ba0:	e3a05000 	mov	r5, #0
   16ba4:	e3822001 	orr	r2, r2, #1
   16ba8:	e5c32000 	strb	r2, [r3]
   16bac:	ebfff991 	bl	151f8 <timer_getTickCount64>
   16bb0:	e1a06000 	mov	r6, r0
   16bb4:	e1a07001 	mov	r7, r1
   16bb8:	e59f4068 	ldr	r4, [pc, #104]	; 16c28 <HCDReset+0x110>
   16bbc:	ebfff98d 	bl	151f8 <timer_getTickCount64>
   16bc0:	e1a02000 	mov	r2, r0
   16bc4:	e1a03001 	mov	r3, r1
   16bc8:	e1a00006 	mov	r0, r6
   16bcc:	e1a01007 	mov	r1, r7
   16bd0:	ebffffcd 	bl	16b0c <tick_difference>
   16bd4:	e1510005 	cmp	r1, r5
   16bd8:	01500004 	cmpeq	r0, r4
   16bdc:	8a00000a 	bhi	16c0c <HCDReset+0xf4>
   16be0:	e5983000 	ldr	r3, [r8]
   16be4:	e2833726 	add	r3, r3, #9961472	; 0x980000
   16be8:	e5933010 	ldr	r3, [r3, #16]
   16bec:	e58d3004 	str	r3, [sp, #4]
   16bf0:	e5dd0004 	ldrb	r0, [sp, #4]
   16bf4:	e2100001 	ands	r0, r0, #1
   16bf8:	1affffef 	bne	16bbc <HCDReset+0xa4>
   16bfc:	e5dd3007 	ldrb	r3, [sp, #7]
   16c00:	e1b033a3 	lsrs	r3, r3, #7
   16c04:	0affffec 	beq	16bbc <HCDReset+0xa4>
   16c08:	eaffffe1 	b	16b94 <HCDReset+0x7c>
   16c0c:	e59f0020 	ldr	r0, [pc, #32]	; 16c34 <HCDReset+0x11c>
   16c10:	e08f0000 	add	r0, pc, r0
   16c14:	ebffe663 	bl	105a8 <printf>
   16c18:	e3e00007 	mvn	r0, #7
   16c1c:	e28dd00c 	add	sp, sp, #12
   16c20:	e8bd83f0 	pop	{r4, r5, r6, r7, r8, r9, pc}
   16c24:	00008340 	andeq	r8, r0, r0, asr #6
   16c28:	000186a0 	andeq	r8, r1, r0, lsr #13
   16c2c:	00000154 	andeq	r0, r0, r4, asr r1
   16c30:	000052a0 	andeq	r5, r0, r0, lsr #5
   16c34:	00005220 	andeq	r5, r0, r0, lsr #4

00016c38 <HCDTransmitFifoFlush>:
   16c38:	e92d41f0 	push	{r4, r5, r6, r7, r8, lr}
   16c3c:	e59f3098 	ldr	r3, [pc, #152]	; 16cdc <HCDTransmitFifoFlush+0xa4>
   16c40:	e59f2098 	ldr	r2, [pc, #152]	; 16ce0 <HCDTransmitFifoFlush+0xa8>
   16c44:	e08f3003 	add	r3, pc, r3
   16c48:	e7938002 	ldr	r8, [r3, r2]
   16c4c:	e200001f 	and	r0, r0, #31
   16c50:	e5983000 	ldr	r3, [r8]
   16c54:	e59f6088 	ldr	r6, [pc, #136]	; 16ce4 <HCDTransmitFifoFlush+0xac>
   16c58:	e2833726 	add	r3, r3, #9961472	; 0x980000
   16c5c:	e5932010 	ldr	r2, [r3, #16]
   16c60:	e3a07000 	mov	r7, #0
   16c64:	e3c22d1f 	bic	r2, r2, #1984	; 0x7c0
   16c68:	e1822300 	orr	r2, r2, r0, lsl #6
   16c6c:	e5832010 	str	r2, [r3, #16]
   16c70:	e5d32010 	ldrb	r2, [r3, #16]
   16c74:	e3822020 	orr	r2, r2, #32
   16c78:	e5c32010 	strb	r2, [r3, #16]
   16c7c:	ebfff95d 	bl	151f8 <timer_getTickCount64>
   16c80:	e1a04000 	mov	r4, r0
   16c84:	e1a05001 	mov	r5, r1
   16c88:	ea000005 	b	16ca4 <HCDTransmitFifoFlush+0x6c>
   16c8c:	e5983000 	ldr	r3, [r8]
   16c90:	e2833726 	add	r3, r3, #9961472	; 0x980000
   16c94:	e5d30010 	ldrb	r0, [r3, #16]
   16c98:	e1a002a0 	lsr	r0, r0, #5
   16c9c:	e2100001 	ands	r0, r0, #1
   16ca0:	08bd81f0 	popeq	{r4, r5, r6, r7, r8, pc}
   16ca4:	ebfff953 	bl	151f8 <timer_getTickCount64>
   16ca8:	e1a02000 	mov	r2, r0
   16cac:	e1a03001 	mov	r3, r1
   16cb0:	e1a00004 	mov	r0, r4
   16cb4:	e1a01005 	mov	r1, r5
   16cb8:	ebffff93 	bl	16b0c <tick_difference>
   16cbc:	e1510007 	cmp	r1, r7
   16cc0:	01500006 	cmpeq	r0, r6
   16cc4:	9afffff0 	bls	16c8c <HCDTransmitFifoFlush+0x54>
   16cc8:	e59f0018 	ldr	r0, [pc, #24]	; 16ce8 <HCDTransmitFifoFlush+0xb0>
   16ccc:	e08f0000 	add	r0, pc, r0
   16cd0:	ebffe634 	bl	105a8 <printf>
   16cd4:	e3e00007 	mvn	r0, #7
   16cd8:	e8bd81f0 	pop	{r4, r5, r6, r7, r8, pc}
   16cdc:	00008234 	andeq	r8, r0, r4, lsr r2
   16ce0:	00000154 	andeq	r0, r0, r4, asr r1
   16ce4:	000186a0 	andeq	r8, r1, r0, lsr #13
   16ce8:	0000516c 	andeq	r5, r0, ip, ror #2

00016cec <HCDReceiveFifoFlush>:
   16cec:	e92d41f0 	push	{r4, r5, r6, r7, r8, lr}
   16cf0:	e59f3084 	ldr	r3, [pc, #132]	; 16d7c <HCDReceiveFifoFlush+0x90>
   16cf4:	e59f2084 	ldr	r2, [pc, #132]	; 16d80 <HCDReceiveFifoFlush+0x94>
   16cf8:	e08f3003 	add	r3, pc, r3
   16cfc:	e7938002 	ldr	r8, [r3, r2]
   16d00:	e59f607c 	ldr	r6, [pc, #124]	; 16d84 <HCDReceiveFifoFlush+0x98>
   16d04:	e5983000 	ldr	r3, [r8]
   16d08:	e3a07000 	mov	r7, #0
   16d0c:	e2833726 	add	r3, r3, #9961472	; 0x980000
   16d10:	e5d32010 	ldrb	r2, [r3, #16]
   16d14:	e3822010 	orr	r2, r2, #16
   16d18:	e5c32010 	strb	r2, [r3, #16]
   16d1c:	ebfff935 	bl	151f8 <timer_getTickCount64>
   16d20:	e1a04000 	mov	r4, r0
   16d24:	e1a05001 	mov	r5, r1
   16d28:	ea000005 	b	16d44 <HCDReceiveFifoFlush+0x58>
   16d2c:	e5983000 	ldr	r3, [r8]
   16d30:	e2833726 	add	r3, r3, #9961472	; 0x980000
   16d34:	e5d30010 	ldrb	r0, [r3, #16]
   16d38:	e1a00220 	lsr	r0, r0, #4
   16d3c:	e2100001 	ands	r0, r0, #1
   16d40:	08bd81f0 	popeq	{r4, r5, r6, r7, r8, pc}
   16d44:	ebfff92b 	bl	151f8 <timer_getTickCount64>
   16d48:	e1a02000 	mov	r2, r0
   16d4c:	e1a03001 	mov	r3, r1
   16d50:	e1a00004 	mov	r0, r4
   16d54:	e1a01005 	mov	r1, r5
   16d58:	ebffff6b 	bl	16b0c <tick_difference>
   16d5c:	e1510007 	cmp	r1, r7
   16d60:	01500006 	cmpeq	r0, r6
   16d64:	9afffff0 	bls	16d2c <HCDReceiveFifoFlush+0x40>
   16d68:	e59f0018 	ldr	r0, [pc, #24]	; 16d88 <HCDReceiveFifoFlush+0x9c>
   16d6c:	e08f0000 	add	r0, pc, r0
   16d70:	ebffe60c 	bl	105a8 <printf>
   16d74:	e3e00007 	mvn	r0, #7
   16d78:	e8bd81f0 	pop	{r4, r5, r6, r7, r8, pc}
   16d7c:	00008180 	andeq	r8, r0, r0, lsl #3
   16d80:	00000154 	andeq	r0, r0, r4, asr r1
   16d84:	000186a0 	andeq	r8, r1, r0, lsr #13
   16d88:	000050d4 	ldrdeq	r5, [r0], -r4

00016d8c <HCDStart>:
   16d8c:	e92d47f0 	push	{r4, r5, r6, r7, r8, r9, sl, lr}
   16d90:	e59f63f0 	ldr	r6, [pc, #1008]	; 17188 <HCDStart+0x3fc>
   16d94:	e59f33f0 	ldr	r3, [pc, #1008]	; 1718c <HCDStart+0x400>
   16d98:	e08f6006 	add	r6, pc, r6
   16d9c:	e7964003 	ldr	r4, [r6, r3]
   16da0:	e24dd008 	sub	sp, sp, #8
   16da4:	e5943000 	ldr	r3, [r4]
   16da8:	e2833726 	add	r3, r3, #9961472	; 0x980000
   16dac:	e593200c 	ldr	r2, [r3, #12]
   16db0:	e3c22605 	bic	r2, r2, #5242880	; 0x500000
   16db4:	e583200c 	str	r2, [r3, #12]
   16db8:	ebffff56 	bl	16b18 <HCDReset>
   16dbc:	e2505000 	subs	r5, r0, #0
   16dc0:	1a0000c1 	bne	170cc <HCDStart+0x340>
   16dc4:	e59f23c4 	ldr	r2, [pc, #964]	; 17190 <HCDStart+0x404>
   16dc8:	e5943000 	ldr	r3, [r4]
   16dcc:	e7961002 	ldr	r1, [r6, r2]
   16dd0:	e2833726 	add	r3, r3, #9961472	; 0x980000
   16dd4:	e5d12000 	ldrb	r2, [r1]
   16dd8:	e283000c 	add	r0, r3, #12
   16ddc:	e3520000 	cmp	r2, #0
   16de0:	0a00009a 	beq	17050 <HCDStart+0x2c4>
   16de4:	e5902000 	ldr	r2, [r0]
   16de8:	e5d31048 	ldrb	r1, [r3, #72]	; 0x48
   16dec:	e2833044 	add	r3, r3, #68	; 0x44
   16df0:	e1a01321 	lsr	r1, r1, #6
   16df4:	e3510002 	cmp	r1, #2
   16df8:	0a0000ad 	beq	170b4 <HCDStart+0x328>
   16dfc:	e3c2280a 	bic	r2, r2, #655360	; 0xa0000
   16e00:	e5802000 	str	r2, [r0]
   16e04:	e5942000 	ldr	r2, [r4]
   16e08:	e2822726 	add	r2, r2, #9961472	; 0x980000
   16e0c:	e5923008 	ldr	r3, [r2, #8]
   16e10:	e3833020 	orr	r3, r3, #32
   16e14:	e3c33502 	bic	r3, r3, #8388608	; 0x800000
   16e18:	e5823008 	str	r3, [r2, #8]
   16e1c:	e5943000 	ldr	r3, [r4]
   16e20:	e2833726 	add	r3, r3, #9961472	; 0x980000
   16e24:	e593200c 	ldr	r2, [r3, #12]
   16e28:	e5d31048 	ldrb	r1, [r3, #72]	; 0x48
   16e2c:	e2011007 	and	r1, r1, #7
   16e30:	e3510006 	cmp	r1, #6
   16e34:	908ff101 	addls	pc, pc, r1, lsl #2
   16e38:	ea000007 	b	16e5c <HCDStart+0xd0>
   16e3c:	ea0000a8 	b	170e4 <HCDStart+0x358>
   16e40:	ea0000a9 	b	170ec <HCDStart+0x360>
   16e44:	ea000003 	b	16e58 <HCDStart+0xcc>
   16e48:	ea0000a7 	b	170ec <HCDStart+0x360>
   16e4c:	ea000001 	b	16e58 <HCDStart+0xcc>
   16e50:	ea0000a5 	b	170ec <HCDStart+0x360>
   16e54:	eaffffff 	b	16e58 <HCDStart+0xcc>
   16e58:	e3c22c03 	bic	r2, r2, #768	; 0x300
   16e5c:	e3a01000 	mov	r1, #0
   16e60:	e583200c 	str	r2, [r3, #12]
   16e64:	e5943000 	ldr	r3, [r4]
   16e68:	e2833726 	add	r3, r3, #9961472	; 0x980000
   16e6c:	e5831e00 	str	r1, [r3, #3584]	; 0xe00
   16e70:	e5943000 	ldr	r3, [r4]
   16e74:	e2833726 	add	r3, r3, #9961472	; 0x980000
   16e78:	e5d31048 	ldrb	r1, [r3, #72]	; 0x48
   16e7c:	e1a01321 	lsr	r1, r1, #6
   16e80:	e3510002 	cmp	r1, #2
   16e84:	12831b01 	addne	r1, r3, #1024	; 0x400
   16e88:	0a00007d 	beq	17084 <HCDStart+0x2f8>
   16e8c:	e5912000 	ldr	r2, [r1]
   16e90:	e3c22003 	bic	r2, r2, #3
   16e94:	e5812000 	str	r2, [r1]
   16e98:	e3a02a05 	mov	r2, #20480	; 0x5000
   16e9c:	e5d10000 	ldrb	r0, [r1]
   16ea0:	e59fc2ec 	ldr	ip, [pc, #748]	; 17194 <HCDStart+0x408>
   16ea4:	e3800004 	orr	r0, r0, #4
   16ea8:	e5c10000 	strb	r0, [r1]
   16eac:	e5832024 	str	r2, [r3, #36]	; 0x24
   16eb0:	e5943000 	ldr	r3, [r4]
   16eb4:	e3a00010 	mov	r0, #16
   16eb8:	e2833726 	add	r3, r3, #9961472	; 0x980000
   16ebc:	e5931028 	ldr	r1, [r3, #40]	; 0x28
   16ec0:	e001100c 	and	r1, r1, ip
   16ec4:	e3811205 	orr	r1, r1, #1342177280	; 0x50000000
   16ec8:	e5831028 	str	r1, [r3, #40]	; 0x28
   16ecc:	e5932028 	ldr	r2, [r3, #40]	; 0x28
   16ed0:	e3c22caf 	bic	r2, r2, #44800	; 0xaf00
   16ed4:	e3c220ff 	bic	r2, r2, #255	; 0xff
   16ed8:	e3822a05 	orr	r2, r2, #20480	; 0x5000
   16edc:	e5832028 	str	r2, [r3, #40]	; 0x28
   16ee0:	e5932100 	ldr	r2, [r3, #256]	; 0x100
   16ee4:	e002200c 	and	r2, r2, ip
   16ee8:	e3822205 	orr	r2, r2, #1342177280	; 0x50000000
   16eec:	e5832100 	str	r2, [r3, #256]	; 0x100
   16ef0:	e5932100 	ldr	r2, [r3, #256]	; 0x100
   16ef4:	e3c22c5f 	bic	r2, r2, #24320	; 0x5f00
   16ef8:	e3c220ff 	bic	r2, r2, #255	; 0xff
   16efc:	e3822a0a 	orr	r2, r2, #40960	; 0xa000
   16f00:	e5832100 	str	r2, [r3, #256]	; 0x100
   16f04:	e5932000 	ldr	r2, [r3]
   16f08:	e3822b01 	orr	r2, r2, #1024	; 0x400
   16f0c:	e5832000 	str	r2, [r3]
   16f10:	ebffff48 	bl	16c38 <HCDTransmitFifoFlush>
   16f14:	e2505000 	subs	r5, r0, #0
   16f18:	0a000002 	beq	16f28 <HCDStart+0x19c>
   16f1c:	e1a00005 	mov	r0, r5
   16f20:	e28dd008 	add	sp, sp, #8
   16f24:	e8bd87f0 	pop	{r4, r5, r6, r7, r8, r9, sl, pc}
   16f28:	ebffff6f 	bl	16cec <HCDReceiveFifoFlush>
   16f2c:	e2505000 	subs	r5, r0, #0
   16f30:	1afffff9 	bne	16f1c <HCDStart+0x190>
   16f34:	e5943000 	ldr	r3, [r4]
   16f38:	e2833726 	add	r3, r3, #9961472	; 0x980000
   16f3c:	e5d32402 	ldrb	r2, [r3, #1026]	; 0x402
   16f40:	e1b023a2 	lsrs	r2, r2, #7
   16f44:	1a000075 	bne	17120 <HCDStart+0x394>
   16f48:	e283e044 	add	lr, r3, #68	; 0x44
   16f4c:	e59e2004 	ldr	r2, [lr, #4]
   16f50:	e312090f 	tst	r2, #245760	; 0x3c000
   16f54:	0a000013 	beq	16fa8 <HCDStart+0x21c>
   16f58:	e1a0c005 	mov	ip, r5
   16f5c:	e2830c05 	add	r0, r3, #1280	; 0x500
   16f60:	e5906000 	ldr	r6, [r0]
   16f64:	e28cc001 	add	ip, ip, #1
   16f68:	e1a01426 	lsr	r1, r6, #8
   16f6c:	e1e01c81 	mvn	r1, r1, lsl #25
   16f70:	e1e01ca1 	mvn	r1, r1, lsr #25
   16f74:	e1a02c26 	lsr	r2, r6, #24
   16f78:	e202207f 	and	r2, r2, #127	; 0x7f
   16f7c:	e3822040 	orr	r2, r2, #64	; 0x40
   16f80:	e58d6004 	str	r6, [sp, #4]
   16f84:	e5cd1005 	strb	r1, [sp, #5]
   16f88:	e5cd2007 	strb	r2, [sp, #7]
   16f8c:	e59d2004 	ldr	r2, [sp, #4]
   16f90:	e4802020 	str	r2, [r0], #32
   16f94:	e59e2004 	ldr	r2, [lr, #4]
   16f98:	e1a02722 	lsr	r2, r2, #14
   16f9c:	e202200f 	and	r2, r2, #15
   16fa0:	e152000c 	cmp	r2, ip
   16fa4:	caffffed 	bgt	16f60 <HCDStart+0x1d4>
   16fa8:	e59e2004 	ldr	r2, [lr, #4]
   16fac:	e312090f 	tst	r2, #245760	; 0x3c000
   16fb0:	0a00005a 	beq	17120 <HCDStart+0x394>
   16fb4:	e3a08000 	mov	r8, #0
   16fb8:	e59fa1d8 	ldr	sl, [pc, #472]	; 17198 <HCDStart+0x40c>
   16fbc:	e08fa00a 	add	sl, pc, sl
   16fc0:	e2833c05 	add	r3, r3, #1280	; 0x500
   16fc4:	e7930288 	ldr	r0, [r3, r8, lsl #5]
   16fc8:	e1a09288 	lsl	r9, r8, #5
   16fcc:	e1a02420 	lsr	r2, r0, #8
   16fd0:	e1e02c82 	mvn	r2, r2, lsl #25
   16fd4:	e1e02ca2 	mvn	r2, r2, lsr #25
   16fd8:	e1a01c20 	lsr	r1, r0, #24
   16fdc:	e38110c0 	orr	r1, r1, #192	; 0xc0
   16fe0:	e58d0004 	str	r0, [sp, #4]
   16fe4:	e5cd2005 	strb	r2, [sp, #5]
   16fe8:	e5cd1007 	strb	r1, [sp, #7]
   16fec:	e59d2004 	ldr	r2, [sp, #4]
   16ff0:	e7832288 	str	r2, [r3, r8, lsl #5]
   16ff4:	ebfff87f 	bl	151f8 <timer_getTickCount64>
   16ff8:	e1a06000 	mov	r6, r0
   16ffc:	e1a07001 	mov	r7, r1
   17000:	ea000005 	b	1701c <HCDStart+0x290>
   17004:	e5943000 	ldr	r3, [r4]
   17008:	e2833726 	add	r3, r3, #9961472	; 0x980000
   1700c:	e2832c05 	add	r2, r3, #1280	; 0x500
   17010:	e7922009 	ldr	r2, [r2, r9]
   17014:	e3520000 	cmp	r2, #0
   17018:	aa00003a 	bge	17108 <HCDStart+0x37c>
   1701c:	ebfff875 	bl	151f8 <timer_getTickCount64>
   17020:	e1a02000 	mov	r2, r0
   17024:	e1a03001 	mov	r3, r1
   17028:	e1a00006 	mov	r0, r6
   1702c:	e1a01007 	mov	r1, r7
   17030:	ebfffeb5 	bl	16b0c <tick_difference>
   17034:	e3510000 	cmp	r1, #0
   17038:	03500601 	cmpeq	r0, #1048576	; 0x100000
   1703c:	9afffff0 	bls	17004 <HCDStart+0x278>
   17040:	e1a01008 	mov	r1, r8
   17044:	e1a0000a 	mov	r0, sl
   17048:	ebffe556 	bl	105a8 <printf>
   1704c:	eaffffec 	b	17004 <HCDStart+0x278>
   17050:	e3a00001 	mov	r0, #1
   17054:	e593200c 	ldr	r2, [r3, #12]
   17058:	e5c10000 	strb	r0, [r1]
   1705c:	e3822010 	orr	r2, r2, #16
   17060:	e3c22008 	bic	r2, r2, #8
   17064:	e583200c 	str	r2, [r3, #12]
   17068:	ebfffeaa 	bl	16b18 <HCDReset>
   1706c:	e2505000 	subs	r5, r0, #0
   17070:	1a000020 	bne	170f8 <HCDStart+0x36c>
   17074:	e5943000 	ldr	r3, [r4]
   17078:	e2833726 	add	r3, r3, #9961472	; 0x980000
   1707c:	e283000c 	add	r0, r3, #12
   17080:	eaffff57 	b	16de4 <HCDStart+0x58>
   17084:	e5d30049 	ldrb	r0, [r3, #73]	; 0x49
   17088:	e2831b01 	add	r1, r3, #1024	; 0x400
   1708c:	e2000003 	and	r0, r0, #3
   17090:	e3500001 	cmp	r0, #1
   17094:	1affff7c 	bne	16e8c <HCDStart+0x100>
   17098:	e3120802 	tst	r2, #131072	; 0x20000
   1709c:	0affff7a 	beq	16e8c <HCDStart+0x100>
   170a0:	e5932400 	ldr	r2, [r3, #1024]	; 0x400
   170a4:	e3c22002 	bic	r2, r2, #2
   170a8:	e3822001 	orr	r2, r2, #1
   170ac:	e5832400 	str	r2, [r3, #1024]	; 0x400
   170b0:	eaffff78 	b	16e98 <HCDStart+0x10c>
   170b4:	e5d33005 	ldrb	r3, [r3, #5]
   170b8:	e2033003 	and	r3, r3, #3
   170bc:	e3530001 	cmp	r3, #1
   170c0:	0382280a 	orreq	r2, r2, #655360	; 0xa0000
   170c4:	1affff4c 	bne	16dfc <HCDStart+0x70>
   170c8:	eaffff4c 	b	16e00 <HCDStart+0x74>
   170cc:	e59f00c8 	ldr	r0, [pc, #200]	; 1719c <HCDStart+0x410>
   170d0:	e08f0000 	add	r0, pc, r0
   170d4:	ebffe533 	bl	105a8 <printf>
   170d8:	e1a00005 	mov	r0, r5
   170dc:	e28dd008 	add	sp, sp, #8
   170e0:	e8bd87f0 	pop	{r4, r5, r6, r7, r8, r9, sl, pc}
   170e4:	e3822c03 	orr	r2, r2, #768	; 0x300
   170e8:	eaffff5b 	b	16e5c <HCDStart+0xd0>
   170ec:	e3c22c02 	bic	r2, r2, #512	; 0x200
   170f0:	e3822c01 	orr	r2, r2, #256	; 0x100
   170f4:	eaffff58 	b	16e5c <HCDStart+0xd0>
   170f8:	e59f00a0 	ldr	r0, [pc, #160]	; 171a0 <HCDStart+0x414>
   170fc:	e08f0000 	add	r0, pc, r0
   17100:	ebffe528 	bl	105a8 <printf>
   17104:	eaffff84 	b	16f1c <HCDStart+0x190>
   17108:	e5932048 	ldr	r2, [r3, #72]	; 0x48
   1710c:	e2888001 	add	r8, r8, #1
   17110:	e1a02722 	lsr	r2, r2, #14
   17114:	e202200f 	and	r2, r2, #15
   17118:	e1520008 	cmp	r2, r8
   1711c:	caffffa7 	bgt	16fc0 <HCDStart+0x234>
   17120:	e5932440 	ldr	r2, [r3, #1088]	; 0x440
   17124:	e283cd11 	add	ip, r3, #1088	; 0x440
   17128:	e3120a01 	tst	r2, #4096	; 0x1000
   1712c:	1a000005 	bne	17148 <HCDStart+0x3bc>
   17130:	e3c2202e 	bic	r2, r2, #46	; 0x2e
   17134:	e3822a01 	orr	r2, r2, #4096	; 0x1000
   17138:	e5832440 	str	r2, [r3, #1088]	; 0x440
   1713c:	e594c000 	ldr	ip, [r4]
   17140:	e28cc726 	add	ip, ip, #9961472	; 0x980000
   17144:	e28ccd11 	add	ip, ip, #1088	; 0x440
   17148:	e59c2000 	ldr	r2, [ip]
   1714c:	e59f0050 	ldr	r0, [pc, #80]	; 171a4 <HCDStart+0x418>
   17150:	e3c2202e 	bic	r2, r2, #46	; 0x2e
   17154:	e3822c01 	orr	r2, r2, #256	; 0x100
   17158:	e58c2000 	str	r2, [ip]
   1715c:	e3a01000 	mov	r1, #0
   17160:	ebffe345 	bl	fe7c <timer_wait>
   17164:	e1a00005 	mov	r0, r5
   17168:	e5943000 	ldr	r3, [r4]
   1716c:	e2833726 	add	r3, r3, #9961472	; 0x980000
   17170:	e5932440 	ldr	r2, [r3, #1088]	; 0x440
   17174:	e3c22f4b 	bic	r2, r2, #300	; 0x12c
   17178:	e3c22002 	bic	r2, r2, #2
   1717c:	e5832440 	str	r2, [r3, #1088]	; 0x440
   17180:	e28dd008 	add	sp, sp, #8
   17184:	e8bd87f0 	pop	{r4, r5, r6, r7, r8, r9, sl, pc}
   17188:	000080e0 	andeq	r8, r0, r0, ror #1
   1718c:	00000154 	andeq	r0, r0, r4, asr r1
   17190:	0000022c 	andeq	r0, r0, ip, lsr #4
   17194:	5000ffff 	strdpl	pc, [r0], -pc	; <UNPREDICTABLE>
   17198:	00004ec0 	andeq	r4, r0, r0, asr #29
   1719c:	00004d78 	andeq	r4, r0, r8, ror sp
   171a0:	00004d4c 	andeq	r4, r0, ip, asr #26
   171a4:	0000ea60 	andeq	lr, r0, r0, ror #20

000171a8 <HCDWaitOnTransmissionResult>:
   171a8:	e92d4ff0 	push	{r4, r5, r6, r7, r8, r9, sl, fp, lr}
   171ac:	e24dd00c 	sub	sp, sp, #12
   171b0:	e1a0b001 	mov	fp, r1
   171b4:	e58d2004 	str	r2, [sp, #4]
   171b8:	e1a06000 	mov	r6, r0
   171bc:	ebfff80d 	bl	151f8 <timer_getTickCount64>
   171c0:	e59f50a8 	ldr	r5, [pc, #168]	; 17270 <HCDWaitOnTransmissionResult+0xc8>
   171c4:	e3a07000 	mov	r7, #0
   171c8:	e1a08000 	mov	r8, r0
   171cc:	e1a09001 	mov	r9, r1
   171d0:	e3a0a020 	mov	sl, #32
   171d4:	e08f5005 	add	r5, pc, r5
   171d8:	ea000007 	b	171fc <HCDWaitOnTransmissionResult+0x54>
   171dc:	e7953003 	ldr	r3, [r5, r3]
   171e0:	e5933000 	ldr	r3, [r3]
   171e4:	e2833726 	add	r3, r3, #9961472	; 0x980000
   171e8:	e2833c05 	add	r3, r3, #1280	; 0x500
   171ec:	e1033b8a 	smlabb	r3, sl, fp, r3
   171f0:	e5934008 	ldr	r4, [r3, #8]
   171f4:	e3140002 	tst	r4, #2
   171f8:	1a000015 	bne	17254 <HCDWaitOnTransmissionResult+0xac>
   171fc:	e3a00064 	mov	r0, #100	; 0x64
   17200:	e3a01000 	mov	r1, #0
   17204:	ebffe31c 	bl	fe7c <timer_wait>
   17208:	ebfff7fa 	bl	151f8 <timer_getTickCount64>
   1720c:	e1a03001 	mov	r3, r1
   17210:	e1a02000 	mov	r2, r0
   17214:	e1a01009 	mov	r1, r9
   17218:	e1a00008 	mov	r0, r8
   1721c:	ebfffe3a 	bl	16b0c <tick_difference>
   17220:	e1510007 	cmp	r1, r7
   17224:	01500006 	cmpeq	r0, r6
   17228:	e59f3044 	ldr	r3, [pc, #68]	; 17274 <HCDWaitOnTransmissionResult+0xcc>
   1722c:	9affffea 	bls	171dc <HCDWaitOnTransmissionResult+0x34>
   17230:	e59d3004 	ldr	r3, [sp, #4]
   17234:	e59f003c 	ldr	r0, [pc, #60]	; 17278 <HCDWaitOnTransmissionResult+0xd0>
   17238:	e3530000 	cmp	r3, #0
   1723c:	15834000 	strne	r4, [r3]
   17240:	e08f0000 	add	r0, pc, r0
   17244:	ebffe4d7 	bl	105a8 <printf>
   17248:	e3e00007 	mvn	r0, #7
   1724c:	e28dd00c 	add	sp, sp, #12
   17250:	e8bd8ff0 	pop	{r4, r5, r6, r7, r8, r9, sl, fp, pc}
   17254:	e59d3004 	ldr	r3, [sp, #4]
   17258:	e3530000 	cmp	r3, #0
   1725c:	13a00000 	movne	r0, #0
   17260:	059d0004 	ldreq	r0, [sp, #4]
   17264:	15834000 	strne	r4, [r3]
   17268:	e28dd00c 	add	sp, sp, #12
   1726c:	e8bd8ff0 	pop	{r4, r5, r6, r7, r8, r9, sl, fp, pc}
   17270:	00007ca4 	andeq	r7, r0, r4, lsr #25
   17274:	00000154 	andeq	r0, r0, r4, asr r1
   17278:	00004c68 	andeq	r4, r0, r8, ror #24

0001727c <HCDChannelTransfer>:
   1727c:	e92d4ff0 	push	{r4, r5, r6, r7, r8, r9, sl, fp, lr}
   17280:	e3a04000 	mov	r4, #0
   17284:	e59fc598 	ldr	ip, [pc, #1432]	; 17824 <HCDChannelTransfer+0x5a8>
   17288:	e24dd04c 	sub	sp, sp, #76	; 0x4c
   1728c:	e59fe594 	ldr	lr, [pc, #1428]	; 17828 <HCDChannelTransfer+0x5ac>
   17290:	e58d002c 	str	r0, [sp, #44]	; 0x2c
   17294:	e58d1028 	str	r1, [sp, #40]	; 0x28
   17298:	e58d4038 	str	r4, [sp, #56]	; 0x38
   1729c:	e08fc00c 	add	ip, pc, ip
   172a0:	e79c500e 	ldr	r5, [ip, lr]
   172a4:	e1a01821 	lsr	r1, r1, #16
   172a8:	e5954000 	ldr	r4, [r5]
   172ac:	e6efb071 	uxtb	fp, r1
   172b0:	e2844726 	add	r4, r4, #9961472	; 0x980000
   172b4:	e5941048 	ldr	r1, [r4, #72]	; 0x48
   172b8:	e1a0000c 	mov	r0, ip
   172bc:	e1a01721 	lsr	r1, r1, #14
   172c0:	e201100f 	and	r1, r1, #15
   172c4:	e151000b 	cmp	r1, fp
   172c8:	e58d2014 	str	r2, [sp, #20]
   172cc:	e58d300c 	str	r3, [sp, #12]
   172d0:	e5dd7070 	ldrb	r7, [sp, #112]	; 0x70
   172d4:	3a00014c 	bcc	1780c <HCDChannelTransfer+0x590>
   172d8:	e5dd202c 	ldrb	r2, [sp, #44]	; 0x2c
   172dc:	e2123003 	ands	r3, r2, #3
   172e0:	03a06008 	moveq	r6, #8
   172e4:	01a01006 	moveq	r1, r6
   172e8:	0a000006 	beq	17308 <HCDChannelTransfer+0x8c>
   172ec:	e3530001 	cmp	r3, #1
   172f0:	0a00013c 	beq	177e8 <HCDChannelTransfer+0x56c>
   172f4:	e3530002 	cmp	r3, #2
   172f8:	03a06020 	moveq	r6, #32
   172fc:	01a01006 	moveq	r1, r6
   17300:	13a06040 	movne	r6, #64	; 0x40
   17304:	11a01006 	movne	r1, r6
   17308:	e3a0e000 	mov	lr, #0
   1730c:	e5dd302b 	ldrb	r3, [sp, #43]	; 0x2b
   17310:	e202900c 	and	r9, r2, #12
   17314:	e2033001 	and	r3, r3, #1
   17318:	e1a02222 	lsr	r2, r2, #4
   1731c:	e1a03383 	lsl	r3, r3, #7
   17320:	e1833182 	orr	r3, r3, r2, lsl #3
   17324:	e58de03c 	str	lr, [sp, #60]	; 0x3c
   17328:	e5cd303d 	strb	r3, [sp, #61]	; 0x3d
   1732c:	e1dd23bc 	ldrh	r2, [sp, #60]	; 0x3c
   17330:	e249a008 	sub	sl, r9, #8
   17334:	e1a025a2 	lsr	r2, r2, #11
   17338:	e1822a86 	orr	r2, r2, r6, lsl #21
   1733c:	e1a02ae2 	ror	r2, r2, #21
   17340:	e58d2008 	str	r2, [sp, #8]
   17344:	e3e02000 	mvn	r2, #0
   17348:	e16faf1a 	clz	sl, sl
   1734c:	e6bfc07b 	sxth	ip, fp
   17350:	e2843c05 	add	r3, r4, #1280	; 0x500
   17354:	e5dd002d 	ldrb	r0, [sp, #45]	; 0x2d
   17358:	e1a0428c 	lsl	r4, ip, #5
   1735c:	e0836004 	add	r6, r3, r4
   17360:	e5862008 	str	r2, [r6, #8]
   17364:	e200007f 	and	r0, r0, #127	; 0x7f
   17368:	e59d2008 	ldr	r2, [sp, #8]
   1736c:	e1a00300 	lsl	r0, r0, #6
   17370:	e5dd8029 	ldrb	r8, [sp, #41]	; 0x29
   17374:	e1cd23bc 	strh	r2, [sp, #60]	; 0x3c
   17378:	e1a0a2aa 	lsr	sl, sl, #5
   1737c:	e20020c0 	and	r2, r0, #192	; 0xc0
   17380:	e1a08328 	lsr	r8, r8, #6
   17384:	e182a08a 	orr	sl, r2, sl, lsl #1
   17388:	e18aa108 	orr	sl, sl, r8, lsl #2
   1738c:	e586e00c 	str	lr, [r6, #12]
   17390:	e59d800c 	ldr	r8, [sp, #12]
   17394:	e1cd03be 	strh	r0, [sp, #62]	; 0x3e
   17398:	e5cda03e 	strb	sl, [sp, #62]	; 0x3e
   1739c:	e59d003c 	ldr	r0, [sp, #60]	; 0x3c
   173a0:	e3c824ff 	bic	r2, r8, #-16777216	; 0xff000000
   173a4:	e159000e 	cmp	r9, lr
   173a8:	e58de040 	str	lr, [sp, #64]	; 0x40
   173ac:	e783028c 	str	r0, [r3, ip, lsl #5]
   173b0:	e3c2273e 	bic	r2, r2, #16252928	; 0xf80000
   173b4:	1a0000ac 	bne	1766c <HCDChannelTransfer+0x3f0>
   173b8:	e5869004 	str	r9, [r6, #4]
   173bc:	e58d2044 	str	r2, [sp, #68]	; 0x44
   173c0:	e59d300c 	ldr	r3, [sp, #12]
   173c4:	e2430001 	sub	r0, r3, #1
   173c8:	e0800001 	add	r0, r0, r1
   173cc:	ebffe55c 	bl	10944 <__aeabi_uidiv>
   173d0:	e1a02b00 	lsl	r2, r0, #22
   173d4:	e1a02b22 	lsr	r2, r2, #22
   173d8:	e1a00002 	mov	r0, r2
   173dc:	e1dd34b6 	ldrh	r3, [sp, #70]	; 0x46
   173e0:	e59f1444 	ldr	r1, [pc, #1092]	; 1782c <HCDChannelTransfer+0x5b0>
   173e4:	e1c33001 	bic	r3, r3, r1
   173e8:	e1833182 	orr	r3, r3, r2, lsl #3
   173ec:	e1cd34b6 	strh	r3, [sp, #70]	; 0x46
   173f0:	e3500000 	cmp	r0, #0
   173f4:	01dd34b6 	ldrheq	r3, [sp, #70]	; 0x46
   173f8:	059f2430 	ldreq	r2, [pc, #1072]	; 17830 <HCDChannelTransfer+0x5b4>
   173fc:	e2077003 	and	r7, r7, #3
   17400:	00033002 	andeq	r3, r3, r2
   17404:	03833008 	orreq	r3, r3, #8
   17408:	01cd34b6 	strheq	r3, [sp, #70]	; 0x46
   1740c:	e3a03000 	mov	r3, #0
   17410:	e58d3010 	str	r3, [sp, #16]
   17414:	e5dd3047 	ldrb	r3, [sp, #71]	; 0x47
   17418:	e59fc414 	ldr	ip, [pc, #1044]	; 17834 <HCDChannelTransfer+0x5b8>
   1741c:	e3c33060 	bic	r3, r3, #96	; 0x60
   17420:	e1837287 	orr	r7, r3, r7, lsl #5
   17424:	e59f340c 	ldr	r3, [pc, #1036]	; 17838 <HCDChannelTransfer+0x5bc>
   17428:	e5cd7047 	strb	r7, [sp, #71]	; 0x47
   1742c:	e08f3003 	add	r3, pc, r3
   17430:	e083350b 	add	r3, r3, fp, lsl #10
   17434:	e59d2044 	ldr	r2, [sp, #68]	; 0x44
   17438:	e2840726 	add	r0, r4, #9961472	; 0x980000
   1743c:	e08fc00c 	add	ip, pc, ip
   17440:	e58d3020 	str	r3, [sp, #32]
   17444:	e5951000 	ldr	r1, [r5]
   17448:	e2803c05 	add	r3, r0, #1280	; 0x500
   1744c:	e58dc008 	str	ip, [sp, #8]
   17450:	e5862010 	str	r2, [r6, #16]
   17454:	e58d301c 	str	r3, [sp, #28]
   17458:	e28da034 	add	sl, sp, #52	; 0x34
   1745c:	e3e00000 	mvn	r0, #0
   17460:	e3a02000 	mov	r2, #0
   17464:	e59d301c 	ldr	r3, [sp, #28]
   17468:	e0833001 	add	r3, r3, r1
   1746c:	e5830008 	str	r0, [r3, #8]
   17470:	e583200c 	str	r2, [r3, #12]
   17474:	e5931004 	ldr	r1, [r3, #4]
   17478:	e59d2014 	ldr	r2, [sp, #20]
   1747c:	e59d0010 	ldr	r0, [sp, #16]
   17480:	e58d1040 	str	r1, [sp, #64]	; 0x40
   17484:	e0820000 	add	r0, r2, r0
   17488:	e1a02821 	lsr	r2, r1, #16
   1748c:	e20220fe 	and	r2, r2, #254	; 0xfe
   17490:	e5cd2042 	strb	r2, [sp, #66]	; 0x42
   17494:	e59d2040 	ldr	r2, [sp, #64]	; 0x40
   17498:	e2101003 	ands	r1, r0, #3
   1749c:	e58d0018 	str	r0, [sp, #24]
   174a0:	e58d1024 	str	r1, [sp, #36]	; 0x24
   174a4:	e5832004 	str	r2, [r3, #4]
   174a8:	0a00008b 	beq	176dc <HCDChannelTransfer+0x460>
   174ac:	e5dd202b 	ldrb	r2, [sp, #43]	; 0x2b
   174b0:	e3120001 	tst	r2, #1
   174b4:	0a0000ab 	beq	17768 <HCDChannelTransfer+0x4ec>
   174b8:	e59d2020 	ldr	r2, [sp, #32]
   174bc:	e5832014 	str	r2, [r3, #20]
   174c0:	e5930000 	ldr	r0, [r3]
   174c4:	e1a0200a 	mov	r2, sl
   174c8:	e1a0c820 	lsr	ip, r0, #16
   174cc:	e1a01c20 	lsr	r1, r0, #24
   174d0:	e20cc0df 	and	ip, ip, #223	; 0xdf
   174d4:	e3811080 	orr	r1, r1, #128	; 0x80
   174d8:	e38cc010 	orr	ip, ip, #16
   174dc:	e3c11040 	bic	r1, r1, #64	; 0x40
   174e0:	e58d003c 	str	r0, [sp, #60]	; 0x3c
   174e4:	e5cd103f 	strb	r1, [sp, #63]	; 0x3f
   174e8:	e5cdc03e 	strb	ip, [sp, #62]	; 0x3e
   174ec:	e59d003c 	ldr	r0, [sp, #60]	; 0x3c
   174f0:	e1a0100b 	mov	r1, fp
   174f4:	e5830000 	str	r0, [r3]
   174f8:	e59f033c 	ldr	r0, [pc, #828]	; 1783c <HCDChannelTransfer+0x5c0>
   174fc:	ebffff29 	bl	171a8 <HCDWaitOnTransmissionResult>
   17500:	e3500000 	cmp	r0, #0
   17504:	1a0000ba 	bne	177f4 <HCDChannelTransfer+0x578>
   17508:	e5953000 	ldr	r3, [r5]
   1750c:	e28d8038 	add	r8, sp, #56	; 0x38
   17510:	e2833726 	add	r3, r3, #9961472	; 0x980000
   17514:	e2833c05 	add	r3, r3, #1280	; 0x500
   17518:	e0833004 	add	r3, r3, r4
   1751c:	e5933004 	ldr	r3, [r3, #4]
   17520:	e1a02008 	mov	r2, r8
   17524:	e1a01fa3 	lsr	r1, r3, #31
   17528:	e59d0034 	ldr	r0, [sp, #52]	; 0x34
   1752c:	e58d3040 	str	r3, [sp, #64]	; 0x40
   17530:	ebfff931 	bl	159fc <HCDCheckErrorAndAction>
   17534:	e2506000 	subs	r6, r0, #0
   17538:	1a000072 	bne	17708 <HCDChannelTransfer+0x48c>
   1753c:	e5dd203b 	ldrb	r2, [sp, #59]	; 0x3b
   17540:	e2123040 	ands	r3, r2, #64	; 0x40
   17544:	1a000045 	bne	17660 <HCDChannelTransfer+0x3e4>
   17548:	e5cd3038 	strb	r3, [sp, #56]	; 0x38
   1754c:	e59f92e8 	ldr	r9, [pc, #744]	; 1783c <HCDChannelTransfer+0x5c0>
   17550:	ea000008 	b	17578 <HCDChannelTransfer+0x2fc>
   17554:	e5dd303b 	ldrb	r3, [sp, #59]	; 0x3b
   17558:	e3130040 	tst	r3, #64	; 0x40
   1755c:	1a00003f 	bne	17660 <HCDChannelTransfer+0x3e4>
   17560:	e3130008 	tst	r3, #8
   17564:	159f02d4 	ldrne	r0, [pc, #724]	; 17840 <HCDChannelTransfer+0x5c4>
   17568:	059f02d4 	ldreq	r0, [pc, #724]	; 17844 <HCDChannelTransfer+0x5c8>
   1756c:	e3a01000 	mov	r1, #0
   17570:	ebffe241 	bl	fe7c <timer_wait>
   17574:	e5dd203b 	ldrb	r2, [sp, #59]	; 0x3b
   17578:	e5951000 	ldr	r1, [r5]
   1757c:	e3120010 	tst	r2, #16
   17580:	e2813726 	add	r3, r1, #9961472	; 0x980000
   17584:	e2833c05 	add	r3, r3, #1280	; 0x500
   17588:	e0830004 	add	r0, r3, r4
   1758c:	0a000055 	beq	176e8 <HCDChannelTransfer+0x46c>
   17590:	e3e01000 	mvn	r1, #0
   17594:	e3a02000 	mov	r2, #0
   17598:	e5801008 	str	r1, [r0, #8]
   1759c:	e580200c 	str	r2, [r0, #12]
   175a0:	e590c004 	ldr	ip, [r0, #4]
   175a4:	e1a0200a 	mov	r2, sl
   175a8:	e1a0182c 	lsr	r1, ip, #16
   175ac:	e6ef1071 	uxtb	r1, r1
   175b0:	e3811001 	orr	r1, r1, #1
   175b4:	e58dc040 	str	ip, [sp, #64]	; 0x40
   175b8:	e5cd1042 	strb	r1, [sp, #66]	; 0x42
   175bc:	e59d1040 	ldr	r1, [sp, #64]	; 0x40
   175c0:	e5801004 	str	r1, [r0, #4]
   175c4:	e793c004 	ldr	ip, [r3, r4]
   175c8:	e1a0082c 	lsr	r0, ip, #16
   175cc:	e1a01c2c 	lsr	r1, ip, #24
   175d0:	e20000df 	and	r0, r0, #223	; 0xdf
   175d4:	e3811080 	orr	r1, r1, #128	; 0x80
   175d8:	e3800010 	orr	r0, r0, #16
   175dc:	e3c11040 	bic	r1, r1, #64	; 0x40
   175e0:	e58dc03c 	str	ip, [sp, #60]	; 0x3c
   175e4:	e5cd103f 	strb	r1, [sp, #63]	; 0x3f
   175e8:	e5cd003e 	strb	r0, [sp, #62]	; 0x3e
   175ec:	e59d003c 	ldr	r0, [sp, #60]	; 0x3c
   175f0:	e1a0100b 	mov	r1, fp
   175f4:	e7830004 	str	r0, [r3, r4]
   175f8:	e1a00009 	mov	r0, r9
   175fc:	ebfffee9 	bl	171a8 <HCDWaitOnTransmissionResult>
   17600:	e2507000 	subs	r7, r0, #0
   17604:	1a00004f 	bne	17748 <HCDChannelTransfer+0x4cc>
   17608:	e5953000 	ldr	r3, [r5]
   1760c:	e1a02008 	mov	r2, r8
   17610:	e2833726 	add	r3, r3, #9961472	; 0x980000
   17614:	e2833c05 	add	r3, r3, #1280	; 0x500
   17618:	e0833004 	add	r3, r3, r4
   1761c:	e5933004 	ldr	r3, [r3, #4]
   17620:	e59d0034 	ldr	r0, [sp, #52]	; 0x34
   17624:	e1a01fa3 	lsr	r1, r3, #31
   17628:	e58d3040 	str	r3, [sp, #64]	; 0x40
   1762c:	ebfff8f2 	bl	159fc <HCDCheckErrorAndAction>
   17630:	e2506000 	subs	r6, r0, #0
   17634:	0affffc6 	beq	17554 <HCDChannelTransfer+0x2d8>
   17638:	e59d3034 	ldr	r3, [sp, #52]	; 0x34
   1763c:	e59d1040 	ldr	r1, [sp, #64]	; 0x40
   17640:	e59d2038 	ldr	r2, [sp, #56]	; 0x38
   17644:	e88d0082 	stm	sp, {r1, r7}
   17648:	e59d0008 	ldr	r0, [sp, #8]
   1764c:	e1a01006 	mov	r1, r6
   17650:	ebffe3d4 	bl	105a8 <printf>
   17654:	e5dd303b 	ldrb	r3, [sp, #59]	; 0x3b
   17658:	e3130040 	tst	r3, #64	; 0x40
   1765c:	0affffbf 	beq	17560 <HCDChannelTransfer+0x2e4>
   17660:	e1a00006 	mov	r0, r6
   17664:	e28dd04c 	add	sp, sp, #76	; 0x4c
   17668:	e8bd8ff0 	pop	{r4, r5, r6, r7, r8, r9, sl, fp, pc}
   1766c:	e1dd34b0 	ldrh	r3, [sp, #64]	; 0x40
   17670:	e5dd002f 	ldrb	r0, [sp, #47]	; 0x2f
   17674:	e3c33dfe 	bic	r3, r3, #16256	; 0x3f80
   17678:	e1a000a0 	lsr	r0, r0, #1
   1767c:	e1ddc2be 	ldrh	ip, [sp, #46]	; 0x2e
   17680:	e1833380 	orr	r3, r3, r0, lsl #7
   17684:	e5dd0043 	ldrb	r0, [sp, #67]	; 0x43
   17688:	e1cd34b0 	strh	r3, [sp, #64]	; 0x40
   1768c:	e1a0cb8c 	lsl	ip, ip, #23
   17690:	e2033080 	and	r3, r3, #128	; 0x80
   17694:	e1833cac 	orr	r3, r3, ip, lsr #25
   17698:	e3800080 	orr	r0, r0, #128	; 0x80
   1769c:	e5cd0043 	strb	r0, [sp, #67]	; 0x43
   176a0:	e5cd3040 	strb	r3, [sp, #64]	; 0x40
   176a4:	e59d3040 	ldr	r3, [sp, #64]	; 0x40
   176a8:	e3590008 	cmp	r9, #8
   176ac:	e5863004 	str	r3, [r6, #4]
   176b0:	e58d2044 	str	r2, [sp, #68]	; 0x44
   176b4:	1affff41 	bne	173c0 <HCDChannelTransfer+0x144>
   176b8:	e1dd34b6 	ldrh	r3, [sp, #70]	; 0x46
   176bc:	e59f0184 	ldr	r0, [pc, #388]	; 17848 <HCDChannelTransfer+0x5cc>
   176c0:	e59f2164 	ldr	r2, [pc, #356]	; 1782c <HCDChannelTransfer+0x5b0>
   176c4:	e2881007 	add	r1, r8, #7
   176c8:	e00001a1 	and	r0, r0, r1, lsr #3
   176cc:	e1c33002 	bic	r3, r3, r2
   176d0:	e1833180 	orr	r3, r3, r0, lsl #3
   176d4:	e1cd34b6 	strh	r3, [sp, #70]	; 0x46
   176d8:	eaffff44 	b	173f0 <HCDChannelTransfer+0x174>
   176dc:	e59d2018 	ldr	r2, [sp, #24]
   176e0:	e5832014 	str	r2, [r3, #20]
   176e4:	eaffff75 	b	174c0 <HCDChannelTransfer+0x244>
   176e8:	e3120080 	tst	r2, #128	; 0x80
   176ec:	1a000028 	bne	17794 <HCDChannelTransfer+0x518>
   176f0:	e5902010 	ldr	r2, [r0, #16]
   176f4:	e59f314c 	ldr	r3, [pc, #332]	; 17848 <HCDChannelTransfer+0x5cc>
   176f8:	e01339a2 	ands	r3, r3, r2, lsr #19
   176fc:	1affff56 	bne	1745c <HCDChannelTransfer+0x1e0>
   17700:	e1a06003 	mov	r6, r3
   17704:	eaffffd5 	b	17660 <HCDChannelTransfer+0x3e4>
   17708:	e5952000 	ldr	r2, [r5]
   1770c:	e59d3034 	ldr	r3, [sp, #52]	; 0x34
   17710:	e2822726 	add	r2, r2, #9961472	; 0x980000
   17714:	e2822c05 	add	r2, r2, #1280	; 0x500
   17718:	e0822004 	add	r2, r2, r4
   1771c:	e59d0040 	ldr	r0, [sp, #64]	; 0x40
   17720:	e5921010 	ldr	r1, [r2, #16]
   17724:	e59d2038 	ldr	r2, [sp, #56]	; 0x38
   17728:	e3c114ff 	bic	r1, r1, #-16777216	; 0xff000000
   1772c:	e3c1173e 	bic	r1, r1, #16252928	; 0xf80000
   17730:	e1cd00f0 	strd	r0, [sp]
   17734:	e59f0110 	ldr	r0, [pc, #272]	; 1784c <HCDChannelTransfer+0x5d0>
   17738:	e1a01006 	mov	r1, r6
   1773c:	e08f0000 	add	r0, pc, r0
   17740:	ebffe398 	bl	105a8 <printf>
   17744:	eaffff7c 	b	1753c <HCDChannelTransfer+0x2c0>
   17748:	e3e06007 	mvn	r6, #7
   1774c:	e59f00fc 	ldr	r0, [pc, #252]	; 17850 <HCDChannelTransfer+0x5d4>
   17750:	e1a0100b 	mov	r1, fp
   17754:	e08f0000 	add	r0, pc, r0
   17758:	ebffe392 	bl	105a8 <printf>
   1775c:	e1a00006 	mov	r0, r6
   17760:	e28dd04c 	add	sp, sp, #76	; 0x4c
   17764:	e8bd8ff0 	pop	{r4, r5, r6, r7, r8, r9, sl, fp, pc}
   17768:	e59d300c 	ldr	r3, [sp, #12]
   1776c:	e59d2010 	ldr	r2, [sp, #16]
   17770:	e1a01000 	mov	r1, r0
   17774:	e0432002 	sub	r2, r3, r2
   17778:	e59d0020 	ldr	r0, [sp, #32]
   1777c:	ebffe4a1 	bl	10a08 <memcpy>
   17780:	e5951000 	ldr	r1, [r5]
   17784:	e2811726 	add	r1, r1, #9961472	; 0x980000
   17788:	e2811c05 	add	r1, r1, #1280	; 0x500
   1778c:	e0813004 	add	r3, r1, r4
   17790:	eaffff48 	b	174b8 <HCDChannelTransfer+0x23c>
   17794:	e5906010 	ldr	r6, [r0, #16]
   17798:	e59d3024 	ldr	r3, [sp, #36]	; 0x24
   1779c:	e3c664ff 	bic	r6, r6, #-16777216	; 0xff000000
   177a0:	e3530000 	cmp	r3, #0
   177a4:	e3c6673e 	bic	r6, r6, #16252928	; 0xf80000
   177a8:	0a00000a 	beq	177d8 <HCDChannelTransfer+0x55c>
   177ac:	e5dd302b 	ldrb	r3, [sp, #43]	; 0x2b
   177b0:	e3130001 	tst	r3, #1
   177b4:	0a000007 	beq	177d8 <HCDChannelTransfer+0x55c>
   177b8:	e59d0018 	ldr	r0, [sp, #24]
   177bc:	e59d1020 	ldr	r1, [sp, #32]
   177c0:	e1a02006 	mov	r2, r6
   177c4:	ebffe48f 	bl	10a08 <memcpy>
   177c8:	e5951000 	ldr	r1, [r5]
   177cc:	e2810726 	add	r0, r1, #9961472	; 0x980000
   177d0:	e2800c05 	add	r0, r0, #1280	; 0x500
   177d4:	e0800004 	add	r0, r0, r4
   177d8:	e59d300c 	ldr	r3, [sp, #12]
   177dc:	e0433006 	sub	r3, r3, r6
   177e0:	e58d3010 	str	r3, [sp, #16]
   177e4:	eaffffc1 	b	176f0 <HCDChannelTransfer+0x474>
   177e8:	e3a06010 	mov	r6, #16
   177ec:	e1a01006 	mov	r1, r6
   177f0:	eafffec4 	b	17308 <HCDChannelTransfer+0x8c>
   177f4:	e59f0058 	ldr	r0, [pc, #88]	; 17854 <HCDChannelTransfer+0x5d8>
   177f8:	e1a0100b 	mov	r1, fp
   177fc:	e08f0000 	add	r0, pc, r0
   17800:	ebffe368 	bl	105a8 <printf>
   17804:	e3e06007 	mvn	r6, #7
   17808:	eaffff94 	b	17660 <HCDChannelTransfer+0x3e4>
   1780c:	e59f0044 	ldr	r0, [pc, #68]	; 17858 <HCDChannelTransfer+0x5dc>
   17810:	e1a0100b 	mov	r1, fp
   17814:	e08f0000 	add	r0, pc, r0
   17818:	ebffe362 	bl	105a8 <printf>
   1781c:	e3e06001 	mvn	r6, #1
   17820:	eaffff8e 	b	17660 <HCDChannelTransfer+0x3e4>
   17824:	00007bdc 	ldrdeq	r7, [r0], -ip
   17828:	00000154 	andeq	r0, r0, r4, asr r1
   1782c:	00001ff8 	strdeq	r1, [r0], -r8
   17830:	ffffe00f 			; <UNDEFINED> instruction: 0xffffe00f
   17834:	00004ad0 	ldrdeq	r4, [r0], -r0
   17838:	0034a3ac 	eorseq	sl, r4, ip, lsr #7
   1783c:	00001388 	andeq	r1, r0, r8, lsl #7
   17840:	00002710 	andeq	r2, r0, r0, lsl r7
   17844:	000009c4 	andeq	r0, r0, r4, asr #19
   17848:	000003ff 	strdeq	r0, [r0], -pc	; <UNPREDICTABLE>
   1784c:	000047d0 	ldrdeq	r4, [r0], -r0
   17850:	00004804 	andeq	r4, r0, r4, lsl #16
   17854:	000046e4 	andeq	r4, r0, r4, ror #13
   17858:	0000469c 	muleq	r0, ip, r6

0001785c <HCDSumbitControlMessage>:
   1785c:	e92d4ff0 	push	{r4, r5, r6, r7, r8, r9, sl, fp, lr}
   17860:	e59f7218 	ldr	r7, [pc, #536]	; 17a80 <HCDSumbitControlMessage+0x224>
   17864:	e24dd02c 	sub	sp, sp, #44	; 0x2c
   17868:	e59fc214 	ldr	ip, [pc, #532]	; 17a84 <HCDSumbitControlMessage+0x228>
   1786c:	e08f7007 	add	r7, pc, r7
   17870:	e58d001c 	str	r0, [sp, #28]
   17874:	e58d1018 	str	r1, [sp, #24]
   17878:	e797c00c 	ldr	ip, [r7, ip]
   1787c:	e1a04420 	lsr	r4, r0, #8
   17880:	e5dcc000 	ldrb	ip, [ip]
   17884:	e6ef4074 	uxtb	r4, r4
   17888:	e15c0004 	cmp	ip, r4
   1788c:	e1a05002 	mov	r5, r2
   17890:	e1a06003 	mov	r6, r3
   17894:	e59d8050 	ldr	r8, [sp, #80]	; 0x50
   17898:	e59d9058 	ldr	r9, [sp, #88]	; 0x58
   1789c:	0a000045 	beq	179b8 <HCDSumbitControlMessage+0x15c>
   178a0:	e3a0c003 	mov	ip, #3
   178a4:	e1a02421 	lsr	r2, r1, #8
   178a8:	e1a03c21 	lsr	r3, r1, #24
   178ac:	e202203f 	and	r2, r2, #63	; 0x3f
   178b0:	e3c33001 	bic	r3, r3, #1
   178b4:	e58d1024 	str	r1, [sp, #36]	; 0x24
   178b8:	e5dde01b 	ldrb	lr, [sp, #27]
   178bc:	e5cd2025 	strb	r2, [sp, #37]	; 0x25
   178c0:	e5cd3027 	strb	r3, [sp, #39]	; 0x27
   178c4:	e59d1024 	ldr	r1, [sp, #36]	; 0x24
   178c8:	e58dc000 	str	ip, [sp]
   178cc:	e3a03008 	mov	r3, #8
   178d0:	e1a02008 	mov	r2, r8
   178d4:	e20eb001 	and	fp, lr, #1
   178d8:	e5dda01a 	ldrb	sl, [sp, #26]
   178dc:	ebfffe66 	bl	1727c <HCDChannelTransfer>
   178e0:	e3500000 	cmp	r0, #0
   178e4:	1a00001d 	bne	17960 <HCDSumbitControlMessage+0x104>
   178e8:	e3550000 	cmp	r5, #0
   178ec:	0a000038 	beq	179d4 <HCDSumbitControlMessage+0x178>
   178f0:	e3a02002 	mov	r2, #2
   178f4:	e5dd3027 	ldrb	r3, [sp, #39]	; 0x27
   178f8:	e58d2000 	str	r2, [sp]
   178fc:	e3c33001 	bic	r3, r3, #1
   17900:	e18b3003 	orr	r3, fp, r3
   17904:	e5cd3027 	strb	r3, [sp, #39]	; 0x27
   17908:	e59d1024 	ldr	r1, [sp, #36]	; 0x24
   1790c:	e1a03006 	mov	r3, r6
   17910:	e1a02005 	mov	r2, r5
   17914:	e59d001c 	ldr	r0, [sp, #28]
   17918:	ebfffe57 	bl	1727c <HCDChannelTransfer>
   1791c:	e3500000 	cmp	r0, #0
   17920:	1a00004a 	bne	17a50 <HCDSumbitControlMessage+0x1f4>
   17924:	e5dd301b 	ldrb	r3, [sp, #27]
   17928:	e3130001 	tst	r3, #1
   1792c:	01a08006 	moveq	r8, r6
   17930:	0a000028 	beq	179d8 <HCDSumbitControlMessage+0x17c>
   17934:	e59f314c 	ldr	r3, [pc, #332]	; 17a88 <HCDSumbitControlMessage+0x22c>
   17938:	e7973003 	ldr	r3, [r7, r3]
   1793c:	e5933000 	ldr	r3, [r3]
   17940:	e2833726 	add	r3, r3, #9961472	; 0x980000
   17944:	e2833c05 	add	r3, r3, #1280	; 0x500
   17948:	e083328a 	add	r3, r3, sl, lsl #5
   1794c:	e5938010 	ldr	r8, [r3, #16]
   17950:	e3c884ff 	bic	r8, r8, #-16777216	; 0xff000000
   17954:	e3c8873e 	bic	r8, r8, #16252928	; 0xf80000
   17958:	e0468008 	sub	r8, r6, r8
   1795c:	ea00001d 	b	179d8 <HCDSumbitControlMessage+0x17c>
   17960:	e1dd31be 	ldrh	r3, [sp, #30]
   17964:	e5dd201c 	ldrb	r2, [sp, #28]
   17968:	e5ddc01f 	ldrb	ip, [sp, #31]
   1796c:	e1a03123 	lsr	r3, r3, #2
   17970:	e203307f 	and	r3, r3, #127	; 0x7f
   17974:	e58d0010 	str	r0, [sp, #16]
   17978:	e58d300c 	str	r3, [sp, #12]
   1797c:	e2020003 	and	r0, r2, #3
   17980:	e1a0c0ac 	lsr	ip, ip, #1
   17984:	e1a0e122 	lsr	lr, r2, #2
   17988:	e5d83000 	ldrb	r3, [r8]
   1798c:	e5d82001 	ldrb	r2, [r8, #1]
   17990:	e98d1001 	stmib	sp, {r0, ip}
   17994:	e59f00f0 	ldr	r0, [pc, #240]	; 17a8c <HCDSumbitControlMessage+0x230>
   17998:	e20ee003 	and	lr, lr, #3
   1799c:	e1a01004 	mov	r1, r4
   179a0:	e58de000 	str	lr, [sp]
   179a4:	e08f0000 	add	r0, pc, r0
   179a8:	ebffe2fe 	bl	105a8 <printf>
   179ac:	e3a00000 	mov	r0, #0
   179b0:	e28dd02c 	add	sp, sp, #44	; 0x2c
   179b4:	e8bd8ff0 	pop	{r4, r5, r6, r7, r8, r9, sl, fp, pc}
   179b8:	e1a03009 	mov	r3, r9
   179bc:	e1a02008 	mov	r2, r8
   179c0:	e1a01006 	mov	r1, r6
   179c4:	e1a00005 	mov	r0, r5
   179c8:	e28dd02c 	add	sp, sp, #44	; 0x2c
   179cc:	e8bd4ff0 	pop	{r4, r5, r6, r7, r8, r9, sl, fp, lr}
   179d0:	eafff626 	b	15270 <HcdProcessRootHubMessage>
   179d4:	e1a08005 	mov	r8, r5
   179d8:	e3560000 	cmp	r6, #0
   179dc:	15dd301b 	ldrbne	r3, [sp, #27]
   179e0:	03a03001 	moveq	r3, #1
   179e4:	11e03003 	mvnne	r3, r3
   179e8:	e3a00002 	mov	r0, #2
   179ec:	e5dd1027 	ldrb	r1, [sp, #39]	; 0x27
   179f0:	12033001 	andne	r3, r3, #1
   179f4:	e3c11001 	bic	r1, r1, #1
   179f8:	e1833001 	orr	r3, r3, r1
   179fc:	e5cd3027 	strb	r3, [sp, #39]	; 0x27
   17a00:	e58d0000 	str	r0, [sp]
   17a04:	e1a02005 	mov	r2, r5
   17a08:	e59d1024 	ldr	r1, [sp, #36]	; 0x24
   17a0c:	e3a03000 	mov	r3, #0
   17a10:	e59d001c 	ldr	r0, [sp, #28]
   17a14:	ebfffe18 	bl	1727c <HCDChannelTransfer>
   17a18:	e3500000 	cmp	r0, #0
   17a1c:	1a000010 	bne	17a64 <HCDSumbitControlMessage+0x208>
   17a20:	e3a00000 	mov	r0, #0
   17a24:	e59f305c 	ldr	r3, [pc, #92]	; 17a88 <HCDSumbitControlMessage+0x22c>
   17a28:	e3590000 	cmp	r9, #0
   17a2c:	e7973003 	ldr	r3, [r7, r3]
   17a30:	e5933000 	ldr	r3, [r3]
   17a34:	e2833726 	add	r3, r3, #9961472	; 0x980000
   17a38:	e2833c05 	add	r3, r3, #1280	; 0x500
   17a3c:	e083a28a 	add	sl, r3, sl, lsl #5
   17a40:	e59a3010 	ldr	r3, [sl, #16]
   17a44:	15898000 	strne	r8, [r9]
   17a48:	e28dd02c 	add	sp, sp, #44	; 0x2c
   17a4c:	e8bd8ff0 	pop	{r4, r5, r6, r7, r8, r9, sl, fp, pc}
   17a50:	e59f0038 	ldr	r0, [pc, #56]	; 17a90 <HCDSumbitControlMessage+0x234>
   17a54:	e1a01004 	mov	r1, r4
   17a58:	e08f0000 	add	r0, pc, r0
   17a5c:	ebffe2d1 	bl	105a8 <printf>
   17a60:	eaffffd1 	b	179ac <HCDSumbitControlMessage+0x150>
   17a64:	e59f0028 	ldr	r0, [pc, #40]	; 17a94 <HCDSumbitControlMessage+0x238>
   17a68:	e1a01004 	mov	r1, r4
   17a6c:	e08f0000 	add	r0, pc, r0
   17a70:	ebffe2cc 	bl	105a8 <printf>
   17a74:	e3a00000 	mov	r0, #0
   17a78:	e28dd02c 	add	sp, sp, #44	; 0x2c
   17a7c:	e8bd8ff0 	pop	{r4, r5, r6, r7, r8, r9, sl, fp, pc}
   17a80:	0000760c 	andeq	r7, r0, ip, lsl #12
   17a84:	000000c8 	andeq	r0, r0, r8, asr #1
   17a88:	00000154 	andeq	r0, r0, r4, asr r1
   17a8c:	000045f0 	strdeq	r4, [r0], -r0
   17a90:	000045b0 			; <UNDEFINED> instruction: 0x000045b0
   17a94:	000045c8 	andeq	r4, r0, r8, asr #11

00017a98 <HCDSetAddress>:
   17a98:	e3a03000 	mov	r3, #0
   17a9c:	e52de004 	push	{lr}		; (str lr, [sp, #-4]!)
   17aa0:	e252c000 	subs	ip, r2, #0
   17aa4:	e24dd02c 	sub	sp, sp, #44	; 0x2c
   17aa8:	e58d301c 	str	r3, [sp, #28]
   17aac:	e58d0014 	str	r0, [sp, #20]
   17ab0:	e5cd101e 	strb	r1, [sp, #30]
   17ab4:	0a00000d 	beq	17af0 <HCDSetAddress+0x58>
   17ab8:	e3a0200a 	mov	r2, #10
   17abc:	e3a0e005 	mov	lr, #5
   17ac0:	e28d1020 	add	r1, sp, #32
   17ac4:	e1cd20f4 	strd	r2, [sp, #4]
   17ac8:	e58d1000 	str	r1, [sp]
   17acc:	e1a02003 	mov	r2, r3
   17ad0:	e59d101c 	ldr	r1, [sp, #28]
   17ad4:	e58d3020 	str	r3, [sp, #32]
   17ad8:	e58d3024 	str	r3, [sp, #36]	; 0x24
   17adc:	e1cdc2b2 	strh	ip, [sp, #34]	; 0x22
   17ae0:	e5cde021 	strb	lr, [sp, #33]	; 0x21
   17ae4:	ebffff5c 	bl	1785c <HCDSumbitControlMessage>
   17ae8:	e28dd02c 	add	sp, sp, #44	; 0x2c
   17aec:	e49df004 	pop	{pc}		; (ldr pc, [sp], #4)
   17af0:	e3e00001 	mvn	r0, #1
   17af4:	eafffffb 	b	17ae8 <HCDSetAddress+0x50>

00017af8 <HCDSetConfiguration>:
   17af8:	e3a0c000 	mov	ip, #0
   17afc:	e92d4030 	push	{r4, r5, lr}
   17b00:	e3a0500a 	mov	r5, #10
   17b04:	e3a04009 	mov	r4, #9
   17b08:	e24dd02c 	sub	sp, sp, #44	; 0x2c
   17b0c:	e58dc01c 	str	ip, [sp, #28]
   17b10:	e28de020 	add	lr, sp, #32
   17b14:	e5cd101e 	strb	r1, [sp, #30]
   17b18:	e58dc020 	str	ip, [sp, #32]
   17b1c:	e58dc008 	str	ip, [sp, #8]
   17b20:	e1cd22b2 	strh	r2, [sp, #34]	; 0x22
   17b24:	e59d101c 	ldr	r1, [sp, #28]
   17b28:	e1a0300c 	mov	r3, ip
   17b2c:	e1a0200c 	mov	r2, ip
   17b30:	e58de000 	str	lr, [sp]
   17b34:	e58d5004 	str	r5, [sp, #4]
   17b38:	e58d0014 	str	r0, [sp, #20]
   17b3c:	e58dc024 	str	ip, [sp, #36]	; 0x24
   17b40:	e5cd4021 	strb	r4, [sp, #33]	; 0x21
   17b44:	ebffff44 	bl	1785c <HCDSumbitControlMessage>
   17b48:	e28dd02c 	add	sp, sp, #44	; 0x2c
   17b4c:	e8bd8030 	pop	{r4, r5, pc}

00017b50 <HCDReadHubPortStatus>:
   17b50:	e92d43f0 	push	{r4, r5, r6, r7, r8, r9, lr}
   17b54:	e59f6130 	ldr	r6, [pc, #304]	; 17c8c <HCDReadHubPortStatus+0x13c>
   17b58:	e3a0e000 	mov	lr, #0
   17b5c:	e08f6006 	add	r6, pc, r6
   17b60:	e596c050 	ldr	ip, [r6, #80]	; 0x50
   17b64:	e3a07001 	mov	r7, #1
   17b68:	e16f3f1c 	clz	r3, ip
   17b6c:	e263301f 	rsb	r3, r3, #31
   17b70:	e24dd02c 	sub	sp, sp, #44	; 0x2c
   17b74:	e1ccc317 	bic	ip, ip, r7, lsl r3
   17b78:	e152000e 	cmp	r2, lr
   17b7c:	e58d0014 	str	r0, [sp, #20]
   17b80:	e58de01c 	str	lr, [sp, #28]
   17b84:	e586c050 	str	ip, [r6, #80]	; 0x50
   17b88:	e58de018 	str	lr, [sp, #24]
   17b8c:	e5cd701f 	strb	r7, [sp, #31]
   17b90:	0a000034 	beq	17c68 <HCDReadHubPortStatus+0x118>
   17b94:	e6ef4073 	uxtb	r4, r3
   17b98:	e3a0300a 	mov	r3, #10
   17b9c:	e151000e 	cmp	r1, lr
   17ba0:	e3a0c004 	mov	ip, #4
   17ba4:	e1a09007 	mov	r9, r7
   17ba8:	e1a05001 	mov	r5, r1
   17bac:	03a090a0 	moveq	r9, #160	; 0xa0
   17bb0:	13a090a3 	movne	r9, #163	; 0xa3
   17bb4:	e58d3004 	str	r3, [sp, #4]
   17bb8:	e28d3018 	add	r3, sp, #24
   17bbc:	e5cd401e 	strb	r4, [sp, #30]
   17bc0:	e58d3008 	str	r3, [sp, #8]
   17bc4:	e28d3020 	add	r3, sp, #32
   17bc8:	e58d3000 	str	r3, [sp]
   17bcc:	e59d101c 	ldr	r1, [sp, #28]
   17bd0:	e1a0300c 	mov	r3, ip
   17bd4:	e1a08420 	lsr	r8, r0, #8
   17bd8:	e58de020 	str	lr, [sp, #32]
   17bdc:	e1cd52b4 	strh	r5, [sp, #36]	; 0x24
   17be0:	e5cd9020 	strb	r9, [sp, #32]
   17be4:	e1cdc2b6 	strh	ip, [sp, #38]	; 0x26
   17be8:	ebffff1b 	bl	1785c <HCDSumbitControlMessage>
   17bec:	e2509000 	subs	r9, r0, #0
   17bf0:	e6ef8078 	uxtb	r8, r8
   17bf4:	e1a03417 	lsl	r3, r7, r4
   17bf8:	1a000008 	bne	17c20 <HCDReadHubPortStatus+0xd0>
   17bfc:	e5967050 	ldr	r7, [r6, #80]	; 0x50
   17c00:	e59d2018 	ldr	r2, [sp, #24]
   17c04:	e1873003 	orr	r3, r7, r3
   17c08:	e3520003 	cmp	r2, #3
   17c0c:	e5863050 	str	r3, [r6, #80]	; 0x50
   17c10:	9a000016 	bls	17c70 <HCDReadHubPortStatus+0x120>
   17c14:	e1a00009 	mov	r0, r9
   17c18:	e28dd02c 	add	sp, sp, #44	; 0x2c
   17c1c:	e8bd83f0 	pop	{r4, r5, r6, r7, r8, r9, pc}
   17c20:	e5dd2014 	ldrb	r2, [sp, #20]
   17c24:	e5964050 	ldr	r4, [r6, #80]	; 0x50
   17c28:	e2020003 	and	r0, r2, #3
   17c2c:	e58d0004 	str	r0, [sp, #4]
   17c30:	e1a0c122 	lsr	ip, r2, #2
   17c34:	e59f0054 	ldr	r0, [pc, #84]	; 17c90 <HCDReadHubPortStatus+0x140>
   17c38:	e20cc003 	and	ip, ip, #3
   17c3c:	e1844003 	orr	r4, r4, r3
   17c40:	e58dc000 	str	ip, [sp]
   17c44:	e1a02005 	mov	r2, r5
   17c48:	e1a01008 	mov	r1, r8
   17c4c:	e1a03009 	mov	r3, r9
   17c50:	e5864050 	str	r4, [r6, #80]	; 0x50
   17c54:	e08f0000 	add	r0, pc, r0
   17c58:	ebffe252 	bl	105a8 <printf>
   17c5c:	e1a00009 	mov	r0, r9
   17c60:	e28dd02c 	add	sp, sp, #44	; 0x2c
   17c64:	e8bd83f0 	pop	{r4, r5, r6, r7, r8, r9, pc}
   17c68:	e3e09001 	mvn	r9, #1
   17c6c:	eaffffe8 	b	17c14 <HCDReadHubPortStatus+0xc4>
   17c70:	e59f001c 	ldr	r0, [pc, #28]	; 17c94 <HCDReadHubPortStatus+0x144>
   17c74:	e1a02005 	mov	r2, r5
   17c78:	e1a01008 	mov	r1, r8
   17c7c:	e08f0000 	add	r0, pc, r0
   17c80:	ebffe248 	bl	105a8 <printf>
   17c84:	e3e09003 	mvn	r9, #3
   17c88:	eaffffe1 	b	17c14 <HCDReadHubPortStatus+0xc4>
   17c8c:	00341764 	eorseq	r1, r4, r4, ror #14
   17c90:	00004410 	andeq	r4, r0, r0, lsl r4
   17c94:	0000444c 	andeq	r4, r0, ip, asr #8

00017c98 <HCDChangeHubPortFeature>:
   17c98:	e3a0c000 	mov	ip, #0
   17c9c:	e92d4ff0 	push	{r4, r5, r6, r7, r8, r9, sl, fp, lr}
   17ca0:	e3a05001 	mov	r5, #1
   17ca4:	e59f60d8 	ldr	r6, [pc, #216]	; 17d84 <HCDChangeHubPortFeature+0xec>
   17ca8:	e153000c 	cmp	r3, ip
   17cac:	e08f6006 	add	r6, pc, r6
   17cb0:	e5969050 	ldr	r9, [r6, #80]	; 0x50
   17cb4:	01a0a005 	moveq	sl, r5
   17cb8:	e16f4f19 	clz	r4, r9
   17cbc:	13a0a003 	movne	sl, #3
   17cc0:	e3a0b00a 	mov	fp, #10
   17cc4:	e152000c 	cmp	r2, ip
   17cc8:	03a0e020 	moveq	lr, #32
   17ccc:	13a0e023 	movne	lr, #35	; 0x23
   17cd0:	e1a08001 	mov	r8, r1
   17cd4:	e1a07002 	mov	r7, r2
   17cd8:	e264401f 	rsb	r4, r4, #31
   17cdc:	e24dd02c 	sub	sp, sp, #44	; 0x2c
   17ce0:	e1c92415 	bic	r2, r9, r5, lsl r4
   17ce4:	e6ef4074 	uxtb	r4, r4
   17ce8:	e58dc01c 	str	ip, [sp, #28]
   17cec:	e1a09003 	mov	r9, r3
   17cf0:	e5cd401e 	strb	r4, [sp, #30]
   17cf4:	e28d3020 	add	r3, sp, #32
   17cf8:	e58d3000 	str	r3, [sp]
   17cfc:	e58dc008 	str	ip, [sp, #8]
   17d00:	e58db004 	str	fp, [sp, #4]
   17d04:	e58d0014 	str	r0, [sp, #20]
   17d08:	e59d101c 	ldr	r1, [sp, #28]
   17d0c:	e5862050 	str	r2, [r6, #80]	; 0x50
   17d10:	e1a0300c 	mov	r3, ip
   17d14:	e1a0200c 	mov	r2, ip
   17d18:	e5cda021 	strb	sl, [sp, #33]	; 0x21
   17d1c:	e1cd82b2 	strh	r8, [sp, #34]	; 0x22
   17d20:	e1cdc2b6 	strh	ip, [sp, #38]	; 0x26
   17d24:	e5cde020 	strb	lr, [sp, #32]
   17d28:	e1cd72b4 	strh	r7, [sp, #36]	; 0x24
   17d2c:	ebfffeca 	bl	1785c <HCDSumbitControlMessage>
   17d30:	e1a04415 	lsl	r4, r5, r4
   17d34:	e5965050 	ldr	r5, [r6, #80]	; 0x50
   17d38:	e250a000 	subs	sl, r0, #0
   17d3c:	01854004 	orreq	r4, r5, r4
   17d40:	05864050 	streq	r4, [r6, #80]	; 0x50
   17d44:	1a000002 	bne	17d54 <HCDChangeHubPortFeature+0xbc>
   17d48:	e1a0000a 	mov	r0, sl
   17d4c:	e28dd02c 	add	sp, sp, #44	; 0x2c
   17d50:	e8bd8ff0 	pop	{r4, r5, r6, r7, r8, r9, sl, fp, pc}
   17d54:	e59f002c 	ldr	r0, [pc, #44]	; 17d88 <HCDChangeHubPortFeature+0xf0>
   17d58:	e1854004 	orr	r4, r5, r4
   17d5c:	e58d9000 	str	r9, [sp]
   17d60:	e5dd1015 	ldrb	r1, [sp, #21]
   17d64:	e1a03008 	mov	r3, r8
   17d68:	e1a02007 	mov	r2, r7
   17d6c:	e5864050 	str	r4, [r6, #80]	; 0x50
   17d70:	e08f0000 	add	r0, pc, r0
   17d74:	ebffe20b 	bl	105a8 <printf>
   17d78:	e1a0000a 	mov	r0, sl
   17d7c:	e28dd02c 	add	sp, sp, #44	; 0x2c
   17d80:	e8bd8ff0 	pop	{r4, r5, r6, r7, r8, r9, sl, fp, pc}
   17d84:	00341614 	eorseq	r1, r4, r4, lsl r6
   17d88:	0000438c 	andeq	r4, r0, ip, lsl #7

00017d8c <HubPortReset>:
   17d8c:	e92d4ff0 	push	{r4, r5, r6, r7, r8, r9, sl, fp, lr}
   17d90:	e1a05000 	mov	r5, r0
   17d94:	e24dd014 	sub	sp, sp, #20
   17d98:	e5d00005 	ldrb	r0, [r0, #5]
   17d9c:	e1a09001 	mov	r9, r1
   17da0:	ebfff7f7 	bl	15d84 <IsHub>
   17da4:	e3500000 	cmp	r0, #0
   17da8:	0a000027 	beq	17e4c <HubPortReset+0xc0>
   17dac:	e3a0a003 	mov	sl, #3
   17db0:	e3a07000 	mov	r7, #0
   17db4:	e2899001 	add	r9, r9, #1
   17db8:	e59f6154 	ldr	r6, [pc, #340]	; 17f14 <HubPortReset+0x188>
   17dbc:	e6ef8079 	uxtb	r8, r9
   17dc0:	e3a03001 	mov	r3, #1
   17dc4:	e1a02008 	mov	r2, r8
   17dc8:	e3a01004 	mov	r1, #4
   17dcc:	e5950004 	ldr	r0, [r5, #4]
   17dd0:	ebffffb0 	bl	17c98 <HCDChangeHubPortFeature>
   17dd4:	e2504000 	subs	r4, r0, #0
   17dd8:	1a000047 	bne	17efc <HubPortReset+0x170>
   17ddc:	e28db00c 	add	fp, sp, #12
   17de0:	e1a00006 	mov	r0, r6
   17de4:	e1a01007 	mov	r1, r7
   17de8:	ebffe023 	bl	fe7c <timer_wait>
   17dec:	e1a0200b 	mov	r2, fp
   17df0:	e1a01008 	mov	r1, r8
   17df4:	e5950004 	ldr	r0, [r5, #4]
   17df8:	ebffff54 	bl	17b50 <HCDReadHubPortStatus>
   17dfc:	e2503000 	subs	r3, r0, #0
   17e00:	1a000030 	bne	17ec8 <HubPortReset+0x13c>
   17e04:	e5dd300e 	ldrb	r3, [sp, #14]
   17e08:	e2844001 	add	r4, r4, #1
   17e0c:	e3130010 	tst	r3, #16
   17e10:	1a000011 	bne	17e5c <HubPortReset+0xd0>
   17e14:	e5dd200c 	ldrb	r2, [sp, #12]
   17e18:	e3120002 	tst	r2, #2
   17e1c:	1a00000e 	bne	17e5c <HubPortReset+0xd0>
   17e20:	e354000a 	cmp	r4, #10
   17e24:	1affffed 	bne	17de0 <HubPortReset+0x54>
   17e28:	e25aa001 	subs	sl, sl, #1
   17e2c:	1affffe3 	bne	17dc0 <HubPortReset+0x34>
   17e30:	e1a00005 	mov	r0, r5
   17e34:	ebfff8ba 	bl	16124 <UsbGetDescription>
   17e38:	e1a01000 	mov	r1, r0
   17e3c:	e59f00d4 	ldr	r0, [pc, #212]	; 17f18 <HubPortReset+0x18c>
   17e40:	e1a02009 	mov	r2, r9
   17e44:	e08f0000 	add	r0, pc, r0
   17e48:	ebffe1d6 	bl	105a8 <printf>
   17e4c:	e3e04003 	mvn	r4, #3
   17e50:	e1a00004 	mov	r0, r4
   17e54:	e28dd014 	add	sp, sp, #20
   17e58:	e8bd8ff0 	pop	{r4, r5, r6, r7, r8, r9, sl, fp, pc}
   17e5c:	e354000a 	cmp	r4, #10
   17e60:	0afffff0 	beq	17e28 <HubPortReset+0x9c>
   17e64:	e213b001 	ands	fp, r3, #1
   17e68:	1afffff7 	bne	17e4c <HubPortReset+0xc0>
   17e6c:	e5dd300c 	ldrb	r3, [sp, #12]
   17e70:	e3130001 	tst	r3, #1
   17e74:	0afffff4 	beq	17e4c <HubPortReset+0xc0>
   17e78:	e3130002 	tst	r3, #2
   17e7c:	0affffe9 	beq	17e28 <HubPortReset+0x9c>
   17e80:	e1a02008 	mov	r2, r8
   17e84:	e1a0300b 	mov	r3, fp
   17e88:	e3a01014 	mov	r1, #20
   17e8c:	e5950004 	ldr	r0, [r5, #4]
   17e90:	ebffff80 	bl	17c98 <HCDChangeHubPortFeature>
   17e94:	e2504000 	subs	r4, r0, #0
   17e98:	0affffec 	beq	17e50 <HubPortReset+0xc4>
   17e9c:	e1a00005 	mov	r0, r5
   17ea0:	ebfff89f 	bl	16124 <UsbGetDescription>
   17ea4:	e1a0400b 	mov	r4, fp
   17ea8:	e1a01000 	mov	r1, r0
   17eac:	e59f0068 	ldr	r0, [pc, #104]	; 17f1c <HubPortReset+0x190>
   17eb0:	e1a02009 	mov	r2, r9
   17eb4:	e08f0000 	add	r0, pc, r0
   17eb8:	ebffe1ba 	bl	105a8 <printf>
   17ebc:	e1a00004 	mov	r0, r4
   17ec0:	e28dd014 	add	sp, sp, #20
   17ec4:	e8bd8ff0 	pop	{r4, r5, r6, r7, r8, r9, sl, fp, pc}
   17ec8:	e1a00005 	mov	r0, r5
   17ecc:	e58d3004 	str	r3, [sp, #4]
   17ed0:	ebfff893 	bl	16124 <UsbGetDescription>
   17ed4:	e59d3004 	ldr	r3, [sp, #4]
   17ed8:	e1a01000 	mov	r1, r0
   17edc:	e1a04003 	mov	r4, r3
   17ee0:	e59f0038 	ldr	r0, [pc, #56]	; 17f20 <HubPortReset+0x194>
   17ee4:	e1a02009 	mov	r2, r9
   17ee8:	e08f0000 	add	r0, pc, r0
   17eec:	ebffe1ad 	bl	105a8 <printf>
   17ef0:	e1a00004 	mov	r0, r4
   17ef4:	e28dd014 	add	sp, sp, #20
   17ef8:	e8bd8ff0 	pop	{r4, r5, r6, r7, r8, r9, sl, fp, pc}
   17efc:	e59f0020 	ldr	r0, [pc, #32]	; 17f24 <HubPortReset+0x198>
   17f00:	e1a02009 	mov	r2, r9
   17f04:	e5d51005 	ldrb	r1, [r5, #5]
   17f08:	e08f0000 	add	r0, pc, r0
   17f0c:	ebffe1a5 	bl	105a8 <printf>
   17f10:	eaffffce 	b	17e50 <HubPortReset+0xc4>
   17f14:	00004e20 	andeq	r4, r0, r0, lsr #28
   17f18:	00004390 	muleq	r0, r0, r3
   17f1c:	000042f4 	strdeq	r4, [r0], -r4	; <UNPREDICTABLE>
   17f20:	0000428c 	andeq	r4, r0, ip, lsl #5
   17f24:	00004244 	andeq	r4, r0, r4, asr #4

00017f28 <HCDGetDescriptor>:
   17f28:	e92d4ff0 	push	{r4, r5, r6, r7, r8, r9, sl, fp, lr}
   17f2c:	e59fe1fc 	ldr	lr, [pc, #508]	; 18130 <HCDGetDescriptor+0x208>
   17f30:	e3a06001 	mov	r6, #1
   17f34:	e08fe00e 	add	lr, pc, lr
   17f38:	e59ec050 	ldr	ip, [lr, #80]	; 0x50
   17f3c:	e1a08002 	mov	r8, r2
   17f40:	e16f4f1c 	clz	r4, ip
   17f44:	e3a02000 	mov	r2, #0
   17f48:	e1a07001 	mov	r7, r1
   17f4c:	e24dd03c 	sub	sp, sp, #60	; 0x3c
   17f50:	e5dd5070 	ldrb	r5, [sp, #112]	; 0x70
   17f54:	e264401f 	rsb	r4, r4, #31
   17f58:	e1ccc416 	bic	ip, ip, r6, lsl r4
   17f5c:	e1550002 	cmp	r5, r2
   17f60:	e1a05420 	lsr	r5, r0, #8
   17f64:	e58d0014 	str	r0, [sp, #20]
   17f68:	e58d2024 	str	r2, [sp, #36]	; 0x24
   17f6c:	e1a0a003 	mov	sl, r3
   17f70:	e58ec050 	str	ip, [lr, #80]	; 0x50
   17f74:	e6ef4074 	uxtb	r4, r4
   17f78:	e1cd21bc 	strh	r2, [sp, #28]
   17f7c:	e188b407 	orr	fp, r8, r7, lsl #8
   17f80:	e5cd6027 	strb	r6, [sp, #39]	; 0x27
   17f84:	e6ef5075 	uxtb	r5, r5
   17f88:	e5dd9068 	ldrb	r9, [sp, #104]	; 0x68
   17f8c:	0a00002c 	beq	18044 <HCDGetDescriptor+0x11c>
   17f90:	e3a0300a 	mov	r3, #10
   17f94:	e3a0e002 	mov	lr, #2
   17f98:	e3a0c006 	mov	ip, #6
   17f9c:	e5cd4026 	strb	r4, [sp, #38]	; 0x26
   17fa0:	e58d3004 	str	r3, [sp, #4]
   17fa4:	e28d3028 	add	r3, sp, #40	; 0x28
   17fa8:	e58d2008 	str	r2, [sp, #8]
   17fac:	e58d3000 	str	r3, [sp]
   17fb0:	e59d1024 	ldr	r1, [sp, #36]	; 0x24
   17fb4:	e1a0300e 	mov	r3, lr
   17fb8:	e28d201c 	add	r2, sp, #28
   17fbc:	e5cd9028 	strb	r9, [sp, #40]	; 0x28
   17fc0:	e1cdb2ba 	strh	fp, [sp, #42]	; 0x2a
   17fc4:	e1cda2bc 	strh	sl, [sp, #44]	; 0x2c
   17fc8:	e1cde2be 	strh	lr, [sp, #46]	; 0x2e
   17fcc:	e5cdc029 	strb	ip, [sp, #41]	; 0x29
   17fd0:	ebfffe21 	bl	1785c <HCDSumbitControlMessage>
   17fd4:	e2506000 	subs	r6, r0, #0
   17fd8:	11a03006 	movne	r3, r6
   17fdc:	0a000010 	beq	18024 <HCDGetDescriptor+0xfc>
   17fe0:	e3a0e001 	mov	lr, #1
   17fe4:	e59fc148 	ldr	ip, [pc, #328]	; 18134 <HCDGetDescriptor+0x20c>
   17fe8:	e58d3004 	str	r3, [sp, #4]
   17fec:	e08fc00c 	add	ip, pc, ip
   17ff0:	e59c0050 	ldr	r0, [ip, #80]	; 0x50
   17ff4:	e1a03009 	mov	r3, r9
   17ff8:	e180441e 	orr	r4, r0, lr, lsl r4
   17ffc:	e59f0134 	ldr	r0, [pc, #308]	; 18138 <HCDGetDescriptor+0x210>
   18000:	e58d5000 	str	r5, [sp]
   18004:	e1a02008 	mov	r2, r8
   18008:	e1a01007 	mov	r1, r7
   1800c:	e58c4050 	str	r4, [ip, #80]	; 0x50
   18010:	e08f0000 	add	r0, pc, r0
   18014:	ebffe163 	bl	105a8 <printf>
   18018:	e1a00006 	mov	r0, r6
   1801c:	e28dd03c 	add	sp, sp, #60	; 0x3c
   18020:	e8bd8ff0 	pop	{r4, r5, r6, r7, r8, r9, sl, fp, pc}
   18024:	e5dd301d 	ldrb	r3, [sp, #29]
   18028:	e1530007 	cmp	r3, r7
   1802c:	1a00003c 	bne	18124 <HCDGetDescriptor+0x1fc>
   18030:	e59d2064 	ldr	r2, [sp, #100]	; 0x64
   18034:	e5dd301c 	ldrb	r3, [sp, #28]
   18038:	e1520003 	cmp	r2, r3
   1803c:	21a02003 	movcs	r2, r3
   18040:	e58d2064 	str	r2, [sp, #100]	; 0x64
   18044:	e3a0300a 	mov	r3, #10
   18048:	e3a0c006 	mov	ip, #6
   1804c:	e58d3004 	str	r3, [sp, #4]
   18050:	e28d3020 	add	r3, sp, #32
   18054:	e58d3008 	str	r3, [sp, #8]
   18058:	e28d3030 	add	r3, sp, #48	; 0x30
   1805c:	e5cd4026 	strb	r4, [sp, #38]	; 0x26
   18060:	e58d3000 	str	r3, [sp]
   18064:	e59d3064 	ldr	r3, [sp, #100]	; 0x64
   18068:	e59d2060 	ldr	r2, [sp, #96]	; 0x60
   1806c:	e59d1024 	ldr	r1, [sp, #36]	; 0x24
   18070:	e59d0014 	ldr	r0, [sp, #20]
   18074:	e1cd33b6 	strh	r3, [sp, #54]	; 0x36
   18078:	e5cd9030 	strb	r9, [sp, #48]	; 0x30
   1807c:	e1cdb3b2 	strh	fp, [sp, #50]	; 0x32
   18080:	e1cda3b4 	strh	sl, [sp, #52]	; 0x34
   18084:	e5cdc031 	strb	ip, [sp, #49]	; 0x31
   18088:	ebfffdf3 	bl	1785c <HCDSumbitControlMessage>
   1808c:	e3a02001 	mov	r2, #1
   18090:	e59d3020 	ldr	r3, [sp, #32]
   18094:	e1a04412 	lsl	r4, r2, r4
   18098:	e59d2064 	ldr	r2, [sp, #100]	; 0x64
   1809c:	e1a06000 	mov	r6, r0
   180a0:	e1530002 	cmp	r3, r2
   180a4:	1a000003 	bne	180b8 <HCDGetDescriptor+0x190>
   180a8:	e3500000 	cmp	r0, #0
   180ac:	11a03000 	movne	r3, r0
   180b0:	1a000002 	bne	180c0 <HCDGetDescriptor+0x198>
   180b4:	ea00000d 	b	180f0 <HCDGetDescriptor+0x1c8>
   180b8:	e3e03009 	mvn	r3, #9
   180bc:	e1a06003 	mov	r6, r3
   180c0:	e59fe074 	ldr	lr, [pc, #116]	; 1813c <HCDGetDescriptor+0x214>
   180c4:	e58d3000 	str	r3, [sp]
   180c8:	e08fe00e 	add	lr, pc, lr
   180cc:	e59ec050 	ldr	ip, [lr, #80]	; 0x50
   180d0:	e59f0068 	ldr	r0, [pc, #104]	; 18140 <HCDGetDescriptor+0x218>
   180d4:	e18cc004 	orr	ip, ip, r4
   180d8:	e1a03005 	mov	r3, r5
   180dc:	e1a02008 	mov	r2, r8
   180e0:	e1a01007 	mov	r1, r7
   180e4:	e08f0000 	add	r0, pc, r0
   180e8:	e58ec050 	str	ip, [lr, #80]	; 0x50
   180ec:	ebffe12d 	bl	105a8 <printf>
   180f0:	e1a00006 	mov	r0, r6
   180f4:	e59f2048 	ldr	r2, [pc, #72]	; 18144 <HCDGetDescriptor+0x21c>
   180f8:	e59d306c 	ldr	r3, [sp, #108]	; 0x6c
   180fc:	e08f2002 	add	r2, pc, r2
   18100:	e3530000 	cmp	r3, #0
   18104:	e5923050 	ldr	r3, [r2, #80]	; 0x50
   18108:	e1834004 	orr	r4, r3, r4
   1810c:	e5824050 	str	r4, [r2, #80]	; 0x50
   18110:	159d3020 	ldrne	r3, [sp, #32]
   18114:	159d206c 	ldrne	r2, [sp, #108]	; 0x6c
   18118:	15823000 	strne	r3, [r2]
   1811c:	e28dd03c 	add	sp, sp, #60	; 0x3c
   18120:	e8bd8ff0 	pop	{r4, r5, r6, r7, r8, r9, sl, fp, pc}
   18124:	e3e03000 	mvn	r3, #0
   18128:	e1a06003 	mov	r6, r3
   1812c:	eaffffab 	b	17fe0 <HCDGetDescriptor+0xb8>
   18130:	0034138c 	eorseq	r1, r4, ip, lsl #7
   18134:	003412d4 	ldrsbteq	r1, [r4], -r4
   18138:	0000420c 	andeq	r4, r0, ip, lsl #4
   1813c:	003411f8 	ldrshteq	r1, [r4], -r8
   18140:	00004180 	andeq	r4, r0, r0, lsl #3
   18144:	003411c4 	eorseq	r1, r4, r4, asr #3

00018148 <HCDReadStringDescriptor>:
   18148:	e92d47f0 	push	{r4, r5, r6, r7, r8, r9, sl, lr}
   1814c:	e1a09001 	mov	r9, r1
   18150:	e3a0c000 	mov	ip, #0
   18154:	e1a06002 	mov	r6, r2
   18158:	e16f4f19 	clz	r4, r9
   1815c:	e24ddf7a 	sub	sp, sp, #488	; 0x1e8
   18160:	e28d5028 	add	r5, sp, #40	; 0x28
   18164:	e58d001c 	str	r0, [sp, #28]
   18168:	e1a0a420 	lsr	sl, r0, #8
   1816c:	e1a0100c 	mov	r1, ip
   18170:	e1a00005 	mov	r0, r5
   18174:	e3a020c0 	mov	r2, #192	; 0xc0
   18178:	e1a07003 	mov	r7, r3
   1817c:	e58dc024 	str	ip, [sp, #36]	; 0x24
   18180:	ebffe217 	bl	109e4 <memset>
   18184:	e3560000 	cmp	r6, #0
   18188:	e1a042a4 	lsr	r4, r4, #5
   1818c:	03a04001 	moveq	r4, #1
   18190:	e3540000 	cmp	r4, #0
   18194:	1a00009e 	bne	18414 <HCDReadStringDescriptor+0x2cc>
   18198:	e3a01001 	mov	r1, #1
   1819c:	e3a02080 	mov	r2, #128	; 0x80
   181a0:	e3a03002 	mov	r3, #2
   181a4:	e28d8024 	add	r8, sp, #36	; 0x24
   181a8:	e58d1010 	str	r1, [sp, #16]
   181ac:	e58d2008 	str	r2, [sp, #8]
   181b0:	e58d3004 	str	r3, [sp, #4]
   181b4:	e58d5000 	str	r5, [sp]
   181b8:	e58d800c 	str	r8, [sp, #12]
   181bc:	e1a03004 	mov	r3, r4
   181c0:	e1a02004 	mov	r2, r4
   181c4:	e3a01003 	mov	r1, #3
   181c8:	e59d001c 	ldr	r0, [sp, #28]
   181cc:	ebffff55 	bl	17f28 <HCDGetDescriptor>
   181d0:	e3500000 	cmp	r0, #0
   181d4:	e6efa07a 	uxtb	sl, sl
   181d8:	1a000069 	bne	18384 <HCDReadStringDescriptor+0x23c>
   181dc:	e1d520b0 	ldrh	r2, [r5]
   181e0:	e1a01422 	lsr	r1, r2, #8
   181e4:	e3510003 	cmp	r1, #3
   181e8:	1a00008b 	bne	1841c <HCDReadStringDescriptor+0x2d4>
   181ec:	e3a0c001 	mov	ip, #1
   181f0:	e3a00080 	mov	r0, #128	; 0x80
   181f4:	e3a03000 	mov	r3, #0
   181f8:	e6ef2072 	uxtb	r2, r2
   181fc:	e58d2004 	str	r2, [sp, #4]
   18200:	e58d0008 	str	r0, [sp, #8]
   18204:	e58d800c 	str	r8, [sp, #12]
   18208:	e58d5000 	str	r5, [sp]
   1820c:	e58dc010 	str	ip, [sp, #16]
   18210:	e1a02003 	mov	r2, r3
   18214:	e59d001c 	ldr	r0, [sp, #28]
   18218:	ebffff42 	bl	17f28 <HCDGetDescriptor>
   1821c:	e3500000 	cmp	r0, #0
   18220:	e1d510b0 	ldrh	r1, [r5]
   18224:	1a00005f 	bne	183a8 <HCDReadStringDescriptor+0x260>
   18228:	e1a010c1 	asr	r1, r1, #1
   1822c:	e201107f 	and	r1, r1, #127	; 0x7f
   18230:	e3510001 	cmp	r1, #1
   18234:	da000065 	ble	183d0 <HCDReadStringDescriptor+0x288>
   18238:	e1d530b2 	ldrh	r3, [r5, #2]
   1823c:	e59fc1f0 	ldr	ip, [pc, #496]	; 18434 <HCDReadStringDescriptor+0x2ec>
   18240:	e153000c 	cmp	r3, ip
   18244:	0a00000e 	beq	18284 <HCDReadStringDescriptor+0x13c>
   18248:	e2850002 	add	r0, r5, #2
   1824c:	e3a02001 	mov	r2, #1
   18250:	ea000002 	b	18260 <HCDReadStringDescriptor+0x118>
   18254:	e1f030b2 	ldrh	r3, [r0, #2]!
   18258:	e153000c 	cmp	r3, ip
   1825c:	0a000008 	beq	18284 <HCDReadStringDescriptor+0x13c>
   18260:	e2822001 	add	r2, r2, #1
   18264:	e1510002 	cmp	r1, r2
   18268:	1afffff9 	bne	18254 <HCDReadStringDescriptor+0x10c>
   1826c:	e3a04001 	mov	r4, #1
   18270:	e59f01c0 	ldr	r0, [pc, #448]	; 18438 <HCDReadStringDescriptor+0x2f0>
   18274:	e1a0100a 	mov	r1, sl
   18278:	e08f0000 	add	r0, pc, r0
   1827c:	ebffe0c9 	bl	105a8 <printf>
   18280:	e1d530b2 	ldrh	r3, [r5, #2]
   18284:	e3a02002 	mov	r2, #2
   18288:	e3a00001 	mov	r0, #1
   1828c:	e3a01080 	mov	r1, #128	; 0x80
   18290:	e58d2004 	str	r2, [sp, #4]
   18294:	e28d2020 	add	r2, sp, #32
   18298:	e58d0010 	str	r0, [sp, #16]
   1829c:	e58d1008 	str	r1, [sp, #8]
   182a0:	e58d2000 	str	r2, [sp]
   182a4:	e58d800c 	str	r8, [sp, #12]
   182a8:	e1a02009 	mov	r2, r9
   182ac:	e3a01003 	mov	r1, #3
   182b0:	e59d001c 	ldr	r0, [sp, #28]
   182b4:	ebffff1b 	bl	17f28 <HCDGetDescriptor>
   182b8:	e3500000 	cmp	r0, #0
   182bc:	1a000046 	bne	183dc <HCDReadStringDescriptor+0x294>
   182c0:	e59d3024 	ldr	r3, [sp, #36]	; 0x24
   182c4:	e3530002 	cmp	r3, #2
   182c8:	1a000043 	bne	183dc <HCDReadStringDescriptor+0x294>
   182cc:	e3a00001 	mov	r0, #1
   182d0:	e3a01080 	mov	r1, #128	; 0x80
   182d4:	e5dd2020 	ldrb	r2, [sp, #32]
   182d8:	e3540000 	cmp	r4, #0
   182dc:	11d530b2 	ldrhne	r3, [r5, #2]
   182e0:	e58d2004 	str	r2, [sp, #4]
   182e4:	e28d20e8 	add	r2, sp, #232	; 0xe8
   182e8:	059f3144 	ldreq	r3, [pc, #324]	; 18434 <HCDReadStringDescriptor+0x2ec>
   182ec:	e58d0010 	str	r0, [sp, #16]
   182f0:	e58d1008 	str	r1, [sp, #8]
   182f4:	e58d2000 	str	r2, [sp]
   182f8:	e58d800c 	str	r8, [sp, #12]
   182fc:	e1a02009 	mov	r2, r9
   18300:	e3a01003 	mov	r1, #3
   18304:	e59d001c 	ldr	r0, [sp, #28]
   18308:	ebffff06 	bl	17f28 <HCDGetDescriptor>
   1830c:	e3500000 	cmp	r0, #0
   18310:	1a000038 	bne	183f8 <HCDReadStringDescriptor+0x2b0>
   18314:	e5dd3020 	ldrb	r3, [sp, #32]
   18318:	e59d2024 	ldr	r2, [sp, #36]	; 0x24
   1831c:	e1530002 	cmp	r3, r2
   18320:	1a000034 	bne	183f8 <HCDReadStringDescriptor+0x2b0>
   18324:	e3540000 	cmp	r4, #0
   18328:	1a000011 	bne	18374 <HCDReadStringDescriptor+0x22c>
   1832c:	e2433002 	sub	r3, r3, #2
   18330:	e1a030c3 	asr	r3, r3, #1
   18334:	e3530000 	cmp	r3, #0
   18338:	da00000d 	ble	18374 <HCDReadStringDescriptor+0x22c>
   1833c:	e2577001 	subs	r7, r7, #1
   18340:	0a00000b 	beq	18374 <HCDReadStringDescriptor+0x22c>
   18344:	e1a02006 	mov	r2, r6
   18348:	e28d10ea 	add	r1, sp, #234	; 0xea
   1834c:	e0863003 	add	r3, r6, r3
   18350:	e0867007 	add	r7, r6, r7
   18354:	ea000001 	b	18360 <HCDReadStringDescriptor+0x218>
   18358:	e1570002 	cmp	r7, r2
   1835c:	0a000004 	beq	18374 <HCDReadStringDescriptor+0x22c>
   18360:	e0d1c0b2 	ldrh	ip, [r1], #2
   18364:	e4c2c001 	strb	ip, [r2], #1
   18368:	e1520003 	cmp	r2, r3
   1836c:	e1a06002 	mov	r6, r2
   18370:	1afffff8 	bne	18358 <HCDReadStringDescriptor+0x210>
   18374:	e3a03000 	mov	r3, #0
   18378:	e5c63000 	strb	r3, [r6]
   1837c:	e28ddf7a 	add	sp, sp, #488	; 0x1e8
   18380:	e8bd87f0 	pop	{r4, r5, r6, r7, r8, r9, sl, pc}
   18384:	e59d3024 	ldr	r3, [sp, #36]	; 0x24
   18388:	e3530001 	cmp	r3, #1
   1838c:	8affff92 	bhi	181dc <HCDReadStringDescriptor+0x94>
   18390:	e59f00a4 	ldr	r0, [pc, #164]	; 1843c <HCDReadStringDescriptor+0x2f4>
   18394:	e1a0100a 	mov	r1, sl
   18398:	e08f0000 	add	r0, pc, r0
   1839c:	ebffe081 	bl	105a8 <printf>
   183a0:	e3e00001 	mvn	r0, #1
   183a4:	eafffff4 	b	1837c <HCDReadStringDescriptor+0x234>
   183a8:	e59d3024 	ldr	r3, [sp, #36]	; 0x24
   183ac:	e6ef2071 	uxtb	r2, r1
   183b0:	e1520003 	cmp	r2, r3
   183b4:	9affff9b 	bls	18228 <HCDReadStringDescriptor+0xe0>
   183b8:	e59f0080 	ldr	r0, [pc, #128]	; 18440 <HCDReadStringDescriptor+0x2f8>
   183bc:	e1a0100a 	mov	r1, sl
   183c0:	e08f0000 	add	r0, pc, r0
   183c4:	ebffe077 	bl	105a8 <printf>
   183c8:	e3e00001 	mvn	r0, #1
   183cc:	eaffffea 	b	1837c <HCDReadStringDescriptor+0x234>
   183d0:	159f305c 	ldrne	r3, [pc, #92]	; 18434 <HCDReadStringDescriptor+0x2ec>
   183d4:	1affffaa 	bne	18284 <HCDReadStringDescriptor+0x13c>
   183d8:	eaffffa3 	b	1826c <HCDReadStringDescriptor+0x124>
   183dc:	e59f0060 	ldr	r0, [pc, #96]	; 18444 <HCDReadStringDescriptor+0x2fc>
   183e0:	e1a0200a 	mov	r2, sl
   183e4:	e1a01009 	mov	r1, r9
   183e8:	e08f0000 	add	r0, pc, r0
   183ec:	ebffe06d 	bl	105a8 <printf>
   183f0:	e3e00003 	mvn	r0, #3
   183f4:	eaffffe0 	b	1837c <HCDReadStringDescriptor+0x234>
   183f8:	e59f0048 	ldr	r0, [pc, #72]	; 18448 <HCDReadStringDescriptor+0x300>
   183fc:	e1a0200a 	mov	r2, sl
   18400:	e1a01009 	mov	r1, r9
   18404:	e08f0000 	add	r0, pc, r0
   18408:	ebffe066 	bl	105a8 <printf>
   1840c:	e3e00001 	mvn	r0, #1
   18410:	eaffffd9 	b	1837c <HCDReadStringDescriptor+0x234>
   18414:	e3e00001 	mvn	r0, #1
   18418:	eaffffd7 	b	1837c <HCDReadStringDescriptor+0x234>
   1841c:	e59f0028 	ldr	r0, [pc, #40]	; 1844c <HCDReadStringDescriptor+0x304>
   18420:	e1a0100a 	mov	r1, sl
   18424:	e08f0000 	add	r0, pc, r0
   18428:	ebffe05e 	bl	105a8 <printf>
   1842c:	e3e00001 	mvn	r0, #1
   18430:	eaffffd1 	b	1837c <HCDReadStringDescriptor+0x234>
   18434:	00000409 	andeq	r0, r0, r9, lsl #8
   18438:	000040e4 	andeq	r4, r0, r4, ror #1
   1843c:	00003f0c 	andeq	r3, r0, ip, lsl #30
   18440:	00003f58 	andeq	r3, r0, r8, asr pc
   18444:	00003fa8 	andeq	r3, r0, r8, lsr #31
   18448:	00003fd0 	ldrdeq	r3, [r0], -r0
   1844c:	00003eb8 			; <UNDEFINED> instruction: 0x00003eb8

00018450 <HIDReadDescriptor>:
   18450:	e16f3f13 	clz	r3, r3
   18454:	e3520000 	cmp	r2, #0
   18458:	e1a032a3 	lsr	r3, r3, #5
   1845c:	11a0c003 	movne	ip, r3
   18460:	03a0c001 	moveq	ip, #1
   18464:	e3a03000 	mov	r3, #0
   18468:	e92d41f0 	push	{r4, r5, r6, r7, r8, lr}
   1846c:	e59f6128 	ldr	r6, [pc, #296]	; 1859c <HIDReadDescriptor+0x14c>
   18470:	e24dd020 	sub	sp, sp, #32
   18474:	e15c0003 	cmp	ip, r3
   18478:	e58d301c 	str	r3, [sp, #28]
   1847c:	e08f6006 	add	r6, pc, r6
   18480:	1a000043 	bne	18594 <HIDReadDescriptor+0x144>
   18484:	e2404001 	sub	r4, r0, #1
   18488:	e6ef3074 	uxtb	r3, r4
   1848c:	e353001f 	cmp	r3, #31
   18490:	8a00003b 	bhi	18584 <HIDReadDescriptor+0x134>
   18494:	e59f3104 	ldr	r3, [pc, #260]	; 185a0 <HIDReadDescriptor+0x150>
   18498:	e1a07304 	lsl	r7, r4, #6
   1849c:	e7966003 	ldr	r6, [r6, r3]
   184a0:	e047e004 	sub	lr, r7, r4
   184a4:	e084e10e 	add	lr, r4, lr, lsl #2
   184a8:	e086e10e 	add	lr, r6, lr, lsl #2
   184ac:	e5de33ee 	ldrb	r3, [lr, #1006]	; 0x3ee
   184b0:	e3530000 	cmp	r3, #0
   184b4:	0a000032 	beq	18584 <HIDReadDescriptor+0x134>
   184b8:	e3530003 	cmp	r3, #3
   184bc:	1a000022 	bne	1854c <HIDReadDescriptor+0xfc>
   184c0:	e59e33f0 	ldr	r3, [lr, #1008]	; 0x3f0
   184c4:	e3530000 	cmp	r3, #0
   184c8:	0a00001f 	beq	1854c <HIDReadDescriptor+0xfc>
   184cc:	e5d30028 	ldrb	r0, [r3, #40]	; 0x28
   184d0:	e1500001 	cmp	r0, r1
   184d4:	3a00002c 	bcc	1858c <HIDReadDescriptor+0x13c>
   184d8:	e1a05001 	mov	r5, r1
   184dc:	e3a00081 	mov	r0, #129	; 0x81
   184e0:	e0811181 	add	r1, r1, r1, lsl #3
   184e4:	e0831001 	add	r1, r3, r1
   184e8:	e5d18008 	ldrb	r8, [r1, #8]
   184ec:	e5d11007 	ldrb	r1, [r1, #7]
   184f0:	e5cd801a 	strb	r8, [sp, #26]
   184f4:	e5cd101b 	strb	r1, [sp, #27]
   184f8:	e5dd101a 	ldrb	r1, [sp, #26]
   184fc:	e5dd801b 	ldrb	r8, [sp, #27]
   18500:	e0833005 	add	r3, r3, r5
   18504:	e1888401 	orr	r8, r8, r1, lsl #8
   18508:	e5d33024 	ldrb	r3, [r3, #36]	; 0x24
   1850c:	e88d0104 	stm	sp, {r2, r8}
   18510:	e28d201c 	add	r2, sp, #28
   18514:	e58d200c 	str	r2, [sp, #12]
   18518:	e58dc010 	str	ip, [sp, #16]
   1851c:	e58d0008 	str	r0, [sp, #8]
   18520:	e1a0200c 	mov	r2, ip
   18524:	e59e0004 	ldr	r0, [lr, #4]
   18528:	e3a01022 	mov	r1, #34	; 0x22
   1852c:	ebfffe7d 	bl	17f28 <HCDGetDescriptor>
   18530:	e3500000 	cmp	r0, #0
   18534:	1a000006 	bne	18554 <HIDReadDescriptor+0x104>
   18538:	e59d301c 	ldr	r3, [sp, #28]
   1853c:	e1580003 	cmp	r8, r3
   18540:	1a000003 	bne	18554 <HIDReadDescriptor+0x104>
   18544:	e28dd020 	add	sp, sp, #32
   18548:	e8bd81f0 	pop	{r4, r5, r6, r7, r8, pc}
   1854c:	e3e0000e 	mvn	r0, #14
   18550:	eafffffb 	b	18544 <HIDReadDescriptor+0xf4>
   18554:	e0477004 	sub	r7, r7, r4
   18558:	e0844107 	add	r4, r4, r7, lsl #2
   1855c:	e0864104 	add	r4, r6, r4, lsl #2
   18560:	e59433f0 	ldr	r3, [r4, #1008]	; 0x3f0
   18564:	e59f0038 	ldr	r0, [pc, #56]	; 185a4 <HIDReadDescriptor+0x154>
   18568:	e0835005 	add	r5, r3, r5
   1856c:	e5d42005 	ldrb	r2, [r4, #5]
   18570:	e5d51024 	ldrb	r1, [r5, #36]	; 0x24
   18574:	e08f0000 	add	r0, pc, r0
   18578:	ebffe00a 	bl	105a8 <printf>
   1857c:	e3e00003 	mvn	r0, #3
   18580:	eaffffef 	b	18544 <HIDReadDescriptor+0xf4>
   18584:	e3e0000b 	mvn	r0, #11
   18588:	eaffffed 	b	18544 <HIDReadDescriptor+0xf4>
   1858c:	e3e0000d 	mvn	r0, #13
   18590:	eaffffeb 	b	18544 <HIDReadDescriptor+0xf4>
   18594:	e3e00001 	mvn	r0, #1
   18598:	eaffffe9 	b	18544 <HIDReadDescriptor+0xf4>
   1859c:	000069fc 	strdeq	r6, [r0], -ip
   185a0:	0000009c 	muleq	r0, ip, r0
   185a4:	00003e9c 	muleq	r0, ip, lr

000185a8 <EnumerateHID>:
   185a8:	e92d43f0 	push	{r4, r5, r6, r7, r8, r9, lr}
   185ac:	e24dde42 	sub	sp, sp, #1056	; 0x420
   185b0:	e59133f0 	ldr	r3, [r1, #1008]	; 0x3f0
   185b4:	e24dd004 	sub	sp, sp, #4
   185b8:	e58d0014 	str	r0, [sp, #20]
   185bc:	e5d32028 	ldrb	r2, [r3, #40]	; 0x28
   185c0:	e3520000 	cmp	r2, #0
   185c4:	0a000026 	beq	18664 <EnumerateHID+0xbc>
   185c8:	e1a05001 	mov	r5, r1
   185cc:	e3a04000 	mov	r4, #0
   185d0:	e59f709c 	ldr	r7, [pc, #156]	; 18674 <EnumerateHID+0xcc>
   185d4:	e5dd8015 	ldrb	r8, [sp, #21]
   185d8:	e08f7007 	add	r7, pc, r7
   185dc:	e28d6020 	add	r6, sp, #32
   185e0:	e0832004 	add	r2, r3, r4
   185e4:	e5d2c024 	ldrb	ip, [r2, #36]	; 0x24
   185e8:	e0840184 	add	r0, r4, r4, lsl #3
   185ec:	e08cc18c 	add	ip, ip, ip, lsl #3
   185f0:	e085c00c 	add	ip, r5, ip
   185f4:	e5dc9016 	ldrb	r9, [ip, #22]
   185f8:	e0830000 	add	r0, r3, r0
   185fc:	e5d0e003 	ldrb	lr, [r0, #3]
   18600:	e5d01002 	ldrb	r1, [r0, #2]
   18604:	e5d03005 	ldrb	r3, [r0, #5]
   18608:	e5d02004 	ldrb	r2, [r0, #4]
   1860c:	e58d9008 	str	r9, [sp, #8]
   18610:	e5dcc01b 	ldrb	ip, [ip, #27]
   18614:	e5cde01e 	strb	lr, [sp, #30]
   18618:	e58dc004 	str	ip, [sp, #4]
   1861c:	e5cd101f 	strb	r1, [sp, #31]
   18620:	e5d0c006 	ldrb	ip, [r0, #6]
   18624:	e5dd001e 	ldrb	r0, [sp, #30]
   18628:	e5dd101f 	ldrb	r1, [sp, #31]
   1862c:	e58dc000 	str	ip, [sp]
   18630:	e1811400 	orr	r1, r1, r0, lsl #8
   18634:	e1a00007 	mov	r0, r7
   18638:	ebffdfda 	bl	105a8 <printf>
   1863c:	e3a03b01 	mov	r3, #1024	; 0x400
   18640:	e1a02006 	mov	r2, r6
   18644:	e6ef1074 	uxtb	r1, r4
   18648:	e1a00008 	mov	r0, r8
   1864c:	ebffff7f 	bl	18450 <HIDReadDescriptor>
   18650:	e59533f0 	ldr	r3, [r5, #1008]	; 0x3f0
   18654:	e2844001 	add	r4, r4, #1
   18658:	e5d32028 	ldrb	r2, [r3, #40]	; 0x28
   1865c:	e1520004 	cmp	r2, r4
   18660:	caffffde 	bgt	185e0 <EnumerateHID+0x38>
   18664:	e3a00000 	mov	r0, #0
   18668:	e28dde42 	add	sp, sp, #1056	; 0x420
   1866c:	e28dd004 	add	sp, sp, #4
   18670:	e8bd83f0 	pop	{r4, r5, r6, r7, r8, r9, pc}
   18674:	00003e70 	andeq	r3, r0, r0, ror lr

00018678 <EnumerateDevice>:
   18678:	e92d4ff0 	push	{r4, r5, r6, r7, r8, r9, sl, fp, lr}
   1867c:	e3a05001 	mov	r5, #1
   18680:	e59f97a0 	ldr	r9, [pc, #1952]	; 18e28 <EnumerateDevice+0x7b0>
   18684:	e1a04000 	mov	r4, r0
   18688:	e08f9009 	add	r9, pc, r9
   1868c:	e5998050 	ldr	r8, [r9, #80]	; 0x50
   18690:	e3a0c000 	mov	ip, #0
   18694:	e16f0f18 	clz	r0, r8
   18698:	e1a06005 	mov	r6, r5
   1869c:	e3a0b00a 	mov	fp, #10
   186a0:	e5d4e004 	ldrb	lr, [r4, #4]
   186a4:	e24dde57 	sub	sp, sp, #1392	; 0x570
   186a8:	e24dd00c 	sub	sp, sp, #12
   186ac:	e3cee003 	bic	lr, lr, #3
   186b0:	e5c4e004 	strb	lr, [r4, #4]
   186b4:	e28de068 	add	lr, sp, #104	; 0x68
   186b8:	e40ec004 	str	ip, [lr], #-4
   186bc:	e58dc040 	str	ip, [sp, #64]	; 0x40
   186c0:	e260001f 	rsb	r0, r0, #31
   186c4:	e5cd5043 	strb	r5, [sp, #67]	; 0x43
   186c8:	e28d5048 	add	r5, sp, #72	; 0x48
   186cc:	e6ef7070 	uxtb	r7, r0
   186d0:	e58dc064 	str	ip, [sp, #100]	; 0x64
   186d4:	e1c80016 	bic	r0, r8, r6, lsl r0
   186d8:	e5d48005 	ldrb	r8, [r4, #5]
   186dc:	e5c4c005 	strb	ip, [r4, #5]
   186e0:	e88d0820 	stm	sp, {r5, fp}
   186e4:	e58ec008 	str	ip, [lr, #8]
   186e8:	e58ec00c 	str	ip, [lr, #12]
   186ec:	e1cec1b0 	strh	ip, [lr, #16]
   186f0:	e1c5c0b4 	strh	ip, [r5, #4]
   186f4:	e3e0c07f 	mvn	ip, #127	; 0x7f
   186f8:	e3a03008 	mov	r3, #8
   186fc:	e3a0ac01 	mov	sl, #256	; 0x100
   18700:	e5cdc048 	strb	ip, [sp, #72]	; 0x48
   18704:	e3a0c006 	mov	ip, #6
   18708:	e5890050 	str	r0, [r9, #80]	; 0x50
   1870c:	e5cd7042 	strb	r7, [sp, #66]	; 0x42
   18710:	e245900c 	sub	r9, r5, #12
   18714:	e1c5a0b2 	strh	sl, [r5, #2]
   18718:	e58d101c 	str	r1, [sp, #28]
   1871c:	e58d2020 	str	r2, [sp, #32]
   18720:	e5940004 	ldr	r0, [r4, #4]
   18724:	e59d1040 	ldr	r1, [sp, #64]	; 0x40
   18728:	e58d9008 	str	r9, [sp, #8]
   1872c:	e1a0200e 	mov	r2, lr
   18730:	e1c530b6 	strh	r3, [r5, #6]
   18734:	e5cdc049 	strb	ip, [sp, #73]	; 0x49
   18738:	ebfffc47 	bl	1785c <HCDSumbitControlMessage>
   1873c:	e3500000 	cmp	r0, #0
   18740:	e1a0a000 	mov	sl, r0
   18744:	1a000002 	bne	18754 <EnumerateDevice+0xdc>
   18748:	e59d303c 	ldr	r3, [sp, #60]	; 0x3c
   1874c:	e3530008 	cmp	r3, #8
   18750:	0a00000e 	beq	18790 <EnumerateDevice+0x118>
   18754:	e3a0e001 	mov	lr, #1
   18758:	e59fc6cc 	ldr	ip, [pc, #1740]	; 18e2c <EnumerateDevice+0x7b4>
   1875c:	e1a02000 	mov	r2, r0
   18760:	e08fc00c 	add	ip, pc, ip
   18764:	e59c3050 	ldr	r3, [ip, #80]	; 0x50
   18768:	e59f06c0 	ldr	r0, [pc, #1728]	; 18e30 <EnumerateDevice+0x7b8>
   1876c:	e183371e 	orr	r3, r3, lr, lsl r7
   18770:	e1a01008 	mov	r1, r8
   18774:	e08f0000 	add	r0, pc, r0
   18778:	e58c3050 	str	r3, [ip, #80]	; 0x50
   1877c:	ebffdf89 	bl	105a8 <printf>
   18780:	e1a0000a 	mov	r0, sl
   18784:	e28dde57 	add	sp, sp, #1392	; 0x570
   18788:	e28dd00c 	add	sp, sp, #12
   1878c:	e8bd8ff0 	pop	{r4, r5, r6, r7, r8, r9, sl, fp, pc}
   18790:	e5dd306b 	ldrb	r3, [sp, #107]	; 0x6b
   18794:	e3530008 	cmp	r3, #8
   18798:	9a000005 	bls	187b4 <EnumerateDevice+0x13c>
   1879c:	e3530010 	cmp	r3, #16
   187a0:	91a00006 	movls	r0, r6
   187a4:	9a000002 	bls	187b4 <EnumerateDevice+0x13c>
   187a8:	e3530020 	cmp	r3, #32
   187ac:	83a00003 	movhi	r0, #3
   187b0:	93a00002 	movls	r0, #2
   187b4:	e3a03002 	mov	r3, #2
   187b8:	e3a0b001 	mov	fp, #1
   187bc:	e5d46004 	ldrb	r6, [r4, #4]
   187c0:	e59d201c 	ldr	r2, [sp, #28]
   187c4:	e3c66003 	bic	r6, r6, #3
   187c8:	e1800006 	orr	r0, r0, r6
   187cc:	e3520000 	cmp	r2, #0
   187d0:	e5c40004 	strb	r0, [r4, #4]
   187d4:	e5c4300e 	strb	r3, [r4, #14]
   187d8:	e1a0b71b 	lsl	fp, fp, r7
   187dc:	0a000011 	beq	18828 <EnumerateDevice+0x1b0>
   187e0:	e59d1020 	ldr	r1, [sp, #32]
   187e4:	e1a00002 	mov	r0, r2
   187e8:	ebfffd67 	bl	17d8c <HubPortReset>
   187ec:	e250a000 	subs	sl, r0, #0
   187f0:	0a00000c 	beq	18828 <EnumerateDevice+0x1b0>
   187f4:	e59f2638 	ldr	r2, [pc, #1592]	; 18e34 <EnumerateDevice+0x7bc>
   187f8:	e1a00004 	mov	r0, r4
   187fc:	e08f2002 	add	r2, pc, r2
   18800:	e5923050 	ldr	r3, [r2, #80]	; 0x50
   18804:	e183b00b 	orr	fp, r3, fp
   18808:	e582b050 	str	fp, [r2, #80]	; 0x50
   1880c:	ebfff644 	bl	16124 <UsbGetDescription>
   18810:	e1a01000 	mov	r1, r0
   18814:	e59f061c 	ldr	r0, [pc, #1564]	; 18e38 <EnumerateDevice+0x7c0>
   18818:	e08f0000 	add	r0, pc, r0
   1881c:	ebffdf61 	bl	105a8 <printf>
   18820:	e5c48005 	strb	r8, [r4, #5]
   18824:	eaffffd5 	b	18780 <EnumerateDevice+0x108>
   18828:	e1a02008 	mov	r2, r8
   1882c:	e1a01007 	mov	r1, r7
   18830:	e5940004 	ldr	r0, [r4, #4]
   18834:	ebfffc97 	bl	17a98 <HCDSetAddress>
   18838:	e250a000 	subs	sl, r0, #0
   1883c:	1a000023 	bne	188d0 <EnumerateDevice+0x258>
   18840:	e59f05f4 	ldr	r0, [pc, #1524]	; 18e3c <EnumerateDevice+0x7c4>
   18844:	e3a01000 	mov	r1, #0
   18848:	e5c48005 	strb	r8, [r4, #5]
   1884c:	ebffdd8a 	bl	fe7c <timer_wait>
   18850:	e3a02003 	mov	r2, #3
   18854:	e3a03012 	mov	r3, #18
   18858:	e58d900c 	str	r9, [sp, #12]
   1885c:	e3a06001 	mov	r6, #1
   18860:	e5c4200e 	strb	r2, [r4, #14]
   18864:	e3a02080 	mov	r2, #128	; 0x80
   18868:	e2840ff7 	add	r0, r4, #988	; 0x3dc
   1886c:	e88d0009 	stm	sp, {r0, r3}
   18870:	e58d2008 	str	r2, [sp, #8]
   18874:	e58d6010 	str	r6, [sp, #16]
   18878:	e58d001c 	str	r0, [sp, #28]
   1887c:	e1a0300a 	mov	r3, sl
   18880:	e1a0200a 	mov	r2, sl
   18884:	e1a01006 	mov	r1, r6
   18888:	e5940004 	ldr	r0, [r4, #4]
   1888c:	ebfffda5 	bl	17f28 <HCDGetDescriptor>
   18890:	e250a000 	subs	sl, r0, #0
   18894:	1a000002 	bne	188a4 <EnumerateDevice+0x22c>
   18898:	e59d303c 	ldr	r3, [sp, #60]	; 0x3c
   1889c:	e3530012 	cmp	r3, #18
   188a0:	0a000015 	beq	188fc <EnumerateDevice+0x284>
   188a4:	e59fc594 	ldr	ip, [pc, #1428]	; 18e40 <EnumerateDevice+0x7c8>
   188a8:	e59f0594 	ldr	r0, [pc, #1428]	; 18e44 <EnumerateDevice+0x7cc>
   188ac:	e08fc00c 	add	ip, pc, ip
   188b0:	e59c3050 	ldr	r3, [ip, #80]	; 0x50
   188b4:	e5d41005 	ldrb	r1, [r4, #5]
   188b8:	e183b00b 	orr	fp, r3, fp
   188bc:	e1a0200a 	mov	r2, sl
   188c0:	e08f0000 	add	r0, pc, r0
   188c4:	e58cb050 	str	fp, [ip, #80]	; 0x50
   188c8:	ebffdf36 	bl	105a8 <printf>
   188cc:	eaffffab 	b	18780 <EnumerateDevice+0x108>
   188d0:	e59f2570 	ldr	r2, [pc, #1392]	; 18e48 <EnumerateDevice+0x7d0>
   188d4:	e59f0570 	ldr	r0, [pc, #1392]	; 18e4c <EnumerateDevice+0x7d4>
   188d8:	e08f2002 	add	r2, pc, r2
   188dc:	e5923050 	ldr	r3, [r2, #80]	; 0x50
   188e0:	e1a01008 	mov	r1, r8
   188e4:	e183b00b 	orr	fp, r3, fp
   188e8:	e08f0000 	add	r0, pc, r0
   188ec:	e582b050 	str	fp, [r2, #80]	; 0x50
   188f0:	ebffdf2c 	bl	105a8 <printf>
   188f4:	e5c48005 	strb	r8, [r4, #5]
   188f8:	eaffffa0 	b	18780 <EnumerateDevice+0x108>
   188fc:	e3a03009 	mov	r3, #9
   18900:	e3a02080 	mov	r2, #128	; 0x80
   18904:	e2455004 	sub	r5, r5, #4
   18908:	e28d9058 	add	r9, sp, #88	; 0x58
   1890c:	e58d2008 	str	r2, [sp, #8]
   18910:	e58d3004 	str	r3, [sp, #4]
   18914:	e58d500c 	str	r5, [sp, #12]
   18918:	e58d6010 	str	r6, [sp, #16]
   1891c:	e58d9000 	str	r9, [sp]
   18920:	e1a0300a 	mov	r3, sl
   18924:	e1a0200a 	mov	r2, sl
   18928:	e3a01002 	mov	r1, #2
   1892c:	e5940004 	ldr	r0, [r4, #4]
   18930:	ebfffd7c 	bl	17f28 <HCDGetDescriptor>
   18934:	e3500000 	cmp	r0, #0
   18938:	1a0000d0 	bne	18c80 <EnumerateDevice+0x608>
   1893c:	e59d6044 	ldr	r6, [sp, #68]	; 0x44
   18940:	e3560009 	cmp	r6, #9
   18944:	1a0000cd 	bne	18c80 <EnumerateDevice+0x608>
   18948:	e3a0c00a 	mov	ip, #10
   1894c:	e3e0307f 	mvn	r3, #127	; 0x7f
   18950:	e3a02006 	mov	r2, #6
   18954:	e3a01c02 	mov	r1, #512	; 0x200
   18958:	e1d9e0b2 	ldrh	lr, [r9, #2]
   1895c:	e58d5008 	str	r5, [sp, #8]
   18960:	e5dd505e 	ldrb	r5, [sp, #94]	; 0x5e
   18964:	e58dc004 	str	ip, [sp, #4]
   18968:	e249c008 	sub	ip, r9, #8
   1896c:	e58dc000 	str	ip, [sp]
   18970:	e5c4500d 	strb	r5, [r4, #13]
   18974:	e5ddc05d 	ldrb	ip, [sp, #93]	; 0x5d
   18978:	e28d5f5e 	add	r5, sp, #376	; 0x178
   1897c:	e5cd3050 	strb	r3, [sp, #80]	; 0x50
   18980:	e5cd2051 	strb	r2, [sp, #81]	; 0x51
   18984:	e14910b6 	strh	r1, [r9, #-6]
   18988:	e14900b4 	strh	r0, [r9, #-4]
   1898c:	e1a0300e 	mov	r3, lr
   18990:	e1a02005 	mov	r2, r5
   18994:	e59d1040 	ldr	r1, [sp, #64]	; 0x40
   18998:	e5940004 	ldr	r0, [r4, #4]
   1899c:	e149e0b2 	strh	lr, [r9, #-2]
   189a0:	e58d5024 	str	r5, [sp, #36]	; 0x24
   189a4:	e58dc020 	str	ip, [sp, #32]
   189a8:	ebfffbab 	bl	1785c <HCDSumbitControlMessage>
   189ac:	e250a000 	subs	sl, r0, #0
   189b0:	1a00000f 	bne	189f4 <EnumerateDevice+0x37c>
   189b4:	e1d930b2 	ldrh	r3, [r9, #2]
   189b8:	e59d2044 	ldr	r2, [sp, #68]	; 0x44
   189bc:	e1530002 	cmp	r3, r2
   189c0:	0a000017 	beq	18a24 <EnumerateDevice+0x3ac>
   189c4:	e59fc484 	ldr	ip, [pc, #1156]	; 18e50 <EnumerateDevice+0x7d8>
   189c8:	e1a0300a 	mov	r3, sl
   189cc:	e08fc00c 	add	ip, pc, ip
   189d0:	e59c0050 	ldr	r0, [ip, #80]	; 0x50
   189d4:	e5d41005 	ldrb	r1, [r4, #5]
   189d8:	e180b00b 	orr	fp, r0, fp
   189dc:	e59f0470 	ldr	r0, [pc, #1136]	; 18e54 <EnumerateDevice+0x7dc>
   189e0:	e58cb050 	str	fp, [ip, #80]	; 0x50
   189e4:	e08f0000 	add	r0, pc, r0
   189e8:	e3e0a003 	mvn	sl, #3
   189ec:	ebffdeed 	bl	105a8 <printf>
   189f0:	eaffff62 	b	18780 <EnumerateDevice+0x108>
   189f4:	e59f045c 	ldr	r0, [pc, #1116]	; 18e58 <EnumerateDevice+0x7e0>
   189f8:	e5d41005 	ldrb	r1, [r4, #5]
   189fc:	e08f0000 	add	r0, pc, r0
   18a00:	e5902050 	ldr	r2, [r0, #80]	; 0x50
   18a04:	e1a0300a 	mov	r3, sl
   18a08:	e182b00b 	orr	fp, r2, fp
   18a0c:	e580b050 	str	fp, [r0, #80]	; 0x50
   18a10:	e59f0444 	ldr	r0, [pc, #1092]	; 18e5c <EnumerateDevice+0x7e4>
   18a14:	e59d2044 	ldr	r2, [sp, #68]	; 0x44
   18a18:	e08f0000 	add	r0, pc, r0
   18a1c:	ebffdee1 	bl	105a8 <printf>
   18a20:	eaffff56 	b	18780 <EnumerateDevice+0x108>
   18a24:	e3530001 	cmp	r3, #1
   18a28:	0a0000f1 	beq	18df4 <EnumerateDevice+0x77c>
   18a2c:	e59f242c 	ldr	r2, [pc, #1068]	; 18e60 <EnumerateDevice+0x7e8>
   18a30:	e1a0500a 	mov	r5, sl
   18a34:	e08f2002 	add	r2, pc, r2
   18a38:	e58d8030 	str	r8, [sp, #48]	; 0x30
   18a3c:	e58d7034 	str	r7, [sp, #52]	; 0x34
   18a40:	e1a0800a 	mov	r8, sl
   18a44:	e1a0700a 	mov	r7, sl
   18a48:	e58d6028 	str	r6, [sp, #40]	; 0x28
   18a4c:	e58d202c 	str	r2, [sp, #44]	; 0x2c
   18a50:	e59da024 	ldr	sl, [sp, #36]	; 0x24
   18a54:	ea000009 	b	18a80 <EnumerateDevice+0x408>
   18a58:	e3520021 	cmp	r2, #33	; 0x21
   18a5c:	0a000029 	beq	18b08 <EnumerateDevice+0x490>
   18a60:	e3520004 	cmp	r2, #4
   18a64:	0a000019 	beq	18ad0 <EnumerateDevice+0x458>
   18a68:	e5561400 	ldrb	r1, [r6, #-1024]	; 0xfffffc00
   18a6c:	e1d920b2 	ldrh	r2, [r9, #2]
   18a70:	e0855001 	add	r5, r5, r1
   18a74:	e2422001 	sub	r2, r2, #1
   18a78:	e1520005 	cmp	r2, r5
   18a7c:	9a00003d 	bls	18b78 <EnumerateDevice+0x500>
   18a80:	e28d3e57 	add	r3, sp, #1392	; 0x570
   18a84:	e2833008 	add	r3, r3, #8
   18a88:	e0836005 	add	r6, r3, r5
   18a8c:	e55623ff 	ldrb	r2, [r6, #-1023]	; 0xfffffc01
   18a90:	e3520005 	cmp	r2, #5
   18a94:	1affffef 	bne	18a58 <EnumerateDevice+0x3e0>
   18a98:	e3a02007 	mov	r2, #7
   18a9c:	e5d41010 	ldrb	r1, [r4, #16]
   18aa0:	e2411001 	sub	r1, r1, #1
   18aa4:	e0611181 	rsb	r1, r1, r1, lsl #3
   18aa8:	e1a00201 	lsl	r0, r1, #4
   18aac:	e280005c 	add	r0, r0, #92	; 0x5c
   18ab0:	e1000782 	smlabb	r0, r2, r7, r0
   18ab4:	e08a1005 	add	r1, sl, r5
   18ab8:	e0840000 	add	r0, r4, r0
   18abc:	ebfff1e2 	bl	1524c <myMemCopy>
   18ac0:	e2873001 	add	r3, r7, #1
   18ac4:	e6ef7073 	uxtb	r7, r3
   18ac8:	e5561400 	ldrb	r1, [r6, #-1024]	; 0xfffffc00
   18acc:	eaffffe6 	b	18a6c <EnumerateDevice+0x3f4>
   18ad0:	e3a03014 	mov	r3, #20
   18ad4:	e59d1028 	ldr	r1, [sp, #40]	; 0x28
   18ad8:	e5d40010 	ldrb	r0, [r4, #16]
   18adc:	e3a02009 	mov	r2, #9
   18ae0:	e1003081 	smlabb	r0, r1, r0, r3
   18ae4:	e08a1005 	add	r1, sl, r5
   18ae8:	e0840000 	add	r0, r4, r0
   18aec:	ebfff1d6 	bl	1524c <myMemCopy>
   18af0:	e5d43010 	ldrb	r3, [r4, #16]
   18af4:	e5561400 	ldrb	r1, [r6, #-1024]	; 0xfffffc00
   18af8:	e2833001 	add	r3, r3, #1
   18afc:	e5c43010 	strb	r3, [r4, #16]
   18b00:	e3a07000 	mov	r7, #0
   18b04:	eaffffd8 	b	18a6c <EnumerateDevice+0x3f4>
   18b08:	e3580000 	cmp	r8, #0
   18b0c:	0a000007 	beq	18b30 <EnumerateDevice+0x4b8>
   18b10:	e3580003 	cmp	r8, #3
   18b14:	9a000009 	bls	18b40 <EnumerateDevice+0x4c8>
   18b18:	e5561400 	ldrb	r1, [r6, #-1024]	; 0xfffffc00
   18b1c:	e3510009 	cmp	r1, #9
   18b20:	0affffd1 	beq	18a6c <EnumerateDevice+0x3f4>
   18b24:	e59d002c 	ldr	r0, [sp, #44]	; 0x2c
   18b28:	ebffde9e 	bl	105a8 <printf>
   18b2c:	eaffffcd 	b	18a68 <EnumerateDevice+0x3f0>
   18b30:	e1a00004 	mov	r0, r4
   18b34:	ebfff415 	bl	15b90 <AddHidPayload>
   18b38:	e3500000 	cmp	r0, #0
   18b3c:	1a0000ae 	bne	18dfc <EnumerateDevice+0x784>
   18b40:	e59403f0 	ldr	r0, [r4, #1008]	; 0x3f0
   18b44:	e0882188 	add	r2, r8, r8, lsl #3
   18b48:	e0800002 	add	r0, r0, r2
   18b4c:	e08a1005 	add	r1, sl, r5
   18b50:	e3a02009 	mov	r2, #9
   18b54:	ebfff1bc 	bl	1524c <myMemCopy>
   18b58:	e59423f0 	ldr	r2, [r4, #1008]	; 0x3f0
   18b5c:	e5d41010 	ldrb	r1, [r4, #16]
   18b60:	e0822008 	add	r2, r2, r8
   18b64:	e2411001 	sub	r1, r1, #1
   18b68:	e2888001 	add	r8, r8, #1
   18b6c:	e6ef8078 	uxtb	r8, r8
   18b70:	e5c21024 	strb	r1, [r2, #36]	; 0x24
   18b74:	eaffffe7 	b	18b18 <EnumerateDevice+0x4a0>
   18b78:	e1a06008 	mov	r6, r8
   18b7c:	e59d7034 	ldr	r7, [sp, #52]	; 0x34
   18b80:	e59d8030 	ldr	r8, [sp, #48]	; 0x30
   18b84:	e59d5020 	ldr	r5, [sp, #32]
   18b88:	e1a01007 	mov	r1, r7
   18b8c:	e1a02005 	mov	r2, r5
   18b90:	e5940004 	ldr	r0, [r4, #4]
   18b94:	ebfffbd7 	bl	17af8 <HCDSetConfiguration>
   18b98:	e250a000 	subs	sl, r0, #0
   18b9c:	1a00002c 	bne	18c54 <EnumerateDevice+0x5dc>
   18ba0:	e3a03004 	mov	r3, #4
   18ba4:	e59d2020 	ldr	r2, [sp, #32]
   18ba8:	e5c4300e 	strb	r3, [r4, #14]
   18bac:	e5c4200c 	strb	r2, [r4, #12]
   18bb0:	e1a00004 	mov	r0, r4
   18bb4:	ebfff55a 	bl	16124 <UsbGetDescription>
   18bb8:	e59d301c 	ldr	r3, [sp, #28]
   18bbc:	e1a01000 	mov	r1, r0
   18bc0:	e1d320b2 	ldrh	r2, [r3, #2]
   18bc4:	e5d433e0 	ldrb	r3, [r4, #992]	; 0x3e0
   18bc8:	e6efe072 	uxtb	lr, r2
   18bcc:	e1a0c422 	lsr	ip, r2, #8
   18bd0:	e58de004 	str	lr, [sp, #4]
   18bd4:	e5d4e010 	ldrb	lr, [r4, #16]
   18bd8:	e58dc000 	str	ip, [sp]
   18bdc:	e5d403ed 	ldrb	r0, [r4, #1005]	; 0x3ed
   18be0:	e1a02008 	mov	r2, r8
   18be4:	e58d0008 	str	r0, [sp, #8]
   18be8:	e59f0274 	ldr	r0, [pc, #628]	; 18e64 <EnumerateDevice+0x7ec>
   18bec:	e58de00c 	str	lr, [sp, #12]
   18bf0:	e08f0000 	add	r0, pc, r0
   18bf4:	ebffde6b 	bl	105a8 <printf>
   18bf8:	e5d413eb 	ldrb	r1, [r4, #1003]	; 0x3eb
   18bfc:	e3510000 	cmp	r1, #0
   18c00:	1a00004e 	bne	18d40 <EnumerateDevice+0x6c8>
   18c04:	e5d413ea 	ldrb	r1, [r4, #1002]	; 0x3ea
   18c08:	e3510000 	cmp	r1, #0
   18c0c:	1a00003f 	bne	18d10 <EnumerateDevice+0x698>
   18c10:	e5d413ec 	ldrb	r1, [r4, #1004]	; 0x3ec
   18c14:	e3510000 	cmp	r1, #0
   18c18:	1a000030 	bne	18ce0 <EnumerateDevice+0x668>
   18c1c:	e5d4100d 	ldrb	r1, [r4, #13]
   18c20:	e3510000 	cmp	r1, #0
   18c24:	1a000021 	bne	18cb0 <EnumerateDevice+0x638>
   18c28:	e5d433e0 	ldrb	r3, [r4, #992]	; 0x3e0
   18c2c:	e3530009 	cmp	r3, #9
   18c30:	0a000060 	beq	18db8 <EnumerateDevice+0x740>
   18c34:	e3560000 	cmp	r6, #0
   18c38:	1a00004c 	bne	18d70 <EnumerateDevice+0x6f8>
   18c3c:	e59f2224 	ldr	r2, [pc, #548]	; 18e68 <EnumerateDevice+0x7f0>
   18c40:	e08f2002 	add	r2, pc, r2
   18c44:	e5923050 	ldr	r3, [r2, #80]	; 0x50
   18c48:	e183b00b 	orr	fp, r3, fp
   18c4c:	e582b050 	str	fp, [r2, #80]	; 0x50
   18c50:	eafffeca 	b	18780 <EnumerateDevice+0x108>
   18c54:	e59fc210 	ldr	ip, [pc, #528]	; 18e6c <EnumerateDevice+0x7f4>
   18c58:	e59f0210 	ldr	r0, [pc, #528]	; 18e70 <EnumerateDevice+0x7f8>
   18c5c:	e08fc00c 	add	ip, pc, ip
   18c60:	e59c3050 	ldr	r3, [ip, #80]	; 0x50
   18c64:	e5d42005 	ldrb	r2, [r4, #5]
   18c68:	e183b00b 	orr	fp, r3, fp
   18c6c:	e1a01005 	mov	r1, r5
   18c70:	e08f0000 	add	r0, pc, r0
   18c74:	e58cb050 	str	fp, [ip, #80]	; 0x50
   18c78:	ebffde4a 	bl	105a8 <printf>
   18c7c:	eafffebf 	b	18780 <EnumerateDevice+0x108>
   18c80:	e59fc1ec 	ldr	ip, [pc, #492]	; 18e74 <EnumerateDevice+0x7fc>
   18c84:	e1a01000 	mov	r1, r0
   18c88:	e08fc00c 	add	ip, pc, ip
   18c8c:	e59c3050 	ldr	r3, [ip, #80]	; 0x50
   18c90:	e59f01e0 	ldr	r0, [pc, #480]	; 18e78 <EnumerateDevice+0x800>
   18c94:	e183b00b 	orr	fp, r3, fp
   18c98:	e5d42005 	ldrb	r2, [r4, #5]
   18c9c:	e08f0000 	add	r0, pc, r0
   18ca0:	e58cb050 	str	fp, [ip, #80]	; 0x50
   18ca4:	e3e0a003 	mvn	sl, #3
   18ca8:	ebffde3e 	bl	105a8 <printf>
   18cac:	eafffeb3 	b	18780 <EnumerateDevice+0x108>
   18cb0:	e28d5078 	add	r5, sp, #120	; 0x78
   18cb4:	e1a02005 	mov	r2, r5
   18cb8:	e3a03c01 	mov	r3, #256	; 0x100
   18cbc:	e5940004 	ldr	r0, [r4, #4]
   18cc0:	ebfffd20 	bl	18148 <HCDReadStringDescriptor>
   18cc4:	e3500000 	cmp	r0, #0
   18cc8:	1affffd6 	bne	18c28 <EnumerateDevice+0x5b0>
   18ccc:	e59f01a8 	ldr	r0, [pc, #424]	; 18e7c <EnumerateDevice+0x804>
   18cd0:	e1a01005 	mov	r1, r5
   18cd4:	e08f0000 	add	r0, pc, r0
   18cd8:	ebffde32 	bl	105a8 <printf>
   18cdc:	eaffffd1 	b	18c28 <EnumerateDevice+0x5b0>
   18ce0:	e28d5078 	add	r5, sp, #120	; 0x78
   18ce4:	e1a02005 	mov	r2, r5
   18ce8:	e3a03c01 	mov	r3, #256	; 0x100
   18cec:	e5940004 	ldr	r0, [r4, #4]
   18cf0:	ebfffd14 	bl	18148 <HCDReadStringDescriptor>
   18cf4:	e3500000 	cmp	r0, #0
   18cf8:	1affffc7 	bne	18c1c <EnumerateDevice+0x5a4>
   18cfc:	e59f017c 	ldr	r0, [pc, #380]	; 18e80 <EnumerateDevice+0x808>
   18d00:	e1a01005 	mov	r1, r5
   18d04:	e08f0000 	add	r0, pc, r0
   18d08:	ebffde26 	bl	105a8 <printf>
   18d0c:	eaffffc2 	b	18c1c <EnumerateDevice+0x5a4>
   18d10:	e28d5078 	add	r5, sp, #120	; 0x78
   18d14:	e1a02005 	mov	r2, r5
   18d18:	e3a03c01 	mov	r3, #256	; 0x100
   18d1c:	e5940004 	ldr	r0, [r4, #4]
   18d20:	ebfffd08 	bl	18148 <HCDReadStringDescriptor>
   18d24:	e3500000 	cmp	r0, #0
   18d28:	1affffb8 	bne	18c10 <EnumerateDevice+0x598>
   18d2c:	e59f0150 	ldr	r0, [pc, #336]	; 18e84 <EnumerateDevice+0x80c>
   18d30:	e1a01005 	mov	r1, r5
   18d34:	e08f0000 	add	r0, pc, r0
   18d38:	ebffde1a 	bl	105a8 <printf>
   18d3c:	eaffffb3 	b	18c10 <EnumerateDevice+0x598>
   18d40:	e28d5078 	add	r5, sp, #120	; 0x78
   18d44:	e1a02005 	mov	r2, r5
   18d48:	e3a03c01 	mov	r3, #256	; 0x100
   18d4c:	e5940004 	ldr	r0, [r4, #4]
   18d50:	ebfffcfc 	bl	18148 <HCDReadStringDescriptor>
   18d54:	e3500000 	cmp	r0, #0
   18d58:	1affffa9 	bne	18c04 <EnumerateDevice+0x58c>
   18d5c:	e59f0124 	ldr	r0, [pc, #292]	; 18e88 <EnumerateDevice+0x810>
   18d60:	e1a01005 	mov	r1, r5
   18d64:	e08f0000 	add	r0, pc, r0
   18d68:	ebffde0e 	bl	105a8 <printf>
   18d6c:	eaffffa4 	b	18c04 <EnumerateDevice+0x58c>
   18d70:	e59433f0 	ldr	r3, [r4, #1008]	; 0x3f0
   18d74:	e1a01004 	mov	r1, r4
   18d78:	e5c36028 	strb	r6, [r3, #40]	; 0x28
   18d7c:	e5940004 	ldr	r0, [r4, #4]
   18d80:	ebfffe08 	bl	185a8 <EnumerateHID>
   18d84:	e2502000 	subs	r2, r0, #0
   18d88:	0affffab 	beq	18c3c <EnumerateDevice+0x5c4>
   18d8c:	e59fc0f8 	ldr	ip, [pc, #248]	; 18e8c <EnumerateDevice+0x814>
   18d90:	e59f00f8 	ldr	r0, [pc, #248]	; 18e90 <EnumerateDevice+0x818>
   18d94:	e08fc00c 	add	ip, pc, ip
   18d98:	e59c3050 	ldr	r3, [ip, #80]	; 0x50
   18d9c:	e5d41005 	ldrb	r1, [r4, #5]
   18da0:	e183b00b 	orr	fp, r3, fp
   18da4:	e08f0000 	add	r0, pc, r0
   18da8:	e58cb050 	str	fp, [ip, #80]	; 0x50
   18dac:	e1a0a002 	mov	sl, r2
   18db0:	ebffddfc 	bl	105a8 <printf>
   18db4:	eafffe71 	b	18780 <EnumerateDevice+0x108>
   18db8:	e1a00004 	mov	r0, r4
   18dbc:	eb0001bb 	bl	194b0 <EnumerateHub>
   18dc0:	e2502000 	subs	r2, r0, #0
   18dc4:	0affff9c 	beq	18c3c <EnumerateDevice+0x5c4>
   18dc8:	e59fc0c4 	ldr	ip, [pc, #196]	; 18e94 <EnumerateDevice+0x81c>
   18dcc:	e59f00c4 	ldr	r0, [pc, #196]	; 18e98 <EnumerateDevice+0x820>
   18dd0:	e08fc00c 	add	ip, pc, ip
   18dd4:	e59c3050 	ldr	r3, [ip, #80]	; 0x50
   18dd8:	e5d41005 	ldrb	r1, [r4, #5]
   18ddc:	e183b00b 	orr	fp, r3, fp
   18de0:	e08f0000 	add	r0, pc, r0
   18de4:	e58cb050 	str	fp, [ip, #80]	; 0x50
   18de8:	e1a0a002 	mov	sl, r2
   18dec:	ebffdded 	bl	105a8 <printf>
   18df0:	eafffe62 	b	18780 <EnumerateDevice+0x108>
   18df4:	e1a0600a 	mov	r6, sl
   18df8:	eaffff61 	b	18b84 <EnumerateDevice+0x50c>
   18dfc:	e59f2098 	ldr	r2, [pc, #152]	; 18e9c <EnumerateDevice+0x824>
   18e00:	e1a0a000 	mov	sl, r0
   18e04:	e08f2002 	add	r2, pc, r2
   18e08:	e5923050 	ldr	r3, [r2, #80]	; 0x50
   18e0c:	e1a01000 	mov	r1, r0
   18e10:	e59f0088 	ldr	r0, [pc, #136]	; 18ea0 <EnumerateDevice+0x828>
   18e14:	e183b00b 	orr	fp, r3, fp
   18e18:	e08f0000 	add	r0, pc, r0
   18e1c:	e582b050 	str	fp, [r2, #80]	; 0x50
   18e20:	ebffdde0 	bl	105a8 <printf>
   18e24:	eafffe55 	b	18780 <EnumerateDevice+0x108>
   18e28:	00340c38 	eorseq	r0, r4, r8, lsr ip
   18e2c:	00340b60 	eorseq	r0, r4, r0, ror #22
   18e30:	00003d38 	andeq	r3, r0, r8, lsr sp
   18e34:	00340ac4 	eorseq	r0, r4, r4, asr #21
   18e38:	00003ccc 	andeq	r3, r0, ip, asr #25
   18e3c:	00002710 	andeq	r2, r0, r0, lsl r7
   18e40:	00340a14 	eorseq	r0, r4, r4, lsl sl
   18e44:	00003c88 	andeq	r3, r0, r8, lsl #25
   18e48:	003409e8 	eorseq	r0, r4, r8, ror #19
   18e4c:	00003c30 	andeq	r3, r0, r0, lsr ip
   18e50:	003408f4 	ldrshteq	r0, [r4], -r4
   18e54:	00003d8c 	andeq	r3, r0, ip, lsl #27
   18e58:	003408c4 	eorseq	r0, r4, r4, asr #17
   18e5c:	00003d58 	andeq	r3, r0, r8, asr sp
   18e60:	00003bc0 	andeq	r3, r0, r0, asr #23
   18e64:	00003a50 	andeq	r3, r0, r0, asr sl
   18e68:	00340680 	eorseq	r0, r4, r0, lsl #13
   18e6c:	00340664 	eorseq	r0, r4, r4, ror #12
   18e70:	0000399c 	muleq	r0, ip, r9
   18e74:	00340638 	eorseq	r0, r4, r8, lsr r6
   18e78:	000038e4 	andeq	r3, r0, r4, ror #17
   18e7c:	00003a20 	andeq	r3, r0, r0, lsr #20
   18e80:	000039d4 	ldrdeq	r3, [r0], -r4
   18e84:	00003988 	andeq	r3, r0, r8, lsl #19
   18e88:	0000393c 	andeq	r3, r0, ip, lsr r9
   18e8c:	0034052c 	eorseq	r0, r4, ip, lsr #10
   18e90:	0000399c 	muleq	r0, ip, r9
   18e94:	003404f0 	ldrshteq	r0, [r4], -r0
   18e98:	00003930 	andeq	r3, r0, r0, lsr r9
   18e9c:	003404bc 	ldrhteq	r0, [r4], -ip
   18ea0:	000037ac 	andeq	r3, r0, ip, lsr #15

00018ea4 <HubPortConnectionChanged>:
   18ea4:	e92d4ff0 	push	{r4, r5, r6, r7, r8, r9, sl, fp, lr}
   18ea8:	e1a04000 	mov	r4, r0
   18eac:	e24dd01c 	sub	sp, sp, #28
   18eb0:	e5d00005 	ldrb	r0, [r0, #5]
   18eb4:	e1a06001 	mov	r6, r1
   18eb8:	ebfff3b1 	bl	15d84 <IsHub>
   18ebc:	e3500000 	cmp	r0, #0
   18ec0:	0a0000b7 	beq	191a4 <HubPortConnectionChanged+0x300>
   18ec4:	e2865001 	add	r5, r6, #1
   18ec8:	e6ef8075 	uxtb	r8, r5
   18ecc:	e28db014 	add	fp, sp, #20
   18ed0:	e1a01008 	mov	r1, r8
   18ed4:	e1a0200b 	mov	r2, fp
   18ed8:	e5940004 	ldr	r0, [r4, #4]
   18edc:	e594a3f0 	ldr	sl, [r4, #1008]	; 0x3f0
   18ee0:	ebfffb1a 	bl	17b50 <HCDReadHubPortStatus>
   18ee4:	e2507000 	subs	r7, r0, #0
   18ee8:	1a000075 	bne	190c4 <HubPortConnectionChanged+0x220>
   18eec:	e1a03007 	mov	r3, r7
   18ef0:	e1a02008 	mov	r2, r8
   18ef4:	e3a01010 	mov	r1, #16
   18ef8:	e5940004 	ldr	r0, [r4, #4]
   18efc:	ebfffb65 	bl	17c98 <HCDChangeHubPortFeature>
   18f00:	e3500000 	cmp	r0, #0
   18f04:	1a000078 	bne	190ec <HubPortConnectionChanged+0x248>
   18f08:	e5dd3014 	ldrb	r3, [sp, #20]
   18f0c:	e3130003 	tst	r3, #3
   18f10:	0a000003 	beq	18f24 <HubPortConnectionChanged+0x80>
   18f14:	e08a3106 	add	r3, sl, r6, lsl #2
   18f18:	e5933004 	ldr	r3, [r3, #4]
   18f1c:	e3530000 	cmp	r3, #0
   18f20:	0a000012 	beq	18f70 <HubPortConnectionChanged+0xcc>
   18f24:	e1a00004 	mov	r0, r4
   18f28:	ebfff47d 	bl	16124 <UsbGetDescription>
   18f2c:	e08a9106 	add	r9, sl, r6, lsl #2
   18f30:	e58d000c 	str	r0, [sp, #12]
   18f34:	e5990004 	ldr	r0, [r9, #4]
   18f38:	ebfff479 	bl	16124 <UsbGetDescription>
   18f3c:	e1a03000 	mov	r3, r0
   18f40:	e59f0278 	ldr	r0, [pc, #632]	; 191c0 <HubPortConnectionChanged+0x31c>
   18f44:	e1a02005 	mov	r2, r5
   18f48:	e59d100c 	ldr	r1, [sp, #12]
   18f4c:	e08f0000 	add	r0, pc, r0
   18f50:	ebffdd94 	bl	105a8 <printf>
   18f54:	e5990004 	ldr	r0, [r9, #4]
   18f58:	ebfff39f 	bl	15ddc <UsbDeallocateDevice>
   18f5c:	e3a02000 	mov	r2, #0
   18f60:	e5dd3014 	ldrb	r3, [sp, #20]
   18f64:	e5892004 	str	r2, [r9, #4]
   18f68:	e3130001 	tst	r3, #1
   18f6c:	0a000051 	beq	190b8 <HubPortConnectionChanged+0x214>
   18f70:	e1a01006 	mov	r1, r6
   18f74:	e1a00004 	mov	r0, r4
   18f78:	ebfffb83 	bl	17d8c <HubPortReset>
   18f7c:	e2509000 	subs	r9, r0, #0
   18f80:	1a000064 	bne	19118 <HubPortConnectionChanged+0x274>
   18f84:	e08a0105 	add	r0, sl, r5, lsl #2
   18f88:	ebfff357 	bl	15cec <UsbAllocateDevice>
   18f8c:	e2509000 	subs	r9, r0, #0
   18f90:	1a00006b 	bne	19144 <HubPortConnectionChanged+0x2a0>
   18f94:	e1a0200b 	mov	r2, fp
   18f98:	e1a01008 	mov	r1, r8
   18f9c:	e5940004 	ldr	r0, [r4, #4]
   18fa0:	ebfffaea 	bl	17b50 <HCDReadHubPortStatus>
   18fa4:	e2509000 	subs	r9, r0, #0
   18fa8:	e1a00004 	mov	r0, r4
   18fac:	1a000074 	bne	19184 <HubPortConnectionChanged+0x2e0>
   18fb0:	ebfff45b 	bl	16124 <UsbGetDescription>
   18fb4:	e1dd31b4 	ldrh	r3, [sp, #20]
   18fb8:	e1ddc1b6 	ldrh	ip, [sp, #22]
   18fbc:	e1a01000 	mov	r1, r0
   18fc0:	e59f01fc 	ldr	r0, [pc, #508]	; 191c4 <HubPortConnectionChanged+0x320>
   18fc4:	e5d42005 	ldrb	r2, [r4, #5]
   18fc8:	e08f0000 	add	r0, pc, r0
   18fcc:	e88d1008 	stm	sp, {r3, ip}
   18fd0:	e1a03006 	mov	r3, r6
   18fd4:	ebffdd73 	bl	105a8 <printf>
   18fd8:	e5dd3015 	ldrb	r3, [sp, #21]
   18fdc:	e3130004 	tst	r3, #4
   18fe0:	1a000060 	bne	19168 <HubPortConnectionChanged+0x2c4>
   18fe4:	e3130002 	tst	r3, #2
   18fe8:	e08a3106 	add	r3, sl, r6, lsl #2
   18fec:	e5930004 	ldr	r0, [r3, #4]
   18ff0:	e5d43005 	ldrb	r3, [r4, #5]
   18ff4:	0a00006c 	beq	191ac <HubPortConnectionChanged+0x308>
   18ff8:	e5d01007 	ldrb	r1, [r0, #7]
   18ffc:	e203207f 	and	r2, r3, #127	; 0x7f
   19000:	e3c110fe 	bic	r1, r1, #254	; 0xfe
   19004:	e1812082 	orr	r2, r1, r2, lsl #1
   19008:	e5c02007 	strb	r2, [r0, #7]
   1900c:	e1d010b6 	ldrh	r1, [r0, #6]
   19010:	e5d02004 	ldrb	r2, [r0, #4]
   19014:	e3c1cf7f 	bic	ip, r1, #508	; 0x1fc
   19018:	e3c22004 	bic	r2, r2, #4
   1901c:	e206107f 	and	r1, r6, #127	; 0x7f
   19020:	e18c1101 	orr	r1, ip, r1, lsl #2
   19024:	e3822008 	orr	r2, r2, #8
   19028:	e1c010b6 	strh	r1, [r0, #6]
   1902c:	e5c02004 	strb	r2, [r0, #4]
   19030:	e5c03000 	strb	r3, [r0]
   19034:	e5c06001 	strb	r6, [r0, #1]
   19038:	e1a02006 	mov	r2, r6
   1903c:	e1a01004 	mov	r1, r4
   19040:	ebfffd8c 	bl	18678 <EnumerateDevice>
   19044:	e2509000 	subs	r9, r0, #0
   19048:	0a00001a 	beq	190b8 <HubPortConnectionChanged+0x214>
   1904c:	e1a00004 	mov	r0, r4
   19050:	ebfff433 	bl	16124 <UsbGetDescription>
   19054:	e1a01000 	mov	r1, r0
   19058:	e59f0168 	ldr	r0, [pc, #360]	; 191c8 <HubPortConnectionChanged+0x324>
   1905c:	e1a02005 	mov	r2, r5
   19060:	e08a6106 	add	r6, sl, r6, lsl #2
   19064:	e08f0000 	add	r0, pc, r0
   19068:	ebffdd4e 	bl	105a8 <printf>
   1906c:	e5960004 	ldr	r0, [r6, #4]
   19070:	ebfff359 	bl	15ddc <UsbDeallocateDevice>
   19074:	e3a03000 	mov	r3, #0
   19078:	e1a02008 	mov	r2, r8
   1907c:	e5863004 	str	r3, [r6, #4]
   19080:	e3a01001 	mov	r1, #1
   19084:	e5940004 	ldr	r0, [r4, #4]
   19088:	ebfffb02 	bl	17c98 <HCDChangeHubPortFeature>
   1908c:	e3500000 	cmp	r0, #0
   19090:	01a07009 	moveq	r7, r9
   19094:	0a000007 	beq	190b8 <HubPortConnectionChanged+0x214>
   19098:	e1a00004 	mov	r0, r4
   1909c:	ebfff420 	bl	16124 <UsbGetDescription>
   190a0:	e1a01000 	mov	r1, r0
   190a4:	e59f0120 	ldr	r0, [pc, #288]	; 191cc <HubPortConnectionChanged+0x328>
   190a8:	e1a02005 	mov	r2, r5
   190ac:	e08f0000 	add	r0, pc, r0
   190b0:	e1a07009 	mov	r7, r9
   190b4:	ebffdd3b 	bl	105a8 <printf>
   190b8:	e1a00007 	mov	r0, r7
   190bc:	e28dd01c 	add	sp, sp, #28
   190c0:	e8bd8ff0 	pop	{r4, r5, r6, r7, r8, r9, sl, fp, pc}
   190c4:	e1a00004 	mov	r0, r4
   190c8:	ebfff415 	bl	16124 <UsbGetDescription>
   190cc:	e1a01000 	mov	r1, r0
   190d0:	e59f00f8 	ldr	r0, [pc, #248]	; 191d0 <HubPortConnectionChanged+0x32c>
   190d4:	e1a02005 	mov	r2, r5
   190d8:	e08f0000 	add	r0, pc, r0
   190dc:	ebffdd31 	bl	105a8 <printf>
   190e0:	e1a00007 	mov	r0, r7
   190e4:	e28dd01c 	add	sp, sp, #28
   190e8:	e8bd8ff0 	pop	{r4, r5, r6, r7, r8, r9, sl, fp, pc}
   190ec:	e1a00004 	mov	r0, r4
   190f0:	ebfff40b 	bl	16124 <UsbGetDescription>
   190f4:	e1a01000 	mov	r1, r0
   190f8:	e59f00d4 	ldr	r0, [pc, #212]	; 191d4 <HubPortConnectionChanged+0x330>
   190fc:	e1a02005 	mov	r2, r5
   19100:	e08f0000 	add	r0, pc, r0
   19104:	ebffdd27 	bl	105a8 <printf>
   19108:	e5dd3014 	ldrb	r3, [sp, #20]
   1910c:	e3130003 	tst	r3, #3
   19110:	1affff7f 	bne	18f14 <HubPortConnectionChanged+0x70>
   19114:	eaffff82 	b	18f24 <HubPortConnectionChanged+0x80>
   19118:	e1a00004 	mov	r0, r4
   1911c:	ebfff400 	bl	16124 <UsbGetDescription>
   19120:	e1a07009 	mov	r7, r9
   19124:	e1a01000 	mov	r1, r0
   19128:	e59f00a8 	ldr	r0, [pc, #168]	; 191d8 <HubPortConnectionChanged+0x334>
   1912c:	e1a02005 	mov	r2, r5
   19130:	e08f0000 	add	r0, pc, r0
   19134:	ebffdd1b 	bl	105a8 <printf>
   19138:	e1a00007 	mov	r0, r7
   1913c:	e28dd01c 	add	sp, sp, #28
   19140:	e8bd8ff0 	pop	{r4, r5, r6, r7, r8, r9, sl, fp, pc}
   19144:	e1a00004 	mov	r0, r4
   19148:	ebfff3f5 	bl	16124 <UsbGetDescription>
   1914c:	e1a01000 	mov	r1, r0
   19150:	e59f0084 	ldr	r0, [pc, #132]	; 191dc <HubPortConnectionChanged+0x338>
   19154:	e1a02005 	mov	r2, r5
   19158:	e08f0000 	add	r0, pc, r0
   1915c:	e1a07009 	mov	r7, r9
   19160:	ebffdd10 	bl	105a8 <printf>
   19164:	eaffffd3 	b	190b8 <HubPortConnectionChanged+0x214>
   19168:	e08a3106 	add	r3, sl, r6, lsl #2
   1916c:	e5930004 	ldr	r0, [r3, #4]
   19170:	e5d03004 	ldrb	r3, [r0, #4]
   19174:	e3c3300c 	bic	r3, r3, #12
   19178:	e5c03004 	strb	r3, [r0, #4]
   1917c:	e5d43005 	ldrb	r3, [r4, #5]
   19180:	eaffffaa 	b	19030 <HubPortConnectionChanged+0x18c>
   19184:	ebfff3e6 	bl	16124 <UsbGetDescription>
   19188:	e1a01000 	mov	r1, r0
   1918c:	e59f004c 	ldr	r0, [pc, #76]	; 191e0 <HubPortConnectionChanged+0x33c>
   19190:	e1a02005 	mov	r2, r5
   19194:	e08f0000 	add	r0, pc, r0
   19198:	e1a07009 	mov	r7, r9
   1919c:	ebffdd01 	bl	105a8 <printf>
   191a0:	eaffffc4 	b	190b8 <HubPortConnectionChanged+0x214>
   191a4:	e3e07003 	mvn	r7, #3
   191a8:	eaffffc2 	b	190b8 <HubPortConnectionChanged+0x214>
   191ac:	e5d02004 	ldrb	r2, [r0, #4]
   191b0:	e3c22008 	bic	r2, r2, #8
   191b4:	e3822004 	orr	r2, r2, #4
   191b8:	e5c02004 	strb	r2, [r0, #4]
   191bc:	eaffff9b 	b	19030 <HubPortConnectionChanged+0x18c>
   191c0:	000038dc 	ldrdeq	r3, [r0], -ip
   191c4:	00003924 	andeq	r3, r0, r4, lsr #18
   191c8:	000038b8 			; <UNDEFINED> instruction: 0x000038b8
   191cc:	000038b0 			; <UNDEFINED> instruction: 0x000038b0
   191d0:	000036f0 	strdeq	r3, [r0], -r0
   191d4:	000036fc 	strdeq	r3, [r0], -ip
   191d8:	0000371c 	andeq	r3, r0, ip, lsl r7
   191dc:	00003724 	andeq	r3, r0, r4, lsr #14
   191e0:	00003724 	andeq	r3, r0, r4, lsr #14

000191e4 <HubCheckConnection>:
   191e4:	e92d43f0 	push	{r4, r5, r6, r7, r8, r9, lr}
   191e8:	e1a04000 	mov	r4, r0
   191ec:	e24dd00c 	sub	sp, sp, #12
   191f0:	e5d00005 	ldrb	r0, [r0, #5]
   191f4:	e1a08001 	mov	r8, r1
   191f8:	ebfff2e1 	bl	15d84 <IsHub>
   191fc:	e3500000 	cmp	r0, #0
   19200:	0a00007b 	beq	193f4 <HubCheckConnection+0x210>
   19204:	e2887001 	add	r7, r8, #1
   19208:	e6ef5077 	uxtb	r5, r7
   1920c:	e1a01005 	mov	r1, r5
   19210:	e28d2004 	add	r2, sp, #4
   19214:	e5940004 	ldr	r0, [r4, #4]
   19218:	e59493f0 	ldr	r9, [r4, #1008]	; 0x3f0
   1921c:	ebfffa4b 	bl	17b50 <HCDReadHubPortStatus>
   19220:	e2506000 	subs	r6, r0, #0
   19224:	1a00000f 	bne	19268 <HubCheckConnection+0x84>
   19228:	e5dd3006 	ldrb	r3, [sp, #6]
   1922c:	e3130001 	tst	r3, #1
   19230:	1a00003f 	bne	19334 <HubCheckConnection+0x150>
   19234:	e3130002 	tst	r3, #2
   19238:	1a000043 	bne	1934c <HubCheckConnection+0x168>
   1923c:	e5dd3004 	ldrb	r3, [sp, #4]
   19240:	e3130004 	tst	r3, #4
   19244:	1a00002b 	bne	192f8 <HubCheckConnection+0x114>
   19248:	e5dd3006 	ldrb	r3, [sp, #6]
   1924c:	e3130008 	tst	r3, #8
   19250:	1a00001f 	bne	192d4 <HubCheckConnection+0xf0>
   19254:	e3130010 	tst	r3, #16
   19258:	1a00000e 	bne	19298 <HubCheckConnection+0xb4>
   1925c:	e1a00006 	mov	r0, r6
   19260:	e28dd00c 	add	sp, sp, #12
   19264:	e8bd83f0 	pop	{r4, r5, r6, r7, r8, r9, pc}
   19268:	e376000b 	cmn	r6, #11
   1926c:	0afffffa 	beq	1925c <HubCheckConnection+0x78>
   19270:	e1a00004 	mov	r0, r4
   19274:	ebfff3aa 	bl	16124 <UsbGetDescription>
   19278:	e1a01000 	mov	r1, r0
   1927c:	e59f0178 	ldr	r0, [pc, #376]	; 193fc <HubCheckConnection+0x218>
   19280:	e1a02007 	mov	r2, r7
   19284:	e08f0000 	add	r0, pc, r0
   19288:	ebffdcc6 	bl	105a8 <printf>
   1928c:	e1a00006 	mov	r0, r6
   19290:	e28dd00c 	add	sp, sp, #12
   19294:	e8bd83f0 	pop	{r4, r5, r6, r7, r8, r9, pc}
   19298:	e1a02005 	mov	r2, r5
   1929c:	e3a03000 	mov	r3, #0
   192a0:	e3a01014 	mov	r1, #20
   192a4:	e5940004 	ldr	r0, [r4, #4]
   192a8:	ebfffa7a 	bl	17c98 <HCDChangeHubPortFeature>
   192ac:	e3500000 	cmp	r0, #0
   192b0:	0affffe9 	beq	1925c <HubCheckConnection+0x78>
   192b4:	e1a00004 	mov	r0, r4
   192b8:	ebfff399 	bl	16124 <UsbGetDescription>
   192bc:	e1a01000 	mov	r1, r0
   192c0:	e59f0138 	ldr	r0, [pc, #312]	; 19400 <HubCheckConnection+0x21c>
   192c4:	e1a02007 	mov	r2, r7
   192c8:	e08f0000 	add	r0, pc, r0
   192cc:	ebffdcb5 	bl	105a8 <printf>
   192d0:	eaffffe1 	b	1925c <HubCheckConnection+0x78>
   192d4:	e3a03000 	mov	r3, #0
   192d8:	e1a02005 	mov	r2, r5
   192dc:	e3a01013 	mov	r1, #19
   192e0:	e5940004 	ldr	r0, [r4, #4]
   192e4:	ebfffa6b 	bl	17c98 <HCDChangeHubPortFeature>
   192e8:	e3500000 	cmp	r0, #0
   192ec:	1a000030 	bne	193b4 <HubCheckConnection+0x1d0>
   192f0:	e5dd3006 	ldrb	r3, [sp, #6]
   192f4:	eaffffd6 	b	19254 <HubCheckConnection+0x70>
   192f8:	e3a03000 	mov	r3, #0
   192fc:	e1a02005 	mov	r2, r5
   19300:	e3a01002 	mov	r1, #2
   19304:	e5940004 	ldr	r0, [r4, #4]
   19308:	ebfffa62 	bl	17c98 <HCDChangeHubPortFeature>
   1930c:	e3500000 	cmp	r0, #0
   19310:	0affffcc 	beq	19248 <HubCheckConnection+0x64>
   19314:	e1a00004 	mov	r0, r4
   19318:	ebfff381 	bl	16124 <UsbGetDescription>
   1931c:	e1a01000 	mov	r1, r0
   19320:	e59f00dc 	ldr	r0, [pc, #220]	; 19404 <HubCheckConnection+0x220>
   19324:	e1a02007 	mov	r2, r7
   19328:	e08f0000 	add	r0, pc, r0
   1932c:	ebffdc9d 	bl	105a8 <printf>
   19330:	eaffffc4 	b	19248 <HubCheckConnection+0x64>
   19334:	e1a01008 	mov	r1, r8
   19338:	e1a00004 	mov	r0, r4
   1933c:	ebfffed8 	bl	18ea4 <HubPortConnectionChanged>
   19340:	e5dd3006 	ldrb	r3, [sp, #6]
   19344:	e3130002 	tst	r3, #2
   19348:	0affffbb 	beq	1923c <HubCheckConnection+0x58>
   1934c:	e3a03000 	mov	r3, #0
   19350:	e1a02005 	mov	r2, r5
   19354:	e3a01011 	mov	r1, #17
   19358:	e5940004 	ldr	r0, [r4, #4]
   1935c:	ebfffa4d 	bl	17c98 <HCDChangeHubPortFeature>
   19360:	e3500000 	cmp	r0, #0
   19364:	1a00001a 	bne	193d4 <HubCheckConnection+0x1f0>
   19368:	e5dd3004 	ldrb	r3, [sp, #4]
   1936c:	e2032003 	and	r2, r3, #3
   19370:	e3520001 	cmp	r2, #1
   19374:	1affffb1 	bne	19240 <HubCheckConnection+0x5c>
   19378:	e0899108 	add	r9, r9, r8, lsl #2
   1937c:	e5992004 	ldr	r2, [r9, #4]
   19380:	e3520000 	cmp	r2, #0
   19384:	0affffad 	beq	19240 <HubCheckConnection+0x5c>
   19388:	e1a00004 	mov	r0, r4
   1938c:	ebfff364 	bl	16124 <UsbGetDescription>
   19390:	e1a01000 	mov	r1, r0
   19394:	e59f006c 	ldr	r0, [pc, #108]	; 19408 <HubCheckConnection+0x224>
   19398:	e1a02007 	mov	r2, r7
   1939c:	e08f0000 	add	r0, pc, r0
   193a0:	ebffdc80 	bl	105a8 <printf>
   193a4:	e1a01008 	mov	r1, r8
   193a8:	e1a00004 	mov	r0, r4
   193ac:	ebfffebc 	bl	18ea4 <HubPortConnectionChanged>
   193b0:	eaffffa1 	b	1923c <HubCheckConnection+0x58>
   193b4:	e1a00004 	mov	r0, r4
   193b8:	ebfff359 	bl	16124 <UsbGetDescription>
   193bc:	e1a01000 	mov	r1, r0
   193c0:	e59f0044 	ldr	r0, [pc, #68]	; 1940c <HubCheckConnection+0x228>
   193c4:	e1a02007 	mov	r2, r7
   193c8:	e08f0000 	add	r0, pc, r0
   193cc:	ebffdc75 	bl	105a8 <printf>
   193d0:	eaffffc6 	b	192f0 <HubCheckConnection+0x10c>
   193d4:	e1a00004 	mov	r0, r4
   193d8:	ebfff351 	bl	16124 <UsbGetDescription>
   193dc:	e1a01000 	mov	r1, r0
   193e0:	e59f0028 	ldr	r0, [pc, #40]	; 19410 <HubCheckConnection+0x22c>
   193e4:	e1a02007 	mov	r2, r7
   193e8:	e08f0000 	add	r0, pc, r0
   193ec:	ebffdc6d 	bl	105a8 <printf>
   193f0:	eaffffdc 	b	19368 <HubCheckConnection+0x184>
   193f4:	e3e06003 	mvn	r6, #3
   193f8:	eaffff97 	b	1925c <HubCheckConnection+0x78>
   193fc:	000036fc 	strdeq	r3, [r0], -ip
   19400:	000037f0 	strdeq	r3, [r0], -r0
   19404:	00003724 	andeq	r3, r0, r4, lsr #14
   19408:	0000364c 	andeq	r3, r0, ip, asr #12
   1940c:	000036b8 			; <UNDEFINED> instruction: 0x000036b8
   19410:	000035d0 	ldrdeq	r3, [r0], -r0

00019414 <HubCheckForChange>:
   19414:	e92d4070 	push	{r4, r5, r6, lr}
   19418:	e1a05000 	mov	r5, r0
   1941c:	e5d00005 	ldrb	r0, [r0, #5]
   19420:	ebfff257 	bl	15d84 <IsHub>
   19424:	e3500000 	cmp	r0, #0
   19428:	08bd8070 	popeq	{r4, r5, r6, pc}
   1942c:	e59533f0 	ldr	r3, [r5, #1008]	; 0x3f0
   19430:	e5933000 	ldr	r3, [r3]
   19434:	e3530000 	cmp	r3, #0
   19438:	08bd8070 	popeq	{r4, r5, r6, pc}
   1943c:	e3a04000 	mov	r4, #0
   19440:	e6ef1074 	uxtb	r1, r4
   19444:	e1a00005 	mov	r0, r5
   19448:	ebffff65 	bl	191e4 <HubCheckConnection>
   1944c:	e3500000 	cmp	r0, #0
   19450:	e59533f0 	ldr	r3, [r5, #1008]	; 0x3f0
   19454:	1a000003 	bne	19468 <HubCheckForChange+0x54>
   19458:	e0832104 	add	r2, r3, r4, lsl #2
   1945c:	e5920004 	ldr	r0, [r2, #4]
   19460:	e3500000 	cmp	r0, #0
   19464:	1a000004 	bne	1947c <HubCheckForChange+0x68>
   19468:	e5933000 	ldr	r3, [r3]
   1946c:	e2844001 	add	r4, r4, #1
   19470:	e1530004 	cmp	r3, r4
   19474:	8afffff1 	bhi	19440 <HubCheckForChange+0x2c>
   19478:	e8bd8070 	pop	{r4, r5, r6, pc}
   1947c:	ebffffe4 	bl	19414 <HubCheckForChange>
   19480:	e59533f0 	ldr	r3, [r5, #1008]	; 0x3f0
   19484:	eafffff7 	b	19468 <HubCheckForChange+0x54>

00019488 <UsbCheckForChange>:
   19488:	e59f3018 	ldr	r3, [pc, #24]	; 194a8 <UsbCheckForChange+0x20>
   1948c:	e59f2018 	ldr	r2, [pc, #24]	; 194ac <UsbCheckForChange+0x24>
   19490:	e08f3003 	add	r3, pc, r3
   19494:	e7930002 	ldr	r0, [r3, r2]
   19498:	e5d033ee 	ldrb	r3, [r0, #1006]	; 0x3ee
   1949c:	e3530000 	cmp	r3, #0
   194a0:	012fff1e 	bxeq	lr
   194a4:	eaffffda 	b	19414 <HubCheckForChange>
   194a8:	000059e8 	andeq	r5, r0, r8, ror #19
   194ac:	0000009c 	muleq	r0, ip, r0

000194b0 <EnumerateHub>:
   194b0:	e92d41f0 	push	{r4, r5, r6, r7, r8, lr}
   194b4:	e24dd020 	sub	sp, sp, #32
   194b8:	e1a07000 	mov	r7, r0
   194bc:	ebfff1e7 	bl	15c60 <AddHubPayload>
   194c0:	e2505000 	subs	r5, r0, #0
   194c4:	1a000059 	bne	19630 <EnumerateHub+0x180>
   194c8:	e59763f0 	ldr	r6, [r7, #1008]	; 0x3f0
   194cc:	e1a00005 	mov	r0, r5
   194d0:	e1a03006 	mov	r3, r6
   194d4:	e2862028 	add	r2, r6, #40	; 0x28
   194d8:	e5a30004 	str	r0, [r3, #4]!
   194dc:	e1520003 	cmp	r2, r3
   194e0:	1afffffc 	bne	194d8 <EnumerateHub+0x28>
   194e4:	e3a00001 	mov	r0, #1
   194e8:	e3a010a0 	mov	r1, #160	; 0xa0
   194ec:	e3a02009 	mov	r2, #9
   194f0:	e3a03000 	mov	r3, #0
   194f4:	e58d0010 	str	r0, [sp, #16]
   194f8:	e58d1008 	str	r1, [sp, #8]
   194fc:	e286002c 	add	r0, r6, #44	; 0x2c
   19500:	e28d1018 	add	r1, sp, #24
   19504:	e58d2004 	str	r2, [sp, #4]
   19508:	e58d100c 	str	r1, [sp, #12]
   1950c:	e58d0000 	str	r0, [sp]
   19510:	e1a02003 	mov	r2, r3
   19514:	e3a01029 	mov	r1, #41	; 0x29
   19518:	e5970004 	ldr	r0, [r7, #4]
   1951c:	ebfffa81 	bl	17f28 <HCDGetDescriptor>
   19520:	e3500000 	cmp	r0, #0
   19524:	1a00004f 	bne	19668 <EnumerateHub+0x1b8>
   19528:	e59d3018 	ldr	r3, [sp, #24]
   1952c:	e3530009 	cmp	r3, #9
   19530:	1a00004c 	bne	19668 <EnumerateHub+0x1b8>
   19534:	e5d6302e 	ldrb	r3, [r6, #46]	; 0x2e
   19538:	e353000a 	cmp	r3, #10
   1953c:	95863000 	strls	r3, [r6]
   19540:	8a000034 	bhi	19618 <EnumerateHub+0x168>
   19544:	e28d201c 	add	r2, sp, #28
   19548:	e3a01000 	mov	r1, #0
   1954c:	e5970004 	ldr	r0, [r7, #4]
   19550:	ebfff97e 	bl	17b50 <HCDReadHubPortStatus>
   19554:	e2505000 	subs	r5, r0, #0
   19558:	1a00003b 	bne	1964c <EnumerateHub+0x19c>
   1955c:	e5963000 	ldr	r3, [r6]
   19560:	e3530000 	cmp	r3, #0
   19564:	0a000017 	beq	195c8 <EnumerateHub+0x118>
   19568:	e59f8110 	ldr	r8, [pc, #272]	; 19680 <EnumerateHub+0x1d0>
   1956c:	e3a04001 	mov	r4, #1
   19570:	e08f8008 	add	r8, pc, r8
   19574:	ea000004 	b	1958c <EnumerateHub+0xdc>
   19578:	e5963000 	ldr	r3, [r6]
   1957c:	e2842001 	add	r2, r4, #1
   19580:	e1530004 	cmp	r3, r4
   19584:	9a00000f 	bls	195c8 <EnumerateHub+0x118>
   19588:	e1a04002 	mov	r4, r2
   1958c:	e3a03001 	mov	r3, #1
   19590:	e6ef2074 	uxtb	r2, r4
   19594:	e3a01008 	mov	r1, #8
   19598:	e5970004 	ldr	r0, [r7, #4]
   1959c:	ebfff9bd 	bl	17c98 <HCDChangeHubPortFeature>
   195a0:	e3500000 	cmp	r0, #0
   195a4:	0afffff3 	beq	19578 <EnumerateHub+0xc8>
   195a8:	e1a02004 	mov	r2, r4
   195ac:	e5d71005 	ldrb	r1, [r7, #5]
   195b0:	e1a00008 	mov	r0, r8
   195b4:	ebffdbfb 	bl	105a8 <printf>
   195b8:	e5963000 	ldr	r3, [r6]
   195bc:	e2842001 	add	r2, r4, #1
   195c0:	e1530004 	cmp	r3, r4
   195c4:	8affffef 	bhi	19588 <EnumerateHub+0xd8>
   195c8:	e5d63031 	ldrb	r3, [r6, #49]	; 0x31
   195cc:	e0630283 	rsb	r0, r3, r3, lsl #5
   195d0:	e0833100 	add	r3, r3, r0, lsl #2
   195d4:	e1a00203 	lsl	r0, r3, #4
   195d8:	e1a01fc0 	asr	r1, r0, #31
   195dc:	ebffda26 	bl	fe7c <timer_wait>
   195e0:	e5963000 	ldr	r3, [r6]
   195e4:	e3530000 	cmp	r3, #0
   195e8:	0a000007 	beq	1960c <EnumerateHub+0x15c>
   195ec:	e3a04000 	mov	r4, #0
   195f0:	e6ef1074 	uxtb	r1, r4
   195f4:	e1a00007 	mov	r0, r7
   195f8:	ebfffef9 	bl	191e4 <HubCheckConnection>
   195fc:	e5963000 	ldr	r3, [r6]
   19600:	e2844001 	add	r4, r4, #1
   19604:	e1530004 	cmp	r3, r4
   19608:	8afffff8 	bhi	195f0 <EnumerateHub+0x140>
   1960c:	e1a00005 	mov	r0, r5
   19610:	e28dd020 	add	sp, sp, #32
   19614:	e8bd81f0 	pop	{r4, r5, r6, r7, r8, pc}
   19618:	e59f0064 	ldr	r0, [pc, #100]	; 19684 <EnumerateHub+0x1d4>
   1961c:	e3a0200a 	mov	r2, #10
   19620:	e5d71005 	ldrb	r1, [r7, #5]
   19624:	e08f0000 	add	r0, pc, r0
   19628:	ebffdbde 	bl	105a8 <printf>
   1962c:	eaffffc4 	b	19544 <EnumerateHub+0x94>
   19630:	e59f0050 	ldr	r0, [pc, #80]	; 19688 <EnumerateHub+0x1d8>
   19634:	e1a01005 	mov	r1, r5
   19638:	e08f0000 	add	r0, pc, r0
   1963c:	ebffdbd9 	bl	105a8 <printf>
   19640:	e1a00005 	mov	r0, r5
   19644:	e28dd020 	add	sp, sp, #32
   19648:	e8bd81f0 	pop	{r4, r5, r6, r7, r8, pc}
   1964c:	e59f0038 	ldr	r0, [pc, #56]	; 1968c <EnumerateHub+0x1dc>
   19650:	e5d71005 	ldrb	r1, [r7, #5]
   19654:	e08f0000 	add	r0, pc, r0
   19658:	ebffdbd2 	bl	105a8 <printf>
   1965c:	e1a00005 	mov	r0, r5
   19660:	e28dd020 	add	sp, sp, #32
   19664:	e8bd81f0 	pop	{r4, r5, r6, r7, r8, pc}
   19668:	e59f0020 	ldr	r0, [pc, #32]	; 19690 <EnumerateHub+0x1e0>
   1966c:	e5d71005 	ldrb	r1, [r7, #5]
   19670:	e08f0000 	add	r0, pc, r0
   19674:	ebffdbcb 	bl	105a8 <printf>
   19678:	e3e05003 	mvn	r5, #3
   1967c:	eaffffe2 	b	1960c <EnumerateHub+0x15c>
   19680:	00003664 	andeq	r3, r0, r4, ror #12
   19684:	00003528 	andeq	r3, r0, r8, lsr #10
   19688:	000034b0 			; <UNDEFINED> instruction: 0x000034b0
   1968c:	00003554 	andeq	r3, r0, r4, asr r5
   19690:	000034a8 	andeq	r3, r0, r8, lsr #9

00019694 <UsbAttachRootHub>:
   19694:	e3a02000 	mov	r2, #0
   19698:	e92d4030 	push	{r4, r5, lr}
   1969c:	e59f5094 	ldr	r5, [pc, #148]	; 19738 <UsbAttachRootHub+0xa4>
   196a0:	e59f3094 	ldr	r3, [pc, #148]	; 1973c <UsbAttachRootHub+0xa8>
   196a4:	e24dd00c 	sub	sp, sp, #12
   196a8:	e08f5005 	add	r5, pc, r5
   196ac:	e58d2004 	str	r2, [sp, #4]
   196b0:	e7954003 	ldr	r4, [r5, r3]
   196b4:	e5d433ee 	ldrb	r3, [r4, #1006]	; 0x3ee
   196b8:	e1530002 	cmp	r3, r2
   196bc:	1a000018 	bne	19724 <UsbAttachRootHub+0x90>
   196c0:	e28d0004 	add	r0, sp, #4
   196c4:	ebfff188 	bl	15cec <UsbAllocateDevice>
   196c8:	e59d2004 	ldr	r2, [sp, #4]
   196cc:	e1a03000 	mov	r3, r0
   196d0:	e1520004 	cmp	r2, r4
   196d4:	1a000015 	bne	19730 <UsbAttachRootHub+0x9c>
   196d8:	e3500000 	cmp	r0, #0
   196dc:	1a00000d 	bne	19718 <UsbAttachRootHub+0x84>
   196e0:	e3a01001 	mov	r1, #1
   196e4:	e5d42004 	ldrb	r2, [r4, #4]
   196e8:	e5c4100e 	strb	r1, [r4, #14]
   196ec:	e3c22008 	bic	r2, r2, #8
   196f0:	e3822007 	orr	r2, r2, #7
   196f4:	e59f1044 	ldr	r1, [pc, #68]	; 19740 <UsbAttachRootHub+0xac>
   196f8:	e5c42004 	strb	r2, [r4, #4]
   196fc:	e795c001 	ldr	ip, [r5, r1]
   19700:	e1a02003 	mov	r2, r3
   19704:	e1a01003 	mov	r1, r3
   19708:	e1a00004 	mov	r0, r4
   1970c:	e5cc3000 	strb	r3, [ip]
   19710:	ebfffbd8 	bl	18678 <EnumerateDevice>
   19714:	e1a03000 	mov	r3, r0
   19718:	e1a00003 	mov	r0, r3
   1971c:	e28dd00c 	add	sp, sp, #12
   19720:	e8bd8030 	pop	{r4, r5, pc}
   19724:	e1a00004 	mov	r0, r4
   19728:	ebfff1ab 	bl	15ddc <UsbDeallocateDevice>
   1972c:	eaffffe3 	b	196c0 <UsbAttachRootHub+0x2c>
   19730:	e3e03005 	mvn	r3, #5
   19734:	eafffff7 	b	19718 <UsbAttachRootHub+0x84>
   19738:	000057d0 	ldrdeq	r5, [r0], -r0
   1973c:	0000009c 	muleq	r0, ip, r0
   19740:	000000c8 	andeq	r0, r0, r8, asr #1

00019744 <UsbInitialise>:
   19744:	e3a020ff 	mov	r2, #255	; 0xff
   19748:	e59f3068 	ldr	r3, [pc, #104]	; 197b8 <UsbInitialise+0x74>
   1974c:	e92d4010 	push	{r4, lr}
   19750:	e08f3003 	add	r3, pc, r3
   19754:	e5832050 	str	r2, [r3, #80]	; 0x50
   19758:	ebfff45b 	bl	168cc <HCDInitialise>
   1975c:	e2504000 	subs	r4, r0, #0
   19760:	1a00000f 	bne	197a4 <UsbInitialise+0x60>
   19764:	ebfff588 	bl	16d8c <HCDStart>
   19768:	e2504000 	subs	r4, r0, #0
   1976c:	1a000007 	bne	19790 <UsbInitialise+0x4c>
   19770:	ebffffc7 	bl	19694 <UsbAttachRootHub>
   19774:	e2504000 	subs	r4, r0, #0
   19778:	0a000007 	beq	1979c <UsbInitialise+0x58>
   1977c:	e59f0038 	ldr	r0, [pc, #56]	; 197bc <UsbInitialise+0x78>
   19780:	e08f0000 	add	r0, pc, r0
   19784:	ebffdb87 	bl	105a8 <printf>
   19788:	e1a00004 	mov	r0, r4
   1978c:	e8bd8010 	pop	{r4, pc}
   19790:	e59f0028 	ldr	r0, [pc, #40]	; 197c0 <UsbInitialise+0x7c>
   19794:	e08f0000 	add	r0, pc, r0
   19798:	ebffdb82 	bl	105a8 <printf>
   1979c:	e1a00004 	mov	r0, r4
   197a0:	e8bd8010 	pop	{r4, pc}
   197a4:	e59f0018 	ldr	r0, [pc, #24]	; 197c4 <UsbInitialise+0x80>
   197a8:	e08f0000 	add	r0, pc, r0
   197ac:	ebffdb7d 	bl	105a8 <printf>
   197b0:	e1a00004 	mov	r0, r4
   197b4:	e8bd8010 	pop	{r4, pc}
   197b8:	0033fb70 	eorseq	pc, r3, r0, ror fp	; <UNPREDICTABLE>
   197bc:	000034cc 	andeq	r3, r0, ip, asr #9
   197c0:	00003494 	muleq	r0, r4, r4
   197c4:	00003458 	andeq	r3, r0, r8, asr r4

000197c8 <HIDReadReport>:
   197c8:	e92d47f0 	push	{r4, r5, r6, r7, r8, r9, sl, lr}
   197cc:	e59f510c 	ldr	r5, [pc, #268]	; 198e0 <HIDReadReport+0x118>
   197d0:	e24dd020 	sub	sp, sp, #32
   197d4:	e08f5005 	add	r5, pc, r5
   197d8:	e595e050 	ldr	lr, [r5, #80]	; 0x50
   197dc:	e1dd74b0 	ldrh	r7, [sp, #64]	; 0x40
   197e0:	e16fcf1e 	clz	ip, lr
   197e4:	e3a06001 	mov	r6, #1
   197e8:	e3a08000 	mov	r8, #0
   197ec:	e3570000 	cmp	r7, #0
   197f0:	13530000 	cmpne	r3, #0
   197f4:	e26cc01f 	rsb	ip, ip, #31
   197f8:	e1a0a002 	mov	sl, r2
   197fc:	e59f20e0 	ldr	r2, [pc, #224]	; 198e4 <HIDReadReport+0x11c>
   19800:	e1ceec16 	bic	lr, lr, r6, lsl ip
   19804:	e58d8014 	str	r8, [sp, #20]
   19808:	e585e050 	str	lr, [r5, #80]	; 0x50
   1980c:	e58d8010 	str	r8, [sp, #16]
   19810:	e5cd6017 	strb	r6, [sp, #23]
   19814:	e08f2002 	add	r2, pc, r2
   19818:	0a00002e 	beq	198d8 <HIDReadReport+0x110>
   1981c:	e2400001 	sub	r0, r0, #1
   19820:	e6ef407c 	uxtb	r4, ip
   19824:	e6efc070 	uxtb	ip, r0
   19828:	e35c001f 	cmp	ip, #31
   1982c:	8a000027 	bhi	198d0 <HIDReadReport+0x108>
   19830:	e59fc0b0 	ldr	ip, [pc, #176]	; 198e8 <HIDReadReport+0x120>
   19834:	e060e300 	rsb	lr, r0, r0, lsl #6
   19838:	e792200c 	ldr	r2, [r2, ip]
   1983c:	e080010e 	add	r0, r0, lr, lsl #2
   19840:	e0820100 	add	r0, r2, r0, lsl #2
   19844:	e5d023ee 	ldrb	r2, [r0, #1006]	; 0x3ee
   19848:	e1520008 	cmp	r2, r8
   1984c:	0a00001f 	beq	198d0 <HIDReadReport+0x108>
   19850:	e3520003 	cmp	r2, #3
   19854:	1a00001b 	bne	198c8 <HIDReadReport+0x100>
   19858:	e590c3f0 	ldr	ip, [r0, #1008]	; 0x3f0
   1985c:	e15c0008 	cmp	ip, r8
   19860:	0a000018 	beq	198c8 <HIDReadReport+0x100>
   19864:	e1a02003 	mov	r2, r3
   19868:	e3a0300a 	mov	r3, #10
   1986c:	e3e0e05e 	mvn	lr, #94	; 0x5e
   19870:	e08cc001 	add	ip, ip, r1
   19874:	e5dc1024 	ldrb	r1, [ip, #36]	; 0x24
   19878:	e58d3004 	str	r3, [sp, #4]
   1987c:	e28d3010 	add	r3, sp, #16
   19880:	e58d3008 	str	r3, [sp, #8]
   19884:	e28d3018 	add	r3, sp, #24
   19888:	e58d3000 	str	r3, [sp]
   1988c:	e5cd4016 	strb	r4, [sp, #22]
   19890:	e1cd11bc 	strh	r1, [sp, #28]
   19894:	e5900004 	ldr	r0, [r0, #4]
   19898:	e1a03007 	mov	r3, r7
   1989c:	e59d1014 	ldr	r1, [sp, #20]
   198a0:	e5cd6019 	strb	r6, [sp, #25]
   198a4:	e1cda1ba 	strh	sl, [sp, #26]
   198a8:	e1cd71be 	strh	r7, [sp, #30]
   198ac:	e5cde018 	strb	lr, [sp, #24]
   198b0:	ebfff7e9 	bl	1785c <HCDSumbitControlMessage>
   198b4:	e595c050 	ldr	ip, [r5, #80]	; 0x50
   198b8:	e18cc416 	orr	ip, ip, r6, lsl r4
   198bc:	e585c050 	str	ip, [r5, #80]	; 0x50
   198c0:	e28dd020 	add	sp, sp, #32
   198c4:	e8bd87f0 	pop	{r4, r5, r6, r7, r8, r9, sl, pc}
   198c8:	e3e0000e 	mvn	r0, #14
   198cc:	eafffffb 	b	198c0 <HIDReadReport+0xf8>
   198d0:	e3e0000b 	mvn	r0, #11
   198d4:	eafffff9 	b	198c0 <HIDReadReport+0xf8>
   198d8:	e3e00001 	mvn	r0, #1
   198dc:	eafffff7 	b	198c0 <HIDReadReport+0xf8>
   198e0:	0033faec 	eorseq	pc, r3, ip, ror #21
   198e4:	00005664 	andeq	r5, r0, r4, ror #12
   198e8:	0000009c 	muleq	r0, ip, r0

000198ec <HIDWriteReport>:
   198ec:	e92d47f0 	push	{r4, r5, r6, r7, r8, r9, sl, lr}
   198f0:	e59f4120 	ldr	r4, [pc, #288]	; 19a18 <HIDWriteReport+0x12c>
   198f4:	e24dd020 	sub	sp, sp, #32
   198f8:	e08f4004 	add	r4, pc, r4
   198fc:	e594e050 	ldr	lr, [r4, #80]	; 0x50
   19900:	e1dd54b0 	ldrh	r5, [sp, #64]	; 0x40
   19904:	e16fcf1e 	clz	ip, lr
   19908:	e3a06001 	mov	r6, #1
   1990c:	e3a08000 	mov	r8, #0
   19910:	e3550000 	cmp	r5, #0
   19914:	13530000 	cmpne	r3, #0
   19918:	e26cc01f 	rsb	ip, ip, #31
   1991c:	e1a09002 	mov	r9, r2
   19920:	e59f20f4 	ldr	r2, [pc, #244]	; 19a1c <HIDWriteReport+0x130>
   19924:	e1ceec16 	bic	lr, lr, r6, lsl ip
   19928:	e584e050 	str	lr, [r4, #80]	; 0x50
   1992c:	e58d8010 	str	r8, [sp, #16]
   19930:	e58d8014 	str	r8, [sp, #20]
   19934:	e08f2002 	add	r2, pc, r2
   19938:	0a000034 	beq	19a10 <HIDWriteReport+0x124>
   1993c:	e2400001 	sub	r0, r0, #1
   19940:	e6ef707c 	uxtb	r7, ip
   19944:	e6efc070 	uxtb	ip, r0
   19948:	e35c001f 	cmp	ip, #31
   1994c:	8a00002d 	bhi	19a08 <HIDWriteReport+0x11c>
   19950:	e59fc0c8 	ldr	ip, [pc, #200]	; 19a20 <HIDWriteReport+0x134>
   19954:	e060e300 	rsb	lr, r0, r0, lsl #6
   19958:	e792200c 	ldr	r2, [r2, ip]
   1995c:	e080010e 	add	r0, r0, lr, lsl #2
   19960:	e0820100 	add	r0, r2, r0, lsl #2
   19964:	e5d023ee 	ldrb	r2, [r0, #1006]	; 0x3ee
   19968:	e1520008 	cmp	r2, r8
   1996c:	0a000025 	beq	19a08 <HIDWriteReport+0x11c>
   19970:	e3520003 	cmp	r2, #3
   19974:	1a000021 	bne	19a00 <HIDWriteReport+0x114>
   19978:	e590c3f0 	ldr	ip, [r0, #1008]	; 0x3f0
   1997c:	e15c0008 	cmp	ip, r8
   19980:	0a00001e 	beq	19a00 <HIDWriteReport+0x114>
   19984:	e3a0a00a 	mov	sl, #10
   19988:	e3a0e009 	mov	lr, #9
   1998c:	e3a08021 	mov	r8, #33	; 0x21
   19990:	e08cc001 	add	ip, ip, r1
   19994:	e28d1010 	add	r1, sp, #16
   19998:	e1a02003 	mov	r2, r3
   1999c:	e5dc3024 	ldrb	r3, [ip, #36]	; 0x24
   199a0:	e58d1008 	str	r1, [sp, #8]
   199a4:	e28d1018 	add	r1, sp, #24
   199a8:	e58d1000 	str	r1, [sp]
   199ac:	e5cd7016 	strb	r7, [sp, #22]
   199b0:	e58da004 	str	sl, [sp, #4]
   199b4:	e1cd31bc 	strh	r3, [sp, #28]
   199b8:	e5900004 	ldr	r0, [r0, #4]
   199bc:	e59d1014 	ldr	r1, [sp, #20]
   199c0:	e1a03005 	mov	r3, r5
   199c4:	e1cd91ba 	strh	r9, [sp, #26]
   199c8:	e1cd51be 	strh	r5, [sp, #30]
   199cc:	e5cd8018 	strb	r8, [sp, #24]
   199d0:	e5cde019 	strb	lr, [sp, #25]
   199d4:	ebfff7a0 	bl	1785c <HCDSumbitControlMessage>
   199d8:	e594c050 	ldr	ip, [r4, #80]	; 0x50
   199dc:	e3500000 	cmp	r0, #0
   199e0:	e18cc716 	orr	ip, ip, r6, lsl r7
   199e4:	e584c050 	str	ip, [r4, #80]	; 0x50
   199e8:	1a000002 	bne	199f8 <HIDWriteReport+0x10c>
   199ec:	e59d0010 	ldr	r0, [sp, #16]
   199f0:	e0500005 	subs	r0, r0, r5
   199f4:	13e00000 	mvnne	r0, #0
   199f8:	e28dd020 	add	sp, sp, #32
   199fc:	e8bd87f0 	pop	{r4, r5, r6, r7, r8, r9, sl, pc}
   19a00:	e3e0000e 	mvn	r0, #14
   19a04:	eafffffb 	b	199f8 <HIDWriteReport+0x10c>
   19a08:	e3e0000b 	mvn	r0, #11
   19a0c:	eafffff9 	b	199f8 <HIDWriteReport+0x10c>
   19a10:	e3e00001 	mvn	r0, #1
   19a14:	eafffff7 	b	199f8 <HIDWriteReport+0x10c>
   19a18:	0033f9c8 	eorseq	pc, r3, r8, asr #19
   19a1c:	00005544 	andeq	r5, r0, r4, asr #10
   19a20:	0000009c 	muleq	r0, ip, r0

00019a24 <HIDSetProtocol>:
   19a24:	e92d40f0 	push	{r4, r5, r6, r7, lr}
   19a28:	e59f50dc 	ldr	r5, [pc, #220]	; 19b0c <HIDSetProtocol+0xe8>
   19a2c:	e3a06001 	mov	r6, #1
   19a30:	e08f5005 	add	r5, pc, r5
   19a34:	e595e050 	ldr	lr, [r5, #80]	; 0x50
   19a38:	e3a03000 	mov	r3, #0
   19a3c:	e16fcf1e 	clz	ip, lr
   19a40:	e26cc01f 	rsb	ip, ip, #31
   19a44:	e1ceec16 	bic	lr, lr, r6, lsl ip
   19a48:	e2400001 	sub	r0, r0, #1
   19a4c:	e585e050 	str	lr, [r5, #80]	; 0x50
   19a50:	e6ef4070 	uxtb	r4, r0
   19a54:	e59fe0b4 	ldr	lr, [pc, #180]	; 19b10 <HIDSetProtocol+0xec>
   19a58:	e24dd024 	sub	sp, sp, #36	; 0x24
   19a5c:	e354001f 	cmp	r4, #31
   19a60:	e58d3014 	str	r3, [sp, #20]
   19a64:	e08fe00e 	add	lr, pc, lr
   19a68:	8a000025 	bhi	19b04 <HIDSetProtocol+0xe0>
   19a6c:	e6ef407c 	uxtb	r4, ip
   19a70:	e59fc09c 	ldr	ip, [pc, #156]	; 19b14 <HIDSetProtocol+0xf0>
   19a74:	e0607300 	rsb	r7, r0, r0, lsl #6
   19a78:	e79ec00c 	ldr	ip, [lr, ip]
   19a7c:	e0800107 	add	r0, r0, r7, lsl #2
   19a80:	e08c0100 	add	r0, ip, r0, lsl #2
   19a84:	e5d0c3ee 	ldrb	ip, [r0, #1006]	; 0x3ee
   19a88:	e15c0003 	cmp	ip, r3
   19a8c:	0a00001c 	beq	19b04 <HIDSetProtocol+0xe0>
   19a90:	e35c0003 	cmp	ip, #3
   19a94:	1a000018 	bne	19afc <HIDSetProtocol+0xd8>
   19a98:	e590c3f0 	ldr	ip, [r0, #1008]	; 0x3f0
   19a9c:	e15c0003 	cmp	ip, r3
   19aa0:	0a000015 	beq	19afc <HIDSetProtocol+0xd8>
   19aa4:	e3a0700a 	mov	r7, #10
   19aa8:	e3a0c00b 	mov	ip, #11
   19aac:	e3a0e021 	mov	lr, #33	; 0x21
   19ab0:	e1cd21ba 	strh	r2, [sp, #26]
   19ab4:	e28d2018 	add	r2, sp, #24
   19ab8:	e58d2000 	str	r2, [sp]
   19abc:	e5cd4016 	strb	r4, [sp, #22]
   19ac0:	e58d3008 	str	r3, [sp, #8]
   19ac4:	e58d7004 	str	r7, [sp, #4]
   19ac8:	e1cd11bc 	strh	r1, [sp, #28]
   19acc:	e5900004 	ldr	r0, [r0, #4]
   19ad0:	e59d1014 	ldr	r1, [sp, #20]
   19ad4:	e1a02003 	mov	r2, r3
   19ad8:	e5cdc019 	strb	ip, [sp, #25]
   19adc:	e1cd31be 	strh	r3, [sp, #30]
   19ae0:	e5cde018 	strb	lr, [sp, #24]
   19ae4:	ebfff75c 	bl	1785c <HCDSumbitControlMessage>
   19ae8:	e595c050 	ldr	ip, [r5, #80]	; 0x50
   19aec:	e18cc416 	orr	ip, ip, r6, lsl r4
   19af0:	e585c050 	str	ip, [r5, #80]	; 0x50
   19af4:	e28dd024 	add	sp, sp, #36	; 0x24
   19af8:	e8bd80f0 	pop	{r4, r5, r6, r7, pc}
   19afc:	e3e0000e 	mvn	r0, #14
   19b00:	eafffffb 	b	19af4 <HIDSetProtocol+0xd0>
   19b04:	e3e0000b 	mvn	r0, #11
   19b08:	eafffff9 	b	19af4 <HIDSetProtocol+0xd0>
   19b0c:	0033f890 	mlaseq	r3, r0, r8, pc	; <UNPREDICTABLE>
   19b10:	00005414 	andeq	r5, r0, r4, lsl r4
   19b14:	0000009c 	muleq	r0, ip, r0

00019b18 <USB_EN_INT>:
   19b18:	e59f2010 	ldr	r2, [pc, #16]	; 19b30 <USB_EN_INT+0x18>
   19b1c:	e59f1010 	ldr	r1, [pc, #16]	; 19b34 <USB_EN_INT+0x1c>
   19b20:	e08f2002 	add	r2, pc, r2
   19b24:	e08f1001 	add	r1, pc, r1
   19b28:	e3a00009 	mov	r0, #9
   19b2c:	eaffbad8 	b	8694 <register_irq_handler>
   19b30:	ffffb6cc 			; <UNDEFINED> instruction: 0xffffb6cc
   19b34:	ffffb6c4 			; <UNDEFINED> instruction: 0xffffb6c4

00019b38 <spi_man_init>:
   19b38:	e92d4010 	push	{r4, lr}
   19b3c:	e3a01001 	mov	r1, #1
   19b40:	e3a00008 	mov	r0, #8
   19b44:	ebffdde4 	bl	112dc <bcm2835_gpio_fsel>
   19b48:	e3a01001 	mov	r1, #1
   19b4c:	e3a0000b 	mov	r0, #11
   19b50:	ebffdde1 	bl	112dc <bcm2835_gpio_fsel>
   19b54:	e3a01001 	mov	r1, #1
   19b58:	e3a0000a 	mov	r0, #10
   19b5c:	ebffddde 	bl	112dc <bcm2835_gpio_fsel>
   19b60:	e3a01000 	mov	r1, #0
   19b64:	e3a00009 	mov	r0, #9
   19b68:	ebffdddb 	bl	112dc <bcm2835_gpio_fsel>
   19b6c:	e3a01000 	mov	r1, #0
   19b70:	e3a0000b 	mov	r0, #11
   19b74:	ebffdd3b 	bl	11068 <bcm2835_gpio_write>
   19b78:	e8bd4010 	pop	{r4, lr}
   19b7c:	e3a01001 	mov	r1, #1
   19b80:	e3a0000a 	mov	r0, #10
   19b84:	eaffdd37 	b	11068 <bcm2835_gpio_write>

00019b88 <spi_man_send>:
   19b88:	e92d4070 	push	{r4, r5, r6, lr}
   19b8c:	e3a01000 	mov	r1, #0
   19b90:	e1a05000 	mov	r5, r0
   19b94:	e3a0000b 	mov	r0, #11
   19b98:	ebffdd32 	bl	11068 <bcm2835_gpio_write>
   19b9c:	e3a04008 	mov	r4, #8
   19ba0:	e3150080 	tst	r5, #128	; 0x80
   19ba4:	13a01001 	movne	r1, #1
   19ba8:	03a01000 	moveq	r1, #0
   19bac:	e3a0000a 	mov	r0, #10
   19bb0:	ebffdd2c 	bl	11068 <bcm2835_gpio_write>
   19bb4:	e3a01000 	mov	r1, #0
   19bb8:	e3a0000b 	mov	r0, #11
   19bbc:	ebffdd29 	bl	11068 <bcm2835_gpio_write>
   19bc0:	e3a00001 	mov	r0, #1
   19bc4:	ebffdcb0 	bl	10e8c <Delayus>
   19bc8:	e3a01001 	mov	r1, #1
   19bcc:	e3a0000b 	mov	r0, #11
   19bd0:	ebffdd24 	bl	11068 <bcm2835_gpio_write>
   19bd4:	e3a00001 	mov	r0, #1
   19bd8:	ebffdcab 	bl	10e8c <Delayus>
   19bdc:	e2443001 	sub	r3, r4, #1
   19be0:	e1a05085 	lsl	r5, r5, #1
   19be4:	e21340ff 	ands	r4, r3, #255	; 0xff
   19be8:	e6ef5075 	uxtb	r5, r5
   19bec:	1affffeb 	bne	19ba0 <spi_man_send+0x18>
   19bf0:	e8bd8070 	pop	{r4, r5, r6, pc}

00019bf4 <spi_man_get>:
   19bf4:	e92d4070 	push	{r4, r5, r6, lr}
   19bf8:	e3a0400c 	mov	r4, #12
   19bfc:	e3a05000 	mov	r5, #0
   19c00:	e3a01001 	mov	r1, #1
   19c04:	e3a0000b 	mov	r0, #11
   19c08:	ebffdd16 	bl	11068 <bcm2835_gpio_write>
   19c0c:	e3a00001 	mov	r0, #1
   19c10:	ebffdc9d 	bl	10e8c <Delayus>
   19c14:	e3a01000 	mov	r1, #0
   19c18:	e3a0000b 	mov	r0, #11
   19c1c:	ebffdd11 	bl	11068 <bcm2835_gpio_write>
   19c20:	e3a00001 	mov	r0, #1
   19c24:	ebffdc98 	bl	10e8c <Delayus>
   19c28:	e3a00009 	mov	r0, #9
   19c2c:	ebffdd17 	bl	11090 <bcm2835_gpio_lev>
   19c30:	e1a05085 	lsl	r5, r5, #1
   19c34:	e3500001 	cmp	r0, #1
   19c38:	e2443001 	sub	r3, r4, #1
   19c3c:	02855001 	addeq	r5, r5, #1
   19c40:	e21340ff 	ands	r4, r3, #255	; 0xff
   19c44:	1affffed 	bne	19c00 <spi_man_get+0xc>
   19c48:	e1a00005 	mov	r0, r5
   19c4c:	e8bd8070 	pop	{r4, r5, r6, pc}

00019c50 <spi_man8_send>:
   19c50:	e92d4010 	push	{r4, lr}
   19c54:	e3a01000 	mov	r1, #0
   19c58:	e3a0000b 	mov	r0, #11
   19c5c:	ebffdd01 	bl	11068 <bcm2835_gpio_write>
   19c60:	e3a04008 	mov	r4, #8
   19c64:	e3a01001 	mov	r1, #1
   19c68:	e3a0000a 	mov	r0, #10
   19c6c:	ebffdcfd 	bl	11068 <bcm2835_gpio_write>
   19c70:	e3a01000 	mov	r1, #0
   19c74:	e3a0000b 	mov	r0, #11
   19c78:	ebffdcfa 	bl	11068 <bcm2835_gpio_write>
   19c7c:	e3a01001 	mov	r1, #1
   19c80:	e3a0000b 	mov	r0, #11
   19c84:	ebffdcf7 	bl	11068 <bcm2835_gpio_write>
   19c88:	e2441001 	sub	r1, r4, #1
   19c8c:	e21140ff 	ands	r4, r1, #255	; 0xff
   19c90:	1afffff3 	bne	19c64 <spi_man8_send+0x14>
   19c94:	e1a01004 	mov	r1, r4
   19c98:	e8bd4010 	pop	{r4, lr}
   19c9c:	e3a0000b 	mov	r0, #11
   19ca0:	eaffdcf0 	b	11068 <bcm2835_gpio_write>

00019ca4 <spi_man8_get>:
   19ca4:	e92d4070 	push	{r4, r5, r6, lr}
   19ca8:	e3a01000 	mov	r1, #0
   19cac:	e3a0000b 	mov	r0, #11
   19cb0:	ebffdcec 	bl	11068 <bcm2835_gpio_write>
   19cb4:	e3a05008 	mov	r5, #8
   19cb8:	e3a04000 	mov	r4, #0
   19cbc:	e3a01000 	mov	r1, #0
   19cc0:	e3a0000b 	mov	r0, #11
   19cc4:	ebffdce7 	bl	11068 <bcm2835_gpio_write>
   19cc8:	e3a01001 	mov	r1, #1
   19ccc:	e3a0000b 	mov	r0, #11
   19cd0:	ebffdce4 	bl	11068 <bcm2835_gpio_write>
   19cd4:	e3a00009 	mov	r0, #9
   19cd8:	ebffdcec 	bl	11090 <bcm2835_gpio_lev>
   19cdc:	e1a04084 	lsl	r4, r4, #1
   19ce0:	e3500001 	cmp	r0, #1
   19ce4:	e6ef4074 	uxtb	r4, r4
   19ce8:	02844001 	addeq	r4, r4, #1
   19cec:	e2451001 	sub	r1, r5, #1
   19cf0:	06ef4074 	uxtbeq	r4, r4
   19cf4:	e21150ff 	ands	r5, r1, #255	; 0xff
   19cf8:	1affffef 	bne	19cbc <spi_man8_get+0x18>
   19cfc:	e1a01005 	mov	r1, r5
   19d00:	e3a0000b 	mov	r0, #11
   19d04:	ebffdcd7 	bl	11068 <bcm2835_gpio_write>
   19d08:	e1a00004 	mov	r0, r4
   19d0c:	e8bd8070 	pop	{r4, r5, r6, pc}

00019d10 <mmio_write>:
   19d10:	e5801000 	str	r1, [r0]
   19d14:	e12fff1e 	bx	lr

00019d18 <mmio_read>:
   19d18:	e5900000 	ldr	r0, [r0]
   19d1c:	e12fff1e 	bx	lr

00019d20 <delaycyles>:
   19d20:	e2500001 	subs	r0, r0, #1
   19d24:	1afffffd 	bne	19d20 <delaycyles>
   19d28:	e12fff1e 	bx	lr

00019d2c <uart_init>:
   19d2c:	e3a01004 	mov	r1, #4
   19d30:	e92d4070 	push	{r4, r5, r6, lr}
   19d34:	e59f50d8 	ldr	r5, [pc, #216]	; 19e14 <uart_init+0xe8>
   19d38:	e24dd008 	sub	sp, sp, #8
   19d3c:	e08d0001 	add	r0, sp, r1
   19d40:	ebffdb39 	bl	10a2c <bzero>
   19d44:	e59f40cc 	ldr	r4, [pc, #204]	; 19e18 <uart_init+0xec>
   19d48:	e1a00005 	mov	r0, r5
   19d4c:	e59d1004 	ldr	r1, [sp, #4]
   19d50:	ebffffee 	bl	19d10 <mmio_write>
   19d54:	e59f60c0 	ldr	r6, [pc, #192]	; 19e1c <uart_init+0xf0>
   19d58:	e3a01000 	mov	r1, #0
   19d5c:	e59f00bc 	ldr	r0, [pc, #188]	; 19e20 <uart_init+0xf4>
   19d60:	ebffffea 	bl	19d10 <mmio_write>
   19d64:	e1a00004 	mov	r0, r4
   19d68:	ebffffec 	bl	19d20 <delaycyles>
   19d6c:	e1a00006 	mov	r0, r6
   19d70:	e3a01903 	mov	r1, #49152	; 0xc000
   19d74:	ebffffe5 	bl	19d10 <mmio_write>
   19d78:	e1a00004 	mov	r0, r4
   19d7c:	ebffffe7 	bl	19d20 <delaycyles>
   19d80:	e1a00006 	mov	r0, r6
   19d84:	e3a01000 	mov	r1, #0
   19d88:	ebffffe0 	bl	19d10 <mmio_write>
   19d8c:	e1a00004 	mov	r0, r4
   19d90:	ebffffe2 	bl	19d20 <delaycyles>
   19d94:	e3a01004 	mov	r1, #4
   19d98:	e3a0000e 	mov	r0, #14
   19d9c:	ebffdd4e 	bl	112dc <bcm2835_gpio_fsel>
   19da0:	e3a01004 	mov	r1, #4
   19da4:	e3a0000f 	mov	r0, #15
   19da8:	ebffdd4b 	bl	112dc <bcm2835_gpio_fsel>
   19dac:	e59f1070 	ldr	r1, [pc, #112]	; 19e24 <uart_init+0xf8>
   19db0:	e59f0070 	ldr	r0, [pc, #112]	; 19e28 <uart_init+0xfc>
   19db4:	ebffffd5 	bl	19d10 <mmio_write>
   19db8:	e3a01002 	mov	r1, #2
   19dbc:	e59f0068 	ldr	r0, [pc, #104]	; 19e2c <uart_init+0x100>
   19dc0:	ebffffd2 	bl	19d10 <mmio_write>
   19dc4:	e3a01011 	mov	r1, #17
   19dc8:	e59f0060 	ldr	r0, [pc, #96]	; 19e30 <uart_init+0x104>
   19dcc:	ebffffcf 	bl	19d10 <mmio_write>
   19dd0:	e3a01070 	mov	r1, #112	; 0x70
   19dd4:	e59f0058 	ldr	r0, [pc, #88]	; 19e34 <uart_init+0x108>
   19dd8:	ebffffcc 	bl	19d10 <mmio_write>
   19ddc:	e59f1054 	ldr	r1, [pc, #84]	; 19e38 <uart_init+0x10c>
   19de0:	e59f0054 	ldr	r0, [pc, #84]	; 19e3c <uart_init+0x110>
   19de4:	ebffffc9 	bl	19d10 <mmio_write>
   19de8:	e5dd2004 	ldrb	r2, [sp, #4]
   19dec:	e5dd3005 	ldrb	r3, [sp, #5]
   19df0:	e3822001 	orr	r2, r2, #1
   19df4:	e3833003 	orr	r3, r3, #3
   19df8:	e5cd2004 	strb	r2, [sp, #4]
   19dfc:	e5cd3005 	strb	r3, [sp, #5]
   19e00:	e1a00005 	mov	r0, r5
   19e04:	e59d1004 	ldr	r1, [sp, #4]
   19e08:	ebffffc0 	bl	19d10 <mmio_write>
   19e0c:	e28dd008 	add	sp, sp, #8
   19e10:	e8bd8070 	pop	{r4, r5, r6, pc}
   19e14:	20201030 	eorcs	r1, r0, r0, lsr r0
   19e18:	0000028a 	andeq	r0, r0, sl, lsl #5
   19e1c:	20200098 	mlacs	r0, r8, r0, r0
   19e20:	20200094 	mlacs	r0, r4, r0, r0
   19e24:	000007ff 	strdeq	r0, [r0], -pc	; <UNPREDICTABLE>
   19e28:	20201044 	eorcs	r1, r0, r4, asr #32
   19e2c:	20201024 	eorcs	r1, r0, r4, lsr #32
   19e30:	20201028 	eorcs	r1, r0, r8, lsr #32
   19e34:	2020102c 	eorcs	r1, r0, ip, lsr #32
   19e38:	000007f2 	strdeq	r0, [r0], -r2
   19e3c:	20201038 	eorcs	r1, r0, r8, lsr r0

00019e40 <read_flags>:
   19e40:	e92d4010 	push	{r4, lr}
   19e44:	e59f0004 	ldr	r0, [pc, #4]	; 19e50 <read_flags+0x10>
   19e48:	ebffffb2 	bl	19d18 <mmio_read>
   19e4c:	e8bd8010 	pop	{r4, pc}
   19e50:	20201018 	eorcs	r1, r0, r8, lsl r0

00019e54 <uart_putc>:
   19e54:	e92d4010 	push	{r4, lr}
   19e58:	e1a04000 	mov	r4, r0
   19e5c:	ebfffff7 	bl	19e40 <read_flags>
   19e60:	e3100020 	tst	r0, #32
   19e64:	1afffffc 	bne	19e5c <uart_putc+0x8>
   19e68:	e1a01004 	mov	r1, r4
   19e6c:	e8bd4010 	pop	{r4, lr}
   19e70:	e59f0000 	ldr	r0, [pc]	; 19e78 <uart_putc+0x24>
   19e74:	eaffffa5 	b	19d10 <mmio_write>
   19e78:	20201000 	eorcs	r1, r0, r0

00019e7c <uart_getc>:
   19e7c:	e92d4010 	push	{r4, lr}
   19e80:	ebffffee 	bl	19e40 <read_flags>
   19e84:	e3100010 	tst	r0, #16
   19e88:	1afffffc 	bne	19e80 <uart_getc+0x4>
   19e8c:	e59f0008 	ldr	r0, [pc, #8]	; 19e9c <uart_getc+0x20>
   19e90:	ebffffa0 	bl	19d18 <mmio_read>
   19e94:	e6ef0070 	uxtb	r0, r0
   19e98:	e8bd8010 	pop	{r4, pc}
   19e9c:	20201000 	eorcs	r1, r0, r0

00019ea0 <getc>:
   19ea0:	eafffff5 	b	19e7c <uart_getc>

00019ea4 <putc>:
   19ea4:	eaffffea 	b	19e54 <uart_putc>

00019ea8 <puts>:
   19ea8:	e92d4010 	push	{r4, lr}
   19eac:	e1a04000 	mov	r4, r0
   19eb0:	e5d00000 	ldrb	r0, [r0]
   19eb4:	e3500000 	cmp	r0, #0
   19eb8:	08bd8010 	popeq	{r4, pc}
   19ebc:	ebfffff8 	bl	19ea4 <putc>
   19ec0:	e5f40001 	ldrb	r0, [r4, #1]!
   19ec4:	e3500000 	cmp	r0, #0
   19ec8:	1afffffb 	bne	19ebc <puts+0x14>
   19ecc:	e8bd8010 	pop	{r4, pc}

00019ed0 <gets>:
   19ed0:	e92d41f0 	push	{r4, r5, r6, r7, r8, lr}
   19ed4:	e1a08000 	mov	r8, r0
   19ed8:	e1a05001 	mov	r5, r1
   19edc:	e2407001 	sub	r7, r0, #1
   19ee0:	e3a06000 	mov	r6, #0
   19ee4:	ea000005 	b	19f00 <gets+0x30>
   19ee8:	e3550001 	cmp	r5, #1
   19eec:	da00000d 	ble	19f28 <gets+0x58>
   19ef0:	ebffffeb 	bl	19ea4 <putc>
   19ef4:	e2866001 	add	r6, r6, #1
   19ef8:	e5e74001 	strb	r4, [r7, #1]!
   19efc:	e2455001 	sub	r5, r5, #1
   19f00:	ebffffe6 	bl	19ea0 <getc>
   19f04:	e350000d 	cmp	r0, #13
   19f08:	e1a04000 	mov	r4, r0
   19f0c:	1afffff5 	bne	19ee8 <gets+0x18>
   19f10:	e3a0000a 	mov	r0, #10
   19f14:	ebffffe2 	bl	19ea4 <putc>
   19f18:	e3a03000 	mov	r3, #0
   19f1c:	e0885005 	add	r5, r8, r5
   19f20:	e5453001 	strb	r3, [r5, #-1]
   19f24:	e8bd81f0 	pop	{r4, r5, r6, r7, r8, pc}
   19f28:	e3a0000a 	mov	r0, #10
   19f2c:	ebffffdc 	bl	19ea4 <putc>
   19f30:	e354000a 	cmp	r4, #10
   19f34:	1afffff7 	bne	19f18 <gets+0x48>
   19f38:	e3a03000 	mov	r3, #0
   19f3c:	e7c83006 	strb	r3, [r8, r6]
   19f40:	e8bd81f0 	pop	{r4, r5, r6, r7, r8, pc}

00019f44 <disk_initialize>:
   19f44:	e3500000 	cmp	r0, #0
   19f48:	e92d4010 	push	{r4, lr}
   19f4c:	0a000003 	beq	19f60 <disk_initialize+0x1c>
   19f50:	e59f302c 	ldr	r3, [pc, #44]	; 19f84 <disk_initialize+0x40>
   19f54:	e08f3003 	add	r3, pc, r3
   19f58:	e5d30000 	ldrb	r0, [r3]
   19f5c:	e8bd8010 	pop	{r4, pc}
   19f60:	eb0001d2 	bl	1a6b0 <sd_card_init>
   19f64:	e3500000 	cmp	r0, #0
   19f68:	1afffff8 	bne	19f50 <disk_initialize+0xc>
   19f6c:	e59f2014 	ldr	r2, [pc, #20]	; 19f88 <disk_initialize+0x44>
   19f70:	e08f2002 	add	r2, pc, r2
   19f74:	e5d23000 	ldrb	r3, [r2]
   19f78:	e20330fe 	and	r3, r3, #254	; 0xfe
   19f7c:	e5c23000 	strb	r3, [r2]
   19f80:	eafffff2 	b	19f50 <disk_initialize+0xc>
   19f84:	00004f20 	andeq	r4, r0, r0, lsr #30
   19f88:	00004f04 	andeq	r4, r0, r4, lsl #30

00019f8c <disk_read>:
   19f8c:	e16fcf13 	clz	ip, r3
   19f90:	e3500000 	cmp	r0, #0
   19f94:	e1a0c2ac 	lsr	ip, ip, #5
   19f98:	01a0000c 	moveq	r0, ip
   19f9c:	13a00001 	movne	r0, #1
   19fa0:	e3500000 	cmp	r0, #0
   19fa4:	1a00000f 	bne	19fe8 <disk_read+0x5c>
   19fa8:	e59f0040 	ldr	r0, [pc, #64]	; 19ff0 <disk_read+0x64>
   19fac:	e08f0000 	add	r0, pc, r0
   19fb0:	e5d00000 	ldrb	r0, [r0]
   19fb4:	e3100001 	tst	r0, #1
   19fb8:	1a000008 	bne	19fe0 <disk_read+0x54>
   19fbc:	e92d4010 	push	{r4, lr}
   19fc0:	e1a04483 	lsl	r4, r3, #9
   19fc4:	e1a00001 	mov	r0, r1
   19fc8:	e1a01004 	mov	r1, r4
   19fcc:	eb0002fe 	bl	1abcc <sd_read>
   19fd0:	e1540000 	cmp	r4, r0
   19fd4:	d3a00000 	movle	r0, #0
   19fd8:	c3a00001 	movgt	r0, #1
   19fdc:	e8bd8010 	pop	{r4, pc}
   19fe0:	e3a00003 	mov	r0, #3
   19fe4:	e12fff1e 	bx	lr
   19fe8:	e3a00004 	mov	r0, #4
   19fec:	e12fff1e 	bx	lr
   19ff0:	00004ec8 	andeq	r4, r0, r8, asr #29

00019ff4 <disk_write>:
   19ff4:	e3a00000 	mov	r0, #0
   19ff8:	e12fff1e 	bx	lr

00019ffc <disk_status>:
   19ffc:	e3500000 	cmp	r0, #0
   1a000:	1a000004 	bne	1a018 <disk_status+0x1c>
   1a004:	e59f3014 	ldr	r3, [pc, #20]	; 1a020 <disk_status+0x24>
   1a008:	e08f3003 	add	r3, pc, r3
   1a00c:	e5d30000 	ldrb	r0, [r3]
   1a010:	e6ef0070 	uxtb	r0, r0
   1a014:	e12fff1e 	bx	lr
   1a018:	e3a00001 	mov	r0, #1
   1a01c:	e12fff1e 	bx	lr
   1a020:	00004e6c 	andeq	r4, r0, ip, ror #28

0001a024 <disk_ioctl>:
   1a024:	e2510000 	subs	r0, r1, #0
   1a028:	012fff1e 	bxeq	lr
   1a02c:	e2401002 	sub	r1, r0, #2
   1a030:	e3510001 	cmp	r1, #1
   1a034:	93a03c02 	movls	r3, #512	; 0x200
   1a038:	83a00004 	movhi	r0, #4
   1a03c:	95823000 	strls	r3, [r2]
   1a040:	93a00000 	movls	r0, #0
   1a044:	e12fff1e 	bx	lr

0001a048 <emmc_reset_cmd>:
   1a048:	e92d4010 	push	{r4, lr}
   1a04c:	e59f405c 	ldr	r4, [pc, #92]	; 1a0b0 <emmc_reset_cmd+0x68>
   1a050:	e59f005c 	ldr	r0, [pc, #92]	; 1a0b4 <emmc_reset_cmd+0x6c>
   1a054:	e594302c 	ldr	r3, [r4, #44]	; 0x2c
   1a058:	e3a01000 	mov	r1, #0
   1a05c:	e3833402 	orr	r3, r3, #33554432	; 0x2000000
   1a060:	e584302c 	str	r3, [r4, #44]	; 0x2c
   1a064:	ebffd784 	bl	fe7c <timer_wait>
   1a068:	e594402c 	ldr	r4, [r4, #44]	; 0x2c
   1a06c:	e59f3044 	ldr	r3, [pc, #68]	; 1a0b8 <emmc_reset_cmd+0x70>
   1a070:	e2044402 	and	r4, r4, #33554432	; 0x2000000
   1a074:	ea000001 	b	1a080 <emmc_reset_cmd+0x38>
   1a078:	e2533001 	subs	r3, r3, #1
   1a07c:	0a000009 	beq	1a0a8 <emmc_reset_cmd+0x60>
   1a080:	e3540000 	cmp	r4, #0
   1a084:	1afffffb 	bne	1a078 <emmc_reset_cmd+0x30>
   1a088:	e3a02801 	mov	r2, #65536	; 0x10000
   1a08c:	e59f301c 	ldr	r3, [pc, #28]	; 1a0b0 <emmc_reset_cmd+0x68>
   1a090:	e59f001c 	ldr	r0, [pc, #28]	; 1a0b4 <emmc_reset_cmd+0x6c>
   1a094:	e3a01000 	mov	r1, #0
   1a098:	e5832030 	str	r2, [r3, #48]	; 0x30
   1a09c:	ebffd776 	bl	fe7c <timer_wait>
   1a0a0:	e1a00004 	mov	r0, r4
   1a0a4:	e8bd8010 	pop	{r4, pc}
   1a0a8:	e3e00000 	mvn	r0, #0
   1a0ac:	e8bd8010 	pop	{r4, pc}
   1a0b0:	20300000 	eorscs	r0, r0, r0
   1a0b4:	000003e9 	andeq	r0, r0, r9, ror #7
   1a0b8:	000f4240 	andeq	r4, pc, r0, asr #4

0001a0bc <emmc_reset_dat>:
   1a0bc:	e92d4010 	push	{r4, lr}
   1a0c0:	e59f4038 	ldr	r4, [pc, #56]	; 1a100 <emmc_reset_dat+0x44>
   1a0c4:	e59f0038 	ldr	r0, [pc, #56]	; 1a104 <emmc_reset_dat+0x48>
   1a0c8:	e594302c 	ldr	r3, [r4, #44]	; 0x2c
   1a0cc:	e3a01000 	mov	r1, #0
   1a0d0:	e3833301 	orr	r3, r3, #67108864	; 0x4000000
   1a0d4:	e584302c 	str	r3, [r4, #44]	; 0x2c
   1a0d8:	ebffd767 	bl	fe7c <timer_wait>
   1a0dc:	e594002c 	ldr	r0, [r4, #44]	; 0x2c
   1a0e0:	e59f3020 	ldr	r3, [pc, #32]	; 1a108 <emmc_reset_dat+0x4c>
   1a0e4:	e2000301 	and	r0, r0, #67108864	; 0x4000000
   1a0e8:	e3500000 	cmp	r0, #0
   1a0ec:	08bd8010 	popeq	{r4, pc}
   1a0f0:	e2533001 	subs	r3, r3, #1
   1a0f4:	1afffffb 	bne	1a0e8 <emmc_reset_dat+0x2c>
   1a0f8:	e3e00000 	mvn	r0, #0
   1a0fc:	e8bd8010 	pop	{r4, pc}
   1a100:	20300000 	eorscs	r0, r0, r0
   1a104:	000003e9 	andeq	r0, r0, r9, ror #7
   1a108:	000f4240 	andeq	r4, pc, r0, asr #4

0001a10c <emmc_issue_command>:
   1a10c:	e92d41f0 	push	{r4, r5, r6, r7, r8, lr}
   1a110:	e3a0e000 	mov	lr, #0
   1a114:	e59f3248 	ldr	r3, [pc, #584]	; 1a364 <emmc_issue_command+0x258>
   1a118:	e59f2248 	ldr	r2, [pc, #584]	; 1a368 <emmc_issue_command+0x25c>
   1a11c:	e593c024 	ldr	ip, [r3, #36]	; 0x24
   1a120:	e08f2002 	add	r2, pc, r2
   1a124:	e5820024 	str	r0, [r2, #36]	; 0x24
   1a128:	e20c3001 	and	r3, ip, #1
   1a12c:	e582e02c 	str	lr, [r2, #44]	; 0x2c
   1a130:	e3530000 	cmp	r3, #0
   1a134:	1afffffd 	bne	1a130 <emmc_issue_command+0x24>
   1a138:	e2006803 	and	r6, r0, #196608	; 0x30000
   1a13c:	e3560803 	cmp	r6, #196608	; 0x30000
   1a140:	0a000019 	beq	1a1ac <emmc_issue_command+0xa0>
   1a144:	e59f5220 	ldr	r5, [pc, #544]	; 1a36c <emmc_issue_command+0x260>
   1a148:	e08f5005 	add	r5, pc, r5
   1a14c:	e5953044 	ldr	r3, [r5, #68]	; 0x44
   1a150:	e3530801 	cmp	r3, #65536	; 0x10000
   1a154:	a8bd81f0 	popge	{r4, r5, r6, r7, r8, pc}
   1a158:	e5952048 	ldr	r2, [r5, #72]	; 0x48
   1a15c:	e59f7200 	ldr	r7, [pc, #512]	; 1a364 <emmc_issue_command+0x258>
   1a160:	e1823803 	orr	r3, r2, r3, lsl #16
   1a164:	e5873004 	str	r3, [r7, #4]
   1a168:	e5871008 	str	r1, [r7, #8]
   1a16c:	e587000c 	str	r0, [r7, #12]
   1a170:	e3a01000 	mov	r1, #0
   1a174:	e1a04000 	mov	r4, r0
   1a178:	e59f01f0 	ldr	r0, [pc, #496]	; 1a370 <emmc_issue_command+0x264>
   1a17c:	ebffd73e 	bl	fe7c <timer_wait>
   1a180:	e5973030 	ldr	r3, [r7, #48]	; 0x30
   1a184:	e59f21e8 	ldr	r2, [pc, #488]	; 1a374 <emmc_issue_command+0x268>
   1a188:	e0031002 	and	r1, r3, r2
   1a18c:	e3510001 	cmp	r1, #1
   1a190:	e5872030 	str	r2, [r7, #48]	; 0x30
   1a194:	0a00000b 	beq	1a1c8 <emmc_issue_command+0xbc>
   1a198:	e1a02823 	lsr	r2, r3, #16
   1a19c:	e1a02802 	lsl	r2, r2, #16
   1a1a0:	e5853014 	str	r3, [r5, #20]
   1a1a4:	e5852018 	str	r2, [r5, #24]
   1a1a8:	e8bd81f0 	pop	{r4, r5, r6, r7, r8, pc}
   1a1ac:	e2003503 	and	r3, r0, #12582912	; 0xc00000
   1a1b0:	e3530503 	cmp	r3, #12582912	; 0xc00000
   1a1b4:	0affffe2 	beq	1a144 <emmc_issue_command+0x38>
   1a1b8:	e20cc002 	and	ip, ip, #2
   1a1bc:	e35c0000 	cmp	ip, #0
   1a1c0:	1afffffd 	bne	1a1bc <emmc_issue_command+0xb0>
   1a1c4:	eaffffde 	b	1a144 <emmc_issue_command+0x38>
   1a1c8:	e3560802 	cmp	r6, #131072	; 0x20000
   1a1cc:	e2043602 	and	r3, r4, #2097152	; 0x200000
   1a1d0:	0a000052 	beq	1a320 <emmc_issue_command+0x214>
   1a1d4:	e3560803 	cmp	r6, #196608	; 0x30000
   1a1d8:	0a000050 	beq	1a320 <emmc_issue_command+0x214>
   1a1dc:	e3560801 	cmp	r6, #65536	; 0x10000
   1a1e0:	0a000047 	beq	1a304 <emmc_issue_command+0x1f8>
   1a1e4:	e3530000 	cmp	r3, #0
   1a1e8:	0a000037 	beq	1a2cc <emmc_issue_command+0x1c0>
   1a1ec:	e59f3184 	ldr	r3, [pc, #388]	; 1a378 <emmc_issue_command+0x26c>
   1a1f0:	e2040010 	and	r0, r4, #16
   1a1f4:	e08f3003 	add	r3, pc, r3
   1a1f8:	e5937044 	ldr	r7, [r3, #68]	; 0x44
   1a1fc:	e3500000 	cmp	r0, #0
   1a200:	03a0e001 	moveq	lr, #1
   1a204:	13a0e000 	movne	lr, #0
   1a208:	13a06020 	movne	r6, #32
   1a20c:	03a06010 	moveq	r6, #16
   1a210:	e3570000 	cmp	r7, #0
   1a214:	e5930040 	ldr	r0, [r3, #64]	; 0x40
   1a218:	da000019 	ble	1a284 <emmc_issue_command+0x178>
   1a21c:	e1e05806 	mvn	r5, r6, lsl #16
   1a220:	e3a04000 	mov	r4, #0
   1a224:	e1e05825 	mvn	r5, r5, lsr #16
   1a228:	e593c048 	ldr	ip, [r3, #72]	; 0x48
   1a22c:	e59f1130 	ldr	r1, [pc, #304]	; 1a364 <emmc_issue_command+0x258>
   1a230:	e5913030 	ldr	r3, [r1, #48]	; 0x30
   1a234:	e5815030 	str	r5, [r1, #48]	; 0x30
   1a238:	e0032005 	and	r2, r3, r5
   1a23c:	e1520006 	cmp	r2, r6
   1a240:	1a00003c 	bne	1a338 <emmc_issue_command+0x22c>
   1a244:	e35c0000 	cmp	ip, #0
   1a248:	11a03000 	movne	r3, r0
   1a24c:	0a000009 	beq	1a278 <emmc_issue_command+0x16c>
   1a250:	e35e0000 	cmp	lr, #0
   1a254:	05912020 	ldreq	r2, [r1, #32]
   1a258:	15932000 	ldrne	r2, [r3]
   1a25c:	05832000 	streq	r2, [r3]
   1a260:	e2833004 	add	r3, r3, #4
   1a264:	15812020 	strne	r2, [r1, #32]
   1a268:	e0432000 	sub	r2, r3, r0
   1a26c:	e152000c 	cmp	r2, ip
   1a270:	3afffff6 	bcc	1a250 <emmc_issue_command+0x144>
   1a274:	e1a00003 	mov	r0, r3
   1a278:	e2844001 	add	r4, r4, #1
   1a27c:	e1540007 	cmp	r4, r7
   1a280:	1affffea 	bne	1a230 <emmc_issue_command+0x124>
   1a284:	e59f30d8 	ldr	r3, [pc, #216]	; 1a364 <emmc_issue_command+0x258>
   1a288:	e5932024 	ldr	r2, [r3, #36]	; 0x24
   1a28c:	e3120002 	tst	r2, #2
   1a290:	0a000013 	beq	1a2e4 <emmc_issue_command+0x1d8>
   1a294:	e5932030 	ldr	r2, [r3, #48]	; 0x30
   1a298:	e59f10dc 	ldr	r1, [pc, #220]	; 1a37c <emmc_issue_command+0x270>
   1a29c:	e59f00dc 	ldr	r0, [pc, #220]	; 1a380 <emmc_issue_command+0x274>
   1a2a0:	e0011002 	and	r1, r1, r2
   1a2a4:	e3510002 	cmp	r1, #2
   1a2a8:	e5830030 	str	r0, [r3, #48]	; 0x30
   1a2ac:	0a00000f 	beq	1a2f0 <emmc_issue_command+0x1e4>
   1a2b0:	e59f30cc 	ldr	r3, [pc, #204]	; 1a384 <emmc_issue_command+0x278>
   1a2b4:	e1a01822 	lsr	r1, r2, #16
   1a2b8:	e08f3003 	add	r3, pc, r3
   1a2bc:	e1a01801 	lsl	r1, r1, #16
   1a2c0:	e5831018 	str	r1, [r3, #24]
   1a2c4:	e5832014 	str	r2, [r3, #20]
   1a2c8:	e8bd81f0 	pop	{r4, r5, r6, r7, r8, pc}
   1a2cc:	e3560803 	cmp	r6, #196608	; 0x30000
   1a2d0:	1a000006 	bne	1a2f0 <emmc_issue_command+0x1e4>
   1a2d4:	e59f3088 	ldr	r3, [pc, #136]	; 1a364 <emmc_issue_command+0x258>
   1a2d8:	e5932024 	ldr	r2, [r3, #36]	; 0x24
   1a2dc:	e3120002 	tst	r2, #2
   1a2e0:	1a00001b 	bne	1a354 <emmc_issue_command+0x248>
   1a2e4:	e59f3078 	ldr	r3, [pc, #120]	; 1a364 <emmc_issue_command+0x258>
   1a2e8:	e59f2090 	ldr	r2, [pc, #144]	; 1a380 <emmc_issue_command+0x274>
   1a2ec:	e5832030 	str	r2, [r3, #48]	; 0x30
   1a2f0:	e3a02001 	mov	r2, #1
   1a2f4:	e59f308c 	ldr	r3, [pc, #140]	; 1a388 <emmc_issue_command+0x27c>
   1a2f8:	e08f3003 	add	r3, pc, r3
   1a2fc:	e583202c 	str	r2, [r3, #44]	; 0x2c
   1a300:	e8bd81f0 	pop	{r4, r5, r6, r7, r8, pc}
   1a304:	e3530000 	cmp	r3, #0
   1a308:	e1c701d0 	ldrd	r0, [r7, #16]
   1a30c:	e1c721d8 	ldrd	r2, [r7, #24]
   1a310:	e1c503f0 	strd	r0, [r5, #48]	; 0x30
   1a314:	e1c523f8 	strd	r2, [r5, #56]	; 0x38
   1a318:	0afffff4 	beq	1a2f0 <emmc_issue_command+0x1e4>
   1a31c:	eaffffb2 	b	1a1ec <emmc_issue_command+0xe0>
   1a320:	e59f103c 	ldr	r1, [pc, #60]	; 1a364 <emmc_issue_command+0x258>
   1a324:	e59f2060 	ldr	r2, [pc, #96]	; 1a38c <emmc_issue_command+0x280>
   1a328:	e5911010 	ldr	r1, [r1, #16]
   1a32c:	e08f2002 	add	r2, pc, r2
   1a330:	e5821030 	str	r1, [r2, #48]	; 0x30
   1a334:	eaffffaa 	b	1a1e4 <emmc_issue_command+0xd8>
   1a338:	e59f2050 	ldr	r2, [pc, #80]	; 1a390 <emmc_issue_command+0x284>
   1a33c:	e1a01823 	lsr	r1, r3, #16
   1a340:	e08f2002 	add	r2, pc, r2
   1a344:	e1a01801 	lsl	r1, r1, #16
   1a348:	e5821018 	str	r1, [r2, #24]
   1a34c:	e5823014 	str	r3, [r2, #20]
   1a350:	e8bd81f0 	pop	{r4, r5, r6, r7, r8, pc}
   1a354:	e59f1024 	ldr	r1, [pc, #36]	; 1a380 <emmc_issue_command+0x274>
   1a358:	e5932030 	ldr	r2, [r3, #48]	; 0x30
   1a35c:	e5831030 	str	r1, [r3, #48]	; 0x30
   1a360:	eaffffd2 	b	1a2b0 <emmc_issue_command+0x1a4>
   1a364:	20300000 	eorscs	r0, r0, r0
   1a368:	003496b8 	ldrhteq	r9, [r4], -r8
   1a36c:	00349690 	mlaseq	r4, r0, r6, r9
   1a370:	000003e9 	andeq	r0, r0, r9, ror #7
   1a374:	ffff0001 			; <UNDEFINED> instruction: 0xffff0001
   1a378:	003495e4 	eorseq	r9, r4, r4, ror #11
   1a37c:	ffef0002 			; <UNDEFINED> instruction: 0xffef0002
   1a380:	ffff0002 			; <UNDEFINED> instruction: 0xffff0002
   1a384:	00349520 	eorseq	r9, r4, r0, lsr #10
   1a388:	003494e0 	eorseq	r9, r4, r0, ror #9
   1a38c:	003494ac 	eorseq	r9, r4, ip, lsr #9
   1a390:	00349498 	mlaseq	r4, r8, r4, r9

0001a394 <emmc_set_clock>:
   1a394:	e59f312c 	ldr	r3, [pc, #300]	; 1a4c8 <emmc_set_clock+0x134>
   1a398:	e92d41f0 	push	{r4, r5, r6, r7, r8, lr}
   1a39c:	e08f3003 	add	r3, pc, r3
   1a3a0:	e5933050 	ldr	r3, [r3, #80]	; 0x50
   1a3a4:	e1500003 	cmp	r0, r3
   1a3a8:	83a00001 	movhi	r0, #1
   1a3ac:	8a000004 	bhi	1a3c4 <emmc_set_clock+0x30>
   1a3b0:	e1a01000 	mov	r1, r0
   1a3b4:	e1a00003 	mov	r0, r3
   1a3b8:	ebffb740 	bl	80c0 <__aeabi_uidivmod>
   1a3bc:	e3510000 	cmp	r1, #0
   1a3c0:	12800001 	addne	r0, r0, #1
   1a3c4:	e3a0301f 	mov	r3, #31
   1a3c8:	e3a01001 	mov	r1, #1
   1a3cc:	ea000001 	b	1a3d8 <emmc_set_clock+0x44>
   1a3d0:	e2533001 	subs	r3, r3, #1
   1a3d4:	3a000007 	bcc	1a3f8 <emmc_set_clock+0x64>
   1a3d8:	e1a02311 	lsl	r2, r1, r3
   1a3dc:	e1120000 	tst	r2, r0
   1a3e0:	0afffffa 	beq	1a3d0 <emmc_set_clock+0x3c>
   1a3e4:	e1d04002 	bics	r4, r0, r2
   1a3e8:	0a000027 	beq	1a48c <emmc_set_clock+0xf8>
   1a3ec:	e2833001 	add	r3, r3, #1
   1a3f0:	e3530020 	cmp	r3, #32
   1a3f4:	1a000026 	bne	1a494 <emmc_set_clock+0x100>
   1a3f8:	e59f40cc 	ldr	r4, [pc, #204]	; 1a4cc <emmc_set_clock+0x138>
   1a3fc:	e59f20cc 	ldr	r2, [pc, #204]	; 1a4d0 <emmc_set_clock+0x13c>
   1a400:	e59f30cc 	ldr	r3, [pc, #204]	; 1a4d4 <emmc_set_clock+0x140>
   1a404:	e5925024 	ldr	r5, [r2, #36]	; 0x24
   1a408:	e2055001 	and	r5, r5, #1
   1a40c:	ea000001 	b	1a418 <emmc_set_clock+0x84>
   1a410:	e2533001 	subs	r3, r3, #1
   1a414:	0a00001a 	beq	1a484 <emmc_set_clock+0xf0>
   1a418:	e3550000 	cmp	r5, #0
   1a41c:	1afffffb 	bne	1a410 <emmc_set_clock+0x7c>
   1a420:	e59f70a8 	ldr	r7, [pc, #168]	; 1a4d0 <emmc_set_clock+0x13c>
   1a424:	e59f00ac 	ldr	r0, [pc, #172]	; 1a4d8 <emmc_set_clock+0x144>
   1a428:	e597602c 	ldr	r6, [r7, #44]	; 0x2c
   1a42c:	e3a01000 	mov	r1, #0
   1a430:	e3c63004 	bic	r3, r6, #4
   1a434:	e587302c 	str	r3, [r7, #44]	; 0x2c
   1a438:	ebffd68f 	bl	fe7c <timer_wait>
   1a43c:	e3c60cff 	bic	r0, r6, #65280	; 0xff00
   1a440:	e3c000e4 	bic	r0, r0, #228	; 0xe4
   1a444:	e1804004 	orr	r4, r0, r4
   1a448:	e587402c 	str	r4, [r7, #44]	; 0x2c
   1a44c:	e59f0084 	ldr	r0, [pc, #132]	; 1a4d8 <emmc_set_clock+0x144>
   1a450:	e3a01000 	mov	r1, #0
   1a454:	e3844004 	orr	r4, r4, #4
   1a458:	ebffd687 	bl	fe7c <timer_wait>
   1a45c:	e587402c 	str	r4, [r7, #44]	; 0x2c
   1a460:	e59f0070 	ldr	r0, [pc, #112]	; 1a4d8 <emmc_set_clock+0x144>
   1a464:	e3a01000 	mov	r1, #0
   1a468:	ebffd683 	bl	fe7c <timer_wait>
   1a46c:	e597202c 	ldr	r2, [r7, #44]	; 0x2c
   1a470:	e59f305c 	ldr	r3, [pc, #92]	; 1a4d4 <emmc_set_clock+0x140>
   1a474:	e3120002 	tst	r2, #2
   1a478:	1a000010 	bne	1a4c0 <emmc_set_clock+0x12c>
   1a47c:	e2533001 	subs	r3, r3, #1
   1a480:	1afffffd 	bne	1a47c <emmc_set_clock+0xe8>
   1a484:	e3e00000 	mvn	r0, #0
   1a488:	e8bd81f0 	pop	{r4, r5, r6, r7, r8, pc}
   1a48c:	e3530000 	cmp	r3, #0
   1a490:	0affffd9 	beq	1a3fc <emmc_set_clock+0x68>
   1a494:	e3a02001 	mov	r2, #1
   1a498:	e59f103c 	ldr	r1, [pc, #60]	; 1a4dc <emmc_set_clock+0x148>
   1a49c:	e2433001 	sub	r3, r3, #1
   1a4a0:	e1a03312 	lsl	r3, r2, r3
   1a4a4:	e1530001 	cmp	r3, r1
   1a4a8:	a1a03001 	movge	r3, r1
   1a4ac:	e1a02403 	lsl	r2, r3, #8
   1a4b0:	e6ff2072 	uxth	r2, r2
   1a4b4:	e1a03443 	asr	r3, r3, #8
   1a4b8:	e1824303 	orr	r4, r2, r3, lsl #6
   1a4bc:	eaffffce 	b	1a3fc <emmc_set_clock+0x68>
   1a4c0:	e1a00005 	mov	r0, r5
   1a4c4:	e8bd81f0 	pop	{r4, r5, r6, r7, r8, pc}
   1a4c8:	0034943c 	eorseq	r9, r4, ip, lsr r4
   1a4cc:	0000ffc0 	andeq	pc, r0, r0, asr #31
   1a4d0:	20300000 	eorscs	r0, r0, r0
   1a4d4:	000f4240 	andeq	r4, pc, r0, asr #4
   1a4d8:	000003e9 	andeq	r0, r0, r9, ror #7
   1a4dc:	000003ff 	strdeq	r0, [r0], -pc	; <UNPREDICTABLE>

0001a4e0 <sd_issue_command>:
   1a4e0:	e59f3198 	ldr	r3, [pc, #408]	; 1a680 <sd_issue_command+0x1a0>
   1a4e4:	e92d47f0 	push	{r4, r5, r6, r7, r8, r9, sl, lr}
   1a4e8:	e5935030 	ldr	r5, [r3, #48]	; 0x30
   1a4ec:	e59f7190 	ldr	r7, [pc, #400]	; 1a684 <sd_issue_command+0x1a4>
   1a4f0:	e2054001 	and	r4, r5, #1
   1a4f4:	e3150002 	tst	r5, #2
   1a4f8:	13844002 	orrne	r4, r4, #2
   1a4fc:	e3150004 	tst	r5, #4
   1a500:	13844004 	orrne	r4, r4, #4
   1a504:	e3150008 	tst	r5, #8
   1a508:	13844008 	orrne	r4, r4, #8
   1a50c:	e3150010 	tst	r5, #16
   1a510:	e08f7007 	add	r7, pc, r7
   1a514:	e1a06000 	mov	r6, r0
   1a518:	e1a09001 	mov	r9, r1
   1a51c:	e1a08002 	mov	r8, r2
   1a520:	1a000037 	bne	1a604 <sd_issue_command+0x124>
   1a524:	e3150020 	tst	r5, #32
   1a528:	1a000032 	bne	1a5f8 <sd_issue_command+0x118>
   1a52c:	e3150040 	tst	r5, #64	; 0x40
   1a530:	13844040 	orrne	r4, r4, #64	; 0x40
   1a534:	e3150080 	tst	r5, #128	; 0x80
   1a538:	0a000004 	beq	1a550 <sd_issue_command+0x70>
   1a53c:	e3a02001 	mov	r2, #1
   1a540:	e59f3140 	ldr	r3, [pc, #320]	; 1a688 <sd_issue_command+0x1a8>
   1a544:	e3844080 	orr	r4, r4, #128	; 0x80
   1a548:	e08f3003 	add	r3, pc, r3
   1a54c:	e583204c 	str	r2, [r3, #76]	; 0x4c
   1a550:	e3150c01 	tst	r5, #256	; 0x100
   1a554:	0a000005 	beq	1a570 <sd_issue_command+0x90>
   1a558:	e59f312c 	ldr	r3, [pc, #300]	; 1a68c <sd_issue_command+0x1ac>
   1a55c:	e08f3003 	add	r3, pc, r3
   1a560:	e5931010 	ldr	r1, [r3, #16]
   1a564:	e3510000 	cmp	r1, #0
   1a568:	1a00003f 	bne	1a66c <sd_issue_command+0x18c>
   1a56c:	e3844c01 	orr	r4, r4, #256	; 0x100
   1a570:	e3150902 	tst	r5, #32768	; 0x8000
   1a574:	11e04804 	mvnne	r4, r4, lsl #16
   1a578:	e3e01000 	mvn	r1, #0
   1a57c:	11e04824 	mvnne	r4, r4, lsr #16
   1a580:	e3a02001 	mov	r2, #1
   1a584:	e59f30f4 	ldr	r3, [pc, #244]	; 1a680 <sd_issue_command+0x1a0>
   1a588:	e59f5100 	ldr	r5, [pc, #256]	; 1a690 <sd_issue_command+0x1b0>
   1a58c:	e5831034 	str	r1, [r3, #52]	; 0x34
   1a590:	e5834030 	str	r4, [r3, #48]	; 0x30
   1a594:	e5832038 	str	r2, [r3, #56]	; 0x38
   1a598:	e08f5005 	add	r5, pc, r5
   1a59c:	e59f00f0 	ldr	r0, [pc, #240]	; 1a694 <sd_issue_command+0x1b4>
   1a5a0:	e3a01000 	mov	r1, #0
   1a5a4:	ebffd634 	bl	fe7c <timer_wait>
   1a5a8:	e595304c 	ldr	r3, [r5, #76]	; 0x4c
   1a5ac:	e3530000 	cmp	r3, #0
   1a5b0:	1a00000b 	bne	1a5e4 <sd_issue_command+0x104>
   1a5b4:	e3560000 	cmp	r6, #0
   1a5b8:	ba000014 	blt	1a610 <sd_issue_command+0x130>
   1a5bc:	e59f30d4 	ldr	r3, [pc, #212]	; 1a698 <sd_issue_command+0x1b8>
   1a5c0:	e7973003 	ldr	r3, [r7, r3]
   1a5c4:	e7930106 	ldr	r0, [r3, r6, lsl #2]
   1a5c8:	e3700001 	cmn	r0, #1
   1a5cc:	0a000004 	beq	1a5e4 <sd_issue_command+0x104>
   1a5d0:	e1a02008 	mov	r2, r8
   1a5d4:	e1a01009 	mov	r1, r9
   1a5d8:	e5856028 	str	r6, [r5, #40]	; 0x28
   1a5dc:	e8bd47f0 	pop	{r4, r5, r6, r7, r8, r9, sl, lr}
   1a5e0:	eafffec9 	b	1a10c <emmc_issue_command>
   1a5e4:	e3a02000 	mov	r2, #0
   1a5e8:	e59f30ac 	ldr	r3, [pc, #172]	; 1a69c <sd_issue_command+0x1bc>
   1a5ec:	e08f3003 	add	r3, pc, r3
   1a5f0:	e583202c 	str	r2, [r3, #44]	; 0x2c
   1a5f4:	e8bd87f0 	pop	{r4, r5, r6, r7, r8, r9, sl, pc}
   1a5f8:	e3844020 	orr	r4, r4, #32
   1a5fc:	ebfffeae 	bl	1a0bc <emmc_reset_dat>
   1a600:	eaffffc9 	b	1a52c <sd_issue_command+0x4c>
   1a604:	e3844010 	orr	r4, r4, #16
   1a608:	ebfffeab 	bl	1a0bc <emmc_reset_dat>
   1a60c:	eaffffc4 	b	1a524 <sd_issue_command+0x44>
   1a610:	e59f3088 	ldr	r3, [pc, #136]	; 1a6a0 <sd_issue_command+0x1c0>
   1a614:	e6ef6076 	uxtb	r6, r6
   1a618:	e08f3003 	add	r3, pc, r3
   1a61c:	e7934106 	ldr	r4, [r3, r6, lsl #2]
   1a620:	e3740001 	cmn	r4, #1
   1a624:	0affffee 	beq	1a5e4 <sd_issue_command+0x104>
   1a628:	e3a03037 	mov	r3, #55	; 0x37
   1a62c:	e5951010 	ldr	r1, [r5, #16]
   1a630:	e1a02008 	mov	r2, r8
   1a634:	e1a01801 	lsl	r1, r1, #16
   1a638:	e59f0064 	ldr	r0, [pc, #100]	; 1a6a4 <sd_issue_command+0x1c4>
   1a63c:	e5853028 	str	r3, [r5, #40]	; 0x28
   1a640:	ebfffeb1 	bl	1a10c <emmc_issue_command>
   1a644:	e595302c 	ldr	r3, [r5, #44]	; 0x2c
   1a648:	e3530000 	cmp	r3, #0
   1a64c:	08bd87f0 	popeq	{r4, r5, r6, r7, r8, r9, sl, pc}
   1a650:	e3866102 	orr	r6, r6, #-2147483648	; 0x80000000
   1a654:	e1a02008 	mov	r2, r8
   1a658:	e1a01009 	mov	r1, r9
   1a65c:	e1a00004 	mov	r0, r4
   1a660:	e5856028 	str	r6, [r5, #40]	; 0x28
   1a664:	e8bd47f0 	pop	{r4, r5, r6, r7, r8, r9, sl, lr}
   1a668:	eafffea7 	b	1a10c <emmc_issue_command>
   1a66c:	e1a01801 	lsl	r1, r1, #16
   1a670:	e59f2030 	ldr	r2, [pc, #48]	; 1a6a8 <sd_issue_command+0x1c8>
   1a674:	e59f0030 	ldr	r0, [pc, #48]	; 1a6ac <sd_issue_command+0x1cc>
   1a678:	ebfffea3 	bl	1a10c <emmc_issue_command>
   1a67c:	eaffffba 	b	1a56c <sd_issue_command+0x8c>
   1a680:	20300000 	eorscs	r0, r0, r0
   1a684:	00004968 	andeq	r4, r0, r8, ror #18
   1a688:	00349290 	mlaseq	r4, r0, r2, r9
   1a68c:	0034927c 	eorseq	r9, r4, ip, ror r2
   1a690:	00349240 	eorseq	r9, r4, r0, asr #4
   1a694:	000003e9 	andeq	r0, r0, r9, ror #7
   1a698:	00000038 	andeq	r0, r0, r8, lsr r0
   1a69c:	003491ec 	eorseq	r9, r4, ip, ror #3
   1a6a0:	00000f08 	andeq	r0, r0, r8, lsl #30
   1a6a4:	370a0000 	strcc	r0, [sl, -r0]
   1a6a8:	0007a120 	andeq	sl, r7, r0, lsr #2
   1a6ac:	0d0a0000 	stceq	0, cr0, [sl, #-0]

0001a6b0 <sd_card_init>:
   1a6b0:	e59f34d0 	ldr	r3, [pc, #1232]	; 1ab88 <sd_card_init+0x4d8>
   1a6b4:	e5d330fe 	ldrb	r3, [r3, #254]	; 0xfe
   1a6b8:	e3530001 	cmp	r3, #1
   1a6bc:	9a00012f 	bls	1ab80 <sd_card_init+0x4d0>
   1a6c0:	e92d41f0 	push	{r4, r5, r6, r7, r8, lr}
   1a6c4:	e3a01020 	mov	r1, #32
   1a6c8:	e3a04a07 	mov	r4, #28672	; 0x7000
   1a6cc:	e3a03001 	mov	r3, #1
   1a6d0:	e3a05000 	mov	r5, #0
   1a6d4:	e3a06008 	mov	r6, #8
   1a6d8:	e3a02004 	mov	r2, #4
   1a6dc:	e5841000 	str	r1, [r4]
   1a6e0:	e59f14a4 	ldr	r1, [pc, #1188]	; 1ab8c <sd_card_init+0x4dc>
   1a6e4:	e5845004 	str	r5, [r4, #4]
   1a6e8:	e1a00006 	mov	r0, r6
   1a6ec:	e5841008 	str	r1, [r4, #8]
   1a6f0:	e584600c 	str	r6, [r4, #12]
   1a6f4:	e1a01004 	mov	r1, r4
   1a6f8:	e5842010 	str	r2, [r4, #16]
   1a6fc:	e5843014 	str	r3, [r4, #20]
   1a700:	e5845018 	str	r5, [r4, #24]
   1a704:	e584501c 	str	r5, [r4, #28]
   1a708:	ebffd601 	bl	ff14 <mbox_write>
   1a70c:	e1a00006 	mov	r0, r6
   1a710:	ebffd5e9 	bl	febc <mbox_read>
   1a714:	e5943004 	ldr	r3, [r4, #4]
   1a718:	e3530102 	cmp	r3, #-2147483648	; 0x80000000
   1a71c:	1a000082 	bne	1a92c <sd_card_init+0x27c>
   1a720:	e5943014 	ldr	r3, [r4, #20]
   1a724:	e3530001 	cmp	r3, #1
   1a728:	1a000074 	bne	1a900 <sd_card_init+0x250>
   1a72c:	e5945018 	ldr	r5, [r4, #24]
   1a730:	e3a01000 	mov	r1, #0
   1a734:	e59f444c 	ldr	r4, [pc, #1100]	; 1ab88 <sd_card_init+0x4d8>
   1a738:	e59f3450 	ldr	r3, [pc, #1104]	; 1ab90 <sd_card_init+0x4e0>
   1a73c:	e594202c 	ldr	r2, [r4, #44]	; 0x2c
   1a740:	e5841028 	str	r1, [r4, #40]	; 0x28
   1a744:	e3822401 	orr	r2, r2, #16777216	; 0x1000000
   1a748:	e584202c 	str	r2, [r4, #44]	; 0x2c
   1a74c:	e584103c 	str	r1, [r4, #60]	; 0x3c
   1a750:	e08f3003 	add	r3, pc, r3
   1a754:	e59f0438 	ldr	r0, [pc, #1080]	; 1ab94 <sd_card_init+0x4e4>
   1a758:	e3a01000 	mov	r1, #0
   1a75c:	e5835050 	str	r5, [r3, #80]	; 0x50
   1a760:	ebffd5c5 	bl	fe7c <timer_wait>
   1a764:	e594202c 	ldr	r2, [r4, #44]	; 0x2c
   1a768:	e59f3428 	ldr	r3, [pc, #1064]	; 1ab98 <sd_card_init+0x4e8>
   1a76c:	e2024401 	and	r4, r2, #16777216	; 0x1000000
   1a770:	ea000001 	b	1a77c <sd_card_init+0xcc>
   1a774:	e2533001 	subs	r3, r3, #1
   1a778:	0a00005e 	beq	1a8f8 <sd_card_init+0x248>
   1a77c:	e3540000 	cmp	r4, #0
   1a780:	1afffffb 	bne	1a774 <sd_card_init+0xc4>
   1a784:	e382380e 	orr	r3, r2, #917504	; 0xe0000
   1a788:	e59f53f8 	ldr	r5, [pc, #1016]	; 1ab88 <sd_card_init+0x4d8>
   1a78c:	e3833001 	orr	r3, r3, #1
   1a790:	e585302c 	str	r3, [r5, #44]	; 0x2c
   1a794:	e3a01000 	mov	r1, #0
   1a798:	e59f03f4 	ldr	r0, [pc, #1012]	; 1ab94 <sd_card_init+0x4e4>
   1a79c:	ebffd5b6 	bl	fe7c <timer_wait>
   1a7a0:	e59f03f4 	ldr	r0, [pc, #1012]	; 1ab9c <sd_card_init+0x4ec>
   1a7a4:	ebfffefa 	bl	1a394 <emmc_set_clock>
   1a7a8:	e3e02000 	mvn	r2, #0
   1a7ac:	e3e03c01 	mvn	r3, #256	; 0x100
   1a7b0:	e5854038 	str	r4, [r5, #56]	; 0x38
   1a7b4:	e1c523f0 	strd	r2, [r5, #48]	; 0x30
   1a7b8:	e3a01000 	mov	r1, #0
   1a7bc:	e59f03d0 	ldr	r0, [pc, #976]	; 1ab94 <sd_card_init+0x4e4>
   1a7c0:	ebffd5ad 	bl	fe7c <timer_wait>
   1a7c4:	e59f33d4 	ldr	r3, [pc, #980]	; 1aba0 <sd_card_init+0x4f0>
   1a7c8:	e1a02004 	mov	r2, r4
   1a7cc:	e08f3003 	add	r3, pc, r3
   1a7d0:	e1a04003 	mov	r4, r3
   1a7d4:	e2831050 	add	r1, r3, #80	; 0x50
   1a7d8:	e4c32001 	strb	r2, [r3], #1
   1a7dc:	e1530001 	cmp	r3, r1
   1a7e0:	1afffffc 	bne	1a7d8 <sd_card_init+0x128>
   1a7e4:	e3a01000 	mov	r1, #0
   1a7e8:	e3a03c02 	mov	r3, #512	; 0x200
   1a7ec:	e1a00001 	mov	r0, r1
   1a7f0:	e59f23ac 	ldr	r2, [pc, #940]	; 1aba4 <sd_card_init+0x4f4>
   1a7f4:	e5843000 	str	r3, [r4]
   1a7f8:	ebffff38 	bl	1a4e0 <sd_issue_command>
   1a7fc:	e594302c 	ldr	r3, [r4, #44]	; 0x2c
   1a800:	e3530000 	cmp	r3, #0
   1a804:	0a00003b 	beq	1a8f8 <sd_card_init+0x248>
   1a808:	e59f5398 	ldr	r5, [pc, #920]	; 1aba8 <sd_card_init+0x4f8>
   1a80c:	e59f2390 	ldr	r2, [pc, #912]	; 1aba4 <sd_card_init+0x4f4>
   1a810:	e1a01005 	mov	r1, r5
   1a814:	e3a00008 	mov	r0, #8
   1a818:	ebffff30 	bl	1a4e0 <sd_issue_command>
   1a81c:	e594302c 	ldr	r3, [r4, #44]	; 0x2c
   1a820:	e3530000 	cmp	r3, #0
   1a824:	1a000039 	bne	1a910 <sd_card_init+0x260>
   1a828:	e5943018 	ldr	r3, [r4, #24]
   1a82c:	e3530000 	cmp	r3, #0
   1a830:	1a0000a6 	bne	1aad0 <sd_card_init+0x420>
   1a834:	e3a05000 	mov	r5, #0
   1a838:	e59f236c 	ldr	r2, [pc, #876]	; 1abac <sd_card_init+0x4fc>
   1a83c:	e3a01000 	mov	r1, #0
   1a840:	e3a00005 	mov	r0, #5
   1a844:	ebffff25 	bl	1a4e0 <sd_issue_command>
   1a848:	e59f3360 	ldr	r3, [pc, #864]	; 1abb0 <sd_card_init+0x500>
   1a84c:	e08f3003 	add	r3, pc, r3
   1a850:	e593202c 	ldr	r2, [r3, #44]	; 0x2c
   1a854:	e3520000 	cmp	r2, #0
   1a858:	1a000026 	bne	1a8f8 <sd_card_init+0x248>
   1a85c:	e5933018 	ldr	r3, [r3, #24]
   1a860:	e3530000 	cmp	r3, #0
   1a864:	0a000004 	beq	1a87c <sd_card_init+0x1cc>
   1a868:	e3130801 	tst	r3, #65536	; 0x10000
   1a86c:	0a000021 	beq	1a8f8 <sd_card_init+0x248>
   1a870:	ebfffdf4 	bl	1a048 <emmc_reset_cmd>
   1a874:	e3700001 	cmn	r0, #1
   1a878:	0a00001e 	beq	1a8f8 <sd_card_init+0x248>
   1a87c:	e59f4330 	ldr	r4, [pc, #816]	; 1abb4 <sd_card_init+0x504>
   1a880:	e59f231c 	ldr	r2, [pc, #796]	; 1aba4 <sd_card_init+0x4f4>
   1a884:	e3a01000 	mov	r1, #0
   1a888:	e3a001a6 	mov	r0, #-2147483607	; 0x80000029
   1a88c:	e08f4004 	add	r4, pc, r4
   1a890:	ebffff12 	bl	1a4e0 <sd_issue_command>
   1a894:	e594302c 	ldr	r3, [r4, #44]	; 0x2c
   1a898:	e3530000 	cmp	r3, #0
   1a89c:	0a000015 	beq	1a8f8 <sd_card_init+0x248>
   1a8a0:	e3550000 	cmp	r5, #0
   1a8a4:	13a05205 	movne	r5, #1342177280	; 0x50000000
   1a8a8:	03a05000 	moveq	r5, #0
   1a8ac:	e38558ff 	orr	r5, r5, #16711680	; 0xff0000
   1a8b0:	e3855902 	orr	r5, r5, #32768	; 0x8000
   1a8b4:	e59f82e8 	ldr	r8, [pc, #744]	; 1aba4 <sd_card_init+0x4f4>
   1a8b8:	e59f62e4 	ldr	r6, [pc, #740]	; 1aba4 <sd_card_init+0x4f4>
   1a8bc:	e3a07000 	mov	r7, #0
   1a8c0:	ea000005 	b	1a8dc <sd_card_init+0x22c>
   1a8c4:	e5943030 	ldr	r3, [r4, #48]	; 0x30
   1a8c8:	e3530000 	cmp	r3, #0
   1a8cc:	ba00001a 	blt	1a93c <sd_card_init+0x28c>
   1a8d0:	e1a00006 	mov	r0, r6
   1a8d4:	e1a01007 	mov	r1, r7
   1a8d8:	ebffd567 	bl	fe7c <timer_wait>
   1a8dc:	e1a02008 	mov	r2, r8
   1a8e0:	e1a01005 	mov	r1, r5
   1a8e4:	e3a001a6 	mov	r0, #-2147483607	; 0x80000029
   1a8e8:	ebfffefc 	bl	1a4e0 <sd_issue_command>
   1a8ec:	e594302c 	ldr	r3, [r4, #44]	; 0x2c
   1a8f0:	e3530000 	cmp	r3, #0
   1a8f4:	1afffff2 	bne	1a8c4 <sd_card_init+0x214>
   1a8f8:	e3e00000 	mvn	r0, #0
   1a8fc:	e8bd81f0 	pop	{r4, r5, r6, r7, r8, pc}
   1a900:	e59f02b0 	ldr	r0, [pc, #688]	; 1abb8 <sd_card_init+0x508>
   1a904:	e08f0000 	add	r0, pc, r0
   1a908:	ebffd726 	bl	105a8 <printf>
   1a90c:	eaffff87 	b	1a730 <sd_card_init+0x80>
   1a910:	e5943030 	ldr	r3, [r4, #48]	; 0x30
   1a914:	e1a03a03 	lsl	r3, r3, #20
   1a918:	e1a03a23 	lsr	r3, r3, #20
   1a91c:	e1530005 	cmp	r3, r5
   1a920:	1afffff4 	bne	1a8f8 <sd_card_init+0x248>
   1a924:	e3a05001 	mov	r5, #1
   1a928:	eaffffc2 	b	1a838 <sd_card_init+0x188>
   1a92c:	e59f0288 	ldr	r0, [pc, #648]	; 1abbc <sd_card_init+0x50c>
   1a930:	e08f0000 	add	r0, pc, r0
   1a934:	ebffd71b 	bl	105a8 <printf>
   1a938:	eaffff7c 	b	1a730 <sd_card_init+0x80>
   1a93c:	e1a02423 	lsr	r2, r3, #8
   1a940:	e1a03f23 	lsr	r3, r3, #30
   1a944:	e2033001 	and	r3, r3, #1
   1a948:	e6ff2072 	uxth	r2, r2
   1a94c:	e59f026c 	ldr	r0, [pc, #620]	; 1abc0 <sd_card_init+0x510>
   1a950:	e5843004 	str	r3, [r4, #4]
   1a954:	e584200c 	str	r2, [r4, #12]
   1a958:	ebfffe8d 	bl	1a394 <emmc_set_clock>
   1a95c:	e59f2240 	ldr	r2, [pc, #576]	; 1aba4 <sd_card_init+0x4f4>
   1a960:	e3a01000 	mov	r1, #0
   1a964:	e3a00002 	mov	r0, #2
   1a968:	ebfffedc 	bl	1a4e0 <sd_issue_command>
   1a96c:	e594302c 	ldr	r3, [r4, #44]	; 0x2c
   1a970:	e3530000 	cmp	r3, #0
   1a974:	0affffdf 	beq	1a8f8 <sd_card_init+0x248>
   1a978:	e59f2224 	ldr	r2, [pc, #548]	; 1aba4 <sd_card_init+0x4f4>
   1a97c:	e3a01000 	mov	r1, #0
   1a980:	e3a00003 	mov	r0, #3
   1a984:	ebfffed5 	bl	1a4e0 <sd_issue_command>
   1a988:	e594302c 	ldr	r3, [r4, #44]	; 0x2c
   1a98c:	e3530000 	cmp	r3, #0
   1a990:	0affffd8 	beq	1a8f8 <sd_card_init+0x248>
   1a994:	e5941030 	ldr	r1, [r4, #48]	; 0x30
   1a998:	e1e02421 	mvn	r2, r1, lsr #8
   1a99c:	e1a03721 	lsr	r3, r1, #14
   1a9a0:	e18337a1 	orr	r3, r3, r1, lsr #15
   1a9a4:	e18336a1 	orr	r3, r3, r1, lsr #13
   1a9a8:	e1833002 	orr	r3, r3, r2
   1a9ac:	e3130001 	tst	r3, #1
   1a9b0:	e1a03821 	lsr	r3, r1, #16
   1a9b4:	e5843010 	str	r3, [r4, #16]
   1a9b8:	1affffce 	bne	1a8f8 <sd_card_init+0x248>
   1a9bc:	e1a01803 	lsl	r1, r3, #16
   1a9c0:	e59f21dc 	ldr	r2, [pc, #476]	; 1aba4 <sd_card_init+0x4f4>
   1a9c4:	e3a00007 	mov	r0, #7
   1a9c8:	ebfffec4 	bl	1a4e0 <sd_issue_command>
   1a9cc:	e594302c 	ldr	r3, [r4, #44]	; 0x2c
   1a9d0:	e3530000 	cmp	r3, #0
   1a9d4:	0affffc7 	beq	1a8f8 <sd_card_init+0x248>
   1a9d8:	e5943030 	ldr	r3, [r4, #48]	; 0x30
   1a9dc:	e1a034a3 	lsr	r3, r3, #9
   1a9e0:	e203300f 	and	r3, r3, #15
   1a9e4:	e2433003 	sub	r3, r3, #3
   1a9e8:	e3530001 	cmp	r3, #1
   1a9ec:	8affffc1 	bhi	1a8f8 <sd_card_init+0x248>
   1a9f0:	e5943004 	ldr	r3, [r4, #4]
   1a9f4:	e3530000 	cmp	r3, #0
   1a9f8:	0a00003a 	beq	1aae8 <sd_card_init+0x438>
   1a9fc:	e3a06c02 	mov	r6, #512	; 0x200
   1aa00:	e59f2180 	ldr	r2, [pc, #384]	; 1ab88 <sd_card_init+0x4d8>
   1aa04:	e59f41b8 	ldr	r4, [pc, #440]	; 1abc4 <sd_card_init+0x514>
   1aa08:	e5923004 	ldr	r3, [r2, #4]
   1aa0c:	e08f4004 	add	r4, pc, r4
   1aa10:	e3c33fff 	bic	r3, r3, #1020	; 0x3fc
   1aa14:	e3c33003 	bic	r3, r3, #3
   1aa18:	e1833006 	orr	r3, r3, r6
   1aa1c:	e5823004 	str	r3, [r2, #4]
   1aa20:	e59f016c 	ldr	r0, [pc, #364]	; 1ab94 <sd_card_init+0x4e4>
   1aa24:	e3a01000 	mov	r1, #0
   1aa28:	e5846048 	str	r6, [r4, #72]	; 0x48
   1aa2c:	ebffd512 	bl	fe7c <timer_wait>
   1aa30:	e3a00008 	mov	r0, #8
   1aa34:	e3a05001 	mov	r5, #1
   1aa38:	e2843054 	add	r3, r4, #84	; 0x54
   1aa3c:	e5840048 	str	r0, [r4, #72]	; 0x48
   1aa40:	e59f215c 	ldr	r2, [pc, #348]	; 1aba4 <sd_card_init+0x4f4>
   1aa44:	e3a01000 	mov	r1, #0
   1aa48:	e3a001ce 	mov	r0, #-2147483597	; 0x80000033
   1aa4c:	e584301c 	str	r3, [r4, #28]
   1aa50:	e5843040 	str	r3, [r4, #64]	; 0x40
   1aa54:	e5845044 	str	r5, [r4, #68]	; 0x44
   1aa58:	ebfffea0 	bl	1a4e0 <sd_issue_command>
   1aa5c:	e594302c 	ldr	r3, [r4, #44]	; 0x2c
   1aa60:	e5846048 	str	r6, [r4, #72]	; 0x48
   1aa64:	e3530000 	cmp	r3, #0
   1aa68:	0affffa2 	beq	1a8f8 <sd_card_init+0x248>
   1aa6c:	e3a01000 	mov	r1, #0
   1aa70:	e594301c 	ldr	r3, [r4, #28]
   1aa74:	e5932000 	ldr	r2, [r3]
   1aa78:	e583100c 	str	r1, [r3, #12]
   1aa7c:	e6bf2f32 	rev	r2, r2
   1aa80:	e1a00822 	lsr	r0, r2, #16
   1aa84:	e1a01c22 	lsr	r1, r2, #24
   1aa88:	e200c00f 	and	ip, r0, #15
   1aa8c:	e211100f 	ands	r1, r1, #15
   1aa90:	e583c008 	str	ip, [r3, #8]
   1aa94:	0583500c 	streq	r5, [r3, #12]
   1aa98:	0a000005 	beq	1aab4 <sd_card_init+0x404>
   1aa9c:	e3510001 	cmp	r1, #1
   1aaa0:	03a02002 	moveq	r2, #2
   1aaa4:	0583200c 	streq	r2, [r3, #12]
   1aaa8:	0a000001 	beq	1aab4 <sd_card_init+0x404>
   1aaac:	e3510002 	cmp	r1, #2
   1aab0:	0a000029 	beq	1ab5c <sd_card_init+0x4ac>
   1aab4:	e3100004 	tst	r0, #4
   1aab8:	1a000012 	bne	1ab08 <sd_card_init+0x458>
   1aabc:	e3e02000 	mvn	r2, #0
   1aac0:	e59f30c0 	ldr	r3, [pc, #192]	; 1ab88 <sd_card_init+0x4d8>
   1aac4:	e3a00000 	mov	r0, #0
   1aac8:	e5832030 	str	r2, [r3, #48]	; 0x30
   1aacc:	e8bd81f0 	pop	{r4, r5, r6, r7, r8, pc}
   1aad0:	e3130801 	tst	r3, #65536	; 0x10000
   1aad4:	0affff87 	beq	1a8f8 <sd_card_init+0x248>
   1aad8:	ebfffd5a 	bl	1a048 <emmc_reset_cmd>
   1aadc:	e3700001 	cmn	r0, #1
   1aae0:	1affff53 	bne	1a834 <sd_card_init+0x184>
   1aae4:	eaffff83 	b	1a8f8 <sd_card_init+0x248>
   1aae8:	e59f20b4 	ldr	r2, [pc, #180]	; 1aba4 <sd_card_init+0x4f4>
   1aaec:	e3a01c02 	mov	r1, #512	; 0x200
   1aaf0:	e3a00010 	mov	r0, #16
   1aaf4:	ebfffe79 	bl	1a4e0 <sd_issue_command>
   1aaf8:	e594302c 	ldr	r3, [r4, #44]	; 0x2c
   1aafc:	e3530000 	cmp	r3, #0
   1ab00:	1affffbd 	bne	1a9fc <sd_card_init+0x34c>
   1ab04:	eaffff7b 	b	1a8f8 <sd_card_init+0x248>
   1ab08:	e59f4078 	ldr	r4, [pc, #120]	; 1ab88 <sd_card_init+0x4d8>
   1ab0c:	e59f2090 	ldr	r2, [pc, #144]	; 1aba4 <sd_card_init+0x4f4>
   1ab10:	e5945034 	ldr	r5, [r4, #52]	; 0x34
   1ab14:	e3a01002 	mov	r1, #2
   1ab18:	e3c53c01 	bic	r3, r5, #256	; 0x100
   1ab1c:	e5843034 	str	r3, [r4, #52]	; 0x34
   1ab20:	e3a0011a 	mov	r0, #-2147483642	; 0x80000006
   1ab24:	ebfffe6d 	bl	1a4e0 <sd_issue_command>
   1ab28:	e59f3098 	ldr	r3, [pc, #152]	; 1abc8 <sd_card_init+0x518>
   1ab2c:	e08f3003 	add	r3, pc, r3
   1ab30:	e593302c 	ldr	r3, [r3, #44]	; 0x2c
   1ab34:	e3530000 	cmp	r3, #0
   1ab38:	0affffdf 	beq	1aabc <sd_card_init+0x40c>
   1ab3c:	e5943028 	ldr	r3, [r4, #40]	; 0x28
   1ab40:	e5845034 	str	r5, [r4, #52]	; 0x34
   1ab44:	e3833002 	orr	r3, r3, #2
   1ab48:	e5843028 	str	r3, [r4, #40]	; 0x28
   1ab4c:	e59f0040 	ldr	r0, [pc, #64]	; 1ab94 <sd_card_init+0x4e4>
   1ab50:	e3a01000 	mov	r1, #0
   1ab54:	ebffd4c8 	bl	fe7c <timer_wait>
   1ab58:	eaffffd7 	b	1aabc <sd_card_init+0x40c>
   1ab5c:	e3120902 	tst	r2, #32768	; 0x8000
   1ab60:	03a02003 	moveq	r2, #3
   1ab64:	0583200c 	streq	r2, [r3, #12]
   1ab68:	0affffd1 	beq	1aab4 <sd_card_init+0x404>
   1ab6c:	e3120b01 	tst	r2, #1024	; 0x400
   1ab70:	03a02004 	moveq	r2, #4
   1ab74:	13a02005 	movne	r2, #5
   1ab78:	e583200c 	str	r2, [r3, #12]
   1ab7c:	eaffffcc 	b	1aab4 <sd_card_init+0x404>
   1ab80:	e3e00000 	mvn	r0, #0
   1ab84:	e12fff1e 	bx	lr
   1ab88:	20300000 	eorscs	r0, r0, r0
   1ab8c:	00030002 	andeq	r0, r3, r2
   1ab90:	00349088 	eorseq	r9, r4, r8, lsl #1
   1ab94:	000003e9 	andeq	r0, r0, r9, ror #7
   1ab98:	000f4240 	andeq	r4, pc, r0, asr #4
   1ab9c:	000aae60 	andeq	sl, sl, r0, ror #28
   1aba0:	0034900c 	eorseq	r9, r4, ip
   1aba4:	0007a120 	andeq	sl, r7, r0, lsr #2
   1aba8:	000001aa 	andeq	r0, r0, sl, lsr #3
   1abac:	00002710 	andeq	r2, r0, r0, lsl r7
   1abb0:	00348f8c 	eorseq	r8, r4, ip, lsl #31
   1abb4:	00348f4c 	eorseq	r8, r4, ip, asr #30
   1abb8:	000023b4 			; <UNDEFINED> instruction: 0x000023b4
   1abbc:	00002354 	andeq	r2, r0, r4, asr r3
   1abc0:	017d7840 	cmneq	sp, r0, asr #16
   1abc4:	00348dcc 	eorseq	r8, r4, ip, asr #27
   1abc8:	00348cac 	eorseq	r8, r4, ip, lsr #25

0001abcc <sd_read>:
   1abcc:	e92d47f0 	push	{r4, r5, r6, r7, r8, r9, sl, lr}
   1abd0:	e59f41a4 	ldr	r4, [pc, #420]	; 1ad7c <sd_read+0x1b0>
   1abd4:	e1a08000 	mov	r8, r0
   1abd8:	e08f4004 	add	r4, pc, r4
   1abdc:	e5943010 	ldr	r3, [r4, #16]
   1abe0:	e1a05001 	mov	r5, r1
   1abe4:	e3530000 	cmp	r3, #0
   1abe8:	e1a07002 	mov	r7, r2
   1abec:	1a000003 	bne	1ac00 <sd_read+0x34>
   1abf0:	ebfffeae 	bl	1a6b0 <sd_card_init>
   1abf4:	e3500000 	cmp	r0, #0
   1abf8:	1a000049 	bne	1ad24 <sd_read+0x158>
   1abfc:	e5943010 	ldr	r3, [r4, #16]
   1ac00:	e59f4178 	ldr	r4, [pc, #376]	; 1ad80 <sd_read+0x1b4>
   1ac04:	e1a01803 	lsl	r1, r3, #16
   1ac08:	e08f4004 	add	r4, pc, r4
   1ac0c:	e59f2170 	ldr	r2, [pc, #368]	; 1ad84 <sd_read+0x1b8>
   1ac10:	e3a0000d 	mov	r0, #13
   1ac14:	ebfffe31 	bl	1a4e0 <sd_issue_command>
   1ac18:	e594302c 	ldr	r3, [r4, #44]	; 0x2c
   1ac1c:	e3530000 	cmp	r3, #0
   1ac20:	0a000039 	beq	1ad0c <sd_read+0x140>
   1ac24:	e5943030 	ldr	r3, [r4, #48]	; 0x30
   1ac28:	e1a034a3 	lsr	r3, r3, #9
   1ac2c:	e203300f 	and	r3, r3, #15
   1ac30:	e3530003 	cmp	r3, #3
   1ac34:	0a000047 	beq	1ad58 <sd_read+0x18c>
   1ac38:	e3530005 	cmp	r3, #5
   1ac3c:	0a00003c 	beq	1ad34 <sd_read+0x168>
   1ac40:	e3530004 	cmp	r3, #4
   1ac44:	0a000011 	beq	1ac90 <sd_read+0xc4>
   1ac48:	ebfffe98 	bl	1a6b0 <sd_card_init>
   1ac4c:	e3500000 	cmp	r0, #0
   1ac50:	1a000033 	bne	1ad24 <sd_read+0x158>
   1ac54:	e59f412c 	ldr	r4, [pc, #300]	; 1ad88 <sd_read+0x1bc>
   1ac58:	e59f2124 	ldr	r2, [pc, #292]	; 1ad84 <sd_read+0x1b8>
   1ac5c:	e08f4004 	add	r4, pc, r4
   1ac60:	e5941010 	ldr	r1, [r4, #16]
   1ac64:	e3a0000d 	mov	r0, #13
   1ac68:	e1a01801 	lsl	r1, r1, #16
   1ac6c:	ebfffe1b 	bl	1a4e0 <sd_issue_command>
   1ac70:	e594302c 	ldr	r3, [r4, #44]	; 0x2c
   1ac74:	e3530000 	cmp	r3, #0
   1ac78:	0a000023 	beq	1ad0c <sd_read+0x140>
   1ac7c:	e5943030 	ldr	r3, [r4, #48]	; 0x30
   1ac80:	e1a034a3 	lsr	r3, r3, #9
   1ac84:	e203300f 	and	r3, r3, #15
   1ac88:	e3530004 	cmp	r3, #4
   1ac8c:	1a00001e 	bne	1ad0c <sd_read+0x140>
   1ac90:	e59f30f4 	ldr	r3, [pc, #244]	; 1ad8c <sd_read+0x1c0>
   1ac94:	e59f60f4 	ldr	r6, [pc, #244]	; 1ad90 <sd_read+0x1c4>
   1ac98:	e08f3003 	add	r3, pc, r3
   1ac9c:	e5933004 	ldr	r3, [r3, #4]
   1aca0:	e08f6006 	add	r6, pc, r6
   1aca4:	e5961048 	ldr	r1, [r6, #72]	; 0x48
   1aca8:	e3530000 	cmp	r3, #0
   1acac:	01a07487 	lsleq	r7, r7, #9
   1acb0:	e1550001 	cmp	r5, r1
   1acb4:	3a00001a 	bcc	1ad24 <sd_read+0x158>
   1acb8:	e1a00005 	mov	r0, r5
   1acbc:	ebffb4ff 	bl	80c0 <__aeabi_uidivmod>
   1acc0:	e3510000 	cmp	r1, #0
   1acc4:	e5860044 	str	r0, [r6, #68]	; 0x44
   1acc8:	1a000015 	bne	1ad24 <sd_read+0x158>
   1accc:	e3500002 	cmp	r0, #2
   1acd0:	b3a09011 	movlt	r9, #17
   1acd4:	a3a09012 	movge	r9, #18
   1acd8:	e3a04003 	mov	r4, #3
   1acdc:	e1a0a006 	mov	sl, r6
   1ace0:	e5868040 	str	r8, [r6, #64]	; 0x40
   1ace4:	e59f60a8 	ldr	r6, [pc, #168]	; 1ad94 <sd_read+0x1c8>
   1ace8:	e1a02006 	mov	r2, r6
   1acec:	e1a01007 	mov	r1, r7
   1acf0:	e1a00009 	mov	r0, r9
   1acf4:	ebfffdf9 	bl	1a4e0 <sd_issue_command>
   1acf8:	e59a302c 	ldr	r3, [sl, #44]	; 0x2c
   1acfc:	e3530000 	cmp	r3, #0
   1ad00:	1a000009 	bne	1ad2c <sd_read+0x160>
   1ad04:	e2544001 	subs	r4, r4, #1
   1ad08:	1afffff6 	bne	1ace8 <sd_read+0x11c>
   1ad0c:	e3a02000 	mov	r2, #0
   1ad10:	e59f3080 	ldr	r3, [pc, #128]	; 1ad98 <sd_read+0x1cc>
   1ad14:	e3e00000 	mvn	r0, #0
   1ad18:	e08f3003 	add	r3, pc, r3
   1ad1c:	e5832010 	str	r2, [r3, #16]
   1ad20:	e8bd87f0 	pop	{r4, r5, r6, r7, r8, r9, sl, pc}
   1ad24:	e3e00000 	mvn	r0, #0
   1ad28:	e8bd87f0 	pop	{r4, r5, r6, r7, r8, r9, sl, pc}
   1ad2c:	e1a00005 	mov	r0, r5
   1ad30:	e8bd87f0 	pop	{r4, r5, r6, r7, r8, r9, sl, pc}
   1ad34:	e59f2048 	ldr	r2, [pc, #72]	; 1ad84 <sd_read+0x1b8>
   1ad38:	e3a01000 	mov	r1, #0
   1ad3c:	e3a0000c 	mov	r0, #12
   1ad40:	ebfffde6 	bl	1a4e0 <sd_issue_command>
   1ad44:	e594302c 	ldr	r3, [r4, #44]	; 0x2c
   1ad48:	e3530000 	cmp	r3, #0
   1ad4c:	0affffee 	beq	1ad0c <sd_read+0x140>
   1ad50:	ebfffcd9 	bl	1a0bc <emmc_reset_dat>
   1ad54:	eaffffbe 	b	1ac54 <sd_read+0x88>
   1ad58:	e5941010 	ldr	r1, [r4, #16]
   1ad5c:	e59f2020 	ldr	r2, [pc, #32]	; 1ad84 <sd_read+0x1b8>
   1ad60:	e1a01801 	lsl	r1, r1, #16
   1ad64:	e3a00007 	mov	r0, #7
   1ad68:	ebfffddc 	bl	1a4e0 <sd_issue_command>
   1ad6c:	e594302c 	ldr	r3, [r4, #44]	; 0x2c
   1ad70:	e3530000 	cmp	r3, #0
   1ad74:	1affffb6 	bne	1ac54 <sd_read+0x88>
   1ad78:	eaffffe3 	b	1ad0c <sd_read+0x140>
   1ad7c:	00348c00 	eorseq	r8, r4, r0, lsl #24
   1ad80:	00348bd0 	ldrsbteq	r8, [r4], -r0
   1ad84:	0007a120 	andeq	sl, r7, r0, lsr #2
   1ad88:	00348b7c 	eorseq	r8, r4, ip, ror fp
   1ad8c:	00348b40 	eorseq	r8, r4, r0, asr #22
   1ad90:	00348b38 	eorseq	r8, r4, r8, lsr fp
   1ad94:	004c4b40 	subeq	r4, ip, r0, asr #22
   1ad98:	00348ac0 	eorseq	r8, r4, r0, asr #21

Disassembly of section .text.ARMaddrToGPUaddr:

0001ad9c <ARMaddrToGPUaddr>:
   1ad9c:	e59f1008 	ldr	r1, [pc, #8]	; 1adac <ARMaddrToGPUaddr+0x10>
   1ada0:	e5911000 	ldr	r1, [r1]
   1ada4:	e1800001 	orr	r0, r0, r1
   1ada8:	e12fff1e 	bx	lr
   1adac:	0001ee74 	andeq	lr, r1, r4, ror lr

0001adb0 <RPI_ARM_CPU_ID>:
   1adb0:	00000000 	andeq	r0, r0, r0

Disassembly of section .rodata:

0001b000 <__rodata_start>:
   1b000:	666e6f43 	strbtvs	r6, [lr], -r3, asr #30
   1b004:	66206769 	strtvs	r6, [r0], -r9, ror #14
   1b008:	20656c69 	rsbcs	r6, r5, r9, ror #24
   1b00c:	746e7973 	strbtvc	r7, [lr], #-2419	; 0xfffff68d
   1b010:	65207861 	strvs	r7, [r0, #-2145]!	; 0xfffff79f
   1b014:	726f7272 	rsbvc	r7, pc, #536870919	; 0x20000007
   1b018:	0a2e2e2e 	beq	ba68d8 <__bss_end+0x83e8d8>
   1b01c:	00000000 	andeq	r0, r0, r0
   1b020:	666e6f43 	strbtvs	r6, [lr], -r3, asr #30
   1b024:	66206769 	strtvs	r6, [r0], -r9, ror #14
   1b028:	20656c69 	rsbcs	r6, r5, r9, ror #24
   1b02c:	746e7973 	strbtvc	r7, [lr], #-2419	; 0xfffff68d
   1b030:	65207861 	strvs	r7, [r0, #-2145]!	; 0xfffff79f
   1b034:	726f7272 	rsbvc	r7, pc, #536870919	; 0x20000007
   1b038:	002e2e2e 	eoreq	r2, lr, lr, lsr #28
   1b03c:	00000000 	andeq	r0, r0, r0
   1b040:	74746553 	ldrbtvc	r6, [r4], #-1363	; 0xfffffaad
   1b044:	73676e69 	cmnvc	r7, #1680	; 0x690
   1b048:	70706120 	rsbsvc	r6, r0, r0, lsr #2
   1b04c:	6465696c 	strbtvs	r6, [r5], #-2412	; 0xfffff694
   1b050:	63757320 	cmnvs	r5, #32, 6	; 0x80000000
   1b054:	73736563 	cmnvc	r3, #415236096	; 0x18c00000
   1b058:	6c6c7566 	cfstr64vs	mvdx7, [ip], #-408	; 0xfffffe68
   1b05c:	2e2e2e79 	mcrcs	14, 1, r2, cr14, cr9, {3}
   1b060:	0000000a 	andeq	r0, r0, sl
   1b064:	74746553 	ldrbtvc	r6, [r4], #-1363	; 0xfffffaad
   1b068:	73676e69 	cmnvc	r7, #1680	; 0x690
   1b06c:	70706120 	rsbsvc	r6, r0, r0, lsr #2
   1b070:	6465696c 	strbtvs	r6, [r5], #-2412	; 0xfffff694
   1b074:	6375730a 	cmnvs	r5, #671088640	; 0x28000000
   1b078:	73736563 	cmnvc	r3, #415236096	; 0x18c00000
   1b07c:	6c6c7566 	cfstr64vs	mvdx7, [ip], #-408	; 0xfffffe68
   1b080:	00000079 	andeq	r0, r0, r9, ror r0
   1b084:	64616f4c 	strbtvs	r6, [r1], #-3916	; 0xfffff0b4
   1b088:	20676e69 	rsbcs	r6, r7, r9, ror #28
   1b08c:	666e6f63 	strbtvs	r6, [lr], -r3, ror #30
   1b090:	66206769 	strtvs	r6, [r0], -r9, ror #14
   1b094:	20656c69 	rsbcs	r6, r5, r9, ror #24
   1b098:	6f727265 	svcvs	0x00727265
   1b09c:	2e2e2e72 	mcrcs	14, 1, r2, cr14, cr2, {3}
   1b0a0:	0000000a 	andeq	r0, r0, sl
   1b0a4:	64616f4c 	strbtvs	r6, [r1], #-3916	; 0xfffff0b4
   1b0a8:	20676e69 	rsbcs	r6, r7, r9, ror #28
   1b0ac:	666e6f63 	strbtvs	r6, [lr], -r3, ror #30
   1b0b0:	66206769 	strtvs	r6, [r0], -r9, ror #14
   1b0b4:	0a656c69 	beq	1976260 <__bss_end+0x160e260>
   1b0b8:	6f727265 	svcvs	0x00727265
   1b0bc:	00000072 	andeq	r0, r0, r2, ror r0
   1b0c0:	64616f4c 	strbtvs	r6, [r1], #-3916	; 0xfffff0b4
   1b0c4:	20676e69 	rsbcs	r6, r7, r9, ror #28
   1b0c8:	656c6966 	strbvs	r6, [ip, #-2406]!	; 0xfffff69a
   1b0cc:	72726520 	rsbsvc	r6, r2, #32, 10	; 0x8000000
   1b0d0:	2e2e726f 	cdpcs	2, 2, cr7, cr14, cr15, {3}
   1b0d4:	00000a2e 	andeq	r0, r0, lr, lsr #20
   1b0d8:	64616f4c 	strbtvs	r6, [r1], #-3916	; 0xfffff0b4
   1b0dc:	20676e69 	rsbcs	r6, r7, r9, ror #28
   1b0e0:	656c6966 	strbvs	r6, [ip, #-2406]!	; 0xfffff69a
   1b0e4:	72726520 	rsbsvc	r6, r2, #32, 10	; 0x8000000
   1b0e8:	2e2e726f 	cdpcs	2, 2, cr7, cr14, cr15, {3}
   1b0ec:	0000002e 	andeq	r0, r0, lr, lsr #32
   1b0f0:	534f444d 	movtpl	r4, #62541	; 0xf44d
   1b0f4:	00000000 	andeq	r0, r0, r0
   1b0f8:	65736544 	ldrbvs	r6, [r3, #-1348]!	; 0xfffffabc
   1b0fc:	5320616a 			; <UNDEFINED> instruction: 0x5320616a
   1b100:	20726961 	rsbscs	r6, r2, r1, ror #18
   1b104:	0000003f 	andeq	r0, r0, pc, lsr r0
   1b108:	2049474d 	subcs	r4, r9, sp, asr #14
   1b10c:	312e3076 			; <UNDEFINED> instruction: 0x312e3076
   1b110:	6172470a 	cmnvs	r2, sl, lsl #14
   1b114:	63696870 	cmnvs	r9, #112, 16	; 0x700000
   1b118:	49206c61 	stmdbmi	r0!, {r0, r5, r6, sl, fp, sp, lr}
   1b11c:	7265746e 	rsbvc	r7, r5, #1845493760	; 0x6e000000
   1b120:	65636166 	strbvs	r6, [r3, #-358]!	; 0xfffffe9a
   1b124:	770a200a 	strvc	r2, [sl, -sl]
   1b128:	752e7777 	strvc	r7, [lr, #-1911]!	; 0xfffff889
   1b12c:	696c6974 	stmdbvs	ip!, {r2, r4, r5, r6, r8, fp, sp, lr}^
   1b130:	6e697974 			; <UNDEFINED> instruction: 0x6e697974
   1b134:	6f632e66 	svcvs	0x00632e66
   1b138:	72622e6d 	rsbvc	r2, r2, #1744	; 0x6d0
   1b13c:	00000000 	andeq	r0, r0, r0
   1b140:	61766e49 	cmnvs	r6, r9, asr #28
   1b144:	2064696c 	rsbcs	r6, r4, ip, ror #18
   1b148:	6d6d6f43 	stclvs	15, cr6, [sp, #-268]!	; 0xfffffef4
   1b14c:	20646e61 	rsbcs	r6, r4, r1, ror #28
   1b150:	460a726f 	strmi	r7, [sl], -pc, ror #4
   1b154:	20656c69 	rsbcs	r6, r5, r9, ror #24
   1b158:	656d614e 	strbvs	r6, [sp, #-334]!	; 0xfffffeb2
   1b15c:	00000000 	andeq	r0, r0, r0
   1b160:	6d6d6f43 	stclvs	15, cr6, [sp, #-268]!	; 0xfffffef4
   1b164:	20646e61 	rsbcs	r6, r4, r1, ror #28
   1b168:	75736e75 	ldrbvc	r6, [r3, #-3701]!	; 0xfffff18b
   1b16c:	73656363 	cmnvc	r5, #-1946157055	; 0x8c000001
   1b170:	6c756673 	ldclvs	6, cr6, [r5], #-460	; 0xfffffe34
   1b174:	000a796c 	andeq	r7, sl, ip, ror #18
   1b178:	00000000 	andeq	r0, r0, r0

0001b17c <bcm2835_byte_reverse_table>:
   1b17c:	c0408000 	subgt	r8, r0, r0
   1b180:	e060a020 	rsb	sl, r0, r0, lsr #32
   1b184:	d0509010 	subsle	r9, r0, r0, lsl r0
   1b188:	f070b030 			; <UNDEFINED> instruction: 0xf070b030
   1b18c:	c8488808 	stmdagt	r8, {r3, fp, pc}^
   1b190:	e868a828 	stmda	r8!, {r3, r5, fp, sp, pc}^
   1b194:	d8589818 	ldmdale	r8, {r3, r4, fp, ip, pc}^
   1b198:	f878b838 			; <UNDEFINED> instruction: 0xf878b838
   1b19c:	c4448404 	strbgt	r8, [r4], #-1028	; 0xfffffbfc
   1b1a0:	e464a424 	strbt	sl, [r4], #-1060	; 0xfffffbdc
   1b1a4:	d4549414 	ldrble	r9, [r4], #-1044	; 0xfffffbec
   1b1a8:	f474b434 			; <UNDEFINED> instruction: 0xf474b434
   1b1ac:	cc4c8c0c 	mcrrgt	12, 0, r8, ip, cr12
   1b1b0:	ec6cac2c 	stcl	12, cr10, [ip], #-176	; 0xffffff50
   1b1b4:	dc5c9c1c 	mrrcle	12, 1, r9, ip, cr12
   1b1b8:	fc7cbc3c 	ldc2l	12, cr11, [ip], #-240	; 0xffffff10
   1b1bc:	c2428202 	subgt	r8, r2, #536870912	; 0x20000000
   1b1c0:	e262a222 	rsb	sl, r2, #536870914	; 0x20000002
   1b1c4:	d2529212 	subsle	r9, r2, #536870913	; 0x20000001
   1b1c8:	f272b232 	vqsub.s64	d27, d2, d18
   1b1cc:	ca4a8a0a 	bgt	12bd9fc <__bss_end+0xf559fc>
   1b1d0:	ea6aaa2a 	b	1ac5a80 <__bss_end+0x175da80>
   1b1d4:	da5a9a1a 	ble	16c1a44 <__bss_end+0x1359a44>
   1b1d8:	fa7aba3a 	blx	1ec9ac8 <__bss_end+0x1b61ac8>
   1b1dc:	c6468606 	strbgt	r8, [r6], -r6, lsl #12
   1b1e0:	e666a626 	strbt	sl, [r6], -r6, lsr #12
   1b1e4:	d6569616 			; <UNDEFINED> instruction: 0xd6569616
   1b1e8:	f676b636 			; <UNDEFINED> instruction: 0xf676b636
   1b1ec:	ce4e8e0e 	cdpgt	14, 4, cr8, cr14, cr14, {0}
   1b1f0:	ee6eae2e 	cdp	14, 6, cr10, cr14, cr14, {1}
   1b1f4:	de5e9e1e 	mrcle	14, 2, r9, cr14, cr14, {0}
   1b1f8:	fe7ebe3e 	mrc2	14, 3, fp, cr14, cr14, {1}
   1b1fc:	c1418101 	cmpgt	r1, r1, lsl #2
   1b200:	e161a121 	cmn	r1, r1, lsr #2
   1b204:	d1519111 	cmple	r1, r1, lsl r1
   1b208:	f171b131 			; <UNDEFINED> instruction: 0xf171b131
   1b20c:	c9498909 	stmdbgt	r9, {r0, r3, r8, fp, pc}^
   1b210:	e969a929 	stmdb	r9!, {r0, r3, r5, r8, fp, sp, pc}^
   1b214:	d9599919 	ldmdble	r9, {r0, r3, r4, r8, fp, ip, pc}^
   1b218:	f979b939 			; <UNDEFINED> instruction: 0xf979b939
   1b21c:	c5458505 	strbgt	r8, [r5, #-1285]	; 0xfffffafb
   1b220:	e565a525 	strb	sl, [r5, #-1317]!	; 0xfffffadb
   1b224:	d5559515 	ldrble	r9, [r5, #-1301]	; 0xfffffaeb
   1b228:	f575b535 			; <UNDEFINED> instruction: 0xf575b535
   1b22c:	cd4d8d0d 	stclgt	13, cr8, [sp, #-52]	; 0xffffffcc
   1b230:	ed6dad2d 	stcl	13, cr10, [sp, #-180]!	; 0xffffff4c
   1b234:	dd5d9d1d 	ldclle	13, cr9, [sp, #-116]	; 0xffffff8c
   1b238:	fd7dbd3d 	ldc2l	13, cr11, [sp, #-244]!	; 0xffffff0c
   1b23c:	c3438303 	movtgt	r8, #13059	; 0x3303
   1b240:	e363a323 	cmn	r3, #-1946157056	; 0x8c000000
   1b244:	d3539313 	cmple	r3, #1275068416	; 0x4c000000
   1b248:	f373b333 	vcge.u<illegal width 64>	d27, d3, d19
   1b24c:	cb4b8b0b 	blgt	12fde80 <__bss_end+0xf95e80>
   1b250:	eb6bab2b 	bl	1b05f04 <__bss_end+0x179df04>
   1b254:	db5b9b1b 	blle	1701ec8 <__bss_end+0x1399ec8>
   1b258:	fb7bbb3b 	blx	1f09f4e <__bss_end+0x1ba1f4e>
   1b25c:	c7478707 	strbgt	r8, [r7, -r7, lsl #14]
   1b260:	e767a727 	strb	sl, [r7, -r7, lsr #14]!
   1b264:	d7579717 	smmlale	r7, r7, r7, r9
   1b268:	f777b737 			; <UNDEFINED> instruction: 0xf777b737
   1b26c:	cf4f8f0f 	svcgt	0x004f8f0f
   1b270:	ef6faf2f 	svc	0x006faf2f
   1b274:	df5f9f1f 	svcle	0x005f9f1f
   1b278:	ff7fbf3f 			; <UNDEFINED> instruction: 0xff7fbf3f
   1b27c:	20474456 	subcs	r4, r7, r6, asr r4
   1b280:	332d5455 			; <UNDEFINED> instruction: 0x332d5455
   1b284:	76203030 			; <UNDEFINED> instruction: 0x76203030
   1b288:	61362e31 	teqvs	r6, r1, lsr lr
   1b28c:	00000000 	andeq	r0, r0, r0
   1b290:	20544654 	subscs	r4, r4, r4, asr r6
   1b294:	44434c47 	strbmi	r4, [r3], #-3143	; 0xfffff3b9
   1b298:	53202d20 			; <UNDEFINED> instruction: 0x53202d20
   1b29c:	32314453 	eorscc	r4, r1, #1392508928	; 0x53000000
   1b2a0:	00003938 	andeq	r3, r0, r8, lsr r9
   1b2a4:	4b323731 	blmi	ca8f70 <__bss_end+0x940f70>
   1b2a8:	52562042 	subspl	r2, r6, #66	; 0x42
   1b2ac:	2d204d41 	stccs	13, cr4, [r0, #-260]!	; 0xfffffefc
   1b2b0:	4b343620 	blmi	d28b38 <__bss_end+0x9c0b38>
   1b2b4:	6c6f4320 	stclvs	3, cr4, [pc], #-128	; 1b23c <bcm2835_byte_reverse_table+0xc0>
   1b2b8:	0073726f 	rsbseq	r7, r3, pc, ror #4
   1b2bc:	00000000 	andeq	r0, r0, r0
   1b2c0:	2e777777 	mrccs	7, 3, r7, cr7, cr7, {3}
   1b2c4:	6c697475 	cfstrdvs	mvd7, [r9], #-468	; 0xfffffe2c
   1b2c8:	69797469 	ldmdbvs	r9!, {r0, r3, r5, r6, sl, ip, sp, lr}^
   1b2cc:	632e666e 			; <UNDEFINED> instruction: 0x632e666e
   1b2d0:	622e6d6f 	eorvs	r6, lr, #7104	; 0x1bc0
   1b2d4:	00000072 	andeq	r0, r0, r2, ror r0
   1b2d8:	2077654e 	rsbscs	r6, r7, lr, asr #10
   1b2dc:	69766544 	ldmdbvs	r6!, {r2, r6, r8, sl, sp, lr}^
   1b2e0:	28206563 	stmdacs	r0!, {r0, r1, r5, r6, r8, sl, sp, lr}
   1b2e4:	20746f4e 	rsbscs	r6, r4, lr, asr #30
   1b2e8:	64616552 	strbtvs	r6, [r1], #-1362	; 0xfffffaae
   1b2ec:	00002979 	andeq	r2, r0, r9, ror r9
   1b2f0:	6e6b6e55 	mcrvs	14, 3, r6, cr11, cr5, {2}
   1b2f4:	206e776f 	rsbcs	r7, lr, pc, ror #14
   1b2f8:	69766544 	ldmdbvs	r6!, {r2, r6, r8, sl, sp, lr}^
   1b2fc:	28206563 	stmdacs	r0!, {r0, r1, r5, r6, r8, sl, sp, lr}
   1b300:	20746f4e 	rsbscs	r6, r4, lr, asr #30
   1b304:	64616552 	strbtvs	r6, [r1], #-1362	; 0xfffffaae
   1b308:	00002979 	andeq	r2, r0, r9, ror r9
   1b30c:	20425355 	subcs	r5, r2, r5, asr r3
   1b310:	746f6f52 	strbtvc	r6, [pc], #-3922	; 1b318 <bcm2835_byte_reverse_table+0x19c>
   1b314:	62754820 	rsbsvs	r4, r5, #32, 16	; 0x200000
   1b318:	00000000 	andeq	r0, r0, r0
   1b31c:	20425355 	subcs	r5, r2, r5, asr r3
   1b320:	20312e32 	eorscs	r2, r1, r2, lsr lr
   1b324:	00627548 	rsbeq	r7, r2, r8, asr #10
   1b328:	00000000 	andeq	r0, r0, r0
   1b32c:	20425355 	subcs	r5, r2, r5, asr r3
   1b330:	20302e32 	eorscs	r2, r0, r2, lsr lr
   1b334:	00627548 	rsbeq	r7, r2, r8, asr #10
   1b338:	00000000 	andeq	r0, r0, r0
   1b33c:	20425355 	subcs	r5, r2, r5, asr r3
   1b340:	20312e31 	eorscs	r2, r1, r1, lsr lr
   1b344:	00627548 	rsbeq	r7, r2, r8, asr #10
   1b348:	00000000 	andeq	r0, r0, r0
   1b34c:	20425355 	subcs	r5, r2, r5, asr r3
   1b350:	20302e31 	eorscs	r2, r0, r1, lsr lr
   1b354:	00627548 	rsbeq	r7, r2, r8, asr #10
   1b358:	00000000 	andeq	r0, r0, r0
   1b35c:	20425355 	subcs	r5, r2, r5, asr r3
   1b360:	00627548 	rsbeq	r7, r2, r8, asr #10
   1b364:	00000000 	andeq	r0, r0, r0
   1b368:	43534d53 	cmpmi	r3, #5312	; 0x14c0
   1b36c:	4e414c20 	cdpmi	12, 4, cr4, cr1, cr0, {1}
   1b370:	32313539 	eorscc	r3, r1, #239075328	; 0xe400000
   1b374:	00000000 	andeq	r0, r0, r0
   1b378:	20425355 	subcs	r5, r2, r5, asr r3
   1b37c:	20434443 	subcs	r4, r3, r3, asr #8
   1b380:	69766544 	ldmdbvs	r6!, {r2, r6, r8, sl, sp, lr}^
   1b384:	00006563 	andeq	r6, r0, r3, ror #10
   1b388:	646e6556 	strbtvs	r6, [lr], #-1366	; 0xfffffaaa
   1b38c:	5320726f 			; <UNDEFINED> instruction: 0x5320726f
   1b390:	69636570 	stmdbvs	r3!, {r4, r5, r6, r8, sl, sp, lr}^
   1b394:	00636966 	rsbeq	r6, r3, r6, ror #18
   1b398:	00000000 	andeq	r0, r0, r0
   1b39c:	6f636e55 	svcvs	0x00636e55
   1b3a0:	6769666e 	strbvs	r6, [r9, -lr, ror #12]!
   1b3a4:	64657275 	strbtvs	r7, [r5], #-629	; 0xfffffd8b
   1b3a8:	76654420 	strbtvc	r4, [r5], -r0, lsr #8
   1b3ac:	00656369 	rsbeq	r6, r5, r9, ror #6
   1b3b0:	00000000 	andeq	r0, r0, r0
   1b3b4:	20425355 	subcs	r5, r2, r5, asr r3
   1b3b8:	6e697250 	mcrvs	2, 3, r7, cr9, cr0, {2}
   1b3bc:	00726574 	rsbseq	r6, r2, r4, ror r5
   1b3c0:	00000000 	andeq	r0, r0, r0
   1b3c4:	20425355 	subcs	r5, r2, r5, asr r3
   1b3c8:	69647541 	stmdbvs	r4!, {r0, r6, r8, sl, ip, sp, lr}^
   1b3cc:	6544206f 	strbvs	r2, [r4, #-111]	; 0xffffff91
   1b3d0:	65636976 	strbvs	r6, [r3, #-2422]!	; 0xfffff68a
   1b3d4:	00000000 	andeq	r0, r0, r0
   1b3d8:	656e6547 	strbvs	r6, [lr, #-1351]!	; 0xfffffab9
   1b3dc:	20636972 	rsbcs	r6, r3, r2, ror r9
   1b3e0:	69766544 	ldmdbvs	r6!, {r2, r6, r8, sl, sp, lr}^
   1b3e4:	00006563 	andeq	r6, r0, r3, ror #10
   1b3e8:	20425355 	subcs	r5, r2, r5, asr r3
   1b3ec:	6373694d 	cmnvs	r3, #1261568	; 0x134000
   1b3f0:	616c6c65 	cmnvs	ip, r5, ror #24
   1b3f4:	756f656e 	strbvc	r6, [pc, #-1390]!	; 1ae8e <RPI_ARM_CPU_ID+0xde>
   1b3f8:	65442073 	strbvs	r2, [r4, #-115]	; 0xffffff8d
   1b3fc:	65636976 	strbvs	r6, [r3, #-2422]!	; 0xfffff68a
   1b400:	00000000 	andeq	r0, r0, r0
   1b404:	20425355 	subcs	r5, r2, r5, asr r3
   1b408:	65726957 	ldrbvs	r6, [r2, #-2391]!	; 0xfffff6a9
   1b40c:	7373656c 	cmnvc	r3, #108, 10	; 0x1b000000
   1b410:	6e6f4320 	cdpvs	3, 6, cr4, cr15, cr0, {1}
   1b414:	6c6f7274 	sfmvs	f7, 2, [pc], #-464	; 1b24c <bcm2835_byte_reverse_table+0xd0>
   1b418:	0072656c 	rsbseq	r6, r2, ip, ror #10
   1b41c:	00000000 	andeq	r0, r0, r0
   1b420:	20425355 	subcs	r5, r2, r5, asr r3
   1b424:	67616944 	strbvs	r6, [r1, -r4, asr #18]!
   1b428:	74736f6e 	ldrbtvc	r6, [r3], #-3950	; 0xfffff092
   1b42c:	44206369 	strtmi	r6, [r0], #-873	; 0xfffffc97
   1b430:	63697665 	cmnvs	r9, #105906176	; 0x6500000
   1b434:	00000065 	andeq	r0, r0, r5, rrx
   1b438:	20425355 	subcs	r5, r2, r5, asr r3
   1b43c:	44205641 	strtmi	r5, [r0], #-1601	; 0xfffff9bf
   1b440:	63697665 	cmnvs	r9, #105906176	; 0x6500000
   1b444:	00000065 	andeq	r0, r0, r5, rrx
   1b448:	20425355 	subcs	r5, r2, r5, asr r3
   1b44c:	6c616548 	cfstr64vs	mvdx6, [r1], #-288	; 0xfffffee0
   1b450:	61636874 	smcvs	13956	; 0x3684
   1b454:	44206572 	strtmi	r6, [r0], #-1394	; 0xfffffa8e
   1b458:	63697665 	cmnvs	r9, #105906176	; 0x6500000
   1b45c:	00000065 	andeq	r0, r0, r5, rrx
   1b460:	20425355 	subcs	r5, r2, r5, asr r3
   1b464:	65646956 	strbvs	r6, [r4, #-2390]!	; 0xfffff6aa
   1b468:	6544206f 	strbvs	r2, [r4, #-111]	; 0xffffff91
   1b46c:	65636976 	strbvs	r6, [r3, #-2422]!	; 0xfffff68a
   1b470:	00000000 	andeq	r0, r0, r0
   1b474:	20425355 	subcs	r5, r2, r5, asr r3
   1b478:	746e6f43 	strbtvc	r6, [lr], #-3907	; 0xfffff0bd
   1b47c:	20746e65 	rsbscs	r6, r4, r5, ror #28
   1b480:	75636553 	strbvc	r6, [r3, #-1363]!	; 0xfffffaad
   1b484:	20797469 	rsbscs	r7, r9, r9, ror #8
   1b488:	69766544 	ldmdbvs	r6!, {r2, r6, r8, sl, sp, lr}^
   1b48c:	00006563 	andeq	r6, r0, r3, ror #10
   1b490:	20425355 	subcs	r5, r2, r5, asr r3
   1b494:	72616d53 	rsbvc	r6, r1, #5312	; 0x14c0
   1b498:	61432074 	hvcvs	12804	; 0x3204
   1b49c:	00006472 	andeq	r6, r0, r2, ror r4
   1b4a0:	20425355 	subcs	r5, r2, r5, asr r3
   1b4a4:	2d434443 	cfstrdcs	mvd4, [r3, #-268]	; 0xfffffef4
   1b4a8:	61746144 	cmnvs	r4, r4, asr #2
   1b4ac:	76654420 	strbtvc	r4, [r5], -r0, lsr #8
   1b4b0:	00656369 	rsbeq	r6, r5, r9, ror #6
   1b4b4:	00000000 	andeq	r0, r0, r0
   1b4b8:	20425355 	subcs	r5, r2, r5, asr r3
   1b4bc:	6279654b 	rsbsvs	r6, r9, #314572800	; 0x12c00000
   1b4c0:	6472616f 	ldrbtvs	r6, [r2], #-367	; 0xfffffe91
   1b4c4:	00000000 	andeq	r0, r0, r0
   1b4c8:	20425355 	subcs	r5, r2, r5, asr r3
   1b4cc:	67616d49 	strbvs	r6, [r1, -r9, asr #26]!
   1b4d0:	20676e69 	rsbcs	r6, r7, r9, ror #28
   1b4d4:	69766544 	ldmdbvs	r6!, {r2, r6, r8, sl, sp, lr}^
   1b4d8:	00006563 	andeq	r6, r0, r3, ror #10
   1b4dc:	20425355 	subcs	r5, r2, r5, asr r3
   1b4e0:	73796850 	cmnvc	r9, #80, 16	; 0x500000
   1b4e4:	6c616369 	stclvs	3, cr6, [r1], #-420	; 0xfffffe5c
   1b4e8:	76654420 	strbtvc	r4, [r5], -r0, lsr #8
   1b4ec:	00656369 	rsbeq	r6, r5, r9, ror #6
   1b4f0:	00000000 	andeq	r0, r0, r0
   1b4f4:	20425355 	subcs	r5, r2, r5, asr r3
   1b4f8:	00444948 	subeq	r4, r4, r8, asr #18
   1b4fc:	00000000 	andeq	r0, r0, r0
   1b500:	20425355 	subcs	r5, r2, r5, asr r3
   1b504:	73756f4d 	cmnvc	r5, #308	; 0x134
   1b508:	00000065 	andeq	r0, r0, r5, rrx
   1b50c:	20425355 	subcs	r5, r2, r5, asr r3
   1b510:	7373614d 	cmnvc	r3, #1073741843	; 0x40000013
   1b514:	6f745320 	svcvs	0x00745320
   1b518:	65676172 	strbvs	r6, [r7, #-370]!	; 0xfffffe8e
   1b51c:	76654420 	strbtvc	r4, [r5], -r0, lsr #8
   1b520:	00656369 	rsbeq	r6, r5, r9, ror #6
   1b524:	00000000 	andeq	r0, r0, r0

0001b528 <sd_acommands>:
   1b528:	ffffffff 			; <UNDEFINED> instruction: 0xffffffff
   1b52c:	ffffffff 			; <UNDEFINED> instruction: 0xffffffff
   1b530:	ffffffff 			; <UNDEFINED> instruction: 0xffffffff
   1b534:	ffffffff 			; <UNDEFINED> instruction: 0xffffffff
   1b538:	ffffffff 			; <UNDEFINED> instruction: 0xffffffff
   1b53c:	ffffffff 			; <UNDEFINED> instruction: 0xffffffff
   1b540:	060a0000 	streq	r0, [sl], -r0
   1b544:	ffffffff 			; <UNDEFINED> instruction: 0xffffffff
   1b548:	ffffffff 			; <UNDEFINED> instruction: 0xffffffff
   1b54c:	ffffffff 			; <UNDEFINED> instruction: 0xffffffff
   1b550:	ffffffff 			; <UNDEFINED> instruction: 0xffffffff
   1b554:	ffffffff 			; <UNDEFINED> instruction: 0xffffffff
   1b558:	ffffffff 			; <UNDEFINED> instruction: 0xffffffff
   1b55c:	0d0a0000 	stceq	0, cr0, [sl, #-0]
   1b560:	ffffffff 			; <UNDEFINED> instruction: 0xffffffff
   1b564:	ffffffff 			; <UNDEFINED> instruction: 0xffffffff
   1b568:	ffffffff 			; <UNDEFINED> instruction: 0xffffffff
   1b56c:	ffffffff 			; <UNDEFINED> instruction: 0xffffffff
   1b570:	ffffffff 			; <UNDEFINED> instruction: 0xffffffff
   1b574:	ffffffff 			; <UNDEFINED> instruction: 0xffffffff
   1b578:	ffffffff 			; <UNDEFINED> instruction: 0xffffffff
   1b57c:	ffffffff 			; <UNDEFINED> instruction: 0xffffffff
   1b580:	162a0010 			; <UNDEFINED> instruction: 0x162a0010
   1b584:	170a0000 	strne	r0, [sl, -r0]
   1b588:	ffffffff 			; <UNDEFINED> instruction: 0xffffffff
   1b58c:	ffffffff 			; <UNDEFINED> instruction: 0xffffffff
   1b590:	ffffffff 			; <UNDEFINED> instruction: 0xffffffff
   1b594:	ffffffff 			; <UNDEFINED> instruction: 0xffffffff
   1b598:	ffffffff 			; <UNDEFINED> instruction: 0xffffffff
   1b59c:	ffffffff 			; <UNDEFINED> instruction: 0xffffffff
   1b5a0:	ffffffff 			; <UNDEFINED> instruction: 0xffffffff
   1b5a4:	ffffffff 			; <UNDEFINED> instruction: 0xffffffff
   1b5a8:	ffffffff 			; <UNDEFINED> instruction: 0xffffffff
   1b5ac:	ffffffff 			; <UNDEFINED> instruction: 0xffffffff
   1b5b0:	ffffffff 			; <UNDEFINED> instruction: 0xffffffff
   1b5b4:	ffffffff 			; <UNDEFINED> instruction: 0xffffffff
   1b5b8:	ffffffff 			; <UNDEFINED> instruction: 0xffffffff
   1b5bc:	ffffffff 			; <UNDEFINED> instruction: 0xffffffff
   1b5c0:	ffffffff 			; <UNDEFINED> instruction: 0xffffffff
   1b5c4:	ffffffff 			; <UNDEFINED> instruction: 0xffffffff
   1b5c8:	ffffffff 			; <UNDEFINED> instruction: 0xffffffff
   1b5cc:	29020000 	stmdbcs	r2, {}	; <UNPREDICTABLE>
   1b5d0:	2a0a0000 	bcs	29b5d8 <pBaseVideoMem+0x27b310>
   1b5d4:	ffffffff 			; <UNDEFINED> instruction: 0xffffffff
   1b5d8:	ffffffff 			; <UNDEFINED> instruction: 0xffffffff
   1b5dc:	ffffffff 			; <UNDEFINED> instruction: 0xffffffff
   1b5e0:	ffffffff 			; <UNDEFINED> instruction: 0xffffffff
   1b5e4:	ffffffff 			; <UNDEFINED> instruction: 0xffffffff
   1b5e8:	ffffffff 			; <UNDEFINED> instruction: 0xffffffff
   1b5ec:	ffffffff 			; <UNDEFINED> instruction: 0xffffffff
   1b5f0:	ffffffff 			; <UNDEFINED> instruction: 0xffffffff
   1b5f4:	332a0010 			; <UNDEFINED> instruction: 0x332a0010
   1b5f8:	ffffffff 			; <UNDEFINED> instruction: 0xffffffff
   1b5fc:	ffffffff 			; <UNDEFINED> instruction: 0xffffffff
   1b600:	ffffffff 			; <UNDEFINED> instruction: 0xffffffff
   1b604:	ffffffff 			; <UNDEFINED> instruction: 0xffffffff
   1b608:	ffffffff 			; <UNDEFINED> instruction: 0xffffffff
   1b60c:	ffffffff 			; <UNDEFINED> instruction: 0xffffffff
   1b610:	ffffffff 			; <UNDEFINED> instruction: 0xffffffff
   1b614:	ffffffff 			; <UNDEFINED> instruction: 0xffffffff
   1b618:	ffffffff 			; <UNDEFINED> instruction: 0xffffffff
   1b61c:	ffffffff 			; <UNDEFINED> instruction: 0xffffffff
   1b620:	ffffffff 			; <UNDEFINED> instruction: 0xffffffff
   1b624:	ffffffff 			; <UNDEFINED> instruction: 0xffffffff

0001b628 <sd_commands>:
   1b628:	00000000 	andeq	r0, r0, r0
   1b62c:	ffffffff 			; <UNDEFINED> instruction: 0xffffffff
   1b630:	02090000 	andeq	r0, r9, #0
   1b634:	030a0000 	movweq	r0, #40960	; 0xa000
   1b638:	04000000 	streq	r0, [r0], #-0
   1b63c:	05010000 	streq	r0, [r1, #-0]
   1b640:	060a0000 	streq	r0, [sl], -r0
   1b644:	070b0000 	streq	r0, [fp, -r0]
   1b648:	080a0000 	stmdaeq	sl, {}	; <UNPREDICTABLE>
   1b64c:	09090000 	stmdbeq	r9, {}	; <UNPREDICTABLE>
   1b650:	0a090000 	beq	25b658 <pBaseVideoMem+0x23b390>
   1b654:	0b0a0000 	bleq	29b65c <pBaseVideoMem+0x27b394>
   1b658:	0ccb0000 	stcleq	0, cr0, [fp], {0}
   1b65c:	0d0a0000 	stceq	0, cr0, [sl, #-0]
   1b660:	ffffffff 			; <UNDEFINED> instruction: 0xffffffff
   1b664:	0f000000 	svceq	0x00000000
   1b668:	100a0000 	andne	r0, sl, r0
   1b66c:	112a0010 			; <UNDEFINED> instruction: 0x112a0010
   1b670:	122a0032 	eorne	r0, sl, #50	; 0x32
   1b674:	132a0010 			; <UNDEFINED> instruction: 0x132a0010
   1b678:	140b0000 	strne	r0, [fp], #-0
   1b67c:	ffffffff 			; <UNDEFINED> instruction: 0xffffffff
   1b680:	ffffffff 			; <UNDEFINED> instruction: 0xffffffff
   1b684:	170a0000 	strne	r0, [sl, -r0]
   1b688:	182a0000 	stmdane	sl!, {}	; <UNPREDICTABLE>
   1b68c:	192a0022 	stmdbne	sl!, {r1, r5}
   1b690:	ffffffff 			; <UNDEFINED> instruction: 0xffffffff
   1b694:	1b2a0000 	blne	a9b69c <__bss_end+0x73369c>
   1b698:	1c0b0000 	stcne	0, cr0, [fp], {-0}
   1b69c:	1d0b0000 	stcne	0, cr0, [fp, #-0]
   1b6a0:	1e2a0010 	mcrne	0, 1, r0, cr10, cr0, {0}
   1b6a4:	ffffffff 			; <UNDEFINED> instruction: 0xffffffff
   1b6a8:	200a0000 	andcs	r0, sl, r0
   1b6ac:	210a0000 	mrscs	r0, (UNDEF: 10)
   1b6b0:	ffffffff 			; <UNDEFINED> instruction: 0xffffffff
   1b6b4:	ffffffff 			; <UNDEFINED> instruction: 0xffffffff
   1b6b8:	ffffffff 			; <UNDEFINED> instruction: 0xffffffff
   1b6bc:	ffffffff 			; <UNDEFINED> instruction: 0xffffffff
   1b6c0:	260b0000 	strcs	r0, [fp], -r0
   1b6c4:	ffffffff 			; <UNDEFINED> instruction: 0xffffffff
   1b6c8:	ffffffff 			; <UNDEFINED> instruction: 0xffffffff
   1b6cc:	ffffffff 			; <UNDEFINED> instruction: 0xffffffff
   1b6d0:	ffffffff 			; <UNDEFINED> instruction: 0xffffffff
   1b6d4:	ffffffff 			; <UNDEFINED> instruction: 0xffffffff
   1b6d8:	ffffffff 			; <UNDEFINED> instruction: 0xffffffff
   1b6dc:	ffffffff 			; <UNDEFINED> instruction: 0xffffffff
   1b6e0:	ffffffff 			; <UNDEFINED> instruction: 0xffffffff
   1b6e4:	ffffffff 			; <UNDEFINED> instruction: 0xffffffff
   1b6e8:	ffffffff 			; <UNDEFINED> instruction: 0xffffffff
   1b6ec:	ffffffff 			; <UNDEFINED> instruction: 0xffffffff
   1b6f0:	ffffffff 			; <UNDEFINED> instruction: 0xffffffff
   1b6f4:	ffffffff 			; <UNDEFINED> instruction: 0xffffffff
   1b6f8:	ffffffff 			; <UNDEFINED> instruction: 0xffffffff
   1b6fc:	ffffffff 			; <UNDEFINED> instruction: 0xffffffff
   1b700:	ffffffff 			; <UNDEFINED> instruction: 0xffffffff
   1b704:	370a0000 	strcc	r0, [sl, -r0]
   1b708:	382a0000 	stmdacc	sl!, {}	; <UNPREDICTABLE>
   1b70c:	ffffffff 			; <UNDEFINED> instruction: 0xffffffff
   1b710:	ffffffff 			; <UNDEFINED> instruction: 0xffffffff
   1b714:	ffffffff 			; <UNDEFINED> instruction: 0xffffffff
   1b718:	ffffffff 			; <UNDEFINED> instruction: 0xffffffff
   1b71c:	ffffffff 			; <UNDEFINED> instruction: 0xffffffff
   1b720:	ffffffff 			; <UNDEFINED> instruction: 0xffffffff
   1b724:	ffffffff 			; <UNDEFINED> instruction: 0xffffffff

Disassembly of section .rodata.str1.4:

0001b728 <.rodata.str1.4>:
   1b728:	6b736944 	blvs	1cf5c40 <__bss_end+0x198dc40>
   1b72c:	4f2f4920 	svcmi	0x002f4920
   1b730:	61655220 	cmnvs	r5, r0, lsr #4
   1b734:	72452064 	subvc	r2, r5, #100	; 0x64
   1b738:	20726f72 	rsbscs	r6, r2, r2, ror pc
   1b73c:	29642528 	stmdbcs	r4!, {r3, r5, r8, sl, sp}^
   1b740:	0000000a 	andeq	r0, r0, sl
   1b744:	6b736944 	blvs	1cf5c5c <__bss_end+0x198dc5c>
   1b748:	4f2f4920 	svcmi	0x002f4920
   1b74c:	69725720 	ldmdbvs	r2!, {r5, r8, r9, sl, ip, lr}^
   1b750:	45206574 	strmi	r6, [r0, #-1396]!	; 0xfffffa8c
   1b754:	726f7272 	rsbvc	r7, pc, #536870919	; 0x20000007
   1b758:	64252820 	strtvs	r2, [r5], #-2080	; 0xfffff7e0
   1b75c:	00000a29 	andeq	r0, r0, r9, lsr #20
   1b760:	4f43492e 	svcmi	0x0043492e
   1b764:	00000000 	andeq	r0, r0, r0
   1b768:	00004b4f 	andeq	r4, r0, pc, asr #22
   1b76c:	52415453 	subpl	r5, r1, #1392508928	; 0x53000000
   1b770:	00000054 	andeq	r0, r0, r4, asr r0
   1b774:	534f4c43 	movtpl	r4, #64579	; 0xfc43
   1b778:	00000045 	andeq	r0, r0, r5, asr #32
   1b77c:	434e4143 	movtmi	r4, #57667	; 0xe143
   1b780:	00000000 	andeq	r0, r0, r0
   1b784:	00534559 	subseq	r4, r3, r9, asr r5
   1b788:	00004f4e 	andeq	r4, r0, lr, asr #30
   1b78c:	504c4548 	subpl	r4, ip, r8, asr #10
   1b790:	00000000 	andeq	r0, r0, r0
   1b794:	4a534d4d 	bmi	14eecd0 <__bss_end+0x1186cd0>
   1b798:	00534f44 	subseq	r4, r3, r4, asr #30
   1b79c:	3e732523 	cdpcc	5, 7, cr2, cr3, cr3, {1}
   1b7a0:	00000000 	andeq	r0, r0, r0
   1b7a4:	4a534d4d 	bmi	14eece0 <__bss_end+0x1186ce0>
   1b7a8:	2e474643 	cdpcs	6, 4, cr4, cr7, cr3, {2}
   1b7ac:	00494e49 	subeq	r4, r9, r9, asr #28
   1b7b0:	4c4f4346 	mcrrmi	3, 4, r4, pc, cr6
   1b7b4:	0000524f 	andeq	r5, r0, pc, asr #4
   1b7b8:	4c4f4342 	mcrrmi	3, 4, r4, pc, cr2
   1b7bc:	0000524f 	andeq	r5, r0, pc, asr #4
   1b7c0:	48544150 	ldmdami	r4, {r4, r6, r8, lr}^
   1b7c4:	00000000 	andeq	r0, r0, r0
   1b7c8:	444e455b 	strbmi	r4, [lr], #-1371	; 0xfffffaa5
   1b7cc:	0000005d 	andeq	r0, r0, sp, asr r0
   1b7d0:	63657845 	cmnvs	r5, #4521984	; 0x450000
   1b7d4:	00657475 	rsbeq	r7, r5, r5, ror r4
   1b7d8:	63657845 	cmnvs	r5, #4521984	; 0x450000
   1b7dc:	3a657475 	bcc	19789b8 <__bss_end+0x16109b8>
   1b7e0:	00000000 	andeq	r0, r0, r0
   1b7e4:	6d726f46 	ldclvs	15, cr6, [r2, #-280]!	; 0xfffffee8
   1b7e8:	00007461 	andeq	r7, r0, r1, ror #8
   1b7ec:	706c6548 	rsbvc	r6, ip, r8, asr #10
   1b7f0:	00000000 	andeq	r0, r0, r0
   1b7f4:	756f6241 	strbvc	r6, [pc, #-577]!	; 1b5bb <sd_acommands+0x93>
   1b7f8:	00000074 	andeq	r0, r0, r4, ror r0
   1b7fc:	70617247 	rsbvc	r7, r1, r7, asr #4
   1b800:	61636968 	cmnvs	r3, r8, ror #18
   1b804:	6e49206c 	cdpvs	0, 4, cr2, cr9, cr12, {3}
   1b808:	66726574 			; <UNDEFINED> instruction: 0x66726574
   1b80c:	00656361 	rsbeq	r6, r5, r1, ror #6
   1b810:	61656c50 	cmnvs	r5, r0, asr ip
   1b814:	57206573 			; <UNDEFINED> instruction: 0x57206573
   1b818:	2e746961 	vsubcs.f16	s13, s8, s3	; <UNPREDICTABLE>
   1b81c:	00002e2e 	andeq	r2, r0, lr, lsr #28
   1b820:	64616f4c 	strbtvs	r6, [r1], #-3916	; 0xfffff0b4
   1b824:	20676e69 	rsbcs	r6, r7, r9, ror #28
   1b828:	666e6f43 	strbtvs	r6, [lr], -r3, asr #30
   1b82c:	00006769 	andeq	r6, r0, r9, ror #14
   1b830:	4746432e 	strbmi	r4, [r6, -lr, lsr #6]
   1b834:	00000000 	andeq	r0, r0, r0
   1b838:	4a534d4d 	bmi	14eed74 <__bss_end+0x1186d74>
   1b83c:	0049474d 	subeq	r4, r9, sp, asr #14
   1b840:	64616f4c 	strbtvs	r6, [r1], #-3916	; 0xfffff0b4
   1b844:	20676e69 	rsbcs	r6, r7, r9, ror #28
   1b848:	6e6f6349 	cdpvs	3, 6, cr6, cr15, cr9, {2}
   1b84c:	00002073 	andeq	r2, r0, r3, ror r0
   1b850:	42494c2e 	submi	r4, r9, #11776	; 0x2e00
   1b854:	00000000 	andeq	r0, r0, r0
   1b858:	45524f4d 	ldrbmi	r4, [r2, #-3917]	; 0xfffff0b3
   1b85c:	4e4f4349 	cdpmi	3, 4, cr4, cr15, cr9, {2}
   1b860:	00000000 	andeq	r0, r0, r0
   1b864:	00534c43 	subseq	r4, r3, r3, asr #24
   1b868:	41454c43 	cmpmi	r5, r3, asr #24
   1b86c:	00000052 	andeq	r0, r0, r2, asr r0
   1b870:	00524556 	subseq	r4, r2, r6, asr r5
   1b874:	4a534d4d 	bmi	14eedb0 <__bss_end+0x1186db0>
   1b878:	20534f2d 	subscs	r4, r3, sp, lsr #30
   1b87c:	0a732576 	beq	1ce4e5c <__bss_end+0x197ce5c>
   1b880:	00000000 	andeq	r0, r0, r0
   1b884:	0000534c 	andeq	r5, r0, ip, asr #6
   1b888:	656c6946 	strbvs	r6, [ip, #-2374]!	; 0xfffff6ba
   1b88c:	746f6e20 	strbtvc	r6, [pc], #-3616	; 1b894 <sd_commands+0x26c>
   1b890:	756f6620 	strbvc	r6, [pc, #-1568]!	; 1b278 <bcm2835_byte_reverse_table+0xfc>
   1b894:	2820646e 	stmdacs	r0!, {r1, r2, r3, r5, r6, sl, sp, lr}
   1b898:	0a296425 	beq	a74934 <__bss_end+0x70c934>
   1b89c:	00000000 	andeq	r0, r0, r0
   1b8a0:	00004d52 	andeq	r4, r0, r2, asr sp
   1b8a4:	004e4552 	subeq	r4, lr, r2, asr r5
   1b8a8:	00005043 	andeq	r5, r0, r3, asr #32
   1b8ac:	0000444d 	andeq	r4, r0, sp, asr #8
   1b8b0:	00004443 	andeq	r4, r0, r3, asr #8
   1b8b4:	00004452 	andeq	r4, r0, r2, asr r4
   1b8b8:	45544144 	ldrbmi	r4, [r4, #-324]	; 0xfffffebc
   1b8bc:	00000000 	andeq	r0, r0, r0
   1b8c0:	454d4954 	strbmi	r4, [sp, #-2388]	; 0xfffff6ac
   1b8c4:	00000000 	andeq	r0, r0, r0
   1b8c8:	4f434649 	svcmi	0x00434649
   1b8cc:	4749464e 	strbmi	r4, [r9, -lr, asr #12]
   1b8d0:	00000000 	andeq	r0, r0, r0
   1b8d4:	44414f4c 	strbmi	r4, [r1], #-3916	; 0xfffff0b4
   1b8d8:	00474643 	subeq	r4, r7, r3, asr #12
   1b8dc:	45444f4d 	strbmi	r4, [r4, #-3917]	; 0xfffff0b3
   1b8e0:	00000000 	andeq	r0, r0, r0
   1b8e4:	00544143 	subseq	r4, r4, r3, asr #2
   1b8e8:	61766e49 	cmnvs	r6, r9, asr #28
   1b8ec:	2064696c 	rsbcs	r6, r4, ip, ror #18
   1b8f0:	6d6d6f43 	stclvs	15, cr6, [sp, #-268]!	; 0xfffffef4
   1b8f4:	20646e61 	rsbcs	r6, r4, r1, ror #28
   1b8f8:	4620726f 	strtmi	r7, [r0], -pc, ror #4
   1b8fc:	20656c69 	rsbcs	r6, r5, r9, ror #24
   1b900:	656d614e 	strbvs	r6, [sp, #-334]!	; 0xfffffeb2
   1b904:	0000000a 	andeq	r0, r0, sl
   1b908:	61442020 	cmpvs	r4, r0, lsr #32
   1b90c:	69206574 	stmdbvs	r0!, {r2, r4, r5, r6, r8, sl, sp, lr}
   1b910:	73252073 			; <UNDEFINED> instruction: 0x73252073
   1b914:	0000000a 	andeq	r0, r0, sl
   1b918:	69542020 	ldmdbvs	r4, {r5, sp}^
   1b91c:	6920656d 	stmdbvs	r0!, {r0, r2, r3, r5, r6, r8, sl, sp, lr}
   1b920:	6e252073 	mcrvs	0, 1, r2, cr5, cr3, {3}
   1b924:	0000000a 	andeq	r0, r0, sl
   1b928:	20202020 	eorcs	r2, r0, r0, lsr #32
   1b92c:	41205049 			; <UNDEFINED> instruction: 0x41205049
   1b930:	3a726464 	bcc	1cb4ac8 <__bss_end+0x194cac8>
   1b934:	0a732520 	beq	1ce4dbc <__bss_end+0x197cdbc>
   1b938:	00000000 	andeq	r0, r0, r0
   1b93c:	20202020 	eorcs	r2, r0, r0, lsr #32
   1b940:	4d627553 	cfstr64mi	mvdx7, [r2, #-332]!	; 0xfffffeb4
   1b944:	3a6b7361 	bcc	1af86d0 <__bss_end+0x17906d0>
   1b948:	0a732520 	beq	1ce4dd0 <__bss_end+0x197cdd0>
   1b94c:	00000000 	andeq	r0, r0, r0
   1b950:	20202020 	eorcs	r2, r0, r0, lsr #32
   1b954:	65746147 	ldrbvs	r6, [r4, #-327]!	; 0xfffffeb9
   1b958:	3a796177 	bcc	1e73f3c <__bss_end+0x1b0bf3c>
   1b95c:	0a732520 	beq	1ce4de4 <__bss_end+0x197cde4>
   1b960:	00000000 	andeq	r0, r0, r0
   1b964:	44202020 	strtmi	r2, [r0], #-32	; 0xffffffe0
   1b968:	5020534e 	eorpl	r5, r0, lr, asr #6
   1b96c:	3a6d6972 	bcc	1b75f3c <__bss_end+0x180df3c>
   1b970:	0a732520 	beq	1ce4df8 <__bss_end+0x197cdf8>
   1b974:	00000000 	andeq	r0, r0, r0
   1b978:	20202020 	eorcs	r2, r0, r0, lsr #32
   1b97c:	20534e44 	subscs	r4, r3, r4, asr #28
   1b980:	3a636553 	bcc	18f4ed4 <__bss_end+0x158ced4>
   1b984:	0a732520 	beq	1ce4e0c <__bss_end+0x197ce0c>
   1b988:	00000000 	andeq	r0, r0, r0
   1b98c:	00000047 	andeq	r0, r0, r7, asr #32
   1b990:	0000004d 	andeq	r0, r0, sp, asr #32
   1b994:	54524155 	ldrbpl	r4, [r2], #-341	; 0xfffffeab
   1b998:	696e4920 	stmdbvs	lr!, {r5, r8, fp, lr}^
   1b99c:	6c616974 			; <UNDEFINED> instruction: 0x6c616974
   1b9a0:	64657a69 	strbtvs	r7, [r5], #-2665	; 0xfffff597
   1b9a4:	0d2e2e2e 	stceq	14, cr2, [lr, #-184]!	; 0xffffff48
   1b9a8:	00000000 	andeq	r0, r0, r0
   1b9ac:	6e6e7552 	mcrvs	5, 3, r7, cr14, cr2, {2}
   1b9b0:	20676e69 	rsbcs	r6, r7, r9, ror #28
   1b9b4:	4a534d4d 	bmi	14eeef0 <__bss_end+0x1186ef0>
   1b9b8:	20534f2d 	subscs	r4, r3, sp, lsr #30
   1b9bc:	73726576 	cmnvc	r2, #494927872	; 0x1d800000
   1b9c0:	206e6f69 	rsbcs	r6, lr, r9, ror #30
   1b9c4:	000a7325 	andeq	r7, sl, r5, lsr #6
   1b9c8:	73615220 	cmnvc	r1, #32, 4
   1b9cc:	72656270 	rsbvc	r6, r5, #112, 4
   1b9d0:	50207972 	eorpl	r7, r0, r2, ror r9
   1b9d4:	655a2049 	ldrbvs	r2, [sl, #-73]	; 0xffffffb7
   1b9d8:	57206f72 			; <UNDEFINED> instruction: 0x57206f72
   1b9dc:	2e317620 	cfmsuba32cs	mvax1, mvax7, mvfx1, mvfx0
   1b9e0:	74612031 	strbtvc	r2, [r1], #-49	; 0xffffffcf
   1b9e4:	25642520 	strbcs	r2, [r4, #-1312]!	; 0xfffffae0
   1b9e8:	2e7a4873 	mrccs	8, 3, r4, cr10, cr3, {3}
   1b9ec:	0000000a 	andeq	r0, r0, sl
   1b9f0:	41202020 			; <UNDEFINED> instruction: 0x41202020
   1b9f4:	20364d52 	eorscs	r4, r6, r2, asr sp
   1b9f8:	20555043 	subscs	r5, r5, r3, asr #32
   1b9fc:	25204449 	strcs	r4, [r0, #-1097]!	; 0xfffffbb7
   1ba00:	0a783830 	beq	1e29ac8 <__bss_end+0x1ac1ac8>
   1ba04:	00000000 	andeq	r0, r0, r0
   1ba08:	46202020 	strtmi	r2, [r0], -r0, lsr #32
   1ba0c:	776d7269 	strbvc	r7, [sp, -r9, ror #4]!
   1ba10:	20657261 	rsbcs	r7, r5, r1, ror #4
   1ba14:	78343025 	ldmdavc	r4!, {r0, r2, r5, ip, sp}
   1ba18:	0000000a 	andeq	r0, r0, sl
   1ba1c:	4d202020 	stcmi	0, cr2, [r0, #-128]!	; 0xffffff80
   1ba20:	6c65646f 	cfstrdvs	mvd6, [r5], #-444	; 0xfffffe44
   1ba24:	34302520 	ldrtcc	r2, [r0], #-1312	; 0xfffffae0
   1ba28:	00000a78 	andeq	r0, r0, r8, ror sl
   1ba2c:	52202020 	eorpl	r2, r0, #32
   1ba30:	73697665 	cmnvc	r9, #105906176	; 0x6500000
   1ba34:	206e6f69 	rsbcs	r6, lr, r9, ror #30
   1ba38:	78343025 	ldmdavc	r4!, {r0, r2, r5, ip, sp}
   1ba3c:	0000000a 	andeq	r0, r0, sl
   1ba40:	4d202020 	stcmi	0, cr2, [r0, #-128]!	; 0xffffff80
   1ba44:	41204341 			; <UNDEFINED> instruction: 0x41204341
   1ba48:	65726464 	ldrbvs	r6, [r2, #-1124]!	; 0xfffffb9c
   1ba4c:	25207373 	strcs	r7, [r0, #-883]!	; 0xfffffc8d
   1ba50:	2e783230 	mrccs	2, 3, r3, cr8, cr0, {1}
   1ba54:	78323025 	ldmdavc	r2!, {r0, r2, r5, ip, sp}
   1ba58:	3230252e 	eorscc	r2, r0, #192937984	; 0xb800000
   1ba5c:	30252e78 	eorcc	r2, r5, r8, ror lr
   1ba60:	252e7832 	strcs	r7, [lr, #-2098]!	; 0xfffff7ce
   1ba64:	2e783230 	mrccs	2, 3, r3, cr8, cr0, {1}
   1ba68:	78323025 	ldmdavc	r2!, {r0, r2, r5, ip, sp}
   1ba6c:	0000000a 	andeq	r0, r0, sl
   1ba70:	53202020 			; <UNDEFINED> instruction: 0x53202020
   1ba74:	61697265 	cmnvs	r9, r5, ror #4
   1ba78:	3025206c 	eorcc	r2, r5, ip, rrx
   1ba7c:	000a7838 	andeq	r7, sl, r8, lsr r8
   1ba80:	746f5420 	strbtvc	r5, [pc], #-1056	; 1ba88 <sd_commands+0x460>
   1ba84:	46206c61 	strtmi	r6, [r0], -r1, ror #24
   1ba88:	20656572 	rsbcs	r6, r5, r2, ror r5
   1ba8c:	6f6d654d 	svcvs	0x006d654d
   1ba90:	25207972 	strcs	r7, [r0, #-2418]!	; 0xfffff68e
   1ba94:	0a424d64 	beq	10af02c <__bss_end+0xd4702c>
   1ba98:	00000000 	andeq	r0, r0, r0
   1ba9c:	20474456 	subcs	r4, r7, r6, asr r4
   1baa0:	666e6f43 	strbtvs	r6, [lr], -r3, asr #30
   1baa4:	72756769 	rsbsvc	r6, r5, #27525120	; 0x1a40000
   1baa8:	6f697461 	svcvs	0x00697461
   1baac:	2e2e736e 	cdpcs	3, 2, cr7, cr14, cr14, {3}
   1bab0:	00000a2e 	andeq	r0, r0, lr, lsr #20
   1bab4:	61724720 	cmnvs	r2, r0, lsr #14
   1bab8:	63696870 	cmnvs	r9, #112, 16	; 0x700000
   1babc:	78642520 	stmdavc	r4!, {r5, r8, sl, sp}^
   1bac0:	202c6425 	eorcs	r6, ip, r5, lsr #8
   1bac4:	74786554 	ldrbtvc	r6, [r8], #-1364	; 0xfffffaac
   1bac8:	78642520 	stmdavc	r4!, {r5, r8, sl, sp}^
   1bacc:	2e2e6425 	cdpcs	4, 2, cr6, cr14, cr5, {1}
   1bad0:	00000a2e 	andeq	r0, r0, lr, lsr #20
   1bad4:	756f5420 	strbvc	r5, [pc, #-1056]!	; 1b6bc <sd_commands+0x94>
   1bad8:	4d206863 	stcmi	8, cr6, [r0, #-396]!	; 0xfffffe74
   1badc:	6c75646f 	cfldrdvs	mvd6, [r5], #-444	; 0xfffffe44
   1bae0:	2e2e2e65 	cdpcs	14, 2, cr2, cr14, cr5, {3}
   1bae4:	756f4620 	strbvc	r4, [pc, #-1568]!	; 1b4cc <bcm2835_byte_reverse_table+0x350>
   1bae8:	0a2e646e 	beq	bb4ca8 <__bss_end+0x84cca8>
   1baec:	00000000 	andeq	r0, r0, r0
   1baf0:	756f5420 	strbvc	r5, [pc, #-1056]!	; 1b6d8 <sd_commands+0xb0>
   1baf4:	4d206863 	stcmi	8, cr6, [r0, #-396]!	; 0xfffffe74
   1baf8:	6c75646f 	cfldrdvs	mvd6, [r5], #-444	; 0xfffffe44
   1bafc:	2e2e2e65 	cdpcs	14, 2, cr2, cr14, cr5, {3}
   1bb00:	544f4e20 	strbpl	r4, [pc], #-3616	; 1bb08 <sd_commands+0x4e0>
   1bb04:	756f4620 	strbvc	r4, [pc, #-1568]!	; 1b4ec <bcm2835_byte_reverse_table+0x370>
   1bb08:	0a2e646e 	beq	bb4cc8 <__bss_end+0x84ccc8>
   1bb0c:	00000000 	andeq	r0, r0, r0
   1bb10:	74696e49 	strbtvc	r6, [r9], #-3657	; 0xfffff1b7
   1bb14:	696c6169 	stmdbvs	ip!, {r0, r3, r5, r6, r8, sp, lr}^
   1bb18:	676e697a 			; <UNDEFINED> instruction: 0x676e697a
   1bb1c:	6c694620 	stclvs	6, cr4, [r9], #-128	; 0xffffff80
   1bb20:	73795365 	cmnvc	r9, #-1811939327	; 0x94000001
   1bb24:	2e6d6574 	mcrcs	5, 3, r6, cr13, cr4, {3}
   1bb28:	00202e2e 	eoreq	r2, r0, lr, lsr #28
   1bb2c:	7272450a 	rsbsvc	r4, r2, #41943040	; 0x2800000
   1bb30:	4d20726f 	sfmmi	f7, 4, [r0, #-444]!	; 0xfffffe44
   1bb34:	746e756f 	strbtvc	r7, [lr], #-1391	; 0xfffffa91
   1bb38:	20676e69 	rsbcs	r6, r7, r9, ror #28
   1bb3c:	6b736944 	blvs	1cf6054 <__bss_end+0x198e054>
   1bb40:	6143202e 	cmpvs	r3, lr, lsr #32
   1bb44:	2074276e 	rsbscs	r2, r4, lr, ror #14
   1bb48:	74696e49 	strbtvc	r6, [r9], #-3657	; 0xfffff1b7
   1bb4c:	696c6169 	stmdbvs	ip!, {r0, r3, r5, r6, r8, sp, lr}^
   1bb50:	2820657a 	stmdacs	r0!, {r1, r3, r4, r5, r6, r8, sl, sp, lr}
   1bb54:	2e296425 	cdpcs	4, 2, cr6, cr9, cr5, {1}
   1bb58:	0000000a 	andeq	r0, r0, sl
   1bb5c:	7272450a 	rsbsvc	r4, r2, #41943040	; 0x2800000
   1bb60:	4d20726f 	sfmmi	f7, 4, [r0, #-444]!	; 0xfffffe44
   1bb64:	746e756f 	strbtvc	r7, [lr], #-1391	; 0xfffffa91
   1bb68:	20676e69 	rsbcs	r6, r7, r9, ror #28
   1bb6c:	6b736944 	blvs	1cf6084 <__bss_end+0x198e084>
   1bb70:	6143202e 	cmpvs	r3, lr, lsr #32
   1bb74:	2074276e 	rsbscs	r2, r4, lr, ror #14
   1bb78:	64616552 	strbtvs	r6, [r1], #-1362	; 0xfffffaae
   1bb7c:	64252820 	strtvs	r2, [r5], #-2080	; 0xfffff7e0
   1bb80:	000a2e29 	andeq	r2, sl, r9, lsr #28
   1bb84:	656e6f44 	strbvs	r6, [lr, #-3908]!	; 0xfffff0bc
   1bb88:	00000a2e 	andeq	r0, r0, lr, lsr #20
   1bb8c:	20444948 	subcs	r4, r4, r8, asr #18
   1bb90:	2044424b 	subcs	r4, r4, fp, asr #4
   1bb94:	4f504552 	svcmi	0x00504552
   1bb98:	203a5452 	eorscs	r5, sl, r2, asr r4
   1bb9c:	65747942 	ldrbvs	r7, [r4, #-2370]!	; 0xfffff6be
   1bba0:	30203a31 	eorcc	r3, r0, r1, lsr sl
   1bba4:	32302578 	eorscc	r2, r0, #120, 10	; 0x1e000000
   1bba8:	79422078 	stmdbvc	r2, {r3, r4, r5, r6, sp}^
   1bbac:	3a326574 	bcc	cb5184 <__bss_end+0x94d184>
   1bbb0:	25783020 	ldrbcs	r3, [r8, #-32]!	; 0xffffffe0
   1bbb4:	2c783230 	lfmcs	f3, 2, [r8], #-192	; 0xffffff40
   1bbb8:	74794220 	ldrbtvc	r4, [r9], #-544	; 0xfffffde0
   1bbbc:	203a3365 	eorscs	r3, sl, r5, ror #6
   1bbc0:	30257830 	eorcc	r7, r5, r0, lsr r8
   1bbc4:	202c7832 	eorcs	r7, ip, r2, lsr r8
   1bbc8:	65747942 	ldrbvs	r7, [r4, #-2370]!	; 0xfffff6be
   1bbcc:	30203a34 	eorcc	r3, r0, r4, lsr sl
   1bbd0:	32302578 	eorscc	r2, r0, #120, 10	; 0x1e000000
   1bbd4:	00000a78 	andeq	r0, r0, r8, ror sl
   1bbd8:	20202020 	eorcs	r2, r0, r0, lsr #32
   1bbdc:	20202020 	eorcs	r2, r0, r0, lsr #32
   1bbe0:	20202020 	eorcs	r2, r0, r0, lsr #32
   1bbe4:	20202020 	eorcs	r2, r0, r0, lsr #32
   1bbe8:	65747942 	ldrbvs	r7, [r4, #-2370]!	; 0xfffff6be
   1bbec:	30203a35 	eorcc	r3, r0, r5, lsr sl
   1bbf0:	32302578 	eorscc	r2, r0, #120, 10	; 0x1e000000
   1bbf4:	79422078 	stmdbvc	r2, {r3, r4, r5, r6, sp}^
   1bbf8:	3a366574 	bcc	db51d0 <__bss_end+0xa4d1d0>
   1bbfc:	25783020 	ldrbcs	r3, [r8, #-32]!	; 0xffffffe0
   1bc00:	2c783230 	lfmcs	f3, 2, [r8], #-192	; 0xffffff40
   1bc04:	74794220 	ldrbtvc	r4, [r9], #-544	; 0xfffffde0
   1bc08:	203a3765 	eorscs	r3, sl, r5, ror #14
   1bc0c:	30257830 	eorcc	r7, r5, r0, lsr r8
   1bc10:	202c7832 	eorcs	r7, ip, r2, lsr r8
   1bc14:	65747942 	ldrbvs	r7, [r4, #-2370]!	; 0xfffff6be
   1bc18:	30203a38 	eorcc	r3, r0, r8, lsr sl
   1bc1c:	32302578 	eorscc	r2, r0, #120, 10	; 0x1e000000
   1bc20:	00000a78 	andeq	r0, r0, r8, ror sl
   1bc24:	74617453 	strbtvc	r7, [r1], #-1107	; 0xfffffbad
   1bc28:	65207375 	strvs	r7, [r0, #-885]!	; 0xfffffc8b
   1bc2c:	726f7272 	rsbvc	r7, pc, #536870919	; 0x20000007
   1bc30:	3025203a 	eorcc	r2, r5, sl, lsr r0
   1bc34:	000a7838 	andeq	r7, sl, r8, lsr r8
   1bc38:	6279654b 	rsbsvs	r6, r9, #314572800	; 0x12c00000
   1bc3c:	6472616f 	ldrbtvs	r6, [r2], #-367	; 0xfffffe91
   1bc40:	74656420 	strbtvc	r6, [r5], #-1056	; 0xfffffbe0
   1bc44:	65746365 	ldrbvs	r6, [r4, #-869]!	; 0xfffffc9b
   1bc48:	00000a64 	andeq	r0, r0, r4, ror #20
   1bc4c:	00312e30 	eorseq	r2, r1, r0, lsr lr
   1bc50:	6f727245 	svcvs	0x00727245
   1bc54:	74612072 	strbtvc	r2, [r1], #-114	; 0xffffff8e
   1bc58:	00000020 	andeq	r0, r0, r0, lsr #32
   1bc5c:	30257830 	eorcc	r7, r5, r0, lsr r8
   1bc60:	003a7838 	eorseq	r7, sl, r8, lsr r8
   1bc64:	78323025 	ldmdavc	r2!, {r0, r2, r5, ip, sp}
   1bc68:	00000020 	andeq	r0, r0, r0, lsr #32
   1bc6c:	25207c20 	strcs	r7, [r0, #-3104]!	; 0xfffff3e0
   1bc70:	00000a73 	andeq	r0, r0, r3, ror sl
   1bc74:	6f727245 	svcvs	0x00727245
   1bc78:	70672072 	rsbvc	r2, r7, r2, ror r0
   1bc7c:	65536f69 	ldrbvs	r6, [r3, #-3945]	; 0xfffff097
   1bc80:	6e754674 	mrcvs	6, 3, r4, cr5, cr4, {3}
   1bc84:	6f697463 	svcvs	0x00697463
   1bc88:	70202c6e 	eorvc	r2, r0, lr, ror #24
   1bc8c:	253a6e69 	ldrcs	r6, [sl, #-3689]!	; 0xfffff197
   1bc90:	00000a64 	andeq	r0, r0, r4, ror #20
   1bc94:	73796850 	cmnvc	r9, #80, 16	; 0x500000
   1bc98:	6c616369 	stclvs	3, cr6, [r1], #-420	; 0xfffffe5c
   1bc9c:	736f6820 	cmnvc	pc, #32, 16	; 0x200000
   1bca0:	6f702074 	svcvs	0x00702074
   1bca4:	20726577 	rsbscs	r6, r2, r7, ror r5
   1bca8:	0a66666f 	beq	19b566c <__bss_end+0x164d66c>
   1bcac:	00000000 	andeq	r0, r0, r0
   1bcb0:	73796850 	cmnvc	r9, #80, 16	; 0x500000
   1bcb4:	6c616369 	stclvs	3, cr6, [r1], #-420	; 0xfffffe5c
   1bcb8:	736f6820 	cmnvc	pc, #32, 16	; 0x200000
   1bcbc:	6f702074 	svcvs	0x00702074
   1bcc0:	20726577 	rsbscs	r6, r2, r7, ror r5
   1bcc4:	000a6e6f 	andeq	r6, sl, pc, ror #28
   1bcc8:	2e387141 	rsfcsem	f7, f0, f1
   1bccc:	00000000 	andeq	r0, r0, r0
   1bcd0:	2e347141 	rsfcssm	f7, f4, f1
   1bcd4:	00000000 	andeq	r0, r0, r0
   1bcd8:	4948202d 	stmdbmi	r8, {r0, r2, r3, r5, sp}^
   1bcdc:	6e692044 	cdpvs	0, 6, cr2, cr9, cr4, {2}
   1bce0:	66726574 			; <UNDEFINED> instruction: 0x66726574
   1bce4:	00656361 	rsbeq	r6, r5, r1, ror #6
   1bce8:	00002020 	andeq	r2, r0, r0, lsr #32
   1bcec:	00202020 	eoreq	r2, r0, r0, lsr #32
   1bcf0:	0000002a 	andeq	r0, r0, sl, lsr #32
   1bcf4:	20732520 	rsbscs	r2, r3, r0, lsr #10
   1bcf8:	00000000 	andeq	r0, r0, r0
   1bcfc:	2073252d 	rsbscs	r2, r3, sp, lsr #10
   1bd00:	203a6469 	eorscs	r6, sl, r9, ror #8
   1bd04:	70207825 	eorvc	r7, r0, r5, lsr #16
   1bd08:	3a74726f 	bcc	1d386cc <__bss_end+0x19d06cc>
   1bd0c:	20692520 	rsbcs	r2, r9, r0, lsr #10
   1bd10:	65657073 	strbvs	r7, [r5, #-115]!	; 0xffffff8d
   1bd14:	25203a64 	strcs	r3, [r0, #-2660]!	; 0xfffff59c
   1bd18:	61702073 	cmnvs	r0, r3, ror r0
   1bd1c:	74656b63 	strbtvc	r6, [r5], #-2915	; 0xfffff49d
   1bd20:	657a6973 	ldrbvs	r6, [sl, #-2419]!	; 0xfffff68d
   1bd24:	6925203a 	stmdbvs	r5!, {r1, r3, r4, r5, sp}
   1bd28:	0a732520 	beq	1ce51b0 <__bss_end+0x197d1b0>
   1bd2c:	00000000 	andeq	r0, r0, r0
   1bd30:	3a444348 	bcc	112ca58 <__bss_end+0xdc4a58>
   1bd34:	72614820 	rsbvc	r4, r1, #32, 16	; 0x200000
   1bd38:	72617764 	rsbvc	r7, r1, #100, 14	; 0x1900000
   1bd3c:	00203a65 	eoreq	r3, r0, r5, ror #20
   1bd40:	252e7825 	strcs	r7, [lr, #-2085]!	; 0xfffff7db
   1bd44:	25782578 	ldrbcs	r2, [r8, #-1400]!	; 0xfffffa88
   1bd48:	42282078 	eormi	r2, r8, #120	; 0x78
   1bd4c:	30254d43 	eorcc	r4, r5, r3, asr #26
   1bd50:	2e297835 	mcrcs	8, 1, r7, cr9, cr5, {1}
   1bd54:	69724420 	ldmdbvs	r2!, {r5, sl, lr}^
   1bd58:	20726576 	rsbscs	r6, r2, r6, ror r5
   1bd5c:	6f636e69 	svcvs	0x00636e69
   1bd60:	7461706d 	strbtvc	r7, [r1], #-109	; 0xffffff93
   1bd64:	656c6269 	strbvs	r6, [ip, #-617]!	; 0xfffffd97
   1bd68:	7845202e 	stmdavc	r5, {r1, r2, r3, r5, sp}^
   1bd6c:	74636570 	strbtvc	r6, [r3], #-1392	; 0xfffffa90
   1bd70:	4f206465 	svcmi	0x00206465
   1bd74:	782e3254 	stmdavc	lr!, {r2, r4, r6, r9, ip, sp}
   1bd78:	28207878 	stmdacs	r0!, {r3, r4, r5, r6, fp, ip, sp, lr}
   1bd7c:	324d4342 	subcc	r4, sp, #134217729	; 0x8000001
   1bd80:	78383037 	ldmdavc	r8!, {r0, r1, r2, r4, r5, ip, sp}
   1bd84:	000a2e29 	andeq	r2, sl, r9, lsr #28
   1bd88:	252e7825 	strcs	r7, [lr, #-2085]!	; 0xfffff7db
   1bd8c:	25782578 	ldrbcs	r2, [r8, #-1400]!	; 0xfffffa88
   1bd90:	42282078 	eormi	r2, r8, #120	; 0x78
   1bd94:	30254d43 	eorcc	r4, r5, r3, asr #26
   1bd98:	2e297835 	mcrcs	8, 1, r7, cr9, cr5, {1}
   1bd9c:	0000000a 	andeq	r0, r0, sl
   1bda0:	3a444348 	bcc	112cac8 <__bss_end+0xdc4ac8>
   1bda4:	736f4820 	cmnvc	pc, #32, 16	; 0x200000
   1bda8:	72612074 	rsbvc	r2, r1, #116	; 0x74
   1bdac:	74696863 	strbtvc	r6, [r9], #-2147	; 0xfffff79d
   1bdb0:	75746365 	ldrbvc	r6, [r4, #-869]!	; 0xfffffc9b
   1bdb4:	64206572 	strtvs	r6, [r0], #-1394	; 0xfffffa8e
   1bdb8:	2073656f 	rsbscs	r6, r3, pc, ror #10
   1bdbc:	20746f6e 	rsbscs	r6, r4, lr, ror #30
   1bdc0:	70707573 	rsbsvc	r7, r0, r3, ror r5
   1bdc4:	2074726f 	rsbscs	r7, r4, pc, ror #4
   1bdc8:	65746e49 	ldrbvs	r6, [r4, #-3657]!	; 0xfffff1b7
   1bdcc:	6c616e72 	stclvs	14, cr6, [r1], #-456	; 0xfffffe38
   1bdd0:	414d4420 	cmpmi	sp, r0, lsr #8
   1bdd4:	0000000a 	andeq	r0, r0, sl
   1bdd8:	3a444348 	bcc	112cb00 <__bss_end+0xdc4b00>
   1bddc:	67694820 	strbvs	r4, [r9, -r0, lsr #16]!
   1bde0:	70732068 	rsbsvc	r2, r3, r8, rrx
   1bde4:	20646565 	rsbcs	r6, r4, r5, ror #10
   1bde8:	73796870 	cmnvc	r9, #112, 16	; 0x700000
   1bdec:	6c616369 	stclvs	3, cr6, [r1], #-420	; 0xfffffe5c
   1bdf0:	736e7520 	cmnvc	lr, #32, 10	; 0x8000000
   1bdf4:	6f707075 	svcvs	0x00707075
   1bdf8:	64657472 	strbtvs	r7, [r5], #-1138	; 0xfffffb8e
   1bdfc:	0000000a 	andeq	r0, r0, sl
   1be00:	3a444348 	bcc	112cb28 <__bss_end+0xdc4b28>
   1be04:	69614620 	stmdbvs	r1!, {r5, r9, sl, lr}^
   1be08:	2064656c 	rsbcs	r6, r4, ip, ror #10
   1be0c:	70206f74 	eorvc	r6, r0, r4, ror pc
   1be10:	7265776f 	rsbvc	r7, r5, #29097984	; 0x1bc0000
   1be14:	206e6f20 	rsbcs	r6, lr, r0, lsr #30
   1be18:	20425355 	subcs	r5, r2, r5, asr r3
   1be1c:	74736f48 	ldrbtvc	r6, [r3], #-3912	; 0xfffff0b8
   1be20:	6e6f4320 	cdpvs	3, 6, cr4, cr15, cr0, {1}
   1be24:	6c6f7274 	sfmvs	f7, 2, [pc], #-464	; 1bc5c <sd_commands+0x634>
   1be28:	2e72656c 	cdpcs	5, 7, cr6, cr2, cr12, {3}
   1be2c:	0000000a 	andeq	r0, r0, sl
   1be30:	2e307141 	rsfcssm	f7, f0, f1
   1be34:	00000000 	andeq	r0, r0, r0
   1be38:	2e317141 	rsfcssm	f7, f1, f1
   1be3c:	00000000 	andeq	r0, r0, r0
   1be40:	2e327141 	rsfcssm	f7, f2, f1
   1be44:	00000000 	andeq	r0, r0, r0
   1be48:	2e337141 	rsfcssm	f7, f3, f1
   1be4c:	00000000 	andeq	r0, r0, r0
   1be50:	41544146 	cmpmi	r4, r6, asr #2
   1be54:	5245204c 	subpl	r2, r5, #76	; 0x4c
   1be58:	3a524f52 	bcc	14afba8 <__bss_end+0x1147ba8>
   1be5c:	756f4320 	strbvc	r4, [pc, #-800]!	; 1bb44 <sd_commands+0x51c>
   1be60:	6e20646c 	cdpvs	4, 2, cr6, cr0, cr12, {3}
   1be64:	6420746f 	strtvs	r7, [r0], #-1135	; 0xfffffb91
   1be68:	2061206f 	rsbcs	r2, r1, pc, rrx
   1be6c:	7473614d 	ldrbtvc	r6, [r3], #-333	; 0xfffffeb3
   1be70:	72207265 	eorvc	r7, r0, #1342177286	; 0x50000006
   1be74:	74657365 	strbtvc	r7, [r5], #-869	; 0xfffffc9b
   1be78:	206e6f20 	rsbcs	r6, lr, r0, lsr #30
   1be7c:	2e444348 	cdpcs	3, 4, cr4, cr4, cr8, {2}
   1be80:	0000000a 	andeq	r0, r0, sl
   1be84:	3a444348 	bcc	112cbac <__bss_end+0xdc4bac>
   1be88:	616e5520 	cmnvs	lr, r0, lsr #10
   1be8c:	20656c62 	rsbcs	r6, r5, r2, ror #24
   1be90:	63206f74 			; <UNDEFINED> instruction: 0x63206f74
   1be94:	7261656c 	rsbvc	r6, r1, #108, 10	; 0x1b000000
   1be98:	6c616820 	stclvs	8, cr6, [r1], #-128	; 0xffffff80
   1be9c:	6e6f2074 	mcrvs	0, 3, r2, cr15, cr4, {3}
   1bea0:	61686320 	cmnvs	r8, r0, lsr #6
   1bea4:	6c656e6e 	stclvs	14, cr6, [r5], #-440	; 0xfffffe48
   1bea8:	2e692520 	cdpcs	5, 6, cr2, cr9, cr0, {1}
   1beac:	0000000a 	andeq	r0, r0, sl
   1beb0:	2e357141 	rsfcssm	f7, f5, f1
   1beb4:	00000000 	andeq	r0, r0, r0
   1beb8:	3a444348 	bcc	112cbe0 <__bss_end+0xdc4be0>
   1bebc:	61684320 	cmnvs	r8, r0, lsr #6
   1bec0:	6c656e6e 	stclvs	14, cr6, [r5], #-440	; 0xfffffe48
   1bec4:	20642520 	rsbcs	r2, r4, r0, lsr #10
   1bec8:	6e207369 	cdpvs	3, 2, cr7, cr0, cr9, {3}
   1becc:	6120746f 			; <UNDEFINED> instruction: 0x6120746f
   1bed0:	6c696176 	stfvse	f6, [r9], #-472	; 0xfffffe28
   1bed4:	656c6261 	strbvs	r6, [ip, #-609]!	; 0xfffffd9f
   1bed8:	206e6f20 	rsbcs	r6, lr, r0, lsr #30
   1bedc:	73696874 	cmnvc	r9, #116, 16	; 0x740000
   1bee0:	736f6820 	cmnvc	pc, #32, 16	; 0x200000
   1bee4:	000a2e74 	andeq	r2, sl, r4, ror lr
   1bee8:	3a444348 	bcc	112cc10 <__bss_end+0xdc4c10>
   1beec:	71655220 	cmnvc	r5, r0, lsr #4
   1bef0:	74736575 	ldrbtvc	r6, [r3], #-1397	; 0xfffffa8b
   1bef4:	206e6f20 	rsbcs	r6, lr, r0, lsr #30
   1bef8:	6e616863 	cdpvs	8, 6, cr6, cr1, cr3, {3}
   1befc:	206c656e 	rsbcs	r6, ip, lr, ror #10
   1bf00:	68206925 	stmdavs	r0!, {r0, r2, r5, r8, fp, sp, lr}
   1bf04:	74207361 	strtvc	r7, [r0], #-865	; 0xfffffc9f
   1bf08:	64656d69 	strbtvs	r6, [r5], #-3433	; 0xfffff297
   1bf0c:	74756f20 	ldrbtvc	r6, [r5], #-3872	; 0xfffff0e0
   1bf10:	00000a2e 	andeq	r0, r0, lr, lsr #20
   1bf14:	75736552 	ldrbvc	r6, [r3, #-1362]!	; 0xfffffaae
   1bf18:	203a746c 	eorscs	r7, sl, ip, ror #8
   1bf1c:	41206925 			; <UNDEFINED> instruction: 0x41206925
   1bf20:	6f697463 	svcvs	0x00697463
   1bf24:	30203a6e 	eorcc	r3, r0, lr, ror #20
   1bf28:	38302578 	ldmdacc	r0!, {r3, r4, r5, r6, r8, sl, sp}
   1bf2c:	65742078 	ldrbvs	r2, [r4, #-120]!	; 0xffffff88
   1bf30:	6e49706d 	cdpvs	0, 4, cr7, cr9, cr13, {3}
   1bf34:	30203a74 	eorcc	r3, r0, r4, ror sl
   1bf38:	38302578 	ldmdacc	r0!, {r3, r4, r5, r6, r8, sl, sp}
   1bf3c:	65742078 	ldrbvs	r2, [r4, #-120]!	; 0xffffff88
   1bf40:	7053706d 	subsvc	r7, r3, sp, rrx
   1bf44:	3a74696c 	bcc	1d364fc <__bss_end+0x19ce4fc>
   1bf48:	25783020 	ldrbcs	r3, [r8, #-32]!	; 0xffffffe0
   1bf4c:	20783830 	rsbscs	r3, r8, r0, lsr r8
   1bf50:	65747942 	ldrbvs	r7, [r4, #-2370]!	; 0xfffff6be
   1bf54:	65732073 	ldrbvs	r2, [r3, #-115]!	; 0xffffff8d
   1bf58:	203a746e 	eorscs	r7, sl, lr, ror #8
   1bf5c:	000a6925 	andeq	r6, sl, r5, lsr #18
   1bf60:	3a444348 	bcc	112cc88 <__bss_end+0xdc4c88>
   1bf64:	71655220 	cmnvc	r5, r0, lsr #4
   1bf68:	74736575 	ldrbtvc	r6, [r3], #-1397	; 0xfffffa8b
   1bf6c:	6c707320 	ldclvs	3, cr7, [r0], #-128	; 0xffffff80
   1bf70:	63207469 			; <UNDEFINED> instruction: 0x63207469
   1bf74:	6c706d6f 	ldclvs	13, cr6, [r0], #-444	; 0xfffffe44
   1bf78:	6f697465 	svcvs	0x00697465
   1bf7c:	6e6f206e 	cdpvs	0, 6, cr2, cr15, cr14, {3}
   1bf80:	61686320 	cmnvs	r8, r0, lsr #6
   1bf84:	6c656e6e 	stclvs	14, cr6, [r5], #-440	; 0xfffffe48
   1bf88:	2069253a 	rsbcs	r2, r9, sl, lsr r5
   1bf8c:	20736168 	rsbscs	r6, r3, r8, ror #2
   1bf90:	656d6974 	strbvs	r6, [sp, #-2420]!	; 0xfffff68c
   1bf94:	756f2064 	strbvc	r2, [pc, #-100]!	; 1bf38 <sd_commands+0x910>
   1bf98:	000a2e74 	andeq	r2, sl, r4, ror lr
   1bf9c:	3a444348 	bcc	112ccc4 <__bss_end+0xdc4cc4>
   1bfa0:	54455320 	strbpl	r5, [r5], #-800	; 0xfffffce0
   1bfa4:	70205055 	eorvc	r5, r0, r5, asr r0
   1bfa8:	656b6361 	strbvs	r6, [fp, #-865]!	; 0xfffffc9f
   1bfac:	6f742074 	svcvs	0x00742074
   1bfb0:	76656420 	strbtvc	r6, [r5], -r0, lsr #8
   1bfb4:	3a656369 	bcc	1974d60 <__bss_end+0x160cd60>
   1bfb8:	20782520 	rsbscs	r2, r8, r0, lsr #10
   1bfbc:	3a716572 	bcc	1c7558c <__bss_end+0x190d58c>
   1bfc0:	20782520 	rsbscs	r2, r8, r0, lsr #10
   1bfc4:	20716572 	rsbscs	r6, r1, r2, ror r5
   1bfc8:	65707954 	ldrbvs	r7, [r0, #-2388]!	; 0xfffff6ac
   1bfcc:	7825203a 	stmdavc	r5!, {r1, r3, r4, r5, sp}
   1bfd0:	65705320 	ldrbvs	r5, [r0, #-800]!	; 0xfffffce0
   1bfd4:	203a6465 	eorscs	r6, sl, r5, ror #8
   1bfd8:	50206925 	eorpl	r6, r0, r5, lsr #18
   1bfdc:	656b6361 	strbvs	r6, [fp, #-865]!	; 0xfffffc9f
   1bfe0:	7a695374 	bvc	1a70db8 <__bss_end+0x1708db8>
   1bfe4:	25203a65 	strcs	r3, [r0, #-2661]!	; 0xfffff59b
   1bfe8:	6f4c2069 	svcvs	0x004c2069
   1bfec:	646f4e77 	strbtvs	r4, [pc], #-3703	; 1bff4 <sd_commands+0x9cc>
   1bff0:	25203a65 	strcs	r3, [r0, #-2661]!	; 0xfffff59b
   1bff4:	6f4c2069 	svcvs	0x004c2069
   1bff8:	726f5077 	rsbvc	r5, pc, #119	; 0x77
   1bffc:	25203a74 	strcs	r3, [r0, #-2676]!	; 0xfffff58c
   1c000:	72452069 	subvc	r2, r5, #105	; 0x69
   1c004:	3a726f72 	bcc	1cb7dd4 <__bss_end+0x194fdd4>
   1c008:	0a692520 	beq	1a65490 <__bss_end+0x16fd490>
   1c00c:	00000000 	andeq	r0, r0, r0
   1c010:	3a444348 	bcc	112cd38 <__bss_end+0xdc4d38>
   1c014:	756f4320 	strbvc	r4, [pc, #-800]!	; 1bcfc <sd_commands+0x6d4>
   1c018:	6e20646c 	cdpvs	4, 2, cr6, cr0, cr12, {3}
   1c01c:	7420746f 	strtvc	r7, [r0], #-1135	; 0xfffffb91
   1c020:	736e6172 	cmnvc	lr, #-2147483620	; 0x8000001c
   1c024:	20726566 	rsbscs	r6, r2, r6, ror #10
   1c028:	41544144 	cmpmi	r4, r4, asr #2
   1c02c:	206f7420 	rsbcs	r7, pc, r0, lsr #8
   1c030:	69766564 	ldmdbvs	r6!, {r2, r5, r6, r8, sl, sp, lr}^
   1c034:	25206563 	strcs	r6, [r0, #-1379]!	; 0xfffffa9d
   1c038:	000a2e69 	andeq	r2, sl, r9, ror #28
   1c03c:	3a444348 	bcc	112cd64 <__bss_end+0xdc4d64>
   1c040:	756f4320 	strbvc	r4, [pc, #-800]!	; 1bd28 <sd_commands+0x700>
   1c044:	6e20646c 	cdpvs	4, 2, cr6, cr0, cr12, {3}
   1c048:	7420746f 	strtvc	r7, [r0], #-1135	; 0xfffffb91
   1c04c:	736e6172 	cmnvc	lr, #-2147483620	; 0x8000001c
   1c050:	20726566 	rsbscs	r6, r2, r6, ror #10
   1c054:	54415453 	strbpl	r5, [r1], #-1107	; 0xfffffbad
   1c058:	74205355 	strtvc	r5, [r0], #-853	; 0xfffffcab
   1c05c:	6564206f 	strbvs	r2, [r4, #-111]!	; 0xffffff91
   1c060:	65636976 	strbvs	r6, [r3, #-2422]!	; 0xfffff68a
   1c064:	2e692520 	cdpcs	5, 6, cr2, cr9, cr0, {1}
   1c068:	0000000a 	andeq	r0, r0, sl
   1c06c:	20444348 	subcs	r4, r4, r8, asr #6
   1c070:	20627548 	rsbcs	r7, r2, r8, asr #10
   1c074:	64616572 	strbtvs	r6, [r1], #-1394	; 0xfffffa8e
   1c078:	61747320 	cmnvs	r4, r0, lsr #6
   1c07c:	20737574 	rsbscs	r7, r3, r4, ror r5
   1c080:	6c696166 	stfvse	f6, [r9], #-408	; 0xfffffe68
   1c084:	6f206465 	svcvs	0x00206465
   1c088:	6564206e 	strbvs	r2, [r4, #-110]!	; 0xffffff92
   1c08c:	65636976 	strbvs	r6, [r3, #-2422]!	; 0xfffff68a
   1c090:	6925203a 	stmdbvs	r5!, {r1, r3, r4, r5, sp}
   1c094:	6f70202c 	svcvs	0x0070202c
   1c098:	203a7472 	eorscs	r7, sl, r2, ror r4
   1c09c:	202c6925 	eorcs	r6, ip, r5, lsr #18
   1c0a0:	75736552 	ldrbvc	r6, [r3, #-1362]!	; 0xfffffaae
   1c0a4:	203a746c 	eorscs	r7, sl, ip, ror #8
   1c0a8:	202c7825 	eorcs	r7, ip, r5, lsr #16
   1c0ac:	65706950 	ldrbvs	r6, [r0, #-2384]!	; 0xfffff6b0
   1c0b0:	65705320 	ldrbvs	r5, [r0, #-800]!	; 0xfffffce0
   1c0b4:	203a6465 	eorscs	r6, sl, r5, ror #8
   1c0b8:	202c7825 	eorcs	r7, ip, r5, lsr #16
   1c0bc:	65706950 	ldrbvs	r6, [r0, #-2384]!	; 0xfffff6b0
   1c0c0:	78614d20 	stmdavc	r1!, {r5, r8, sl, fp, lr}^
   1c0c4:	6b636150 	blvs	18f460c <__bss_end+0x158c60c>
   1c0c8:	203a7465 	eorscs	r7, sl, r5, ror #8
   1c0cc:	000a7825 	andeq	r7, sl, r5, lsr #16
   1c0d0:	3a425548 	bcc	10b15f8 <__bss_end+0xd495f8>
   1c0d4:	69614620 	stmdbvs	r1!, {r5, r9, sl, lr}^
   1c0d8:	2064656c 	rsbcs	r6, r4, ip, ror #10
   1c0dc:	72206f74 	eorvc	r6, r0, #116, 30	; 0x1d0
   1c0e0:	20646165 	rsbcs	r6, r4, r5, ror #2
   1c0e4:	20627568 	rsbcs	r7, r2, r8, ror #10
   1c0e8:	69766564 	ldmdbvs	r6!, {r2, r5, r6, r8, sl, sp, lr}^
   1c0ec:	253a6563 	ldrcs	r6, [sl, #-1379]!	; 0xfffffa9d
   1c0f0:	6f702069 	svcvs	0x00702069
   1c0f4:	253a7472 	ldrcs	r7, [sl, #-1138]!	; 0xfffffb8e
   1c0f8:	74732069 	ldrbtvc	r2, [r3], #-105	; 0xffffff97
   1c0fc:	73757461 	cmnvc	r5, #1627389952	; 0x61000000
   1c100:	0000000a 	andeq	r0, r0, sl
   1c104:	3a425548 	bcc	10b162c <__bss_end+0xd4962c>
   1c108:	69614620 	stmdbvs	r1!, {r5, r9, sl, lr}^
   1c10c:	2064656c 	rsbcs	r6, r4, ip, ror #10
   1c110:	63206f74 			; <UNDEFINED> instruction: 0x63206f74
   1c114:	676e6168 	strbvs	r6, [lr, -r8, ror #2]!
   1c118:	6f702065 	svcvs	0x00702065
   1c11c:	66207472 			; <UNDEFINED> instruction: 0x66207472
   1c120:	75746165 	ldrbvc	r6, [r4, #-357]!	; 0xfffffe9b
   1c124:	66206572 			; <UNDEFINED> instruction: 0x66206572
   1c128:	6420726f 	strtvs	r7, [r0], #-623	; 0xfffffd91
   1c12c:	63697665 	cmnvs	r9, #105906176	; 0x6500000
   1c130:	25203a65 	strcs	r3, [r0, #-2661]!	; 0xfffff59b
   1c134:	50202c69 	eorpl	r2, r0, r9, ror #24
   1c138:	3a74726f 	bcc	1d38afc <__bss_end+0x19d0afc>
   1c13c:	66206425 	strtvs	r6, [r0], -r5, lsr #8
   1c140:	75746165 	ldrbvc	r6, [r4, #-357]!	; 0xfffffe9b
   1c144:	253a6572 	ldrcs	r6, [sl, #-1394]!	; 0xfffffa8e
   1c148:	65732064 	ldrbvs	r2, [r3, #-100]!	; 0xffffff9c
   1c14c:	64253a74 	strtvs	r3, [r5], #-2676	; 0xfffff58c
   1c150:	00000a2e 	andeq	r0, r0, lr, lsr #20
   1c154:	3a425548 	bcc	10b167c <__bss_end+0xd4967c>
   1c158:	76654420 	strbtvc	r4, [r5], -r0, lsr #8
   1c15c:	20656369 	rsbcs	r6, r5, r9, ror #6
   1c160:	46206925 	strtmi	r6, [r0], -r5, lsr #18
   1c164:	656c6961 	strbvs	r6, [ip, #-2401]!	; 0xfffff69f
   1c168:	6f742064 	svcvs	0x00742064
   1c16c:	73657220 	cmnvc	r5, #32, 4
   1c170:	50207465 	eorpl	r7, r0, r5, ror #8
   1c174:	2574726f 	ldrbcs	r7, [r4, #-623]!	; 0xfffffd91
   1c178:	000a2e64 	andeq	r2, sl, r4, ror #28
   1c17c:	3a425548 	bcc	10b16a4 <__bss_end+0xd496a4>
   1c180:	62754820 	rsbsvs	r4, r5, #32, 16	; 0x200000
   1c184:	69616620 	stmdbvs	r1!, {r5, r9, sl, sp, lr}^
   1c188:	2064656c 	rsbcs	r6, r4, ip, ror #10
   1c18c:	67206f74 			; <UNDEFINED> instruction: 0x67206f74
   1c190:	73207465 			; <UNDEFINED> instruction: 0x73207465
   1c194:	75746174 	ldrbvc	r6, [r4, #-372]!	; 0xfffffe8c
   1c198:	34282073 	strtcc	r2, [r8], #-115	; 0xffffff8d
   1c19c:	6f662029 	svcvs	0x00662029
   1c1a0:	73252072 			; <UNDEFINED> instruction: 0x73252072
   1c1a4:	726f502e 	rsbvc	r5, pc, #46	; 0x2e
   1c1a8:	2e642574 	mcrcs	5, 3, r2, cr4, cr4, {3}
   1c1ac:	0000000a 	andeq	r0, r0, sl
   1c1b0:	3a425548 	bcc	10b16d8 <__bss_end+0xd496d8>
   1c1b4:	69614620 	stmdbvs	r1!, {r5, r9, sl, lr}^
   1c1b8:	2064656c 	rsbcs	r6, r4, ip, ror #10
   1c1bc:	63206f74 			; <UNDEFINED> instruction: 0x63206f74
   1c1c0:	7261656c 	rsbvc	r6, r1, #108, 10	; 0x1b000000
   1c1c4:	73657220 	cmnvc	r5, #32, 4
   1c1c8:	6f207465 	svcvs	0x00207465
   1c1cc:	7325206e 			; <UNDEFINED> instruction: 0x7325206e
   1c1d0:	726f502e 	rsbvc	r5, pc, #46	; 0x2e
   1c1d4:	2e642574 	mcrcs	5, 3, r2, cr4, cr4, {3}
   1c1d8:	0000000a 	andeq	r0, r0, sl
   1c1dc:	3a425548 	bcc	10b1704 <__bss_end+0xd49704>
   1c1e0:	6e614320 	cdpvs	3, 6, cr4, cr1, cr0, {1}
   1c1e4:	20746f6e 	rsbscs	r6, r4, lr, ror #30
   1c1e8:	62616e65 	rsbvs	r6, r1, #1616	; 0x650
   1c1ec:	2520656c 	strcs	r6, [r0, #-1388]!	; 0xfffffa94
   1c1f0:	6f502e73 	svcvs	0x00502e73
   1c1f4:	64257472 	strtvs	r7, [r5], #-1138	; 0xfffffb8e
   1c1f8:	6c50202e 	mrrcvs	0, 2, r2, r0, cr14
   1c1fc:	65736165 	ldrbvs	r6, [r3, #-357]!	; 0xfffffe9b
   1c200:	72657620 	rsbvc	r7, r5, #32, 12	; 0x2000000
   1c204:	20796669 	rsbscs	r6, r9, r9, ror #12
   1c208:	20656874 	rsbcs	r6, r5, r4, ror r8
   1c20c:	64726168 	ldrbtvs	r6, [r2], #-360	; 0xfffffe98
   1c210:	65726177 	ldrbvs	r6, [r2, #-375]!	; 0xfffffe89
   1c214:	20736920 	rsbscs	r6, r3, r0, lsr #18
   1c218:	6b726f77 	blvs	1cb7ffc <__bss_end+0x194fffc>
   1c21c:	2e676e69 	cdpcs	14, 6, cr6, cr7, cr9, {3}
   1c220:	0000000a 	andeq	r0, r0, sl
   1c224:	3a444348 	bcc	112cf4c <__bss_end+0xdc4f4c>
   1c228:	69614620 	stmdbvs	r1!, {r5, r9, sl, lr}^
   1c22c:	6f74206c 	svcvs	0x0074206c
   1c230:	74656720 	strbtvc	r6, [r5], #-1824	; 0xfffff8e0
   1c234:	73656420 	cmnvc	r5, #32, 8	; 0x20000000
   1c238:	70697263 	rsbvc	r7, r9, r3, ror #4
   1c23c:	20726f74 	rsbscs	r6, r2, r4, ror pc
   1c240:	253a7825 	ldrcs	r7, [sl, #-2085]!	; 0xfffff7db
   1c244:	65722078 	ldrbvs	r2, [r2, #-120]!	; 0xffffff88
   1c248:	69706563 	ldmdbvs	r0!, {r0, r1, r5, r6, r8, sl, sp, lr}^
   1c24c:	3a746e65 	bcc	1d37be8 <__bss_end+0x19cfbe8>
   1c250:	2c782520 	cfldr64cs	mvdx2, [r8], #-128	; 0xffffff80
   1c254:	76656420 	strbtvc	r6, [r5], -r0, lsr #8
   1c258:	3a656369 	bcc	1975004 <__bss_end+0x160d004>
   1c25c:	202e6925 	eorcs	r6, lr, r5, lsr #18
   1c260:	55534552 	ldrbpl	r4, [r3, #-1362]	; 0xfffffaae
   1c264:	2520544c 	strcs	r5, [r0, #-1100]!	; 0xfffffbb4
   1c268:	000a2e78 	andeq	r2, sl, r8, ror lr
   1c26c:	3a444348 	bcc	112cf94 <__bss_end+0xdc4f94>
   1c270:	69614620 	stmdbvs	r1!, {r5, r9, sl, lr}^
   1c274:	2064656c 	rsbcs	r6, r4, ip, ror #10
   1c278:	67206f74 			; <UNDEFINED> instruction: 0x67206f74
   1c27c:	64207465 	strtvs	r7, [r0], #-1125	; 0xfffffb9b
   1c280:	72637365 	rsbvc	r7, r3, #-1811939327	; 0x94000001
   1c284:	6f747069 	svcvs	0x00747069
   1c288:	78252072 	stmdavc	r5!, {r1, r4, r5, r6, sp}
   1c28c:	2078253a 	rsbscs	r2, r8, sl, lsr r5
   1c290:	20726f66 	rsbscs	r6, r2, r6, ror #30
   1c294:	69766564 	ldmdbvs	r6!, {r2, r5, r6, r8, sl, sp, lr}^
   1c298:	253a6563 	ldrcs	r6, [sl, #-1379]!	; 0xfffffa9d
   1c29c:	52202e69 	eorpl	r2, r0, #1680	; 0x690
   1c2a0:	4c555345 	mrrcmi	3, 4, r5, r5, cr5	; <UNPREDICTABLE>
   1c2a4:	78252054 	stmdavc	r5!, {r2, r4, r6, sp}
   1c2a8:	00000a2e 	andeq	r0, r0, lr, lsr #20
   1c2ac:	3a444348 	bcc	112cfd4 <__bss_end+0xdc4fd4>
   1c2b0:	756f4320 	strbvc	r4, [pc, #-800]!	; 1bf98 <sd_commands+0x970>
   1c2b4:	6e20646c 	cdpvs	4, 2, cr6, cr0, cr12, {3}
   1c2b8:	7220746f 	eorvc	r7, r0, #1862270976	; 0x6f000000
   1c2bc:	20646165 	rsbcs	r6, r4, r5, ror #2
   1c2c0:	676e616c 	strbvs	r6, [lr, -ip, ror #2]!
   1c2c4:	65676175 	strbvs	r6, [r7, #-373]!	; 0xfffffe8b
   1c2c8:	70757320 	rsbsvc	r7, r5, r0, lsr #6
   1c2cc:	74726f70 	ldrbtvc	r6, [r2], #-3952	; 0xfffff090
   1c2d0:	726f6620 	rsbvc	r6, pc, #32, 12	; 0x2000000
   1c2d4:	76656420 	strbtvc	r6, [r5], -r0, lsr #8
   1c2d8:	3a656369 	bcc	1975084 <__bss_end+0x160d084>
   1c2dc:	0a692520 	beq	1a65764 <__bss_end+0x16fd764>
   1c2e0:	00000000 	andeq	r0, r0, r0
   1c2e4:	3a444348 	bcc	112d00c <__bss_end+0xdc500c>
   1c2e8:	746f4e20 	strbtvc	r4, [pc], #-3616	; 1c2f0 <sd_commands+0xcc8>
   1c2ec:	76206120 	strtvc	r6, [r0], -r0, lsr #2
   1c2f0:	64696c61 	strbtvs	r6, [r9], #-3169	; 0xfffff39f
   1c2f4:	6e616c20 	cdpvs	12, 6, cr6, cr1, cr0, {1}
   1c2f8:	67617567 	strbvs	r7, [r1, -r7, ror #10]!
   1c2fc:	75732065 	ldrbvc	r2, [r3, #-101]!	; 0xffffff9b
   1c300:	726f7070 	rsbvc	r7, pc, #112	; 0x70
   1c304:	65642074 	strbvs	r2, [r4, #-116]!	; 0xffffff8c
   1c308:	69726373 	ldmdbvs	r2!, {r0, r1, r4, r5, r6, r8, r9, sp, lr}^
   1c30c:	726f7470 	rsbvc	r7, pc, #112, 8	; 0x70000000
   1c310:	206e6f20 	rsbcs	r6, lr, r0, lsr #30
   1c314:	69766564 	ldmdbvs	r6!, {r2, r5, r6, r8, sl, sp, lr}^
   1c318:	203a6563 	eorscs	r6, sl, r3, ror #10
   1c31c:	000a6925 	andeq	r6, sl, r5, lsr #18
   1c320:	3a444348 	bcc	112d048 <__bss_end+0xdc5048>
   1c324:	756f4320 	strbvc	r4, [pc, #-800]!	; 1c00c <sd_commands+0x9e4>
   1c328:	6e20646c 	cdpvs	4, 2, cr6, cr0, cr12, {3}
   1c32c:	7220746f 	eorvc	r7, r0, #1862270976	; 0x6f000000
   1c330:	20646165 	rsbcs	r6, r4, r5, ror #2
   1c334:	206c6c61 	rsbcs	r6, ip, r1, ror #24
   1c338:	20656874 	rsbcs	r6, r5, r4, ror r8
   1c33c:	676e616c 	strbvs	r6, [lr, -ip, ror #2]!
   1c340:	65676175 	strbvs	r6, [r7, #-373]!	; 0xfffffe8b
   1c344:	70757320 	rsbsvc	r7, r5, r0, lsr #6
   1c348:	74726f70 	ldrbtvc	r6, [r2], #-3952	; 0xfffff090
   1c34c:	74616420 	strbtvc	r6, [r1], #-1056	; 0xfffffbe0
   1c350:	6e6f2061 	cdpvs	0, 6, cr2, cr15, cr1, {3}
   1c354:	76656420 	strbtvc	r6, [r5], -r0, lsr #8
   1c358:	3a656369 	bcc	1975104 <__bss_end+0x160d104>
   1c35c:	0a692520 	beq	1a657e4 <__bss_end+0x16fd7e4>
   1c360:	00000000 	andeq	r0, r0, r0
   1c364:	65206f4e 	strvs	r6, [r0, #-3918]!	; 0xfffff0b2
   1c368:	696c676e 	stmdbvs	ip!, {r1, r2, r3, r5, r6, r8, r9, sl, sp, lr}^
   1c36c:	6c206873 	stcvs	8, cr6, [r0], #-460	; 0xfffffe34
   1c370:	75676e61 	strbvc	r6, [r7, #-3681]!	; 0xfffff19f
   1c374:	20656761 	rsbcs	r6, r5, r1, ror #14
   1c378:	69727473 	ldmdbvs	r2!, {r0, r1, r4, r5, r6, sl, ip, sp, lr}^
   1c37c:	6120676e 			; <UNDEFINED> instruction: 0x6120676e
   1c380:	6c696176 	stfvse	f6, [r9], #-472	; 0xfffffe28
   1c384:	656c6261 	strbvs	r6, [ip, #-609]!	; 0xfffffd9f
   1c388:	206e6f20 	rsbcs	r6, lr, r0, lsr #30
   1c38c:	69766564 	ldmdbvs	r6!, {r2, r5, r6, r8, sl, sp, lr}^
   1c390:	203a6563 	eorscs	r6, sl, r3, ror #10
   1c394:	000a6925 	andeq	r6, sl, r5, lsr #18
   1c398:	3a444348 	bcc	112d0c0 <__bss_end+0xdc50c0>
   1c39c:	756f4320 	strbvc	r4, [pc, #-800]!	; 1c084 <sd_commands+0xa5c>
   1c3a0:	6e20646c 	cdpvs	4, 2, cr6, cr0, cr12, {3}
   1c3a4:	6620746f 	strtvs	r7, [r0], -pc, ror #8
   1c3a8:	68637465 	stmdavs	r3!, {r0, r2, r5, r6, sl, ip, sp, lr}^
   1c3ac:	72747320 	rsbsvc	r7, r4, #32, 6	; 0x80000000
   1c3b0:	20676e69 	rsbcs	r6, r7, r9, ror #28
   1c3b4:	63736564 	cmnvs	r3, #100, 10	; 0x19000000
   1c3b8:	74706972 	ldrbtvc	r6, [r0], #-2418	; 0xfffff68e
   1c3bc:	6820726f 	stmdavs	r0!, {r0, r1, r2, r3, r5, r6, r9, ip, sp, lr}
   1c3c0:	65646165 	strbvs	r6, [r4, #-357]!	; 0xfffffe9b
   1c3c4:	25282072 	strcs	r2, [r8, #-114]!	; 0xffffff8e
   1c3c8:	66202969 	strtvs	r2, [r0], -r9, ror #18
   1c3cc:	6420726f 	strtvs	r7, [r0], #-623	; 0xfffffd91
   1c3d0:	63697665 	cmnvs	r9, #105906176	; 0x6500000
   1c3d4:	25203a65 	strcs	r3, [r0, #-2661]!	; 0xfffff59b
   1c3d8:	00000a69 	andeq	r0, r0, r9, ror #20
   1c3dc:	3a444348 	bcc	112d104 <__bss_end+0xdc5104>
   1c3e0:	756f4320 	strbvc	r4, [pc, #-800]!	; 1c0c8 <sd_commands+0xaa0>
   1c3e4:	6e20646c 	cdpvs	4, 2, cr6, cr0, cr12, {3}
   1c3e8:	6620746f 	strtvs	r7, [r0], -pc, ror #8
   1c3ec:	68637465 	stmdavs	r3!, {r0, r2, r5, r6, sl, ip, sp, lr}^
   1c3f0:	72747320 	rsbsvc	r7, r4, #32, 6	; 0x80000000
   1c3f4:	20676e69 	rsbcs	r6, r7, r9, ror #28
   1c3f8:	63736564 	cmnvs	r3, #100, 10	; 0x19000000
   1c3fc:	74706972 	ldrbtvc	r6, [r0], #-2418	; 0xfffff68e
   1c400:	2820726f 	stmdacs	r0!, {r0, r1, r2, r3, r5, r6, r9, ip, sp, lr}
   1c404:	20296925 	eorcs	r6, r9, r5, lsr #18
   1c408:	20726f66 	rsbscs	r6, r2, r6, ror #30
   1c40c:	69766564 	ldmdbvs	r6!, {r2, r5, r6, r8, sl, sp, lr}^
   1c410:	203a6563 	eorscs	r6, sl, r3, ror #10
   1c414:	000a6925 	andeq	r6, sl, r5, lsr #18
   1c418:	3a444348 	bcc	112d140 <__bss_end+0xdc5140>
   1c41c:	74654620 	strbtvc	r4, [r5], #-1568	; 0xfffff9e0
   1c420:	48206863 	stmdami	r0!, {r0, r1, r5, r6, fp, sp, lr}
   1c424:	64204449 	strtvs	r4, [r0], #-1097	; 0xfffffbb7
   1c428:	72637365 	rsbvc	r7, r3, #-1811939327	; 0x94000001
   1c42c:	6f747069 	svcvs	0x00747069
   1c430:	69252072 	stmdbvs	r5!, {r1, r4, r5, r6, sp}
   1c434:	726f6620 	rsbvc	r6, pc, #32, 12	; 0x2000000
   1c438:	76656420 	strbtvc	r6, [r5], -r0, lsr #8
   1c43c:	3a656369 	bcc	19751e8 <__bss_end+0x160d1e8>
   1c440:	20692520 	rsbcs	r2, r9, r0, lsr #10
   1c444:	6c696166 	stfvse	f6, [r9], #-408	; 0xfffffe68
   1c448:	0a2e6465 	beq	bb55e4 <__bss_end+0x84d5e4>
   1c44c:	00000000 	andeq	r0, r0, r0
   1c450:	20444948 	subcs	r4, r4, r8, asr #18
   1c454:	61746564 	cmnvs	r4, r4, ror #10
   1c458:	3a736c69 	bcc	1cf7604 <__bss_end+0x198f604>
   1c45c:	72655620 	rsbvc	r5, r5, #32, 12	; 0x2000000
   1c460:	6e6f6973 			; <UNDEFINED> instruction: 0x6e6f6973
   1c464:	3425203a 	strtcc	r2, [r5], #-58	; 0xffffffc6
   1c468:	4c202c78 	stcmi	12, cr2, [r0], #-480	; 0xfffffe20
   1c46c:	75676e61 	strbvc	r6, [r7, #-3681]!	; 0xfffff19f
   1c470:	3a656761 	bcc	19761fc <__bss_end+0x160e1fc>
   1c474:	20692520 	rsbcs	r2, r9, r0, lsr #10
   1c478:	63736544 	cmnvs	r3, #68, 10	; 0x11000000
   1c47c:	74706972 	ldrbtvc	r6, [r0], #-2418	; 0xfffff68e
   1c480:	736e6f69 	cmnvc	lr, #420	; 0x1a4
   1c484:	6925203a 	stmdbvs	r5!, {r1, r3, r4, r5, sp}
   1c488:	7954202c 	ldmdbvc	r4, {r2, r3, r5, sp}^
   1c48c:	203a6570 	eorscs	r6, sl, r0, ror r5
   1c490:	202c6925 	eorcs	r6, ip, r5, lsr #18
   1c494:	746f7250 	strbtvc	r7, [pc], #-592	; 1c49c <sd_commands+0xe74>
   1c498:	6c6f636f 	stclvs	3, cr6, [pc], #-444	; 1c2e4 <sd_commands+0xcbc>
   1c49c:	6925203a 	stmdbvs	r5!, {r1, r3, r4, r5, sp}
   1c4a0:	754e202c 	strbvc	r2, [lr, #-44]	; 0xffffffd4
   1c4a4:	746e496d 	strbtvc	r4, [lr], #-2413	; 0xfffff693
   1c4a8:	61667265 	cmnvs	r6, r5, ror #4
   1c4ac:	203a6563 	eorscs	r6, sl, r3, ror #10
   1c4b0:	000a6925 	andeq	r6, sl, r5, lsr #18
   1c4b4:	6d756e45 	ldclvs	14, cr6, [r5, #-276]!	; 0xfffffeec
   1c4b8:	74617265 	strbtvc	r7, [r1], #-613	; 0xfffffd9b
   1c4bc:	3a6e6f69 	bcc	1bb8268 <__bss_end+0x1850268>
   1c4c0:	65745320 	ldrbvs	r5, [r4, #-800]!	; 0xfffffce0
   1c4c4:	20312070 	eorscs	r2, r1, r0, ror r0
   1c4c8:	64206e6f 	strtvs	r6, [r0], #-3695	; 0xfffff191
   1c4cc:	63697665 	cmnvs	r9, #105906176	; 0x6500000
   1c4d0:	69252065 	stmdbvs	r5!, {r0, r2, r5, r6, sp}
   1c4d4:	69616620 	stmdbvs	r1!, {r5, r9, sl, sp, lr}^
   1c4d8:	2c64656c 	cfstr64cs	mvdx6, [r4], #-432	; 0xfffffe50
   1c4dc:	73655220 	cmnvc	r5, #32, 4
   1c4e0:	3a746c75 	bcc	1d376bc <__bss_end+0x19cf6bc>
   1c4e4:	2e782520 	cdpcs	5, 7, cr2, cr8, cr0, {1}
   1c4e8:	0000000a 	andeq	r0, r0, sl
   1c4ec:	3a444348 	bcc	112d214 <__bss_end+0xdc5214>
   1c4f0:	69614620 	stmdbvs	r1!, {r5, r9, sl, lr}^
   1c4f4:	2064656c 	rsbcs	r6, r4, ip, ror #10
   1c4f8:	72206f74 	eorvc	r6, r0, #116, 30	; 0x1d0
   1c4fc:	74657365 	strbtvc	r7, [r5], #-869	; 0xfffffc9b
   1c500:	726f7020 	rsbvc	r7, pc, #32
   1c504:	67612074 			; <UNDEFINED> instruction: 0x67612074
   1c508:	206e6961 	rsbcs	r6, lr, r1, ror #18
   1c50c:	20726f66 	rsbscs	r6, r2, r6, ror #30
   1c510:	2077656e 	rsbscs	r6, r7, lr, ror #10
   1c514:	69766564 	ldmdbvs	r6!, {r2, r5, r6, r8, sl, sp, lr}^
   1c518:	25206563 	strcs	r6, [r0, #-1379]!	; 0xfffffa9d
   1c51c:	000a2e73 	andeq	r2, sl, r3, ror lr
   1c520:	6d756e45 	ldclvs	14, cr6, [r5, #-276]!	; 0xfffffeec
   1c524:	74617265 	strbtvc	r7, [r1], #-613	; 0xfffffd9b
   1c528:	3a6e6f69 	bcc	1bb82d4 <__bss_end+0x18502d4>
   1c52c:	69614620 	stmdbvs	r1!, {r5, r9, sl, lr}^
   1c530:	2064656c 	rsbcs	r6, r4, ip, ror #10
   1c534:	61206f74 			; <UNDEFINED> instruction: 0x61206f74
   1c538:	67697373 			; <UNDEFINED> instruction: 0x67697373
   1c53c:	6461206e 	strbtvs	r2, [r1], #-110	; 0xffffff92
   1c540:	73657264 	cmnvc	r5, #100, 4	; 0x40000006
   1c544:	6f742073 	svcvs	0x00742073
   1c548:	2e782520 	cdpcs	5, 7, cr2, cr8, cr0, {1}
   1c54c:	0000000a 	andeq	r0, r0, sl
   1c550:	6d756e45 	ldclvs	14, cr6, [r5, #-276]!	; 0xfffffeec
   1c554:	74617265 	strbtvc	r7, [r1], #-613	; 0xfffffd9b
   1c558:	3a6e6f69 	bcc	1bb8304 <__bss_end+0x1850304>
   1c55c:	65745320 	ldrbvs	r5, [r4, #-800]!	; 0xfffffce0
   1c560:	20342070 	eorscs	r2, r4, r0, ror r0
   1c564:	64206e6f 	strtvs	r6, [r0], #-3695	; 0xfffff191
   1c568:	63697665 	cmnvs	r9, #105906176	; 0x6500000
   1c56c:	69252065 	stmdbvs	r5!, {r0, r2, r5, r6, sp}
   1c570:	69616620 	stmdbvs	r1!, {r5, r9, sl, sp, lr}^
   1c574:	2c64656c 	cfstr64cs	mvdx6, [r4], #-432	; 0xfffffe50
   1c578:	73655220 	cmnvc	r5, #32, 4
   1c57c:	3a746c75 	bcc	1d37758 <__bss_end+0x19cf758>
   1c580:	2e782520 	cdpcs	5, 7, cr2, cr8, cr0, {1}
   1c584:	0000000a 	andeq	r0, r0, sl
   1c588:	3a444348 	bcc	112d2b0 <__bss_end+0xdc52b0>
   1c58c:	72724520 	rsbsvc	r4, r2, #32, 10	; 0x8000000
   1c590:	203a726f 	eorscs	r7, sl, pc, ror #4
   1c594:	202c6925 	eorcs	r6, ip, r5, lsr #18
   1c598:	64616572 	strbtvs	r6, [r1], #-1394	; 0xfffffa8e
   1c59c:	20676e69 	rsbcs	r6, r7, r9, ror #28
   1c5a0:	666e6f63 	strbtvs	r6, [lr], -r3, ror #30
   1c5a4:	72756769 	rsbsvc	r6, r5, #27525120	; 0x1a40000
   1c5a8:	6f697461 	svcvs	0x00697461
   1c5ac:	6564206e 	strbvs	r2, [r4, #-110]!	; 0xffffff92
   1c5b0:	69726373 	ldmdbvs	r2!, {r0, r1, r4, r5, r6, r8, r9, sp, lr}^
   1c5b4:	726f7470 	rsbvc	r7, pc, #112, 8	; 0x70000000
   1c5b8:	726f6620 	rsbvc	r6, pc, #32, 12	; 0x2000000
   1c5bc:	76656420 	strbtvc	r6, [r5], -r0, lsr #8
   1c5c0:	3a656369 	bcc	197536c <__bss_end+0x160d36c>
   1c5c4:	0a692520 	beq	1a65a4c <__bss_end+0x16fda4c>
   1c5c8:	00000000 	andeq	r0, r0, r0
   1c5cc:	6c756f43 	ldclvs	15, cr6, [r5], #-268	; 0xfffffef4
   1c5d0:	6f6e2064 	svcvs	0x006e2064
   1c5d4:	6c612074 	stclvs	0, cr2, [r1], #-464	; 0xfffffe30
   1c5d8:	61636f6c 	cmnvs	r3, ip, ror #30
   1c5dc:	68206574 	stmdavs	r0!, {r2, r4, r5, r6, r8, sl, sp, lr}
   1c5e0:	70206469 	eorvc	r6, r0, r9, ror #8
   1c5e4:	6f6c7961 	svcvs	0x006c7961
   1c5e8:	202c6461 	eorcs	r6, ip, r1, ror #8
   1c5ec:	6f727245 	svcvs	0x00727245
   1c5f0:	44492072 	strbmi	r2, [r9], #-114	; 0xffffff8e
   1c5f4:	0a692520 	beq	1a65a7c <__bss_end+0x16fda7c>
   1c5f8:	00000000 	andeq	r0, r0, r0
   1c5fc:	20444948 	subcs	r4, r4, r8, asr #18
   1c600:	72746e45 	rsbsvc	r6, r4, #1104	; 0x450
   1c604:	72772079 	rsbsvc	r2, r7, #121	; 0x79
   1c608:	20676e6f 	rsbcs	r6, r7, pc, ror #28
   1c60c:	657a6973 	ldrbvs	r6, [sl, #-2419]!	; 0xfffff68d
   1c610:	0000000a 	andeq	r0, r0, sl
   1c614:	3a444348 	bcc	112d33c <__bss_end+0xdc533c>
   1c618:	69614620 	stmdbvs	r1!, {r5, r9, sl, lr}^
   1c61c:	2064656c 	rsbcs	r6, r4, ip, ror #10
   1c620:	73206f74 			; <UNDEFINED> instruction: 0x73206f74
   1c624:	63207465 			; <UNDEFINED> instruction: 0x63207465
   1c628:	69666e6f 	stmdbvs	r6!, {r0, r1, r2, r3, r5, r6, r9, sl, fp, sp, lr}^
   1c62c:	61727567 	cmnvs	r2, r7, ror #10
   1c630:	6e6f6974 			; <UNDEFINED> instruction: 0x6e6f6974
   1c634:	20782520 	rsbscs	r2, r8, r0, lsr #10
   1c638:	20726f66 	rsbscs	r6, r2, r6, ror #30
   1c63c:	69766564 	ldmdbvs	r6!, {r2, r5, r6, r8, sl, sp, lr}^
   1c640:	25206563 	strcs	r6, [r0, #-1379]!	; 0xfffffa9d
   1c644:	000a2e69 	andeq	r2, sl, r9, ror #28
   1c648:	3a444348 	bcc	112d370 <__bss_end+0xdc5370>
   1c64c:	74744120 	ldrbtvc	r4, [r4], #-288	; 0xfffffee0
   1c650:	20686361 	rsbcs	r6, r8, r1, ror #6
   1c654:	69766544 	ldmdbvs	r6!, {r2, r6, r8, sl, sp, lr}^
   1c658:	25206563 	strcs	r6, [r0, #-1379]!	; 0xfffffa9d
   1c65c:	41202e73 			; <UNDEFINED> instruction: 0x41202e73
   1c660:	65726464 	ldrbvs	r6, [r2, #-1124]!	; 0xfffffb9c
   1c664:	253a7373 	ldrcs	r7, [sl, #-883]!	; 0xfffffc8d
   1c668:	6c432064 	mcrrvs	0, 6, r2, r3, cr4
   1c66c:	3a737361 	bcc	1cf93f8 <__bss_end+0x19913f8>
   1c670:	55206425 	strpl	r6, [r0, #-1061]!	; 0xfffffbdb
   1c674:	253a4253 	ldrcs	r4, [sl, #-595]!	; 0xfffffdad
   1c678:	78252e78 	stmdavc	r5!, {r3, r4, r5, r6, r9, sl, fp, sp}
   1c67c:	6425202c 	strtvs	r2, [r5], #-44	; 0xffffffd4
   1c680:	6e6f6320 	cdpvs	3, 6, cr6, cr15, cr0, {1}
   1c684:	75676966 	strbvc	r6, [r7, #-2406]!	; 0xfffff69a
   1c688:	69746172 	ldmdbvs	r4!, {r1, r4, r5, r6, r8, sp, lr}^
   1c68c:	73286e6f 			; <UNDEFINED> instruction: 0x73286e6f
   1c690:	25202c29 	strcs	r2, [r0, #-3113]!	; 0xfffff3d7
   1c694:	6e692064 	cdpvs	0, 6, cr2, cr9, cr4, {3}
   1c698:	66726574 			; <UNDEFINED> instruction: 0x66726574
   1c69c:	28656361 	stmdacs	r5!, {r0, r5, r6, r8, r9, sp, lr}^
   1c6a0:	0a2e2973 	beq	ba6c74 <__bss_end+0x83ec74>
   1c6a4:	00000000 	andeq	r0, r0, r0
   1c6a8:	3a444348 	bcc	112d3d0 <__bss_end+0xdc53d0>
   1c6ac:	502d2020 	eorpl	r2, sp, r0, lsr #32
   1c6b0:	75646f72 	strbvc	r6, [r4, #-3954]!	; 0xfffff08e
   1c6b4:	203a7463 	eorscs	r7, sl, r3, ror #8
   1c6b8:	20202020 	eorcs	r2, r0, r0, lsr #32
   1c6bc:	73252020 			; <UNDEFINED> instruction: 0x73252020
   1c6c0:	00000a2e 	andeq	r0, r0, lr, lsr #20
   1c6c4:	3a444348 	bcc	112d3ec <__bss_end+0xdc53ec>
   1c6c8:	4d2d2020 	stcmi	0, cr2, [sp, #-128]!	; 0xffffff80
   1c6cc:	66756e61 	ldrbtvs	r6, [r5], -r1, ror #28
   1c6d0:	75746361 	ldrbvc	r6, [r4, #-865]!	; 0xfffffc9f
   1c6d4:	3a726572 	bcc	1cb5ca4 <__bss_end+0x194dca4>
   1c6d8:	73252020 			; <UNDEFINED> instruction: 0x73252020
   1c6dc:	00000a2e 	andeq	r0, r0, lr, lsr #20
   1c6e0:	3a444348 	bcc	112d408 <__bss_end+0xdc5408>
   1c6e4:	532d2020 			; <UNDEFINED> instruction: 0x532d2020
   1c6e8:	61697265 	cmnvs	r9, r5, ror #4
   1c6ec:	6d754e6c 	ldclvs	14, cr4, [r5, #-432]!	; 0xfffffe50
   1c6f0:	3a726562 	bcc	1cb5c80 <__bss_end+0x194dc80>
   1c6f4:	73252020 			; <UNDEFINED> instruction: 0x73252020
   1c6f8:	00000a2e 	andeq	r0, r0, lr, lsr #20
   1c6fc:	3a444348 	bcc	112d424 <__bss_end+0xdc5424>
   1c700:	432d2020 			; <UNDEFINED> instruction: 0x432d2020
   1c704:	69666e6f 	stmdbvs	r6!, {r0, r1, r2, r3, r5, r6, r9, sl, fp, sp, lr}^
   1c708:	61727567 	cmnvs	r2, r7, ror #10
   1c70c:	6e6f6974 			; <UNDEFINED> instruction: 0x6e6f6974
   1c710:	7325203a 			; <UNDEFINED> instruction: 0x7325203a
   1c714:	00000a2e 	andeq	r0, r0, lr, lsr #20
   1c718:	6c756f43 	ldclvs	15, cr6, [r5], #-268	; 0xfffffef4
   1c71c:	6f6e2064 	svcvs	0x006e2064
   1c720:	6e652074 	mcrvs	0, 3, r2, cr5, cr4, {3}
   1c724:	72656d75 	rsbvc	r6, r5, #7488	; 0x1d40
   1c728:	20657461 	rsbcs	r7, r5, r1, ror #8
   1c72c:	20425548 	subcs	r5, r2, r8, asr #10
   1c730:	69766564 	ldmdbvs	r6!, {r2, r5, r6, r8, sl, sp, lr}^
   1c734:	25206563 	strcs	r6, [r0, #-1379]!	; 0xfffffa9d
   1c738:	45202c69 	strmi	r2, [r0, #-3177]!	; 0xfffff397
   1c73c:	726f7272 	rsbvc	r7, pc, #536870919	; 0x20000007
   1c740:	20444920 	subcs	r4, r4, r0, lsr #18
   1c744:	000a6925 	andeq	r6, sl, r5, lsr #18
   1c748:	6c756f43 	ldclvs	15, cr6, [r5], #-268	; 0xfffffef4
   1c74c:	6f6e2064 	svcvs	0x006e2064
   1c750:	6e652074 	mcrvs	0, 3, r2, cr5, cr4, {3}
   1c754:	72656d75 	rsbvc	r6, r5, #7488	; 0x1d40
   1c758:	20657461 	rsbcs	r7, r5, r1, ror #8
   1c75c:	20444948 	subcs	r4, r4, r8, asr #18
   1c760:	69766564 	ldmdbvs	r6!, {r2, r5, r6, r8, sl, sp, lr}^
   1c764:	25206563 	strcs	r6, [r0, #-1379]!	; 0xfffffa9d
   1c768:	45202c69 	strmi	r2, [r0, #-3177]!	; 0xfffff397
   1c76c:	726f7272 	rsbvc	r7, pc, #536870919	; 0x20000007
   1c770:	20444920 	subcs	r4, r4, r0, lsr #18
   1c774:	000a6925 	andeq	r6, sl, r5, lsr #18
   1c778:	3a444348 	bcc	112d4a0 <__bss_end+0xdc54a0>
   1c77c:	69614620 	stmdbvs	r1!, {r5, r9, sl, lr}^
   1c780:	2064656c 	rsbcs	r6, r4, ip, ror #10
   1c784:	72206f74 	eorvc	r6, r0, #116, 30	; 0x1d0
   1c788:	20646165 	rsbcs	r6, r4, r5, ror #2
   1c78c:	666e6f63 	strbtvs	r6, [lr], -r3, ror #30
   1c790:	72756769 	rsbsvc	r6, r5, #27525120	; 0x1a40000
   1c794:	6f697461 	svcvs	0x00697461
   1c798:	6564206e 	strbvs	r2, [r4, #-110]!	; 0xffffff92
   1c79c:	69726373 	ldmdbvs	r2!, {r0, r1, r4, r5, r6, r8, r9, sp, lr}^
   1c7a0:	726f7470 	rsbvc	r7, pc, #112, 8	; 0x70000000
   1c7a4:	726f6620 	rsbvc	r6, pc, #32, 12	; 0x2000000
   1c7a8:	76656420 	strbtvc	r6, [r5], -r0, lsr #8
   1c7ac:	20656369 	rsbcs	r6, r5, r9, ror #6
   1c7b0:	202c6925 	eorcs	r6, ip, r5, lsr #18
   1c7b4:	62207525 	eorvs	r7, r0, #155189248	; 0x9400000
   1c7b8:	73657479 	cmnvc	r5, #2030043136	; 0x79000000
   1c7bc:	61657220 	cmnvs	r5, r0, lsr #4
   1c7c0:	45202c64 	strmi	r2, [r0, #-3172]!	; 0xfffff39c
   1c7c4:	726f7272 	rsbvc	r7, pc, #536870919	; 0x20000007
   1c7c8:	6925203a 	stmdbvs	r5!, {r1, r3, r4, r5, sp}
   1c7cc:	00000a2e 	andeq	r0, r0, lr, lsr #20
   1c7d0:	3a425548 	bcc	10b1cf8 <__bss_end+0xd49cf8>
   1c7d4:	62754820 	rsbsvs	r4, r5, #32, 16	; 0x200000
   1c7d8:	69616620 	stmdbvs	r1!, {r5, r9, sl, sp, lr}^
   1c7dc:	2064656c 	rsbcs	r6, r4, ip, ror #10
   1c7e0:	67206f74 			; <UNDEFINED> instruction: 0x67206f74
   1c7e4:	73207465 			; <UNDEFINED> instruction: 0x73207465
   1c7e8:	75746174 	ldrbvc	r6, [r4, #-372]!	; 0xfffffe8c
   1c7ec:	32282073 	eorcc	r2, r8, #115	; 0x73
   1c7f0:	6f662029 	svcvs	0x00662029
   1c7f4:	73252072 			; <UNDEFINED> instruction: 0x73252072
   1c7f8:	726f502e 	rsbvc	r5, pc, #46	; 0x2e
   1c7fc:	2e642574 	mcrcs	5, 3, r2, cr4, cr4, {3}
   1c800:	0000000a 	andeq	r0, r0, sl
   1c804:	3a425548 	bcc	10b1d2c <__bss_end+0xd49d2c>
   1c808:	69614620 	stmdbvs	r1!, {r5, r9, sl, lr}^
   1c80c:	2064656c 	rsbcs	r6, r4, ip, ror #10
   1c810:	63206f74 			; <UNDEFINED> instruction: 0x63206f74
   1c814:	7261656c 	rsbvc	r6, r1, #108, 10	; 0x1b000000
   1c818:	61686320 	cmnvs	r8, r0, lsr #6
   1c81c:	2065676e 	rsbcs	r6, r5, lr, ror #14
   1c820:	25206e6f 	strcs	r6, [r0, #-3695]!	; 0xfffff191
   1c824:	6f502e73 	svcvs	0x00502e73
   1c828:	64257472 	strtvs	r7, [r5], #-1138	; 0xfffffb8e
   1c82c:	00000a2e 	andeq	r0, r0, lr, lsr #20
   1c830:	3a425548 	bcc	10b1d58 <__bss_end+0xd49d58>
   1c834:	73694420 	cmnvc	r9, #32, 8	; 0x20000000
   1c838:	6e6e6f63 	cdpvs	15, 6, cr6, cr14, cr3, {3}
   1c83c:	65746365 	ldrbvs	r6, [r4, #-869]!	; 0xfffffc9b
   1c840:	73252064 			; <UNDEFINED> instruction: 0x73252064
   1c844:	726f502e 	rsbvc	r5, pc, #46	; 0x2e
   1c848:	20642574 	rsbcs	r2, r4, r4, ror r5
   1c84c:	7325202d 			; <UNDEFINED> instruction: 0x7325202d
   1c850:	00000a2e 	andeq	r0, r0, lr, lsr #20
   1c854:	3a425548 	bcc	10b1d7c <__bss_end+0xd49d7c>
   1c858:	756f4320 	strbvc	r4, [pc, #-800]!	; 1c540 <sd_commands+0xf18>
   1c85c:	6e20646c 	cdpvs	4, 2, cr6, cr0, cr12, {3}
   1c860:	7220746f 	eorvc	r7, r0, #1862270976	; 0x6f000000
   1c864:	74657365 	strbtvc	r7, [r5], #-869	; 0xfffffc9b
   1c868:	2e732520 	cdpcs	5, 7, cr2, cr3, cr0, {1}
   1c86c:	74726f50 	ldrbtvc	r6, [r2], #-3920	; 0xfffff0b0
   1c870:	66206425 	strtvs	r6, [r0], -r5, lsr #8
   1c874:	6e20726f 	cdpvs	2, 2, cr7, cr0, cr15, {3}
   1c878:	64207765 	strtvs	r7, [r0], #-1893	; 0xfffff89b
   1c87c:	63697665 	cmnvs	r9, #105906176	; 0x6500000
   1c880:	000a2e65 	andeq	r2, sl, r5, ror #28
   1c884:	3a425548 	bcc	10b1dac <__bss_end+0xd49dac>
   1c888:	756f4320 	strbvc	r4, [pc, #-800]!	; 1c570 <sd_commands+0xf48>
   1c88c:	6e20646c 	cdpvs	4, 2, cr6, cr0, cr12, {3}
   1c890:	6120746f 			; <UNDEFINED> instruction: 0x6120746f
   1c894:	636f6c6c 	cmnvs	pc, #108, 24	; 0x6c00
   1c898:	20657461 	rsbcs	r7, r5, r1, ror #8
   1c89c:	656e2061 	strbvs	r2, [lr, #-97]!	; 0xffffff9f
   1c8a0:	65642077 	strbvs	r2, [r4, #-119]!	; 0xffffff89
   1c8a4:	65636976 	strbvs	r6, [r3, #-2422]!	; 0xfffff68a
   1c8a8:	746e6520 	strbtvc	r6, [lr], #-1312	; 0xfffffae0
   1c8ac:	66207972 			; <UNDEFINED> instruction: 0x66207972
   1c8b0:	2520726f 	strcs	r7, [r0, #-623]!	; 0xfffffd91
   1c8b4:	6f502e73 	svcvs	0x00502e73
   1c8b8:	64257472 	strtvs	r7, [r5], #-1138	; 0xfffffb8e
   1c8bc:	00000a2e 	andeq	r0, r0, lr, lsr #20
   1c8c0:	3a425548 	bcc	10b1de8 <__bss_end+0xd49de8>
   1c8c4:	62754820 	rsbsvs	r4, r5, #32, 16	; 0x200000
   1c8c8:	69616620 	stmdbvs	r1!, {r5, r9, sl, sp, lr}^
   1c8cc:	2064656c 	rsbcs	r6, r4, ip, ror #10
   1c8d0:	67206f74 			; <UNDEFINED> instruction: 0x67206f74
   1c8d4:	73207465 			; <UNDEFINED> instruction: 0x73207465
   1c8d8:	75746174 	ldrbvc	r6, [r4, #-372]!	; 0xfffffe8c
   1c8dc:	33282073 			; <UNDEFINED> instruction: 0x33282073
   1c8e0:	6f662029 	svcvs	0x00662029
   1c8e4:	73252072 			; <UNDEFINED> instruction: 0x73252072
   1c8e8:	726f502e 	rsbvc	r5, pc, #46	; 0x2e
   1c8ec:	2e642574 	mcrcs	5, 3, r2, cr4, cr4, {3}
   1c8f0:	0000000a 	andeq	r0, r0, sl
   1c8f4:	3a425548 	bcc	10b1e1c <__bss_end+0xd49e1c>
   1c8f8:	2e732520 	cdpcs	5, 7, cr2, cr3, cr0, {1}
   1c8fc:	76654420 	strbtvc	r4, [r5], -r0, lsr #8
   1c900:	3a656369 	bcc	19756ac <__bss_end+0x160d6ac>
   1c904:	50206925 	eorpl	r6, r0, r5, lsr #18
   1c908:	3a74726f 	bcc	1d392cc <__bss_end+0x19d12cc>
   1c90c:	53206425 			; <UNDEFINED> instruction: 0x53206425
   1c910:	75746174 	ldrbvc	r6, [r4, #-372]!	; 0xfffffe8c
   1c914:	30252073 	eorcc	r2, r5, r3, ror r0
   1c918:	253a7834 	ldrcs	r7, [sl, #-2100]!	; 0xfffff7cc
   1c91c:	2e783430 	mrccs	4, 3, r3, cr8, cr0, {1}
   1c920:	0000000a 	andeq	r0, r0, sl
   1c924:	3a425548 	bcc	10b1e4c <__bss_end+0xd49e4c>
   1c928:	756f4320 	strbvc	r4, [pc, #-800]!	; 1c610 <sd_commands+0xfe8>
   1c92c:	6e20646c 	cdpvs	4, 2, cr6, cr0, cr12, {3}
   1c930:	6320746f 			; <UNDEFINED> instruction: 0x6320746f
   1c934:	656e6e6f 	strbvs	r6, [lr, #-3695]!	; 0xfffff191
   1c938:	74207463 	strtvc	r7, [r0], #-1123	; 0xfffffb9d
   1c93c:	656e206f 	strbvs	r2, [lr, #-111]!	; 0xffffff91
   1c940:	65642077 	strbvs	r2, [r4, #-119]!	; 0xffffff89
   1c944:	65636976 	strbvs	r6, [r3, #-2422]!	; 0xfffff68a
   1c948:	206e6920 	rsbcs	r6, lr, r0, lsr #18
   1c94c:	502e7325 	eorpl	r7, lr, r5, lsr #6
   1c950:	2574726f 	ldrbcs	r7, [r4, #-623]!	; 0xfffffd91
   1c954:	44202e64 	strtmi	r2, [r0], #-3684	; 0xfffff19c
   1c958:	62617369 	rsbvs	r7, r1, #-1543503871	; 0xa4000001
   1c95c:	676e696c 	strbvs	r6, [lr, -ip, ror #18]!
   1c960:	00000a2e 	andeq	r0, r0, lr, lsr #20
   1c964:	3a425548 	bcc	10b1e8c <__bss_end+0xd49e8c>
   1c968:	69614620 	stmdbvs	r1!, {r5, r9, sl, lr}^
   1c96c:	2064656c 	rsbcs	r6, r4, ip, ror #10
   1c970:	64206f74 	strtvs	r6, [r0], #-3956	; 0xfffff08c
   1c974:	62617369 	rsbvs	r7, r1, #-1543503871	; 0xa4000001
   1c978:	2520656c 	strcs	r6, [r0, #-1388]!	; 0xfffffa94
   1c97c:	6f502e73 	svcvs	0x00502e73
   1c980:	64257472 	strtvs	r7, [r5], #-1138	; 0xfffffb8e
   1c984:	00000a2e 	andeq	r0, r0, lr, lsr #20
   1c988:	3a425548 	bcc	10b1eb0 <__bss_end+0xd49eb0>
   1c98c:	69614620 	stmdbvs	r1!, {r5, r9, sl, lr}^
   1c990:	2064656c 	rsbcs	r6, r4, ip, ror #10
   1c994:	67206f74 			; <UNDEFINED> instruction: 0x67206f74
   1c998:	68207465 	stmdavs	r0!, {r0, r2, r5, r6, sl, ip, sp, lr}
   1c99c:	70206275 	eorvc	r6, r0, r5, ror r2
   1c9a0:	2074726f 	rsbscs	r7, r4, pc, ror #4
   1c9a4:	74617473 	strbtvc	r7, [r1], #-1139	; 0xfffffb8d
   1c9a8:	28207375 	stmdacs	r0!, {r0, r2, r4, r5, r6, r8, r9, ip, sp, lr}
   1c9ac:	66202931 			; <UNDEFINED> instruction: 0x66202931
   1c9b0:	2520726f 	strcs	r7, [r0, #-623]!	; 0xfffffd91
   1c9b4:	6f502e73 	svcvs	0x00502e73
   1c9b8:	64257472 	strtvs	r7, [r5], #-1138	; 0xfffffb8e
   1c9bc:	00000a2e 	andeq	r0, r0, lr, lsr #20
   1c9c0:	3a425548 	bcc	10b1ee8 <__bss_end+0xd49ee8>
   1c9c4:	69614620 	stmdbvs	r1!, {r5, r9, sl, lr}^
   1c9c8:	2064656c 	rsbcs	r6, r4, ip, ror #10
   1c9cc:	63206f74 			; <UNDEFINED> instruction: 0x63206f74
   1c9d0:	7261656c 	rsbvc	r6, r1, #108, 10	; 0x1b000000
   1c9d4:	616e6520 	cmnvs	lr, r0, lsr #10
   1c9d8:	20656c62 	rsbcs	r6, r5, r2, ror #24
   1c9dc:	6e616863 	cdpvs	8, 6, cr6, cr1, cr3, {3}
   1c9e0:	25206567 	strcs	r6, [r0, #-1383]!	; 0xfffffa99
   1c9e4:	6f502e73 	svcvs	0x00502e73
   1c9e8:	64257472 	strtvs	r7, [r5], #-1138	; 0xfffffb8e
   1c9ec:	00000a2e 	andeq	r0, r0, lr, lsr #20
   1c9f0:	3a425548 	bcc	10b1f18 <__bss_end+0xd49f18>
   1c9f4:	2e732520 	cdpcs	5, 7, cr2, cr3, cr0, {1}
   1c9f8:	74726f50 	ldrbtvc	r6, [r2], #-3920	; 0xfffff0b0
   1c9fc:	68206425 	stmdavs	r0!, {r0, r2, r5, sl, sp, lr}
   1ca00:	62207361 	eorvs	r7, r0, #-2080374783	; 0x84000001
   1ca04:	206e6565 	rsbcs	r6, lr, r5, ror #10
   1ca08:	61736964 	cmnvs	r3, r4, ror #18
   1ca0c:	64656c62 	strbtvs	r6, [r5], #-3170	; 0xfffff39e
   1ca10:	7562202c 	strbvc	r2, [r2, #-44]!	; 0xffffffd4
   1ca14:	73692074 	cmnvc	r9, #116	; 0x74
   1ca18:	6e6f6320 	cdpvs	3, 6, cr6, cr15, cr0, {1}
   1ca1c:	7463656e 	strbtvc	r6, [r3], #-1390	; 0xfffffa92
   1ca20:	202e6465 	eorcs	r6, lr, r5, ror #8
   1ca24:	73696854 	cmnvc	r9, #84, 16	; 0x540000
   1ca28:	6e616320 	cdpvs	3, 6, cr6, cr1, cr0, {1}
   1ca2c:	20656220 	rsbcs	r6, r5, r0, lsr #4
   1ca30:	73756163 	cmnvc	r5, #-1073741800	; 0xc0000018
   1ca34:	79622065 	stmdbvc	r2!, {r0, r2, r5, r6, sp}^
   1ca38:	746e6920 	strbtvc	r6, [lr], #-2336	; 0xfffff6e0
   1ca3c:	65667265 	strbvs	r7, [r6, #-613]!	; 0xfffffd9b
   1ca40:	636e6572 	cmnvs	lr, #478150656	; 0x1c800000
   1ca44:	52202e65 	eorpl	r2, r0, #1616	; 0x650
   1ca48:	616e6565 	cmnvs	lr, r5, ror #10
   1ca4c:	6e696c62 	cdpvs	12, 6, cr6, cr9, cr2, {3}
   1ca50:	000a2167 	andeq	r2, sl, r7, ror #2
   1ca54:	3a425548 	bcc	10b1f7c <__bss_end+0xd49f7c>
   1ca58:	69614620 	stmdbvs	r1!, {r5, r9, sl, lr}^
   1ca5c:	2064656c 	rsbcs	r6, r4, ip, ror #10
   1ca60:	63206f74 			; <UNDEFINED> instruction: 0x63206f74
   1ca64:	7261656c 	rsbvc	r6, r1, #108, 10	; 0x1b000000
   1ca68:	73757320 	cmnvc	r5, #32, 6	; 0x80000000
   1ca6c:	646e6570 	strbtvs	r6, [lr], #-1392	; 0xfffffa90
   1ca70:	70206465 	eorvc	r6, r0, r5, ror #8
   1ca74:	2074726f 	rsbscs	r7, r4, pc, ror #4
   1ca78:	7325202d 			; <UNDEFINED> instruction: 0x7325202d
   1ca7c:	726f502e 	rsbvc	r5, pc, #46	; 0x2e
   1ca80:	2e642574 	mcrcs	5, 3, r2, cr4, cr4, {3}
   1ca84:	0000000a 	andeq	r0, r0, sl
   1ca88:	3a425548 	bcc	10b1fb0 <__bss_end+0xd49fb0>
   1ca8c:	69614620 	stmdbvs	r1!, {r5, r9, sl, lr}^
   1ca90:	2064656c 	rsbcs	r6, r4, ip, ror #10
   1ca94:	63206f74 			; <UNDEFINED> instruction: 0x63206f74
   1ca98:	7261656c 	rsbvc	r6, r1, #108, 10	; 0x1b000000
   1ca9c:	65766f20 	ldrbvs	r6, [r6, #-3872]!	; 0xfffff0e0
   1caa0:	75632072 	strbvc	r2, [r3, #-114]!	; 0xffffff8e
   1caa4:	6e657272 	mcrvs	2, 3, r7, cr5, cr2, {3}
   1caa8:	6f702074 	svcvs	0x00702074
   1caac:	2d207472 	cfstrscs	mvf7, [r0, #-456]!	; 0xfffffe38
   1cab0:	2e732520 	cdpcs	5, 7, cr2, cr3, cr0, {1}
   1cab4:	74726f50 	ldrbtvc	r6, [r2], #-3920	; 0xfffff0b0
   1cab8:	0a2e6425 	beq	bb5b54 <__bss_end+0x84db54>
   1cabc:	00000000 	andeq	r0, r0, r0
   1cac0:	3a425548 	bcc	10b1fe8 <__bss_end+0xd49fe8>
   1cac4:	69614620 	stmdbvs	r1!, {r5, r9, sl, lr}^
   1cac8:	2064656c 	rsbcs	r6, r4, ip, ror #10
   1cacc:	63206f74 			; <UNDEFINED> instruction: 0x63206f74
   1cad0:	7261656c 	rsbvc	r6, r1, #108, 10	; 0x1b000000
   1cad4:	73657220 	cmnvc	r5, #32, 4
   1cad8:	70207465 	eorvc	r7, r0, r5, ror #8
   1cadc:	2074726f 	rsbscs	r7, r4, pc, ror #4
   1cae0:	7325202d 			; <UNDEFINED> instruction: 0x7325202d
   1cae4:	726f502e 	rsbvc	r5, pc, #46	; 0x2e
   1cae8:	2e642574 	mcrcs	5, 3, r2, cr4, cr4, {3}
   1caec:	0000000a 	andeq	r0, r0, sl
   1caf0:	6c756f43 	ldclvs	15, cr6, [r5], #-268	; 0xfffffef4
   1caf4:	6f6e2064 	svcvs	0x006e2064
   1caf8:	6c612074 	stclvs	0, cr2, [r1], #-464	; 0xfffffe30
   1cafc:	61636f6c 	cmnvs	r3, ip, ror #30
   1cb00:	68206574 	stmdavs	r0!, {r2, r4, r5, r6, r8, sl, sp, lr}
   1cb04:	70206275 	eorvc	r6, r0, r5, ror r2
   1cb08:	6f6c7961 	svcvs	0x006c7961
   1cb0c:	202c6461 	eorcs	r6, ip, r1, ror #8
   1cb10:	6f727245 	svcvs	0x00727245
   1cb14:	44492072 	strbmi	r2, [r9], #-114	; 0xffffff8e
   1cb18:	0a692520 	beq	1a65fa0 <__bss_end+0x16fdfa0>
   1cb1c:	00000000 	andeq	r0, r0, r0
   1cb20:	3a444348 	bcc	112d848 <__bss_end+0xdc5848>
   1cb24:	756f4320 	strbvc	r4, [pc, #-800]!	; 1c80c <sd_commands+0x11e4>
   1cb28:	6e20646c 	cdpvs	4, 2, cr6, cr0, cr12, {3}
   1cb2c:	6620746f 	strtvs	r7, [r0], -pc, ror #8
   1cb30:	68637465 	stmdavs	r3!, {r0, r2, r5, r6, sl, ip, sp, lr}^
   1cb34:	62756820 	rsbsvs	r6, r5, #32, 16	; 0x200000
   1cb38:	73656420 	cmnvc	r5, #32, 8	; 0x20000000
   1cb3c:	70697263 	rsbvc	r7, r9, r3, ror #4
   1cb40:	20726f74 	rsbscs	r6, r2, r4, ror pc
   1cb44:	20726f66 	rsbscs	r6, r2, r6, ror #30
   1cb48:	69766564 	ldmdbvs	r6!, {r2, r5, r6, r8, sl, sp, lr}^
   1cb4c:	203a6563 	eorscs	r6, sl, r3, ror #10
   1cb50:	000a6925 	andeq	r6, sl, r5, lsr #18
   1cb54:	20425548 	subcs	r5, r2, r8, asr #10
   1cb58:	69766564 	ldmdbvs	r6!, {r2, r5, r6, r8, sl, sp, lr}^
   1cb5c:	253a6563 	ldrcs	r6, [sl, #-1379]!	; 0xfffffa9d
   1cb60:	73692069 	cmnvc	r9, #105	; 0x69
   1cb64:	6f6f7420 	svcvs	0x006f7420
   1cb68:	67696220 	strbvs	r6, [r9, -r0, lsr #4]!
   1cb6c:	726f6620 	rsbvc	r6, pc, #32, 12	; 0x2000000
   1cb70:	69687420 	stmdbvs	r8!, {r5, sl, ip, sp, lr}^
   1cb74:	72642073 	rsbvc	r2, r4, #115	; 0x73
   1cb78:	72657669 	rsbvc	r7, r5, #110100480	; 0x6900000
   1cb7c:	206f7420 	rsbcs	r7, pc, r0, lsr #8
   1cb80:	646e6168 	strbtvs	r6, [lr], #-360	; 0xfffffe98
   1cb84:	202e656c 	eorcs	r6, lr, ip, ror #10
   1cb88:	796c6e4f 	stmdbvc	ip!, {r0, r1, r2, r3, r6, r9, sl, fp, sp, lr}^
   1cb8c:	65687420 	strbvs	r7, [r8, #-1056]!	; 0xfffffbe0
   1cb90:	72696620 	rsbvc	r6, r9, #32, 12	; 0x2000000
   1cb94:	25207473 	strcs	r7, [r0, #-1139]!	; 0xfffffb8d
   1cb98:	6f702064 	svcvs	0x00702064
   1cb9c:	20737472 	rsbscs	r7, r3, r2, ror r4
   1cba0:	6c6c6977 			; <UNDEFINED> instruction: 0x6c6c6977
   1cba4:	20656220 	rsbcs	r6, r5, r0, lsr #4
   1cba8:	64657375 	strbtvs	r7, [r5], #-885	; 0xfffffc8b
   1cbac:	00000a2e 	andeq	r0, r0, lr, lsr #20
   1cbb0:	20425548 	subcs	r5, r2, r8, asr #10
   1cbb4:	69766564 	ldmdbvs	r6!, {r2, r5, r6, r8, sl, sp, lr}^
   1cbb8:	253a6563 	ldrcs	r6, [sl, #-1379]!	; 0xfffffa9d
   1cbbc:	61662069 	cmnvs	r6, r9, rrx
   1cbc0:	64656c69 	strbtvs	r6, [r5], #-3177	; 0xfffff397
   1cbc4:	206f7420 	rsbcs	r7, pc, r0, lsr #8
   1cbc8:	20746567 	rsbscs	r6, r4, r7, ror #10
   1cbcc:	20627568 	rsbcs	r7, r2, r8, ror #10
   1cbd0:	74617473 	strbtvc	r7, [r1], #-1139	; 0xfffffb8d
   1cbd4:	0a2e7375 	beq	bb99b0 <__bss_end+0x8519b0>
   1cbd8:	00000000 	andeq	r0, r0, r0
   1cbdc:	3a425548 	bcc	10b2104 <__bss_end+0xd4a104>
   1cbe0:	76656420 	strbtvc	r6, [r5], -r0, lsr #8
   1cbe4:	3a656369 	bcc	1975990 <__bss_end+0x160d990>
   1cbe8:	20692520 	rsbcs	r2, r9, r0, lsr #10
   1cbec:	6c756f63 	ldclvs	15, cr6, [r5], #-396	; 0xfffffe74
   1cbf0:	6f6e2064 	svcvs	0x006e2064
   1cbf4:	6f702074 	svcvs	0x00702074
   1cbf8:	20726577 	rsbscs	r6, r2, r7, ror r5
   1cbfc:	74726f50 	ldrbtvc	r6, [r2], #-3920	; 0xfffff0b0
   1cc00:	0a2e6425 	beq	bb5c9c <__bss_end+0x84dc9c>
   1cc04:	00000000 	andeq	r0, r0, r0
   1cc08:	41544146 	cmpmi	r4, r6, asr #2
   1cc0c:	5245204c 	subpl	r2, r5, #76	; 0x4c
   1cc10:	3a524f52 	bcc	14b0960 <__bss_end+0x1148960>
   1cc14:	44434820 	strbmi	r4, [r3], #-2080	; 0xfffff7e0
   1cc18:	69616620 	stmdbvs	r1!, {r5, r9, sl, sp, lr}^
   1cc1c:	2064656c 	rsbcs	r6, r4, ip, ror #10
   1cc20:	69206f74 	stmdbvs	r0!, {r2, r4, r5, r6, r8, r9, sl, fp, sp, lr}
   1cc24:	6974696e 	ldmdbvs	r4!, {r1, r2, r3, r5, r6, r8, fp, sp, lr}^
   1cc28:	73696c61 	cmnvc	r9, #24832	; 0x6100
   1cc2c:	000a2e65 	andeq	r2, sl, r5, ror #28
   1cc30:	44425355 	strbmi	r5, [r2], #-853	; 0xfffffcab
   1cc34:	6241203a 	subvs	r2, r1, #58	; 0x3a
   1cc38:	2c74726f 	lfmcs	f7, 2, [r4], #-444	; 0xfffffe44
   1cc3c:	44434820 	strbmi	r4, [r3], #-2080	; 0xfffff7e0
   1cc40:	69616620 	stmdbvs	r1!, {r5, r9, sl, sp, lr}^
   1cc44:	2064656c 	rsbcs	r6, r4, ip, ror #10
   1cc48:	73206f74 			; <UNDEFINED> instruction: 0x73206f74
   1cc4c:	74726174 	ldrbtvc	r6, [r2], #-372	; 0xfffffe8c
   1cc50:	00000a2e 	andeq	r0, r0, lr, lsr #20
   1cc54:	44425355 	strbmi	r5, [r2], #-853	; 0xfffffcab
   1cc58:	6146203a 	cmpvs	r6, sl, lsr r0
   1cc5c:	64656c69 	strbtvs	r6, [r5], #-3177	; 0xfffff397
   1cc60:	206f7420 	rsbcs	r7, pc, r0, lsr #8
   1cc64:	6d756e65 	ldclvs	14, cr6, [r5, #-404]!	; 0xfffffe6c
   1cc68:	74617265 	strbtvc	r7, [r1], #-613	; 0xfffffd9b
   1cc6c:	65642065 	strbvs	r2, [r4, #-101]!	; 0xffffff9b
   1cc70:	65636976 	strbvs	r6, [r3, #-2422]!	; 0xfffff68a
   1cc74:	000a2e73 	andeq	r2, sl, r3, ror lr
   1cc78:	68676948 	stmdavs	r7!, {r3, r6, r8, fp, sp, lr}^
   1cc7c:	00000000 	andeq	r0, r0, r0
   1cc80:	6c6c7546 	cfstr64vs	mvdx7, [ip], #-280	; 0xfffffee8
   1cc84:	00000000 	andeq	r0, r0, r0
   1cc88:	00776f4c 	rsbseq	r6, r7, ip, asr #30
   1cc8c:	706f7270 	rsbvc	r7, pc, r0, ror r2	; <UNPREDICTABLE>
   1cc90:	79747265 	ldmdbvc	r4!, {r0, r2, r5, r6, r9, ip, sp, lr}^
   1cc94:	69616d20 	stmdbvs	r1!, {r5, r8, sl, fp, sp, lr}^
   1cc98:	786f626c 	stmdavc	pc!, {r2, r3, r5, r6, r9, sp, lr}^	; <UNPREDICTABLE>
   1cc9c:	64696420 	strbtvs	r6, [r9], #-1056	; 0xfffffbe0
   1cca0:	746f6e20 	strbtvc	r6, [pc], #-3616	; 1cca8 <sd_commands+0x1680>
   1cca4:	74657220 	strbtvc	r7, [r5], #-544	; 0xfffffde0
   1cca8:	206e7275 	rsbcs	r7, lr, r5, ror r2
   1ccac:	61762061 	cmnvs	r6, r1, rrx
   1ccb0:	2064696c 	rsbcs	r6, r4, ip, ror #18
   1ccb4:	70736572 	rsbsvc	r6, r3, r2, ror r5
   1ccb8:	65736e6f 	ldrbvs	r6, [r3, #-3695]!	; 0xfffff191
   1ccbc:	00000a2e 	andeq	r0, r0, lr, lsr #20
   1ccc0:	706f7270 	rsbvc	r7, pc, r0, ror r2	; <UNPREDICTABLE>
   1ccc4:	79747265 	ldmdbvc	r4!, {r0, r2, r5, r6, r9, ip, sp, lr}^
   1ccc8:	69616d20 	stmdbvs	r1!, {r5, r8, sl, fp, sp, lr}^
   1cccc:	786f626c 	stmdavc	pc!, {r2, r3, r5, r6, r9, sp, lr}^	; <UNPREDICTABLE>
   1ccd0:	64696420 	strbtvs	r6, [r9], #-1056	; 0xfffffbe0
   1ccd4:	746f6e20 	strbtvc	r6, [pc], #-3616	; 1ccdc <sd_commands+0x16b4>
   1ccd8:	74657220 	strbtvc	r7, [r5], #-544	; 0xfffffde0
   1ccdc:	206e7275 	rsbcs	r7, lr, r5, ror r2
   1cce0:	61762061 	cmnvs	r6, r1, rrx
   1cce4:	2064696c 	rsbcs	r6, r4, ip, ror #18
   1cce8:	636f6c63 	cmnvs	pc, #25344	; 0x6300
   1ccec:	6469206b 	strbtvs	r2, [r9], #-107	; 0xffffff95
   1ccf0:	00000a2e 	andeq	r0, r0, lr, lsr #20

Disassembly of section .data:

0001d000 <vmesc>:
   1d000:	466e614a 	strbtmi	r6, [lr], -sl, asr #2
   1d004:	614d6265 	cmpvs	sp, r5, ror #4
   1d008:	72704172 	rsbsvc	r4, r0, #-2147483620	; 0x8000001c
   1d00c:	4a79614d 	bmi	1e75548 <__bss_end+0x1b0d548>
   1d010:	754a6e75 	strbvc	r6, [sl, #-3701]	; 0xfffff18b
   1d014:	6775416c 	ldrbvs	r4, [r5, -ip, ror #2]!
   1d018:	4f706553 	svcmi	0x00706553
   1d01c:	6f4e7463 	svcvs	0x004e7463
   1d020:	63654476 	cmnvs	r5, #1979711488	; 0x76000000

0001d024 <strValidChars>:
   1d024:	33323130 	teqcc	r2, #48, 2
   1d028:	37363534 			; <UNDEFINED> instruction: 0x37363534
   1d02c:	42413938 	submi	r3, r1, #56, 18	; 0xe0000
   1d030:	46454443 	strbmi	r4, [r5], -r3, asr #8
   1d034:	4a494847 	bmi	126f158 <__bss_end+0xf07158>
   1d038:	4e4d4c4b 	cdpmi	12, 4, cr4, cr13, cr11, {2}
   1d03c:	5251504f 	subspl	r5, r1, #79	; 0x4f
   1d040:	56555453 			; <UNDEFINED> instruction: 0x56555453
   1d044:	5a595857 	bpl	16731a8 <__bss_end+0x130b1a8>
   1d048:	4027265e 	eormi	r2, r7, lr, asr r6
   1d04c:	5d5b7d7b 	ldclpl	13, cr7, [fp, #-492]	; 0xfffffe14
   1d050:	213d242c 	teqcs	sp, ip, lsr #8
   1d054:	2928232d 	stmdbcs	r8!, {r0, r2, r3, r5, r8, r9, sp}
   1d058:	7e2b2e25 	cdpvc	14, 2, cr2, cr11, cr5, {1}
   1d05c:	0000005f 	andeq	r0, r0, pc, asr r0

0001d060 <vMemUserArea>:
   1d060:	00800000 	addeq	r0, r0, r0

0001d064 <vMemSystemArea>:
   1d064:	00700000 	rsbseq	r0, r0, r0

0001d068 <mbox_base>:
   1d068:	2000b880 	andcs	fp, r0, r0, lsl #17

0001d06c <bcm2835_spi_bit_order>:
   1d06c:	00000001 	andeq	r0, r0, r1

0001d070 <bcm2835_peripherals_size>:
   1d070:	01000000 	mrseq	r0, (UNDEF: 0)

0001d074 <bcm2835_peripherals_base>:
   1d074:	20000000 	andcs	r0, r0, r0

0001d078 <tl_gray>:
   1d078:	00007bef 	andeq	r7, r0, pc, ror #23

0001d07c <td_gray>:
   1d07c:	0000528a 	andeq	r5, r0, sl, lsl #5

0001d080 <tCyan>:
   1d080:	000007ff 	strdeq	r0, [r0], -pc	; <UNPREDICTABLE>

0001d084 <tYellow>:
   1d084:	0000ffe0 	andeq	pc, r0, r0, ror #31

0001d088 <tPurple>:
   1d088:	0000f11f 	andeq	pc, r0, pc, lsl r1	; <UNPREDICTABLE>

0001d08c <tWhite>:
   1d08c:	0000ffff 	strdeq	pc, [r0], -pc	; <UNPREDICTABLE>

0001d090 <tBlue>:
   1d090:	0000001f 	andeq	r0, r0, pc, lsl r0

0001d094 <tGreen>:
   1d094:	000007e0 	andeq	r0, r0, r0, ror #15

0001d098 <tRed>:
   1d098:	0000f800 	andeq	pc, r0, r0, lsl #16

0001d09c <ASCCHR>:
   1d09c:	33323130 	teqcc	r2, #48, 2
   1d0a0:	37363534 			; <UNDEFINED> instruction: 0x37363534
   1d0a4:	42413938 	submi	r3, r1, #56, 18	; 0xe0000
   1d0a8:	46454443 	strbmi	r4, [r5], -r3, asr #8

0001d0ac <KEY_MOD>:
   1d0ac:	52455751 	subpl	r5, r5, #21233664	; 0x1440000
   1d0b0:	49555954 	ldmdbmi	r5, {r2, r4, r6, r8, fp, ip, lr}^
   1d0b4:	5341504f 	movtpl	r5, #4175	; 0x104f
   1d0b8:	48474644 	stmdami	r7, {r2, r6, r9, sl, lr}^
   1d0bc:	2e4c4b4a 	vmlscs.f64	d20, d12, d10
   1d0c0:	5643585a 			; <UNDEFINED> instruction: 0x5643585a
   1d0c4:	204d4e42 	subcs	r4, sp, r2, asr #28
   1d0c8:	00002020 	andeq	r2, r0, r0, lsr #32
   1d0cc:	34333231 	ldrtcc	r3, [r3], #-561	; 0xfffffdcf
   1d0d0:	38373635 	ldmdacc	r7!, {r0, r2, r4, r5, r9, sl, ip, sp}
   1d0d4:	2f2d3039 	svccs	0x002d3039
   1d0d8:	24234021 	strtcs	r4, [r3], #-33	; 0xffffffdf
   1d0dc:	29282a26 	stmdbcs	r8!, {r1, r2, r5, r9, fp, sp}
   1d0e0:	3a3b2e2c 	bcc	ee8998 <__bss_end+0xb80998>
   1d0e4:	203e3c3f 	eorscs	r3, lr, pc, lsr ip
   1d0e8:	00002020 	andeq	r2, r0, r0, lsr #32
   1d0ec:	7d7b5d5b 	ldclvc	13, cr5, [fp, #-364]!	; 0xfffffe94
   1d0f0:	2b5f5c60 	blcs	17f4278 <__bss_end+0x148c278>
   1d0f4:	207c3d2d 	rsbscs	r3, ip, sp, lsr #26
   1d0f8:	20202020 	eorcs	r2, r0, r0, lsr #32
   1d0fc:	20202020 	eorcs	r2, r0, r0, lsr #32
   1d100:	20202020 	eorcs	r2, r0, r0, lsr #32
   1d104:	00002020 	andeq	r2, r0, r0, lsr #32
	...

0001d114 <utlogo>:
   1d114:	0000fffd 	strdeq	pc, [r0], -sp
   1d118:	0000f7bc 			; <UNDEFINED> instruction: 0x0000f7bc
   1d11c:	0000ffff 	strdeq	pc, [r0], -pc	; <UNPREDICTABLE>
   1d120:	0000f7bf 			; <UNDEFINED> instruction: 0x0000f7bf
   1d124:	0000ffff 	strdeq	pc, [r0], -pc	; <UNPREDICTABLE>
   1d128:	0000fffe 	strdeq	pc, [r0], -lr
   1d12c:	0000fffe 	strdeq	pc, [r0], -lr
   1d130:	0000ffde 	ldrdeq	pc, [r0], -lr
   1d134:	0000ffff 	strdeq	pc, [r0], -pc	; <UNPREDICTABLE>
   1d138:	0000ffbf 			; <UNDEFINED> instruction: 0x0000ffbf
   1d13c:	0000ffdf 	ldrdeq	pc, [r0], -pc	; <UNPREDICTABLE>
   1d140:	0000f79f 	muleq	r0, pc, r7	; <UNPREDICTABLE>
   1d144:	0000ef7e 	andeq	lr, r0, lr, ror pc
   1d148:	0000c619 	andeq	ip, r0, r9, lsl r6
   1d14c:	0000a4d7 	ldrdeq	sl, [r0], -r7
   1d150:	00008c35 	andeq	r8, r0, r5, lsr ip
   1d154:	00007392 	muleq	r0, r2, r3
   1d158:	00006b50 	andeq	r6, r0, r0, asr fp
   1d15c:	000062ee 	andeq	r6, r0, lr, ror #5
   1d160:	00005aad 	andeq	r5, r0, sp, lsr #21
   1d164:	00005acd 	andeq	r5, r0, sp, asr #21
   1d168:	00006b4f 	andeq	r6, r0, pc, asr #22
   1d16c:	00007bd1 	ldrdeq	r7, [r0], -r1
   1d170:	00008413 	andeq	r8, r0, r3, lsl r4
   1d174:	0000ad38 	andeq	sl, r0, r8, lsr sp
   1d178:	0000bdbb 			; <UNDEFINED> instruction: 0x0000bdbb
   1d17c:	0000e71f 	andeq	lr, r0, pc, lsl r7
   1d180:	0000ffbf 			; <UNDEFINED> instruction: 0x0000ffbf
   1d184:	0000ffdf 	ldrdeq	pc, [r0], -pc	; <UNPREDICTABLE>
   1d188:	0000ffdf 	ldrdeq	pc, [r0], -pc	; <UNPREDICTABLE>
   1d18c:	0000ffff 	strdeq	pc, [r0], -pc	; <UNPREDICTABLE>
   1d190:	0000f7be 			; <UNDEFINED> instruction: 0x0000f7be
   1d194:	0000f7de 	ldrdeq	pc, [r0], -lr
   1d198:	0000ffff 	strdeq	pc, [r0], -pc	; <UNPREDICTABLE>
   1d19c:	0000ffff 	strdeq	pc, [r0], -pc	; <UNPREDICTABLE>
   1d1a0:	0000ffff 	strdeq	pc, [r0], -pc	; <UNPREDICTABLE>
   1d1a4:	0000f7de 	ldrdeq	pc, [r0], -lr
   1d1a8:	0000fffe 	strdeq	pc, [r0], -lr
   1d1ac:	0000fffe 	strdeq	pc, [r0], -lr
   1d1b0:	0000fffe 	strdeq	pc, [r0], -lr
   1d1b4:	0000fffd 	strdeq	pc, [r0], -sp
   1d1b8:	0000ffdd 	ldrdeq	pc, [r0], -sp
   1d1bc:	0000ffff 	strdeq	pc, [r0], -pc	; <UNPREDICTABLE>
   1d1c0:	0000ffff 	strdeq	pc, [r0], -pc	; <UNPREDICTABLE>
   1d1c4:	0000ffdf 	ldrdeq	pc, [r0], -pc	; <UNPREDICTABLE>
   1d1c8:	0000ffff 	strdeq	pc, [r0], -pc	; <UNPREDICTABLE>
   1d1cc:	0000fffe 	strdeq	pc, [r0], -lr
   1d1d0:	0000ffff 	strdeq	pc, [r0], -pc	; <UNPREDICTABLE>
   1d1d4:	0000f79f 	muleq	r0, pc, r7	; <UNPREDICTABLE>
   1d1d8:	0000b598 	muleq	r0, r8, r5
   1d1dc:	00007390 	muleq	r0, r0, r3
   1d1e0:	00005aac 	andeq	r5, r0, ip, lsr #21
   1d1e4:	00004a29 	andeq	r4, r0, r9, lsr #20
   1d1e8:	0000736f 	andeq	r7, r0, pc, ror #6
   1d1ec:	0000a4f7 	strdeq	sl, [r0], -r7
   1d1f0:	0000a4f8 	strdeq	sl, [r0], -r8
   1d1f4:	0000bdfa 	strdeq	fp, [r0], -sl
   1d1f8:	0000ce3b 	andeq	ip, r0, fp, lsr lr
   1d1fc:	0000d69c 	muleq	r0, ip, r6
   1d200:	0000dedc 	ldrdeq	sp, [r0], -ip
   1d204:	0000dedc 	ldrdeq	sp, [r0], -ip
   1d208:	0000d67b 	andeq	sp, r0, fp, ror r6
   1d20c:	0000c5fa 	strdeq	ip, [r0], -sl
   1d210:	0000b599 	muleq	r0, r9, r5
   1d214:	00008c14 	andeq	r8, r0, r4, lsl ip
   1d218:	00006b51 	andeq	r6, r0, r1, asr fp
   1d21c:	00005aae 	andeq	r5, r0, lr, lsr #21
   1d220:	00004a4d 	andeq	r4, r0, sp, asr #20
   1d224:	00007370 	andeq	r7, r0, r0, ror r3
   1d228:	0000ad56 	andeq	sl, r0, r6, asr sp
   1d22c:	0000ef7e 	andeq	lr, r0, lr, ror pc
   1d230:	0000ffff 	strdeq	pc, [r0], -pc	; <UNPREDICTABLE>
   1d234:	0000ffff 	strdeq	pc, [r0], -pc	; <UNPREDICTABLE>
   1d238:	0000f7be 			; <UNDEFINED> instruction: 0x0000f7be
   1d23c:	0000ffff 	strdeq	pc, [r0], -pc	; <UNPREDICTABLE>
   1d240:	0000f7de 	ldrdeq	pc, [r0], -lr
   1d244:	0000ffff 	strdeq	pc, [r0], -pc	; <UNPREDICTABLE>
   1d248:	0000fffe 	strdeq	pc, [r0], -lr
   1d24c:	0000f79d 	muleq	r0, sp, r7
   1d250:	0000fffe 	strdeq	pc, [r0], -lr
   1d254:	0000ffde 	ldrdeq	pc, [r0], -lr
   1d258:	0000ffff 	strdeq	pc, [r0], -pc	; <UNPREDICTABLE>
   1d25c:	0000ffdf 	ldrdeq	pc, [r0], -pc	; <UNPREDICTABLE>
   1d260:	0000ffdf 	ldrdeq	pc, [r0], -pc	; <UNPREDICTABLE>
   1d264:	0000ffff 	strdeq	pc, [r0], -pc	; <UNPREDICTABLE>
   1d268:	0000ef7e 	andeq	lr, r0, lr, ror pc
   1d26c:	0000ce59 	andeq	ip, r0, r9, asr lr
   1d270:	00007baf 	andeq	r7, r0, pc, lsr #23
   1d274:	000039a8 	andeq	r3, r0, r8, lsr #19
   1d278:	00007370 	andeq	r7, r0, r0, ror r3
   1d27c:	0000ad56 	andeq	sl, r0, r6, asr sp
   1d280:	0000f79f 	muleq	r0, pc, r7	; <UNPREDICTABLE>
   1d284:	0000f79f 	muleq	r0, pc, r7	; <UNPREDICTABLE>
   1d288:	0000f79f 	muleq	r0, pc, r7	; <UNPREDICTABLE>
   1d28c:	0000f79f 	muleq	r0, pc, r7	; <UNPREDICTABLE>
   1d290:	0000f79f 	muleq	r0, pc, r7	; <UNPREDICTABLE>
   1d294:	0000f7bf 			; <UNDEFINED> instruction: 0x0000f7bf
   1d298:	0000ffdf 	ldrdeq	pc, [r0], -pc	; <UNPREDICTABLE>
   1d29c:	0000ffdf 	ldrdeq	pc, [r0], -pc	; <UNPREDICTABLE>
   1d2a0:	0000ffdf 	ldrdeq	pc, [r0], -pc	; <UNPREDICTABLE>
   1d2a4:	0000f7bf 			; <UNDEFINED> instruction: 0x0000f7bf
   1d2a8:	0000f7bf 			; <UNDEFINED> instruction: 0x0000f7bf
   1d2ac:	0000f79f 	muleq	r0, pc, r7	; <UNPREDICTABLE>
   1d2b0:	0000ef7f 	andeq	lr, r0, pc, ror pc
   1d2b4:	00009475 	andeq	r9, r0, r5, ror r4
   1d2b8:	00003169 	andeq	r3, r0, r9, ror #2
   1d2bc:	00008c55 	andeq	r8, r0, r5, asr ip
   1d2c0:	0000e71f 	andeq	lr, r0, pc, lsl r7
   1d2c4:	0000bdfa 	strdeq	fp, [r0], -sl
   1d2c8:	00006b6f 	andeq	r6, r0, pc, ror #22
   1d2cc:	00004a29 	andeq	r4, r0, r9, lsr #20
   1d2d0:	000073ae 	andeq	r7, r0, lr, lsr #7
   1d2d4:	0000c618 	andeq	ip, r0, r8, lsl r6
   1d2d8:	0000ffff 	strdeq	pc, [r0], -pc	; <UNPREDICTABLE>
   1d2dc:	0000ffff 	strdeq	pc, [r0], -pc	; <UNPREDICTABLE>
   1d2e0:	0000f7bf 			; <UNDEFINED> instruction: 0x0000f7bf
   1d2e4:	0000f7be 			; <UNDEFINED> instruction: 0x0000f7be
   1d2e8:	0000ffff 	strdeq	pc, [r0], -pc	; <UNPREDICTABLE>
   1d2ec:	0000ffde 	ldrdeq	pc, [r0], -lr
   1d2f0:	0000f7bd 			; <UNDEFINED> instruction: 0x0000f7bd
   1d2f4:	0000ffff 	strdeq	pc, [r0], -pc	; <UNPREDICTABLE>
   1d2f8:	0000ffdf 	ldrdeq	pc, [r0], -pc	; <UNPREDICTABLE>
   1d2fc:	0000ffdf 	ldrdeq	pc, [r0], -pc	; <UNPREDICTABLE>
   1d300:	0000e73e 	andeq	lr, r0, lr, lsr r7
   1d304:	0000debc 			; <UNDEFINED> instruction: 0x0000debc
   1d308:	0000736f 	andeq	r7, r0, pc, ror #6
   1d30c:	0000526b 	andeq	r5, r0, fp, ror #4
   1d310:	0000a515 	andeq	sl, r0, r5, lsl r5
   1d314:	0000f79f 	muleq	r0, pc, r7	; <UNPREDICTABLE>
   1d318:	0000ffdf 	ldrdeq	pc, [r0], -pc	; <UNPREDICTABLE>
   1d31c:	0000f7bf 			; <UNDEFINED> instruction: 0x0000f7bf
   1d320:	0000ffbf 			; <UNDEFINED> instruction: 0x0000ffbf
   1d324:	0000f79f 	muleq	r0, pc, r7	; <UNPREDICTABLE>
   1d328:	0000ffdf 	ldrdeq	pc, [r0], -pc	; <UNPREDICTABLE>
   1d32c:	0000ffbf 			; <UNDEFINED> instruction: 0x0000ffbf
   1d330:	0000ffbf 			; <UNDEFINED> instruction: 0x0000ffbf
   1d334:	0000f79f 	muleq	r0, pc, r7	; <UNPREDICTABLE>
   1d338:	0000f7bf 			; <UNDEFINED> instruction: 0x0000f7bf
   1d33c:	0000ffdf 	ldrdeq	pc, [r0], -pc	; <UNPREDICTABLE>
   1d340:	0000f7df 	ldrdeq	pc, [r0], -pc	; <UNPREDICTABLE>
   1d344:	0000f7df 	ldrdeq	pc, [r0], -pc	; <UNPREDICTABLE>
   1d348:	0000ffdf 	ldrdeq	pc, [r0], -pc	; <UNPREDICTABLE>
   1d34c:	0000ffdf 	ldrdeq	pc, [r0], -pc	; <UNPREDICTABLE>
   1d350:	0000ffdf 	ldrdeq	pc, [r0], -pc	; <UNPREDICTABLE>
   1d354:	0000b599 	muleq	r0, r9, r5
   1d358:	0000398a 	andeq	r3, r0, sl, lsl #19
   1d35c:	000041cb 	andeq	r4, r0, fp, asr #3
   1d360:	0000ef3f 	andeq	lr, r0, pc, lsr pc
   1d364:	0000ffdf 	ldrdeq	pc, [r0], -pc	; <UNPREDICTABLE>
   1d368:	0000ffdf 	ldrdeq	pc, [r0], -pc	; <UNPREDICTABLE>
   1d36c:	0000f79e 	muleq	r0, lr, r7
   1d370:	00009cf4 	strdeq	r9, [r0], -r4
   1d374:	00004a4b 	andeq	r4, r0, fp, asr #20
   1d378:	00006b2e 	andeq	r6, r0, lr, lsr #22
   1d37c:	0000ce7b 	andeq	ip, r0, fp, ror lr
   1d380:	0000ffff 	strdeq	pc, [r0], -pc	; <UNPREDICTABLE>
   1d384:	0000ffdf 	ldrdeq	pc, [r0], -pc	; <UNPREDICTABLE>
   1d388:	0000ffff 	strdeq	pc, [r0], -pc	; <UNPREDICTABLE>
   1d38c:	0000f7be 			; <UNDEFINED> instruction: 0x0000f7be
   1d390:	0000f7be 			; <UNDEFINED> instruction: 0x0000f7be
   1d394:	0000f79f 	muleq	r0, pc, r7	; <UNPREDICTABLE>
   1d398:	0000ffdf 	ldrdeq	pc, [r0], -pc	; <UNPREDICTABLE>
   1d39c:	0000f7bf 			; <UNDEFINED> instruction: 0x0000f7bf
   1d3a0:	0000a4f5 	strdeq	sl, [r0], -r5
   1d3a4:	00003188 	andeq	r3, r0, r8, lsl #3
   1d3a8:	0000ad36 	andeq	sl, r0, r6, lsr sp
   1d3ac:	0000e6fe 	strdeq	lr, [r0], -lr	; <UNPREDICTABLE>
   1d3b0:	0000f7bf 			; <UNDEFINED> instruction: 0x0000f7bf
   1d3b4:	0000ffbf 			; <UNDEFINED> instruction: 0x0000ffbf
   1d3b8:	0000debd 			; <UNDEFINED> instruction: 0x0000debd
   1d3bc:	0000c61a 	andeq	ip, r0, sl, lsl r6
   1d3c0:	00009cb6 			; <UNDEFINED> instruction: 0x00009cb6
   1d3c4:	00009c96 	muleq	r0, r6, ip
   1d3c8:	00008c35 	andeq	r8, r0, r5, lsr ip
   1d3cc:	00007b92 	muleq	r0, r2, fp
   1d3d0:	000083d2 	ldrdeq	r8, [r0], -r2
   1d3d4:	0000f79f 	muleq	r0, pc, r7	; <UNPREDICTABLE>
   1d3d8:	0000ffdf 	ldrdeq	pc, [r0], -pc	; <UNPREDICTABLE>
   1d3dc:	0000ffff 	strdeq	pc, [r0], -pc	; <UNPREDICTABLE>
   1d3e0:	0000ffff 	strdeq	pc, [r0], -pc	; <UNPREDICTABLE>
   1d3e4:	0000ffff 	strdeq	pc, [r0], -pc	; <UNPREDICTABLE>
   1d3e8:	0000ffff 	strdeq	pc, [r0], -pc	; <UNPREDICTABLE>
   1d3ec:	0000ffdf 	ldrdeq	pc, [r0], -pc	; <UNPREDICTABLE>
   1d3f0:	0000ffdf 	ldrdeq	pc, [r0], -pc	; <UNPREDICTABLE>
   1d3f4:	0000ffdf 	ldrdeq	pc, [r0], -pc	; <UNPREDICTABLE>
   1d3f8:	00005aad 	andeq	r5, r0, sp, lsr #21
   1d3fc:	00002948 	andeq	r2, r0, r8, asr #18
   1d400:	0000e71f 	andeq	lr, r0, pc, lsl r7
   1d404:	0000f77f 	andeq	pc, r0, pc, ror r7	; <UNPREDICTABLE>
   1d408:	0000ffff 	strdeq	pc, [r0], -pc	; <UNPREDICTABLE>
   1d40c:	0000f7bf 			; <UNDEFINED> instruction: 0x0000f7bf
   1d410:	0000ffdf 	ldrdeq	pc, [r0], -pc	; <UNPREDICTABLE>
   1d414:	0000ef5f 	andeq	lr, r0, pc, asr pc
   1d418:	0000a4f6 	strdeq	sl, [r0], -r6
   1d41c:	00004a4b 	andeq	r4, r0, fp, asr #20
   1d420:	00007bd1 	ldrdeq	r7, [r0], -r1
   1d424:	0000ffff 	strdeq	pc, [r0], -pc	; <UNPREDICTABLE>
   1d428:	0000f79f 	muleq	r0, pc, r7	; <UNPREDICTABLE>
   1d42c:	0000ffdf 	ldrdeq	pc, [r0], -pc	; <UNPREDICTABLE>
   1d430:	0000ffff 	strdeq	pc, [r0], -pc	; <UNPREDICTABLE>
   1d434:	0000ffbf 			; <UNDEFINED> instruction: 0x0000ffbf
   1d438:	0000f79f 	muleq	r0, pc, r7	; <UNPREDICTABLE>
   1d43c:	0000736f 	andeq	r7, r0, pc, ror #6
   1d440:	00004a4a 	andeq	r4, r0, sl, asr #20
   1d444:	0000e71e 	andeq	lr, r0, lr, lsl r7
   1d448:	0000f79f 	muleq	r0, pc, r7	; <UNPREDICTABLE>
   1d44c:	0000ffdf 	ldrdeq	pc, [r0], -pc	; <UNPREDICTABLE>
   1d450:	0000d67c 	andeq	sp, r0, ip, ror r6
   1d454:	000062ee 	andeq	r6, r0, lr, ror #5
   1d458:	00008412 	andeq	r8, r0, r2, lsl r4
   1d45c:	0000a517 	andeq	sl, r0, r7, lsl r5
   1d460:	0000bdba 			; <UNDEFINED> instruction: 0x0000bdba
   1d464:	0000c5fc 	strdeq	ip, [r0], -ip	; <UNPREDICTABLE>
   1d468:	0000524e 	andeq	r5, r0, lr, asr #4
   1d46c:	00002929 	andeq	r2, r0, r9, lsr #18
   1d470:	00009cb5 			; <UNDEFINED> instruction: 0x00009cb5
   1d474:	0000f7bf 			; <UNDEFINED> instruction: 0x0000f7bf
   1d478:	0000ffdf 	ldrdeq	pc, [r0], -pc	; <UNPREDICTABLE>
   1d47c:	0000ffff 	strdeq	pc, [r0], -pc	; <UNPREDICTABLE>
   1d480:	0000ffdf 	ldrdeq	pc, [r0], -pc	; <UNPREDICTABLE>
   1d484:	0000f7de 	ldrdeq	pc, [r0], -lr
   1d488:	0000ffff 	strdeq	pc, [r0], -pc	; <UNPREDICTABLE>
   1d48c:	0000ffff 	strdeq	pc, [r0], -pc	; <UNPREDICTABLE>
   1d490:	0000ffff 	strdeq	pc, [r0], -pc	; <UNPREDICTABLE>
   1d494:	0000ef7f 	andeq	lr, r0, pc, ror pc
   1d498:	00009cf6 	strdeq	r9, [r0], -r6
   1d49c:	000018c6 	andeq	r1, r0, r6, asr #17
   1d4a0:	0000d6bc 			; <UNDEFINED> instruction: 0x0000d6bc
   1d4a4:	0000ffdf 	ldrdeq	pc, [r0], -pc	; <UNPREDICTABLE>
   1d4a8:	0000f7bf 			; <UNDEFINED> instruction: 0x0000f7bf
   1d4ac:	0000ffff 	strdeq	pc, [r0], -pc	; <UNPREDICTABLE>
   1d4b0:	0000ffff 	strdeq	pc, [r0], -pc	; <UNPREDICTABLE>
   1d4b4:	0000ffbf 			; <UNDEFINED> instruction: 0x0000ffbf
   1d4b8:	0000f79f 	muleq	r0, pc, r7	; <UNPREDICTABLE>
   1d4bc:	0000c5fb 	strdeq	ip, [r0], -fp
   1d4c0:	000062ee 	andeq	r6, r0, lr, ror #5
   1d4c4:	000062ee 	andeq	r6, r0, lr, ror #5
   1d4c8:	0000ef7f 	andeq	lr, r0, pc, ror pc
   1d4cc:	0000ffff 	strdeq	pc, [r0], -pc	; <UNPREDICTABLE>
   1d4d0:	0000ef5e 	andeq	lr, r0, lr, asr pc
   1d4d4:	0000ffbf 			; <UNDEFINED> instruction: 0x0000ffbf
   1d4d8:	00007bb2 			; <UNDEFINED> instruction: 0x00007bb2
   1d4dc:	0000526b 	andeq	r5, r0, fp, ror #4
   1d4e0:	0000f79f 	muleq	r0, pc, r7	; <UNPREDICTABLE>
   1d4e4:	0000f7bf 			; <UNDEFINED> instruction: 0x0000f7bf
   1d4e8:	0000f77f 	andeq	pc, r0, pc, ror r7	; <UNPREDICTABLE>
   1d4ec:	0000a4f7 	strdeq	sl, [r0], -r7
   1d4f0:	00005a8d 	andeq	r5, r0, sp, lsl #21
   1d4f4:	0000e71e 	andeq	lr, r0, lr, lsl r7
   1d4f8:	0000ef7f 	andeq	lr, r0, pc, ror pc
   1d4fc:	0000debd 			; <UNDEFINED> instruction: 0x0000debd
   1d500:	0000e71f 	andeq	lr, r0, pc, lsl r7
   1d504:	0000ad3a 	andeq	sl, r0, sl, lsr sp
   1d508:	00002909 	andeq	r2, r0, r9, lsl #18
   1d50c:	00004a4c 	andeq	r4, r0, ip, asr #20
   1d510:	0000d69c 	muleq	r0, ip, r6
   1d514:	0000ef5d 	andeq	lr, r0, sp, asr pc
   1d518:	0000f7be 			; <UNDEFINED> instruction: 0x0000f7be
   1d51c:	0000ffff 	strdeq	pc, [r0], -pc	; <UNPREDICTABLE>
   1d520:	0000ffff 	strdeq	pc, [r0], -pc	; <UNPREDICTABLE>
   1d524:	0000ffff 	strdeq	pc, [r0], -pc	; <UNPREDICTABLE>
   1d528:	0000ffff 	strdeq	pc, [r0], -pc	; <UNPREDICTABLE>
   1d52c:	0000ffff 	strdeq	pc, [r0], -pc	; <UNPREDICTABLE>
   1d530:	0000ffdf 	ldrdeq	pc, [r0], -pc	; <UNPREDICTABLE>
   1d534:	0000ffff 	strdeq	pc, [r0], -pc	; <UNPREDICTABLE>
   1d538:	0000a536 	andeq	sl, r0, r6, lsr r5
   1d53c:	00004a4b 	andeq	r4, r0, fp, asr #20
   1d540:	0000d69c 	muleq	r0, ip, r6
   1d544:	0000ffdf 	ldrdeq	pc, [r0], -pc	; <UNPREDICTABLE>
   1d548:	0000ffdf 	ldrdeq	pc, [r0], -pc	; <UNPREDICTABLE>
   1d54c:	0000f79f 	muleq	r0, pc, r7	; <UNPREDICTABLE>
   1d550:	0000ffbf 			; <UNDEFINED> instruction: 0x0000ffbf
   1d554:	00009475 	andeq	r9, r0, r5, ror r4
   1d558:	00004a0c 	andeq	r4, r0, ip, lsl #20
   1d55c:	0000a518 	andeq	sl, r0, r8, lsl r5
   1d560:	0000ef5f 	andeq	lr, r0, pc, asr pc
   1d564:	0000528d 	andeq	r5, r0, sp, lsl #5
   1d568:	00006b50 	andeq	r6, r0, r0, asr fp
   1d56c:	0000ffdf 	ldrdeq	pc, [r0], -pc	; <UNPREDICTABLE>
   1d570:	0000ffdf 	ldrdeq	pc, [r0], -pc	; <UNPREDICTABLE>
   1d574:	0000b57a 	andeq	fp, r0, sl, ror r5
   1d578:	0000398a 	andeq	r3, r0, sl, lsl #19
   1d57c:	0000dedc 	ldrdeq	sp, [r0], -ip
   1d580:	0000f7bf 			; <UNDEFINED> instruction: 0x0000f7bf
   1d584:	0000ffdf 	ldrdeq	pc, [r0], -pc	; <UNPREDICTABLE>
   1d588:	0000e73f 	andeq	lr, r0, pc, lsr r7
   1d58c:	0000398a 	andeq	r3, r0, sl, lsl #19
   1d590:	0000b599 	muleq	r0, r9, r5
   1d594:	0000ef3e 	andeq	lr, r0, lr, lsr pc
   1d598:	0000ef3e 	andeq	lr, r0, lr, lsr pc
   1d59c:	0000ef5f 	andeq	lr, r0, pc, asr pc
   1d5a0:	0000f77f 	andeq	pc, r0, pc, ror r7	; <UNPREDICTABLE>
   1d5a4:	000041cc 	andeq	r4, r0, ip, asr #3
   1d5a8:	000020c8 	andeq	r2, r0, r8, asr #1
   1d5ac:	0000c5fa 	strdeq	ip, [r0], -sl
   1d5b0:	0000dedc 	ldrdeq	sp, [r0], -ip
   1d5b4:	0000f7be 			; <UNDEFINED> instruction: 0x0000f7be
   1d5b8:	0000ffff 	strdeq	pc, [r0], -pc	; <UNPREDICTABLE>
   1d5bc:	0000ffff 	strdeq	pc, [r0], -pc	; <UNPREDICTABLE>
   1d5c0:	0000ffff 	strdeq	pc, [r0], -pc	; <UNPREDICTABLE>
   1d5c4:	0000ffde 	ldrdeq	pc, [r0], -lr
   1d5c8:	0000ffdf 	ldrdeq	pc, [r0], -pc	; <UNPREDICTABLE>
   1d5cc:	0000ffff 	strdeq	pc, [r0], -pc	; <UNPREDICTABLE>
   1d5d0:	0000ffff 	strdeq	pc, [r0], -pc	; <UNPREDICTABLE>
   1d5d4:	0000ffff 	strdeq	pc, [r0], -pc	; <UNPREDICTABLE>
   1d5d8:	00008c32 	andeq	r8, r0, r2, lsr ip
   1d5dc:	0000528c 	andeq	r5, r0, ip, lsl #5
   1d5e0:	0000defd 	strdeq	sp, [r0], -sp	; <UNPREDICTABLE>
   1d5e4:	0000ffdf 	ldrdeq	pc, [r0], -pc	; <UNPREDICTABLE>
   1d5e8:	0000f7bf 			; <UNDEFINED> instruction: 0x0000f7bf
   1d5ec:	0000ffdf 	ldrdeq	pc, [r0], -pc	; <UNPREDICTABLE>
   1d5f0:	0000dede 	ldrdeq	sp, [r0], -lr
   1d5f4:	00002929 	andeq	r2, r0, r9, lsr #18
   1d5f8:	00002909 	andeq	r2, r0, r9, lsl #18
   1d5fc:	0000d67e 	andeq	sp, r0, lr, ror r6
   1d600:	0000f79f 	muleq	r0, pc, r7	; <UNPREDICTABLE>
   1d604:	0000dede 	ldrdeq	sp, [r0], -lr
   1d608:	00004a2b 	andeq	r4, r0, fp, lsr #20
   1d60c:	0000a516 	andeq	sl, r0, r6, lsl r5
   1d610:	0000ffdf 	ldrdeq	pc, [r0], -pc	; <UNPREDICTABLE>
   1d614:	00005a8e 	andeq	r5, r0, lr, lsl #21
   1d618:	00008c14 	andeq	r8, r0, r4, lsl ip
   1d61c:	0000f79f 	muleq	r0, pc, r7	; <UNPREDICTABLE>
   1d620:	0000ffff 	strdeq	pc, [r0], -pc	; <UNPREDICTABLE>
   1d624:	0000ffdf 	ldrdeq	pc, [r0], -pc	; <UNPREDICTABLE>
   1d628:	0000ce5b 	andeq	ip, r0, fp, asr lr
   1d62c:	00002107 	andeq	r2, r0, r7, lsl #2
   1d630:	0000528d 	andeq	r5, r0, sp, lsl #5
   1d634:	0000ef5e 	andeq	lr, r0, lr, asr pc
   1d638:	0000ffff 	strdeq	pc, [r0], -pc	; <UNPREDICTABLE>
   1d63c:	0000ffdf 	ldrdeq	pc, [r0], -pc	; <UNPREDICTABLE>
   1d640:	00007bb2 			; <UNDEFINED> instruction: 0x00007bb2
   1d644:	000020e8 	andeq	r2, r0, r8, ror #1
   1d648:	00007372 	andeq	r7, r0, r2, ror r3
   1d64c:	0000debc 			; <UNDEFINED> instruction: 0x0000debc
   1d650:	0000f7be 			; <UNDEFINED> instruction: 0x0000f7be
   1d654:	0000ffff 	strdeq	pc, [r0], -pc	; <UNPREDICTABLE>
   1d658:	0000fffe 	strdeq	pc, [r0], -lr
   1d65c:	0000fffe 	strdeq	pc, [r0], -lr
   1d660:	0000ffff 	strdeq	pc, [r0], -pc	; <UNPREDICTABLE>
   1d664:	0000ffff 	strdeq	pc, [r0], -pc	; <UNPREDICTABLE>
   1d668:	0000ffff 	strdeq	pc, [r0], -pc	; <UNPREDICTABLE>
   1d66c:	0000f79e 	muleq	r0, lr, r7
   1d670:	0000ffff 	strdeq	pc, [r0], -pc	; <UNPREDICTABLE>
   1d674:	0000f79f 	muleq	r0, pc, r7	; <UNPREDICTABLE>
   1d678:	0000528b 	andeq	r5, r0, fp, lsl #5
   1d67c:	00008c32 	andeq	r8, r0, r2, lsr ip
   1d680:	0000defd 	strdeq	sp, [r0], -sp	; <UNPREDICTABLE>
   1d684:	0000ffbf 			; <UNDEFINED> instruction: 0x0000ffbf
   1d688:	0000e71f 	andeq	lr, r0, pc, lsl r7
   1d68c:	0000d69c 	muleq	r0, ip, r6
   1d690:	00008c34 	andeq	r8, r0, r4, lsr ip
   1d694:	00002909 	andeq	r2, r0, r9, lsl #18
   1d698:	0000526e 	andeq	r5, r0, lr, ror #4
   1d69c:	0000bdbb 			; <UNDEFINED> instruction: 0x0000bdbb
   1d6a0:	0000d67d 	andeq	sp, r0, sp, ror r6
   1d6a4:	0000e73f 	andeq	lr, r0, pc, lsr r7
   1d6a8:	000094b5 			; <UNDEFINED> instruction: 0x000094b5
   1d6ac:	00004a4c 	andeq	r4, r0, ip, asr #20
   1d6b0:	0000ffdf 	ldrdeq	pc, [r0], -pc	; <UNPREDICTABLE>
   1d6b4:	00002909 	andeq	r2, r0, r9, lsl #18
   1d6b8:	0000ce5c 	andeq	ip, r0, ip, asr lr
   1d6bc:	0000ffdf 	ldrdeq	pc, [r0], -pc	; <UNPREDICTABLE>
   1d6c0:	0000ffdf 	ldrdeq	pc, [r0], -pc	; <UNPREDICTABLE>
   1d6c4:	0000ffdf 	ldrdeq	pc, [r0], -pc	; <UNPREDICTABLE>
   1d6c8:	0000f7bf 			; <UNDEFINED> instruction: 0x0000f7bf
   1d6cc:	00009494 	muleq	r0, r4, r4
   1d6d0:	00009473 	andeq	r9, r0, r3, ror r4
   1d6d4:	0000ef7e 	andeq	lr, r0, lr, ror pc
   1d6d8:	0000f7bf 			; <UNDEFINED> instruction: 0x0000f7bf
   1d6dc:	0000debd 			; <UNDEFINED> instruction: 0x0000debd
   1d6e0:	00003189 	andeq	r3, r0, r9, lsl #3
   1d6e4:	000041ab 	andeq	r4, r0, fp, lsr #3
   1d6e8:	0000b559 	andeq	fp, r0, r9, asr r5
   1d6ec:	0000e73e 	andeq	lr, r0, lr, lsr r7
   1d6f0:	0000f7be 			; <UNDEFINED> instruction: 0x0000f7be
   1d6f4:	0000fffe 	strdeq	pc, [r0], -lr
   1d6f8:	0000fffe 	strdeq	pc, [r0], -lr
   1d6fc:	0000fffe 	strdeq	pc, [r0], -lr
   1d700:	0000f7de 	ldrdeq	pc, [r0], -lr
   1d704:	0000ffff 	strdeq	pc, [r0], -pc	; <UNPREDICTABLE>
   1d708:	0000f7be 			; <UNDEFINED> instruction: 0x0000f7be
   1d70c:	0000ffff 	strdeq	pc, [r0], -pc	; <UNPREDICTABLE>
   1d710:	0000f79e 	muleq	r0, lr, r7
   1d714:	0000dedb 	ldrdeq	sp, [r0], -fp
   1d718:	00003187 	andeq	r3, r0, r7, lsl #3
   1d71c:	0000d69b 	muleq	r0, fp, r6
   1d720:	0000f7bf 			; <UNDEFINED> instruction: 0x0000f7bf
   1d724:	0000d67c 	andeq	sp, r0, ip, ror r6
   1d728:	00006b50 	andeq	r6, r0, r0, asr fp
   1d72c:	00007392 	muleq	r0, r2, r3
   1d730:	000020e8 	andeq	r2, r0, r8, ror #1
   1d734:	00002929 	andeq	r2, r0, r9, lsr #18
   1d738:	0000528e 	andeq	r5, r0, lr, lsl #5
   1d73c:	00006b31 	andeq	r6, r0, r1, lsr fp
   1d740:	000083f3 	strdeq	r8, [r0], -r3
   1d744:	0000ad58 	andeq	sl, r0, r8, asr sp
   1d748:	0000ce3b 	andeq	ip, r0, fp, lsr lr
   1d74c:	00002927 	andeq	r2, r0, r7, lsr #18
   1d750:	0000e73e 	andeq	lr, r0, lr, lsr r7
   1d754:	0000316a 	andeq	r3, r0, sl, ror #2
   1d758:	0000bd99 	muleq	r0, r9, sp
   1d75c:	0000ffff 	strdeq	pc, [r0], -pc	; <UNPREDICTABLE>
   1d760:	0000ffff 	strdeq	pc, [r0], -pc	; <UNPREDICTABLE>
   1d764:	0000ffdf 	ldrdeq	pc, [r0], -pc	; <UNPREDICTABLE>
   1d768:	0000ffff 	strdeq	pc, [r0], -pc	; <UNPREDICTABLE>
   1d76c:	0000ffdf 	ldrdeq	pc, [r0], -pc	; <UNPREDICTABLE>
   1d770:	0000d67b 	andeq	sp, r0, fp, ror r6
   1d774:	0000e73d 	andeq	lr, r0, sp, lsr r7
   1d778:	0000ffdf 	ldrdeq	pc, [r0], -pc	; <UNPREDICTABLE>
   1d77c:	00008c33 	andeq	r8, r0, r3, lsr ip
   1d780:	000020c6 	andeq	r2, r0, r6, asr #1
   1d784:	00005a8e 	andeq	r5, r0, lr, lsl #21
   1d788:	0000e6fe 	strdeq	lr, [r0], -lr	; <UNPREDICTABLE>
   1d78c:	0000ef5e 	andeq	lr, r0, lr, asr pc
   1d790:	0000ffff 	strdeq	pc, [r0], -pc	; <UNPREDICTABLE>
   1d794:	0000ffff 	strdeq	pc, [r0], -pc	; <UNPREDICTABLE>
   1d798:	0000f7bd 			; <UNDEFINED> instruction: 0x0000f7bd
   1d79c:	0000f7be 			; <UNDEFINED> instruction: 0x0000f7be
   1d7a0:	0000ffff 	strdeq	pc, [r0], -pc	; <UNPREDICTABLE>
   1d7a4:	0000ffff 	strdeq	pc, [r0], -pc	; <UNPREDICTABLE>
   1d7a8:	0000ffff 	strdeq	pc, [r0], -pc	; <UNPREDICTABLE>
   1d7ac:	0000ffdf 	ldrdeq	pc, [r0], -pc	; <UNPREDICTABLE>
   1d7b0:	0000ffff 	strdeq	pc, [r0], -pc	; <UNPREDICTABLE>
   1d7b4:	00006b2d 	andeq	r6, r0, sp, lsr #22
   1d7b8:	00007bf0 	strdeq	r7, [r0], -r0
   1d7bc:	0000d6bc 			; <UNDEFINED> instruction: 0x0000d6bc
   1d7c0:	0000f79f 	muleq	r0, pc, r7	; <UNPREDICTABLE>
   1d7c4:	0000ffdf 	ldrdeq	pc, [r0], -pc	; <UNPREDICTABLE>
   1d7c8:	0000ef5f 	andeq	lr, r0, pc, asr pc
   1d7cc:	0000c5fb 	strdeq	ip, [r0], -fp
   1d7d0:	00002908 	andeq	r2, r0, r8, lsl #18
   1d7d4:	00002929 	andeq	r2, r0, r9, lsr #18
   1d7d8:	0000e71f 	andeq	lr, r0, pc, lsl r7
   1d7dc:	0000debe 			; <UNDEFINED> instruction: 0x0000debe
   1d7e0:	0000e73f 	andeq	lr, r0, pc, lsr r7
   1d7e4:	0000d6bd 			; <UNDEFINED> instruction: 0x0000d6bd
   1d7e8:	0000d67b 	andeq	sp, r0, fp, ror r6
   1d7ec:	000041e9 	andeq	r4, r0, r9, ror #3
   1d7f0:	0000defd 	strdeq	sp, [r0], -sp	; <UNPREDICTABLE>
   1d7f4:	00003169 	andeq	r3, r0, r9, ror #2
   1d7f8:	0000bdda 	ldrdeq	fp, [r0], -sl
   1d7fc:	0000f79f 	muleq	r0, pc, r7	; <UNPREDICTABLE>
   1d800:	0000ffdf 	ldrdeq	pc, [r0], -pc	; <UNPREDICTABLE>
   1d804:	0000ffff 	strdeq	pc, [r0], -pc	; <UNPREDICTABLE>
   1d808:	0000ffde 	ldrdeq	pc, [r0], -lr
   1d80c:	0000ffdf 	ldrdeq	pc, [r0], -pc	; <UNPREDICTABLE>
   1d810:	0000ffdf 	ldrdeq	pc, [r0], -pc	; <UNPREDICTABLE>
   1d814:	0000ffbf 			; <UNDEFINED> instruction: 0x0000ffbf
   1d818:	0000f79f 	muleq	r0, pc, r7	; <UNPREDICTABLE>
   1d81c:	00003169 	andeq	r3, r0, r9, ror #2
   1d820:	00002908 	andeq	r2, r0, r8, lsl #18
   1d824:	00009475 	andeq	r9, r0, r5, ror r4
   1d828:	0000f77f 	andeq	pc, r0, pc, ror r7	; <UNPREDICTABLE>
   1d82c:	0000f77f 	andeq	pc, r0, pc, ror r7	; <UNPREDICTABLE>
   1d830:	0000ffff 	strdeq	pc, [r0], -pc	; <UNPREDICTABLE>
   1d834:	0000ffff 	strdeq	pc, [r0], -pc	; <UNPREDICTABLE>
   1d838:	0000ffff 	strdeq	pc, [r0], -pc	; <UNPREDICTABLE>
   1d83c:	0000ffff 	strdeq	pc, [r0], -pc	; <UNPREDICTABLE>
   1d840:	0000ffff 	strdeq	pc, [r0], -pc	; <UNPREDICTABLE>
   1d844:	0000ef7e 	andeq	lr, r0, lr, ror pc
   1d848:	0000ffff 	strdeq	pc, [r0], -pc	; <UNPREDICTABLE>
   1d84c:	0000e73d 	andeq	lr, r0, sp, lsr r7
   1d850:	0000c618 	andeq	ip, r0, r8, lsl r6
   1d854:	00004229 	andeq	r4, r0, r9, lsr #4
   1d858:	0000e71c 	andeq	lr, r0, ip, lsl r7
   1d85c:	0000ef5e 	andeq	lr, r0, lr, asr pc
   1d860:	0000ffdf 	ldrdeq	pc, [r0], -pc	; <UNPREDICTABLE>
   1d864:	0000ef7f 	andeq	lr, r0, pc, ror pc
   1d868:	0000f79f 	muleq	r0, pc, r7	; <UNPREDICTABLE>
   1d86c:	00007b93 	muleq	r0, r3, fp
   1d870:	00002909 	andeq	r2, r0, r9, lsl #18
   1d874:	00007371 	andeq	r7, r0, r1, ror r3
   1d878:	0000d69d 	muleq	r0, sp, r6
   1d87c:	0000ef7f 	andeq	lr, r0, pc, ror pc
   1d880:	0000ffdf 	ldrdeq	pc, [r0], -pc	; <UNPREDICTABLE>
   1d884:	0000f7bf 			; <UNDEFINED> instruction: 0x0000f7bf
   1d888:	0000b5b8 			; <UNDEFINED> instruction: 0x0000b5b8
   1d88c:	00003187 	andeq	r3, r0, r7, lsl #3
   1d890:	0000defc 	strdeq	sp, [r0], -ip
   1d894:	00006b50 	andeq	r6, r0, r0, asr fp
   1d898:	00007370 	andeq	r7, r0, r0, ror r3
   1d89c:	0000ffdf 	ldrdeq	pc, [r0], -pc	; <UNPREDICTABLE>
   1d8a0:	0000ef7e 	andeq	lr, r0, lr, ror pc
   1d8a4:	0000ffff 	strdeq	pc, [r0], -pc	; <UNPREDICTABLE>
   1d8a8:	0000ffff 	strdeq	pc, [r0], -pc	; <UNPREDICTABLE>
   1d8ac:	0000f7be 			; <UNDEFINED> instruction: 0x0000f7be
   1d8b0:	0000ffff 	strdeq	pc, [r0], -pc	; <UNPREDICTABLE>
   1d8b4:	0000ffdf 	ldrdeq	pc, [r0], -pc	; <UNPREDICTABLE>
   1d8b8:	0000ce3c 	andeq	ip, r0, ip, lsr lr
   1d8bc:	00002908 	andeq	r2, r0, r8, lsl #18
   1d8c0:	00002908 	andeq	r2, r0, r8, lsl #18
   1d8c4:	0000bdda 	ldrdeq	fp, [r0], -sl
   1d8c8:	0000defe 	strdeq	sp, [r0], -lr
   1d8cc:	0000ffdf 	ldrdeq	pc, [r0], -pc	; <UNPREDICTABLE>
   1d8d0:	0000f79f 	muleq	r0, pc, r7	; <UNPREDICTABLE>
   1d8d4:	0000ffff 	strdeq	pc, [r0], -pc	; <UNPREDICTABLE>
   1d8d8:	0000ffdf 	ldrdeq	pc, [r0], -pc	; <UNPREDICTABLE>
   1d8dc:	0000f7bf 			; <UNDEFINED> instruction: 0x0000f7bf
   1d8e0:	0000f79f 	muleq	r0, pc, r7	; <UNPREDICTABLE>
   1d8e4:	0000ffff 	strdeq	pc, [r0], -pc	; <UNPREDICTABLE>
   1d8e8:	0000f79f 	muleq	r0, pc, r7	; <UNPREDICTABLE>
   1d8ec:	0000e73e 	andeq	lr, r0, lr, lsr r7
   1d8f0:	00004209 	andeq	r4, r0, r9, lsl #4
   1d8f4:	0000b597 	muleq	r0, r7, r5
   1d8f8:	0000dedb 	ldrdeq	sp, [r0], -fp
   1d8fc:	0000f7bf 			; <UNDEFINED> instruction: 0x0000f7bf
   1d900:	0000ffdf 	ldrdeq	pc, [r0], -pc	; <UNPREDICTABLE>
   1d904:	0000ffdf 	ldrdeq	pc, [r0], -pc	; <UNPREDICTABLE>
   1d908:	0000ffbf 			; <UNDEFINED> instruction: 0x0000ffbf
   1d90c:	000041ed 	andeq	r4, r0, sp, ror #3
   1d910:	000020c8 	andeq	r2, r0, r8, asr #1
   1d914:	0000ad58 	andeq	sl, r0, r8, asr sp
   1d918:	0000e71e 	andeq	lr, r0, lr, lsl r7
   1d91c:	0000ffdf 	ldrdeq	pc, [r0], -pc	; <UNPREDICTABLE>
   1d920:	0000ef7f 	andeq	lr, r0, pc, ror pc
   1d924:	0000ffff 	strdeq	pc, [r0], -pc	; <UNPREDICTABLE>
   1d928:	0000ef9e 	muleq	r0, lr, pc	; <UNPREDICTABLE>
   1d92c:	0000c618 	andeq	ip, r0, r8, lsl r6
   1d930:	0000ffff 	strdeq	pc, [r0], -pc	; <UNPREDICTABLE>
   1d934:	0000dede 	ldrdeq	sp, [r0], -lr
   1d938:	00003148 	andeq	r3, r0, r8, asr #2
   1d93c:	0000ad58 	andeq	sl, r0, r8, asr sp
   1d940:	0000ffdf 	ldrdeq	pc, [r0], -pc	; <UNPREDICTABLE>
   1d944:	0000ffff 	strdeq	pc, [r0], -pc	; <UNPREDICTABLE>
   1d948:	0000fffe 	strdeq	pc, [r0], -lr
   1d94c:	0000fffe 	strdeq	pc, [r0], -lr
   1d950:	0000ffdf 	ldrdeq	pc, [r0], -pc	; <UNPREDICTABLE>
   1d954:	0000ffdf 	ldrdeq	pc, [r0], -pc	; <UNPREDICTABLE>
   1d958:	0000b55a 	andeq	fp, r0, sl, asr r5
   1d95c:	00002929 	andeq	r2, r0, r9, lsr #18
   1d960:	00002909 	andeq	r2, r0, r9, lsl #18
   1d964:	0000ad17 	andeq	sl, r0, r7, lsl sp
   1d968:	0000ffbf 			; <UNDEFINED> instruction: 0x0000ffbf
   1d96c:	0000ffdf 	ldrdeq	pc, [r0], -pc	; <UNPREDICTABLE>
   1d970:	0000f7bf 			; <UNDEFINED> instruction: 0x0000f7bf
   1d974:	0000f79f 	muleq	r0, pc, r7	; <UNPREDICTABLE>
   1d978:	0000ffff 	strdeq	pc, [r0], -pc	; <UNPREDICTABLE>
   1d97c:	0000f7bf 			; <UNDEFINED> instruction: 0x0000f7bf
   1d980:	0000ffff 	strdeq	pc, [r0], -pc	; <UNPREDICTABLE>
   1d984:	0000ffdf 	ldrdeq	pc, [r0], -pc	; <UNPREDICTABLE>
   1d988:	0000defd 	strdeq	sp, [r0], -sp	; <UNPREDICTABLE>
   1d98c:	0000420a 	andeq	r4, r0, sl, lsl #4
   1d990:	000094b4 			; <UNDEFINED> instruction: 0x000094b4
   1d994:	0000defc 	strdeq	sp, [r0], -ip
   1d998:	0000ef5d 	andeq	lr, r0, sp, asr pc
   1d99c:	0000ffff 	strdeq	pc, [r0], -pc	; <UNPREDICTABLE>
   1d9a0:	0000ffdf 	ldrdeq	pc, [r0], -pc	; <UNPREDICTABLE>
   1d9a4:	0000f79f 	muleq	r0, pc, r7	; <UNPREDICTABLE>
   1d9a8:	0000b59a 	muleq	r0, sl, r5
   1d9ac:	0000314a 	andeq	r3, r0, sl, asr #2
   1d9b0:	0000398b 	andeq	r3, r0, fp, lsl #19
   1d9b4:	0000debd 			; <UNDEFINED> instruction: 0x0000debd
   1d9b8:	0000f79f 	muleq	r0, pc, r7	; <UNPREDICTABLE>
   1d9bc:	0000ef7f 	andeq	lr, r0, pc, ror pc
   1d9c0:	0000f7df 	ldrdeq	pc, [r0], -pc	; <UNPREDICTABLE>
   1d9c4:	0000ffff 	strdeq	pc, [r0], -pc	; <UNPREDICTABLE>
   1d9c8:	0000f7bf 			; <UNDEFINED> instruction: 0x0000f7bf
   1d9cc:	0000ffff 	strdeq	pc, [r0], -pc	; <UNPREDICTABLE>
   1d9d0:	0000f79e 	muleq	r0, lr, r7
   1d9d4:	0000ffdf 	ldrdeq	pc, [r0], -pc	; <UNPREDICTABLE>
   1d9d8:	0000b599 	muleq	r0, r9, r5
   1d9dc:	0000398a 	andeq	r3, r0, sl, lsl #19
   1d9e0:	0000ce5b 	andeq	ip, r0, fp, asr lr
   1d9e4:	0000f79e 	muleq	r0, lr, r7
   1d9e8:	0000f7bd 			; <UNDEFINED> instruction: 0x0000f7bd
   1d9ec:	0000f7bd 			; <UNDEFINED> instruction: 0x0000f7bd
   1d9f0:	0000ffff 	strdeq	pc, [r0], -pc	; <UNPREDICTABLE>
   1d9f4:	0000ffdf 	ldrdeq	pc, [r0], -pc	; <UNPREDICTABLE>
   1d9f8:	0000ce1d 	andeq	ip, r0, sp, lsl lr
   1d9fc:	00002909 	andeq	r2, r0, r9, lsl #18
   1da00:	000020c8 	andeq	r2, r0, r8, asr #1
   1da04:	00006b2f 	andeq	r6, r0, pc, lsr #22
   1da08:	0000f79f 	muleq	r0, pc, r7	; <UNPREDICTABLE>
   1da0c:	0000ffbf 			; <UNDEFINED> instruction: 0x0000ffbf
   1da10:	0000f79f 	muleq	r0, pc, r7	; <UNPREDICTABLE>
   1da14:	0000ffff 	strdeq	pc, [r0], -pc	; <UNPREDICTABLE>
   1da18:	0000f7df 	ldrdeq	pc, [r0], -pc	; <UNPREDICTABLE>
   1da1c:	0000ffff 	strdeq	pc, [r0], -pc	; <UNPREDICTABLE>
   1da20:	0000f7bf 			; <UNDEFINED> instruction: 0x0000f7bf
   1da24:	0000b578 	andeq	fp, r0, r8, ror r5
   1da28:	00003189 	andeq	r3, r0, r9, lsl #3
   1da2c:	00009cd5 	ldrdeq	r9, [r0], -r5
   1da30:	0000d6bb 			; <UNDEFINED> instruction: 0x0000d6bb
   1da34:	0000ef5d 	andeq	lr, r0, sp, asr pc
   1da38:	0000ffff 	strdeq	pc, [r0], -pc	; <UNPREDICTABLE>
   1da3c:	0000ef7e 	andeq	lr, r0, lr, ror pc
   1da40:	0000ffdf 	ldrdeq	pc, [r0], -pc	; <UNPREDICTABLE>
   1da44:	0000ffdf 	ldrdeq	pc, [r0], -pc	; <UNPREDICTABLE>
   1da48:	00006b11 	andeq	r6, r0, r1, lsl fp
   1da4c:	000020c9 	andeq	r2, r0, r9, asr #1
   1da50:	00007bb3 			; <UNDEFINED> instruction: 0x00007bb3
   1da54:	0000e71e 	andeq	lr, r0, lr, lsl r7
   1da58:	0000ffdf 	ldrdeq	pc, [r0], -pc	; <UNPREDICTABLE>
   1da5c:	0000ffff 	strdeq	pc, [r0], -pc	; <UNPREDICTABLE>
   1da60:	0000d69a 	muleq	r0, sl, r6
   1da64:	0000d6ba 			; <UNDEFINED> instruction: 0x0000d6ba
   1da68:	0000ffff 	strdeq	pc, [r0], -pc	; <UNPREDICTABLE>
   1da6c:	0000f7be 			; <UNDEFINED> instruction: 0x0000f7be
   1da70:	0000ffff 	strdeq	pc, [r0], -pc	; <UNPREDICTABLE>
   1da74:	0000ffdf 	ldrdeq	pc, [r0], -pc	; <UNPREDICTABLE>
   1da78:	0000ffdf 	ldrdeq	pc, [r0], -pc	; <UNPREDICTABLE>
   1da7c:	0000ad37 	andeq	sl, r0, r7, lsr sp
   1da80:	00003188 	andeq	r3, r0, r8, lsl #3
   1da84:	0000ad76 	andeq	sl, r0, r6, ror sp
   1da88:	0000ffde 	ldrdeq	pc, [r0], -lr
   1da8c:	0000ffff 	strdeq	pc, [r0], -pc	; <UNPREDICTABLE>
   1da90:	0000ffdf 	ldrdeq	pc, [r0], -pc	; <UNPREDICTABLE>
   1da94:	0000ffbf 			; <UNDEFINED> instruction: 0x0000ffbf
   1da98:	0000ff9f 	muleq	r0, pc, pc	; <UNPREDICTABLE>
   1da9c:	000062d0 	ldrdeq	r6, [r0], -r0
   1daa0:	000020c8 	andeq	r2, r0, r8, asr #1
   1daa4:	00002908 	andeq	r2, r0, r8, lsl #18
   1daa8:	00007bd2 	ldrdeq	r7, [r0], -r2
   1daac:	0000debe 			; <UNDEFINED> instruction: 0x0000debe
   1dab0:	0000ffdf 	ldrdeq	pc, [r0], -pc	; <UNPREDICTABLE>
   1dab4:	0000f7bf 			; <UNDEFINED> instruction: 0x0000f7bf
   1dab8:	0000ef5e 	andeq	lr, r0, lr, asr pc
   1dabc:	0000bdd9 	ldrdeq	fp, [r0], -r9
   1dac0:	0000630e 	andeq	r6, r0, lr, lsl #6
   1dac4:	000041ea 	andeq	r4, r0, sl, ror #3
   1dac8:	0000a536 	andeq	sl, r0, r6, lsr r5
   1dacc:	0000e71d 	andeq	lr, r0, sp, lsl r7
   1dad0:	0000ef5e 	andeq	lr, r0, lr, asr pc
   1dad4:	0000ffff 	strdeq	pc, [r0], -pc	; <UNPREDICTABLE>
   1dad8:	0000f7bf 			; <UNDEFINED> instruction: 0x0000f7bf
   1dadc:	0000ffff 	strdeq	pc, [r0], -pc	; <UNPREDICTABLE>
   1dae0:	0000ef5e 	andeq	lr, r0, lr, asr pc
   1dae4:	0000f7bf 			; <UNDEFINED> instruction: 0x0000f7bf
   1dae8:	00004a2d 	andeq	r4, r0, sp, lsr #20
   1daec:	000020c9 	andeq	r2, r0, r9, asr #1
   1daf0:	00009456 	andeq	r9, r0, r6, asr r4
   1daf4:	0000defd 	strdeq	sp, [r0], -sp	; <UNPREDICTABLE>
   1daf8:	0000b5b6 			; <UNDEFINED> instruction: 0x0000b5b6
   1dafc:	0000630c 	andeq	r6, r0, ip, lsl #6
   1db00:	00008430 	andeq	r8, r0, r0, lsr r4
   1db04:	0000f7be 			; <UNDEFINED> instruction: 0x0000f7be
   1db08:	0000ffff 	strdeq	pc, [r0], -pc	; <UNPREDICTABLE>
   1db0c:	0000ffde 	ldrdeq	pc, [r0], -lr
   1db10:	0000ffff 	strdeq	pc, [r0], -pc	; <UNPREDICTABLE>
   1db14:	0000ffff 	strdeq	pc, [r0], -pc	; <UNPREDICTABLE>
   1db18:	0000f79f 	muleq	r0, pc, r7	; <UNPREDICTABLE>
   1db1c:	0000ffff 	strdeq	pc, [r0], -pc	; <UNPREDICTABLE>
   1db20:	0000c61a 	andeq	ip, r0, sl, lsl r6
   1db24:	0000528b 	andeq	r5, r0, fp, lsl #5
   1db28:	0000630d 	andeq	r6, r0, sp, lsl #6
   1db2c:	0000ce5a 	andeq	ip, r0, sl, asr lr
   1db30:	0000f7bf 			; <UNDEFINED> instruction: 0x0000f7bf
   1db34:	0000f79f 	muleq	r0, pc, r7	; <UNPREDICTABLE>
   1db38:	0000ffdf 	ldrdeq	pc, [r0], -pc	; <UNPREDICTABLE>
   1db3c:	0000d69e 	muleq	r0, lr, r6
   1db40:	000062d0 	ldrdeq	r6, [r0], -r0
   1db44:	00001887 	andeq	r1, r0, r7, lsl #17
   1db48:	000020e8 	andeq	r2, r0, r8, ror #1
   1db4c:	000039ac 	andeq	r3, r0, ip, lsr #19
   1db50:	0000398b 	andeq	r3, r0, fp, lsl #19
   1db54:	000041ca 	andeq	r4, r0, sl, asr #3
   1db58:	00003148 	andeq	r3, r0, r8, asr #2
   1db5c:	00004a2b 	andeq	r4, r0, fp, lsr #20
   1db60:	00009474 	andeq	r9, r0, r4, ror r4
   1db64:	0000d67c 	andeq	sp, r0, ip, ror r6
   1db68:	0000e71e 	andeq	lr, r0, lr, lsl r7
   1db6c:	0000ef7e 	andeq	lr, r0, lr, ror pc
   1db70:	0000ffdf 	ldrdeq	pc, [r0], -pc	; <UNPREDICTABLE>
   1db74:	0000ffff 	strdeq	pc, [r0], -pc	; <UNPREDICTABLE>
   1db78:	0000ffff 	strdeq	pc, [r0], -pc	; <UNPREDICTABLE>
   1db7c:	0000f7be 			; <UNDEFINED> instruction: 0x0000f7be
   1db80:	0000ffff 	strdeq	pc, [r0], -pc	; <UNPREDICTABLE>
   1db84:	0000f79f 	muleq	r0, pc, r7	; <UNPREDICTABLE>
   1db88:	00003148 	andeq	r3, r0, r8, asr #2
   1db8c:	00002909 	andeq	r2, r0, r9, lsl #18
   1db90:	00003169 	andeq	r3, r0, r9, ror #2
   1db94:	000041e9 	andeq	r4, r0, r9, ror #3
   1db98:	00009492 	muleq	r0, r2, r4
   1db9c:	0000defb 	strdeq	sp, [r0], -fp
   1dba0:	0000ef7d 	andeq	lr, r0, sp, ror pc
   1dba4:	0000e75c 	andeq	lr, r0, ip, asr r7
   1dba8:	0000f7be 			; <UNDEFINED> instruction: 0x0000f7be
   1dbac:	0000ffff 	strdeq	pc, [r0], -pc	; <UNPREDICTABLE>
   1dbb0:	0000ffff 	strdeq	pc, [r0], -pc	; <UNPREDICTABLE>
   1dbb4:	0000f7bf 			; <UNDEFINED> instruction: 0x0000f7bf
   1dbb8:	0000ffdf 	ldrdeq	pc, [r0], -pc	; <UNPREDICTABLE>
   1dbbc:	0000ffdf 	ldrdeq	pc, [r0], -pc	; <UNPREDICTABLE>
   1dbc0:	0000ffff 	strdeq	pc, [r0], -pc	; <UNPREDICTABLE>
   1dbc4:	0000f7bf 			; <UNDEFINED> instruction: 0x0000f7bf
   1dbc8:	00009cb4 			; <UNDEFINED> instruction: 0x00009cb4
   1dbcc:	0000528b 	andeq	r5, r0, fp, lsl #5
   1dbd0:	00005acd 	andeq	r5, r0, sp, asr #21
   1dbd4:	0000bdb9 			; <UNDEFINED> instruction: 0x0000bdb9
   1dbd8:	0000defe 	strdeq	sp, [r0], -lr
   1dbdc:	0000ffdf 	ldrdeq	pc, [r0], -pc	; <UNPREDICTABLE>
   1dbe0:	0000ef3f 	andeq	lr, r0, pc, lsr pc
   1dbe4:	0000bd9b 	muleq	r0, fp, sp
   1dbe8:	00008c35 	andeq	r8, r0, r5, lsr ip
   1dbec:	00007bb3 			; <UNDEFINED> instruction: 0x00007bb3
   1dbf0:	00007bb3 			; <UNDEFINED> instruction: 0x00007bb3
   1dbf4:	0000a4d7 	ldrdeq	sl, [r0], -r7
   1dbf8:	0000bdda 	ldrdeq	fp, [r0], -sl
   1dbfc:	0000dede 	ldrdeq	sp, [r0], -lr
   1dc00:	0000e71f 	andeq	lr, r0, pc, lsl r7
   1dc04:	0000e6fe 	strdeq	lr, [r0], -lr	; <UNPREDICTABLE>
   1dc08:	0000e71e 	andeq	lr, r0, lr, lsl r7
   1dc0c:	0000f79f 	muleq	r0, pc, r7	; <UNPREDICTABLE>
   1dc10:	0000ffff 	strdeq	pc, [r0], -pc	; <UNPREDICTABLE>
   1dc14:	0000ffff 	strdeq	pc, [r0], -pc	; <UNPREDICTABLE>
   1dc18:	0000ffff 	strdeq	pc, [r0], -pc	; <UNPREDICTABLE>
   1dc1c:	0000ffff 	strdeq	pc, [r0], -pc	; <UNPREDICTABLE>
   1dc20:	0000ffff 	strdeq	pc, [r0], -pc	; <UNPREDICTABLE>
   1dc24:	0000ffbf 			; <UNDEFINED> instruction: 0x0000ffbf
   1dc28:	00009cb5 			; <UNDEFINED> instruction: 0x00009cb5
   1dc2c:	000083f3 	strdeq	r8, [r0], -r3
   1dc30:	00009454 	andeq	r9, r0, r4, asr r4
   1dc34:	0000d6bb 			; <UNDEFINED> instruction: 0x0000d6bb
   1dc38:	0000e73c 	andeq	lr, r0, ip, lsr r7
   1dc3c:	0000ef7d 	andeq	lr, r0, sp, ror pc
   1dc40:	0000ef7d 	andeq	lr, r0, sp, ror pc
   1dc44:	0000ef9d 	muleq	r0, sp, pc	; <UNPREDICTABLE>
   1dc48:	0000ffff 	strdeq	pc, [r0], -pc	; <UNPREDICTABLE>
   1dc4c:	0000ffff 	strdeq	pc, [r0], -pc	; <UNPREDICTABLE>
   1dc50:	0000ffdf 	ldrdeq	pc, [r0], -pc	; <UNPREDICTABLE>
   1dc54:	0000ffff 	strdeq	pc, [r0], -pc	; <UNPREDICTABLE>
   1dc58:	0000f79e 	muleq	r0, lr, r7
   1dc5c:	0000ffff 	strdeq	pc, [r0], -pc	; <UNPREDICTABLE>
   1dc60:	0000ffff 	strdeq	pc, [r0], -pc	; <UNPREDICTABLE>
   1dc64:	0000ef7e 	andeq	lr, r0, lr, ror pc
   1dc68:	0000ffff 	strdeq	pc, [r0], -pc	; <UNPREDICTABLE>
   1dc6c:	0000f7df 	ldrdeq	pc, [r0], -pc	; <UNPREDICTABLE>
   1dc70:	0000bdd8 	ldrdeq	fp, [r0], -r8
   1dc74:	00006b6f 	andeq	r6, r0, pc, ror #22
   1dc78:	00005aad 	andeq	r5, r0, sp, lsr #21
   1dc7c:	000062ee 	andeq	r6, r0, lr, ror #5
   1dc80:	00009495 	muleq	r0, r5, r4
   1dc84:	0000c5fb 	strdeq	ip, [r0], -fp
   1dc88:	0000d67d 	andeq	sp, r0, sp, ror r6
   1dc8c:	0000debe 			; <UNDEFINED> instruction: 0x0000debe
   1dc90:	0000e71f 	andeq	lr, r0, pc, lsl r7
   1dc94:	0000de9e 	muleq	r0, lr, lr
   1dc98:	0000ef3f 	andeq	lr, r0, pc, lsr pc
   1dc9c:	0000ef5f 	andeq	lr, r0, pc, asr pc
   1dca0:	0000ef3f 	andeq	lr, r0, pc, lsr pc
   1dca4:	0000f79f 	muleq	r0, pc, r7	; <UNPREDICTABLE>
   1dca8:	0000ffdf 	ldrdeq	pc, [r0], -pc	; <UNPREDICTABLE>
   1dcac:	0000ffff 	strdeq	pc, [r0], -pc	; <UNPREDICTABLE>
   1dcb0:	0000f7bf 			; <UNDEFINED> instruction: 0x0000f7bf
   1dcb4:	0000f79e 	muleq	r0, lr, r7
   1dcb8:	0000ffff 	strdeq	pc, [r0], -pc	; <UNPREDICTABLE>
   1dcbc:	0000ffff 	strdeq	pc, [r0], -pc	; <UNPREDICTABLE>
   1dcc0:	0000f79e 	muleq	r0, lr, r7
   1dcc4:	0000ffbf 			; <UNDEFINED> instruction: 0x0000ffbf
   1dcc8:	0000f7bf 			; <UNDEFINED> instruction: 0x0000f7bf
   1dccc:	0000d69d 	muleq	r0, sp, r6
   1dcd0:	0000ef3f 	andeq	lr, r0, pc, lsr pc
   1dcd4:	0000ef5d 	andeq	lr, r0, sp, asr pc
   1dcd8:	0000ef7d 	andeq	lr, r0, sp, ror pc
   1dcdc:	0000f7be 			; <UNDEFINED> instruction: 0x0000f7be
   1dce0:	0000ffff 	strdeq	pc, [r0], -pc	; <UNPREDICTABLE>
   1dce4:	0000ffff 	strdeq	pc, [r0], -pc	; <UNPREDICTABLE>
   1dce8:	0000ffff 	strdeq	pc, [r0], -pc	; <UNPREDICTABLE>
   1dcec:	0000ffdf 	ldrdeq	pc, [r0], -pc	; <UNPREDICTABLE>
   1dcf0:	0000f7de 	ldrdeq	pc, [r0], -lr
   1dcf4:	0000ffde 	ldrdeq	pc, [r0], -lr
   1dcf8:	0000f7de 	ldrdeq	pc, [r0], -lr
   1dcfc:	0000ffff 	strdeq	pc, [r0], -pc	; <UNPREDICTABLE>
   1dd00:	0000ffff 	strdeq	pc, [r0], -pc	; <UNPREDICTABLE>
   1dd04:	0000f7be 			; <UNDEFINED> instruction: 0x0000f7be
   1dd08:	0000ffff 	strdeq	pc, [r0], -pc	; <UNPREDICTABLE>
   1dd0c:	0000ffff 	strdeq	pc, [r0], -pc	; <UNPREDICTABLE>
   1dd10:	0000e75d 	andeq	lr, r0, sp, asr r7
   1dd14:	0000f79f 	muleq	r0, pc, r7	; <UNPREDICTABLE>
   1dd18:	0000defd 	strdeq	sp, [r0], -sp	; <UNPREDICTABLE>
   1dd1c:	0000c5f9 	strdeq	ip, [r0], -r9
   1dd20:	00009494 	muleq	r0, r4, r4
   1dd24:	000062ee 	andeq	r6, r0, lr, ror #5
   1dd28:	00004a0b 	andeq	r4, r0, fp, lsl #20
   1dd2c:	00004a4c 	andeq	r4, r0, ip, asr #20
   1dd30:	000062ef 	andeq	r6, r0, pc, ror #5
   1dd34:	00007bb2 			; <UNDEFINED> instruction: 0x00007bb2
   1dd38:	000083f3 	strdeq	r8, [r0], -r3
   1dd3c:	00008c54 	andeq	r8, r0, r4, asr ip
   1dd40:	00009495 	muleq	r0, r5, r4
   1dd44:	00009495 	muleq	r0, r5, r4
   1dd48:	00008412 	andeq	r8, r0, r2, lsl r4
   1dd4c:	0000736f 	andeq	r7, r0, pc, ror #6
   1dd50:	000062ed 	andeq	r6, r0, sp, ror #5
   1dd54:	00005acb 	andeq	r5, r0, fp, asr #21
   1dd58:	0000ad55 	andeq	sl, r0, r5, asr sp
   1dd5c:	0000ffff 	strdeq	pc, [r0], -pc	; <UNPREDICTABLE>
   1dd60:	0000ffff 	strdeq	pc, [r0], -pc	; <UNPREDICTABLE>
   1dd64:	0000ffff 	strdeq	pc, [r0], -pc	; <UNPREDICTABLE>
   1dd68:	0000ffdf 	ldrdeq	pc, [r0], -pc	; <UNPREDICTABLE>
   1dd6c:	0000e73e 	andeq	lr, r0, lr, lsr r7
   1dd70:	0000ffdf 	ldrdeq	pc, [r0], -pc	; <UNPREDICTABLE>
   1dd74:	0000f7bf 			; <UNDEFINED> instruction: 0x0000f7bf
   1dd78:	0000f7de 	ldrdeq	pc, [r0], -lr
   1dd7c:	0000ffff 	strdeq	pc, [r0], -pc	; <UNPREDICTABLE>
   1dd80:	0000ffff 	strdeq	pc, [r0], -pc	; <UNPREDICTABLE>
   1dd84:	0000ffff 	strdeq	pc, [r0], -pc	; <UNPREDICTABLE>
   1dd88:	0000f7be 			; <UNDEFINED> instruction: 0x0000f7be
   1dd8c:	0000ffdf 	ldrdeq	pc, [r0], -pc	; <UNPREDICTABLE>
   1dd90:	0000ffff 	strdeq	pc, [r0], -pc	; <UNPREDICTABLE>
   1dd94:	0000fffe 	strdeq	pc, [r0], -lr
   1dd98:	0000ffff 	strdeq	pc, [r0], -pc	; <UNPREDICTABLE>
   1dd9c:	0000f7bd 			; <UNDEFINED> instruction: 0x0000f7bd
   1dda0:	0000f79d 	muleq	r0, sp, r7
   1dda4:	0000ffff 	strdeq	pc, [r0], -pc	; <UNPREDICTABLE>
   1dda8:	0000ffff 	strdeq	pc, [r0], -pc	; <UNPREDICTABLE>
   1ddac:	0000ef9d 	muleq	r0, sp, pc	; <UNPREDICTABLE>
   1ddb0:	0000ffff 	strdeq	pc, [r0], -pc	; <UNPREDICTABLE>
   1ddb4:	0000ffff 	strdeq	pc, [r0], -pc	; <UNPREDICTABLE>
   1ddb8:	0000ffff 	strdeq	pc, [r0], -pc	; <UNPREDICTABLE>
   1ddbc:	0000ffdf 	ldrdeq	pc, [r0], -pc	; <UNPREDICTABLE>
   1ddc0:	0000f79f 	muleq	r0, pc, r7	; <UNPREDICTABLE>
   1ddc4:	0000f7bf 			; <UNDEFINED> instruction: 0x0000f7bf
   1ddc8:	0000f7bf 			; <UNDEFINED> instruction: 0x0000f7bf
   1ddcc:	0000e73e 	andeq	lr, r0, lr, lsr r7
   1ddd0:	0000d67c 	andeq	sp, r0, ip, ror r6
   1ddd4:	0000bdda 	ldrdeq	fp, [r0], -sl
   1ddd8:	0000b578 	andeq	fp, r0, r8, ror r5
   1dddc:	0000ad58 	andeq	sl, r0, r8, asr sp
   1dde0:	0000ad58 	andeq	sl, r0, r8, asr sp
   1dde4:	0000ad37 	andeq	sl, r0, r7, lsr sp
   1dde8:	0000b558 	andeq	fp, r0, r8, asr r5
   1ddec:	0000c61a 	andeq	ip, r0, sl, lsl r6
   1ddf0:	0000e6fd 	strdeq	lr, [r0], -sp
   1ddf4:	0000e71c 	andeq	lr, r0, ip, lsl r7
   1ddf8:	0000ef7d 	andeq	lr, r0, sp, ror pc
   1ddfc:	0000f7bf 			; <UNDEFINED> instruction: 0x0000f7bf
   1de00:	0000f79e 	muleq	r0, lr, r7
   1de04:	0000ffff 	strdeq	pc, [r0], -pc	; <UNPREDICTABLE>
   1de08:	0000ffff 	strdeq	pc, [r0], -pc	; <UNPREDICTABLE>
   1de0c:	0000f7bf 			; <UNDEFINED> instruction: 0x0000f7bf
   1de10:	0000ffbf 			; <UNDEFINED> instruction: 0x0000ffbf
   1de14:	0000ffff 	strdeq	pc, [r0], -pc	; <UNPREDICTABLE>
   1de18:	0000ffff 	strdeq	pc, [r0], -pc	; <UNPREDICTABLE>
   1de1c:	0000ffff 	strdeq	pc, [r0], -pc	; <UNPREDICTABLE>
   1de20:	0000ffdf 	ldrdeq	pc, [r0], -pc	; <UNPREDICTABLE>
   1de24:	0000ffdf 	ldrdeq	pc, [r0], -pc	; <UNPREDICTABLE>
   1de28:	0000ffff 	strdeq	pc, [r0], -pc	; <UNPREDICTABLE>
   1de2c:	0000ffff 	strdeq	pc, [r0], -pc	; <UNPREDICTABLE>
   1de30:	0000ffff 	strdeq	pc, [r0], -pc	; <UNPREDICTABLE>

0001de34 <FONT_16X16>:
	...
   1de58:	800f0007 	andhi	r0, pc, r7
   1de5c:	800f800f 	andhi	r8, pc, pc
   1de60:	800f800f 	andhi	r8, pc, pc
   1de64:	00070007 	andeq	r0, r7, r7
   1de68:	00000000 	andeq	r0, r0, r0
   1de6c:	00070007 	andeq	r0, r7, r7
   1de70:	00000007 	andeq	r0, r0, r7
   1de74:	380e0000 	stmdacc	lr, {}	; <UNPREDICTABLE>
   1de78:	380e380e 	stmdacc	lr, {r1, r2, r3, fp, ip, sp}
   1de7c:	3006380e 	andcc	r3, r6, lr, lsl #16
	...
   1de94:	300c0000 	andcc	r0, ip, r0
   1de98:	300c300c 	andcc	r3, ip, ip
   1de9c:	fe7ffe7f 	mrc2	14, 3, pc, cr15, cr15, {3}
   1dea0:	300c300c 	andcc	r3, ip, ip
   1dea4:	300c300c 	andcc	r3, ip, ip
   1dea8:	fe7ffe7f 	mrc2	14, 3, pc, cr15, cr15, {3}
   1deac:	300c300c 	andcc	r3, ip, ip
   1deb0:	0000300c 	andeq	r3, r0, ip
   1deb4:	40020000 	andmi	r0, r2, r0
   1deb8:	f80f4002 			; <UNDEFINED> instruction: 0xf80f4002
   1debc:	401af81f 	andsmi	pc, sl, pc, lsl r8	; <UNPREDICTABLE>
   1dec0:	f01f401a 			; <UNDEFINED> instruction: 0xf01f401a
   1dec4:	5802f80f 	stmdapl	r2, {r0, r1, r2, r3, fp, ip, sp, lr, pc}
   1dec8:	f81f5802 			; <UNDEFINED> instruction: 0xf81f5802
   1decc:	4002f01f 	andmi	pc, r2, pc, lsl r0	; <UNPREDICTABLE>
   1ded0:	00004002 	andeq	r4, r0, r2
   1ded4:	00000000 	andeq	r0, r0, r0
   1ded8:	100e0000 	andne	r0, lr, r0
   1dedc:	700e300e 	andvc	r3, lr, lr
   1dee0:	c001e000 	andgt	lr, r1, r0
   1dee4:	00078003 	andeq	r8, r7, r3
   1dee8:	700c700e 	andvc	r7, ip, lr
   1deec:	00007008 	andeq	r7, r0, r8
	...
   1def8:	8019000f 	andshi	r0, r9, pc
   1defc:	80198019 	andshi	r8, r9, r9, lsl r0
   1df00:	080f000f 	stmdaeq	pc, {r0, r1, r2, r3}	; <UNPREDICTABLE>
   1df04:	f819980f 			; <UNDEFINED> instruction: 0xf819980f
   1df08:	e018f018 	ands	pc, r8, r8, lsl r0	; <UNPREDICTABLE>
   1df0c:	980ff019 	stmdals	pc, {r0, r3, r4, ip, sp, lr, pc}	; <UNPREDICTABLE>
	...
   1df18:	00070007 	andeq	r0, r7, r7
   1df1c:	000e0007 	andeq	r0, lr, r7
	...
   1df38:	c001f000 	andgt	pc, r1, r0
   1df3c:	00078003 	andeq	r8, r7, r3
   1df40:	000e000e 	andeq	r0, lr, lr
   1df44:	000e000e 	andeq	r0, lr, lr
   1df48:	80030007 	andhi	r0, r3, r7
   1df4c:	f000c001 			; <UNDEFINED> instruction: 0xf000c001
	...
   1df58:	8003000f 	andhi	r0, r3, pc
   1df5c:	e000c001 	and	ip, r0, r1
   1df60:	70007000 	andvc	r7, r0, r0
   1df64:	70007000 	andvc	r7, r0, r0
   1df68:	c001e000 	andgt	lr, r1, r0
   1df6c:	000f8003 	andeq	r8, pc, r3
	...
   1df78:	88118001 	ldmdahi	r1, {r0, pc}
   1df7c:	e0079009 	and	r9, r7, r9
   1df80:	fc3fe007 	ldc2	0, cr14, [pc], #-28	; 1df6c <FONT_16X16+0x138>
   1df84:	e007fc3f 	and	pc, r7, pc, lsr ip	; <UNPREDICTABLE>
   1df88:	9009e007 	andls	lr, r9, r7
   1df8c:	80018811 	andhi	r8, r1, r1, lsl r8
	...
   1df9c:	80018001 	andhi	r8, r1, r1
   1dfa0:	f00f8001 			; <UNDEFINED> instruction: 0xf00f8001
   1dfa4:	8001f00f 	andhi	pc, r1, pc
   1dfa8:	80018001 	andhi	r8, r1, r1
	...
   1dfc8:	00070000 	andeq	r0, r7, r0
   1dfcc:	00070007 	andeq	r0, r7, r7
   1dfd0:	0000000e 	andeq	r0, r0, lr
	...
   1dfe0:	f81f0000 			; <UNDEFINED> instruction: 0xf81f0000
   1dfe4:	0000f81f 	andeq	pc, r0, pc, lsl r8	; <UNPREDICTABLE>
	...
   1e008:	00070000 	andeq	r0, r7, r0
   1e00c:	00070007 	andeq	r0, r7, r7
	...
   1e018:	06000200 	streq	r0, [r0], -r0, lsl #4
   1e01c:	1c000e00 	stcne	14, cr0, [r0], {-0}
   1e020:	70003800 	andvc	r3, r0, r0, lsl #16
   1e024:	c001e000 	andgt	lr, r1, r0
   1e028:	00078003 	andeq	r8, r7, r3
   1e02c:	001c000e 	andseq	r0, ip, lr
	...
   1e038:	381cf00f 	ldmdacc	ip, {r0, r1, r2, r3, ip, sp, lr, pc}
   1e03c:	f81c781c 			; <UNDEFINED> instruction: 0xf81c781c
   1e040:	b81df81c 	ldmdalt	sp, {r2, r3, r4, fp, ip, sp, lr, pc}
   1e044:	381fb81d 	ldmdacc	pc, {r0, r2, r3, r4, fp, ip, sp, pc}	; <UNPREDICTABLE>
   1e048:	381e381f 	ldmdacc	lr, {r0, r1, r2, r3, r4, fp, ip, sp}
   1e04c:	f00f381c 			; <UNDEFINED> instruction: 0xf00f381c
	...
   1e058:	80018001 	andhi	r8, r1, r1
   1e05c:	801f8003 	andshi	r8, pc, r3
   1e060:	8003801f 	andhi	r8, r3, pc, lsl r0
   1e064:	80038003 	andhi	r8, r3, r3
   1e068:	80038003 	andhi	r8, r3, r3
   1e06c:	f01f8003 			; <UNDEFINED> instruction: 0xf01f8003
	...
   1e078:	701ce00f 	andsvc	lr, ip, pc
   1e07c:	3800381c 	stmdacc	r0, {r2, r3, r4, fp, ip, sp}
   1e080:	e0007000 	and	r7, r0, r0
   1e084:	8003c001 	andhi	ip, r3, r1
   1e088:	380e0007 	stmdacc	lr, {r0, r1, r2}
   1e08c:	f81f381c 			; <UNDEFINED> instruction: 0xf81f381c
	...
   1e098:	701ce00f 	andsvc	lr, ip, pc
   1e09c:	3800381c 	stmdacc	r0, {r2, r3, r4, fp, ip, sp}
   1e0a0:	c0037000 	andgt	r7, r3, r0
   1e0a4:	7000c003 	andvc	ip, r0, r3
   1e0a8:	381c3800 	ldmdacc	ip, {fp, ip, sp}
   1e0ac:	e00f701c 	and	r7, pc, ip, lsl r0	; <UNPREDICTABLE>
	...
   1e0b8:	e001e000 	and	lr, r1, r0
   1e0bc:	e006e003 	and	lr, r6, r3
   1e0c0:	e018e00c 	ands	lr, r8, ip
   1e0c4:	f81ff81f 			; <UNDEFINED> instruction: 0xf81ff81f
   1e0c8:	e000e000 	and	lr, r0, r0
   1e0cc:	f803e000 			; <UNDEFINED> instruction: 0xf803e000
	...
   1e0d8:	001cf81f 	andseq	pc, ip, pc, lsl r8	; <UNPREDICTABLE>
   1e0dc:	001c001c 	andseq	r0, ip, ip, lsl r0
   1e0e0:	e01f001c 	ands	r0, pc, ip, lsl r0	; <UNPREDICTABLE>
   1e0e4:	7800f01f 	stmdavc	r0, {r0, r1, r2, r3, r4, ip, sp, lr, pc}
   1e0e8:	381c3800 	ldmdacc	ip, {fp, ip, sp}
   1e0ec:	e00f701c 	and	r7, pc, ip, lsl r0	; <UNPREDICTABLE>
	...
   1e0f8:	0007e003 	andeq	lr, r7, r3
   1e0fc:	001c000e 	andseq	r0, ip, lr
   1e100:	f01f001c 			; <UNDEFINED> instruction: 0xf01f001c
   1e104:	381cf81f 	ldmdacc	ip, {r0, r1, r2, r3, r4, fp, ip, sp, lr, pc}
   1e108:	381c381c 	ldmdacc	ip, {r2, r3, r4, fp, ip, sp}
   1e10c:	f00f381c 			; <UNDEFINED> instruction: 0xf00f381c
	...
   1e118:	1c1cfc1f 	ldcne	12, cr15, [ip], {31}
   1e11c:	1c1c1c1c 	ldcne	12, cr1, [ip], {28}
   1e120:	38001c00 	stmdacc	r0, {sl, fp, ip}
   1e124:	e0007000 	and	r7, r0, r0
   1e128:	8003c001 	andhi	ip, r3, r1
   1e12c:	80038003 	andhi	r8, r3, r3
	...
   1e138:	381cf00f 	ldmdacc	ip, {r0, r1, r2, r3, ip, sp, lr, pc}
   1e13c:	381c381c 	ldmdacc	ip, {r2, r3, r4, fp, ip, sp}
   1e140:	e007381f 	and	r3, r7, pc, lsl r8
   1e144:	f81ce007 			; <UNDEFINED> instruction: 0xf81ce007
   1e148:	381c381c 	ldmdacc	ip, {r2, r3, r4, fp, ip, sp}
   1e14c:	f00f381c 			; <UNDEFINED> instruction: 0xf00f381c
	...
   1e158:	381cf00f 	ldmdacc	ip, {r0, r1, r2, r3, ip, sp, lr, pc}
   1e15c:	381c381c 	ldmdacc	ip, {r2, r3, r4, fp, ip, sp}
   1e160:	f81f381c 			; <UNDEFINED> instruction: 0xf81f381c
   1e164:	3800f80f 	stmdacc	r0, {r0, r1, r2, r3, fp, ip, sp, lr, pc}
   1e168:	70003800 	andvc	r3, r0, r0, lsl #16
   1e16c:	c007e000 	andgt	lr, r7, r0
	...
   1e17c:	80038003 	andhi	r8, r3, r3
   1e180:	00008003 	andeq	r8, r0, r3
   1e184:	80030000 	andhi	r0, r3, r0
   1e188:	80038003 	andhi	r8, r3, r3
	...
   1e19c:	80038003 	andhi	r8, r3, r3
   1e1a0:	00008003 	andeq	r8, r0, r3
   1e1a4:	80030000 	andhi	r0, r3, r0
   1e1a8:	80038003 	andhi	r8, r3, r3
   1e1ac:	00000007 	andeq	r0, r0, r7
   1e1b0:	00000000 	andeq	r0, r0, r0
   1e1b4:	70000000 	andvc	r0, r0, r0
   1e1b8:	c001e000 	andgt	lr, r1, r0
   1e1bc:	00078003 	andeq	r8, r7, r3
   1e1c0:	001c000e 	andseq	r0, ip, lr
   1e1c4:	000e001c 	andeq	r0, lr, ip, lsl r0
   1e1c8:	80030007 	andhi	r0, r3, r7
   1e1cc:	e000c001 	and	ip, r0, r1
   1e1d0:	00007000 	andeq	r7, r0, r0
	...
   1e1dc:	fc3f0000 	ldc2	0, cr0, [pc], #-0	; 1e1e4 <FONT_16X16+0x3b0>
   1e1e0:	0000fc3f 	andeq	pc, r0, pc, lsr ip	; <UNPREDICTABLE>
   1e1e4:	fc3f0000 	ldc2	0, cr0, [pc], #-0	; 1e1ec <FONT_16X16+0x3b8>
   1e1e8:	0000fc3f 	andeq	pc, r0, pc, lsr ip	; <UNPREDICTABLE>
	...
   1e1f4:	001c0000 	andseq	r0, ip, r0
   1e1f8:	0007000e 	andeq	r0, r7, lr
   1e1fc:	c0018003 	andgt	r8, r1, r3
   1e200:	7000e000 	andvc	lr, r0, r0
   1e204:	e0007000 	and	r7, r0, r0
   1e208:	8003c001 	andhi	ip, r3, r1
   1e20c:	000e0007 	andeq	r0, lr, r7
   1e210:	0000001c 	andeq	r0, r0, ip, lsl r0
   1e214:	c0030000 	andgt	r0, r3, r0
   1e218:	781ef00f 	ldmdavc	lr, {r0, r1, r2, r3, ip, sp, lr, pc}
   1e21c:	38003818 	stmdacc	r0, {r3, r4, fp, ip, sp}
   1e220:	e0007000 	and	r7, r0, r0
   1e224:	c001c001 	andgt	ip, r1, r1
   1e228:	00000000 	andeq	r0, r0, r0
   1e22c:	c001c001 	andgt	ip, r1, r1
   1e230:	0000c001 	andeq	ip, r0, r1
   1e234:	f80f0000 			; <UNDEFINED> instruction: 0xf80f0000
   1e238:	1c1c1c1c 	ldcne	12, cr1, [ip], {28}
   1e23c:	1c1c1c1c 	ldcne	12, cr1, [ip], {28}
   1e240:	fc1cfc1c 	ldc2	12, cr15, [ip], {28}
   1e244:	fc1cfc1c 	ldc2	12, cr15, [ip], {28}
   1e248:	001c001c 	andseq	r0, ip, ip, lsl r0
   1e24c:	f01f001c 			; <UNDEFINED> instruction: 0xf01f001c
   1e250:	0000f807 	andeq	pc, r0, r7, lsl #16
   1e254:	00000000 	andeq	r0, r0, r0
   1e258:	e007c003 	and	ip, r7, r3
   1e25c:	381c700e 	ldmdacc	ip, {r1, r2, r3, ip, sp, lr}
   1e260:	381c381c 	ldmdacc	ip, {r2, r3, r4, fp, ip, sp}
   1e264:	f81f381c 			; <UNDEFINED> instruction: 0xf81f381c
   1e268:	381c381c 	ldmdacc	ip, {r2, r3, r4, fp, ip, sp}
   1e26c:	381c381c 	ldmdacc	ip, {r2, r3, r4, fp, ip, sp}
	...
   1e278:	380ef01f 	stmdacc	lr, {r0, r1, r2, r3, r4, ip, sp, lr, pc}
   1e27c:	380e380e 	stmdacc	lr, {r1, r2, r3, fp, ip, sp}
   1e280:	f00f380e 			; <UNDEFINED> instruction: 0xf00f380e
   1e284:	380ef00f 	stmdacc	lr, {r0, r1, r2, r3, ip, sp, lr, pc}
   1e288:	380e380e 	stmdacc	lr, {r1, r2, r3, fp, ip, sp}
   1e28c:	f01f380e 			; <UNDEFINED> instruction: 0xf01f380e
	...
   1e298:	380ef007 	stmdacc	lr, {r0, r1, r2, ip, sp, lr, pc}
   1e29c:	001c381c 	andseq	r3, ip, ip, lsl r8
   1e2a0:	001c001c 	andseq	r0, ip, ip, lsl r0
   1e2a4:	001c001c 	andseq	r0, ip, ip, lsl r0
   1e2a8:	381c001c 	ldmdacc	ip, {r2, r3, r4}
   1e2ac:	f007380e 			; <UNDEFINED> instruction: 0xf007380e
	...
   1e2b8:	700ee01f 	andvc	lr, lr, pc, lsl r0
   1e2bc:	380e380e 	stmdacc	lr, {r1, r2, r3, fp, ip, sp}
   1e2c0:	380e380e 	stmdacc	lr, {r1, r2, r3, fp, ip, sp}
   1e2c4:	380e380e 	stmdacc	lr, {r1, r2, r3, fp, ip, sp}
   1e2c8:	380e380e 	stmdacc	lr, {r1, r2, r3, fp, ip, sp}
   1e2cc:	e01f700e 	ands	r7, pc, lr
	...
   1e2d8:	180ef81f 	stmdane	lr, {r0, r1, r2, r3, r4, fp, ip, sp, lr, pc}
   1e2dc:	000e080e 	andeq	r0, lr, lr, lsl #16
   1e2e0:	f00f300e 			; <UNDEFINED> instruction: 0xf00f300e
   1e2e4:	300ef00f 	andcc	pc, lr, pc
   1e2e8:	080e000e 	stmdaeq	lr, {r1, r2, r3}
   1e2ec:	f81f180e 			; <UNDEFINED> instruction: 0xf81f180e
	...
   1e2f8:	180ef81f 	stmdane	lr, {r0, r1, r2, r3, r4, fp, ip, sp, lr, pc}
   1e2fc:	000e080e 	andeq	r0, lr, lr, lsl #16
   1e300:	f00f300e 			; <UNDEFINED> instruction: 0xf00f300e
   1e304:	300ef00f 	andcc	pc, lr, pc
   1e308:	000e000e 	andeq	r0, lr, lr
   1e30c:	001f000e 	andseq	r0, pc, lr
	...
   1e318:	380ef007 	stmdacc	lr, {r0, r1, r2, ip, sp, lr, pc}
   1e31c:	381c381c 	ldmdacc	ip, {r2, r3, r4, fp, ip, sp}
   1e320:	001c001c 	andseq	r0, ip, ip, lsl r0
   1e324:	f81c001c 			; <UNDEFINED> instruction: 0xf81c001c
   1e328:	381c381c 	ldmdacc	ip, {r2, r3, r4, fp, ip, sp}
   1e32c:	f807380e 			; <UNDEFINED> instruction: 0xf807380e
	...
   1e338:	701c701c 	andsvc	r7, ip, ip, lsl r0
   1e33c:	701c701c 	andsvc	r7, ip, ip, lsl r0
   1e340:	f01f701c 			; <UNDEFINED> instruction: 0xf01f701c
   1e344:	701cf01f 	andsvc	pc, ip, pc, lsl r0	; <UNPREDICTABLE>
   1e348:	701c701c 	andsvc	r7, ip, ip, lsl r0
   1e34c:	701c701c 	andsvc	r7, ip, ip, lsl r0
	...
   1e358:	8003e00f 	andhi	lr, r3, pc
   1e35c:	80038003 	andhi	r8, r3, r3
   1e360:	80038003 	andhi	r8, r3, r3
   1e364:	80038003 	andhi	r8, r3, r3
   1e368:	80038003 	andhi	r8, r3, r3
   1e36c:	e00f8003 	and	r8, pc, r3
	...
   1e378:	7000fc01 	andvc	pc, r0, r1, lsl #24
   1e37c:	70007000 	andvc	r7, r0, r0
   1e380:	70007000 	andvc	r7, r0, r0
   1e384:	70387000 	eorsvc	r7, r8, r0
   1e388:	70387038 	eorsvc	r7, r8, r8, lsr r0
   1e38c:	e00f7038 	and	r7, pc, r8, lsr r0	; <UNPREDICTABLE>
	...
   1e398:	380e381e 	stmdacc	lr, {r1, r2, r3, r4, fp, ip, sp}
   1e39c:	e00e700e 	and	r7, lr, lr
   1e3a0:	800fc00f 	andhi	ip, pc, pc
   1e3a4:	c00f800f 	andgt	r8, pc, pc
   1e3a8:	700ee00e 	andvc	lr, lr, lr
   1e3ac:	381e380e 	ldmdacc	lr, {r1, r2, r3, fp, ip, sp}
	...
   1e3b8:	000e001f 	andeq	r0, lr, pc, lsl r0
   1e3bc:	000e000e 	andeq	r0, lr, lr
   1e3c0:	000e000e 	andeq	r0, lr, lr
   1e3c4:	000e000e 	andeq	r0, lr, lr
   1e3c8:	180e080e 	stmdane	lr, {r1, r2, r3, fp}
   1e3cc:	f81f380e 			; <UNDEFINED> instruction: 0xf81f380e
	...
   1e3d8:	3c1e1c1c 	ldccc	12, cr1, [lr], {28}
   1e3dc:	fc1f7c1f 	ldc2	12, cr7, [pc], {31}
   1e3e0:	dc1dfc1f 	ldcle	12, cr15, [sp], {31}
   1e3e4:	1c1c9c1c 	ldcne	12, cr9, [ip], {28}
   1e3e8:	1c1c1c1c 	ldcne	12, cr1, [ip], {28}
   1e3ec:	1c1c1c1c 	ldcne	12, cr1, [ip], {28}
	...
   1e3f8:	1c1c1c1c 	ldcne	12, cr1, [ip], {28}
   1e3fc:	1c1f1c1e 	ldcne	12, cr1, [pc], {30}
   1e400:	dc1d9c1f 	ldcle	12, cr9, [sp], {31}
   1e404:	7c1cfc1c 	ldcvc	12, cr15, [ip], {28}
   1e408:	1c1c3c1c 	ldcne	12, cr3, [ip], {28}
   1e40c:	1c1c1c1c 	ldcne	12, cr1, [ip], {28}
	...
   1e418:	f007e003 			; <UNDEFINED> instruction: 0xf007e003
   1e41c:	1c1c380e 	ldcne	8, cr3, [ip], {14}
   1e420:	1c1c1c1c 	ldcne	12, cr1, [ip], {28}
   1e424:	1c1c1c1c 	ldcne	12, cr1, [ip], {28}
   1e428:	380e1c1c 	stmdacc	lr, {r2, r3, r4, sl, fp, ip}
   1e42c:	e003f007 	and	pc, r3, r7
	...
   1e438:	380ef01f 	stmdacc	lr, {r0, r1, r2, r3, r4, ip, sp, lr, pc}
   1e43c:	380e380e 	stmdacc	lr, {r1, r2, r3, fp, ip, sp}
   1e440:	f00f380e 			; <UNDEFINED> instruction: 0xf00f380e
   1e444:	000ef00f 	andeq	pc, lr, pc
   1e448:	000e000e 	andeq	r0, lr, lr
   1e44c:	001f000e 	andseq	r0, pc, lr
	...
   1e458:	780fe003 	stmdavc	pc, {r0, r1, sp, lr, pc}	; <UNPREDICTABLE>
   1e45c:	1c1c380e 	ldcne	8, cr3, [ip], {14}
   1e460:	1c1c1c1c 	ldcne	12, cr1, [ip], {28}
   1e464:	7c1c1c1c 	ldcvc	12, cr1, [ip], {28}
   1e468:	f80ffc1c 			; <UNDEFINED> instruction: 0xf80ffc1c
   1e46c:	3800f80f 	stmdacc	r0, {r0, r1, r2, r3, fp, ip, sp, lr, pc}
   1e470:	0000fc00 	andeq	pc, r0, r0, lsl #24
   1e474:	00000000 	andeq	r0, r0, r0
   1e478:	380ef01f 	stmdacc	lr, {r0, r1, r2, r3, r4, ip, sp, lr, pc}
   1e47c:	380e380e 	stmdacc	lr, {r1, r2, r3, fp, ip, sp}
   1e480:	f00f380e 			; <UNDEFINED> instruction: 0xf00f380e
   1e484:	700ef00f 	andvc	pc, lr, pc
   1e488:	380e380e 	stmdacc	lr, {r1, r2, r3, fp, ip, sp}
   1e48c:	381e380e 	ldmdacc	lr, {r1, r2, r3, fp, ip, sp}
	...
   1e498:	381cf00f 	ldmdacc	ip, {r0, r1, r2, r3, ip, sp, lr, pc}
   1e49c:	381c381c 	ldmdacc	ip, {r2, r3, r4, fp, ip, sp}
   1e4a0:	e00f001c 	and	r0, pc, ip, lsl r0	; <UNPREDICTABLE>
   1e4a4:	3800f007 	stmdacc	r0, {r0, r1, r2, ip, sp, lr, pc}
   1e4a8:	381c381c 	ldmdacc	ip, {r2, r3, r4, fp, ip, sp}
   1e4ac:	f00f381c 			; <UNDEFINED> instruction: 0xf00f381c
	...
   1e4b8:	cc19fc1f 	ldcgt	12, cr15, [r9], {31}
   1e4bc:	c001c411 	andgt	ip, r1, r1, lsl r4
   1e4c0:	c001c001 	andgt	ip, r1, r1
   1e4c4:	c001c001 	andgt	ip, r1, r1
   1e4c8:	c001c001 	andgt	ip, r1, r1
   1e4cc:	f007c001 			; <UNDEFINED> instruction: 0xf007c001
	...
   1e4d8:	701c701c 	andsvc	r7, ip, ip, lsl r0
   1e4dc:	701c701c 	andsvc	r7, ip, ip, lsl r0
   1e4e0:	701c701c 	andsvc	r7, ip, ip, lsl r0
   1e4e4:	701c701c 	andsvc	r7, ip, ip, lsl r0
   1e4e8:	701c701c 	andsvc	r7, ip, ip, lsl r0
   1e4ec:	e00f701c 	and	r7, pc, ip, lsl r0	; <UNPREDICTABLE>
	...
   1e4f8:	701c701c 	andsvc	r7, ip, ip, lsl r0
   1e4fc:	701c701c 	andsvc	r7, ip, ip, lsl r0
   1e500:	701c701c 	andsvc	r7, ip, ip, lsl r0
   1e504:	701c701c 	andsvc	r7, ip, ip, lsl r0
   1e508:	e00e701c 	and	r7, lr, ip, lsl r0
   1e50c:	8003c007 	andhi	ip, r3, r7
	...
   1e518:	1c1c1c1c 	ldcne	12, cr1, [ip], {28}
   1e51c:	1c1c1c1c 	ldcne	12, cr1, [ip], {28}
   1e520:	9c1c1c1c 	ldcls	12, cr1, [ip], {28}
   1e524:	9c1c9c1c 	ldcls	12, cr9, [ip], {28}
   1e528:	f80ff80f 			; <UNDEFINED> instruction: 0xf80ff80f
   1e52c:	70077007 	andvc	r7, r7, r7
	...
   1e538:	701c701c 	andsvc	r7, ip, ip, lsl r0
   1e53c:	e00e701c 	and	r7, lr, ip, lsl r0
   1e540:	8003c007 	andhi	ip, r3, r7
   1e544:	c0078003 	andgt	r8, r7, r3
   1e548:	701ce00e 	andsvc	lr, ip, lr
   1e54c:	701c701c 	andsvc	r7, ip, ip, lsl r0
	...
   1e558:	701c701c 	andsvc	r7, ip, ip, lsl r0
   1e55c:	701c701c 	andsvc	r7, ip, ip, lsl r0
   1e560:	e00e701c 	and	r7, lr, ip, lsl r0
   1e564:	8003c007 	andhi	ip, r3, r7
   1e568:	80038003 	andhi	r8, r3, r3
   1e56c:	e00f8003 	and	r8, pc, r3
	...
   1e578:	381cf81f 	ldmdacc	ip, {r0, r1, r2, r3, r4, fp, ip, sp, lr, pc}
   1e57c:	70103818 	andsvc	r3, r0, r8, lsl r8
   1e580:	c001e000 	andgt	lr, r1, r0
   1e584:	00078003 	andeq	r8, r7, r3
   1e588:	181c080e 	ldmdane	ip, {r1, r2, r3, fp}
   1e58c:	f81f381c 			; <UNDEFINED> instruction: 0xf81f381c
	...
   1e598:	0007f007 	andeq	pc, r7, r7
   1e59c:	00070007 	andeq	r0, r7, r7
   1e5a0:	00070007 	andeq	r0, r7, r7
   1e5a4:	00070007 	andeq	r0, r7, r7
   1e5a8:	00070007 	andeq	r0, r7, r7
   1e5ac:	f0070007 			; <UNDEFINED> instruction: 0xf0070007
	...
   1e5b8:	00180010 	andseq	r0, r8, r0, lsl r0
   1e5bc:	000e001c 	andeq	r0, lr, ip, lsl r0
   1e5c0:	80030007 	andhi	r0, r3, r7
   1e5c4:	e000c001 	and	ip, r0, r1
   1e5c8:	38007000 	stmdacc	r0, {ip, sp, lr}
   1e5cc:	07001c00 	streq	r1, [r0, -r0, lsl #24]
	...
   1e5d8:	7000f007 	andvc	pc, r0, r7
   1e5dc:	70007000 	andvc	r7, r0, r0
   1e5e0:	70007000 	andvc	r7, r0, r0
   1e5e4:	70007000 	andvc	r7, r0, r0
   1e5e8:	70007000 	andvc	r7, r0, r0
   1e5ec:	f0077000 			; <UNDEFINED> instruction: 0xf0077000
   1e5f0:	00000000 	andeq	r0, r0, r0
   1e5f4:	80010000 	andhi	r0, r1, r0
   1e5f8:	e007c003 	and	ip, r7, r3
   1e5fc:	381c700e 	ldmdacc	ip, {r1, r2, r3, ip, sp, lr}
	...
   1e630:	ff7fff7f 			; <UNDEFINED> instruction: 0xff7fff7f
   1e634:	00000000 	andeq	r0, r0, r0
   1e638:	001c001c 	andseq	r0, ip, ip, lsl r0
   1e63c:	00070007 	andeq	r0, r7, r7
	...
   1e660:	7000e00f 	andvc	lr, r0, pc
   1e664:	f00f7000 			; <UNDEFINED> instruction: 0xf00f7000
   1e668:	701c701c 	andsvc	r7, ip, ip, lsl r0
   1e66c:	d80f701c 	stmdale	pc, {r2, r3, r4, ip, sp, lr}	; <UNPREDICTABLE>
	...
   1e678:	000e001e 	andeq	r0, lr, lr, lsl r0
   1e67c:	000e000e 	andeq	r0, lr, lr
   1e680:	380ef00f 	stmdacc	lr, {r0, r1, r2, r3, ip, sp, lr, pc}
   1e684:	380e380e 	stmdacc	lr, {r1, r2, r3, fp, ip, sp}
   1e688:	380e380e 	stmdacc	lr, {r1, r2, r3, fp, ip, sp}
   1e68c:	f01b380e 			; <UNDEFINED> instruction: 0xf01b380e
	...
   1e6a0:	701ce00f 	andsvc	lr, ip, pc
   1e6a4:	001c701c 	andseq	r7, ip, ip, lsl r0
   1e6a8:	701c001c 	andsvc	r0, ip, ip, lsl r0
   1e6ac:	e00f701c 	and	r7, pc, ip, lsl r0	; <UNPREDICTABLE>
	...
   1e6b8:	7000f800 	andvc	pc, r0, r0, lsl #16
   1e6bc:	70007000 	andvc	r7, r0, r0
   1e6c0:	701cf00f 	andsvc	pc, ip, pc
   1e6c4:	701c701c 	andsvc	r7, ip, ip, lsl r0
   1e6c8:	701c701c 	andsvc	r7, ip, ip, lsl r0
   1e6cc:	d80f701c 	stmdale	pc, {r2, r3, r4, ip, sp, lr}	; <UNPREDICTABLE>
	...
   1e6e0:	701ce00f 	andsvc	lr, ip, pc
   1e6e4:	f01f701c 			; <UNDEFINED> instruction: 0xf01f701c
   1e6e8:	701c001c 	andsvc	r0, ip, ip, lsl r0
   1e6ec:	e00f701c 	and	r7, pc, ip, lsl r0	; <UNPREDICTABLE>
	...
   1e6f8:	7007e003 	andvc	lr, r7, r3
   1e6fc:	00077007 	andeq	r7, r7, r7
   1e700:	e01f0007 	ands	r0, pc, r7
   1e704:	0007e01f 	andeq	lr, r7, pc, lsl r0
   1e708:	00070007 	andeq	r0, r7, r7
   1e70c:	c01f0007 	andsgt	r0, pc, r7
	...
   1e720:	701cd80f 	andsvc	sp, ip, pc, lsl #16
   1e724:	701c701c 	andsvc	r7, ip, ip, lsl r0
   1e728:	f00f701c 			; <UNDEFINED> instruction: 0xf00f701c
   1e72c:	7000f007 	andvc	pc, r0, r7
   1e730:	e00f701c 	and	r7, pc, ip, lsl r0	; <UNPREDICTABLE>
   1e734:	00000000 	andeq	r0, r0, r0
   1e738:	000e001e 	andeq	r0, lr, lr, lsl r0
   1e73c:	000e000e 	andeq	r0, lr, lr
   1e740:	380ff00e 	stmdacc	pc, {r1, r2, r3, ip, sp, lr, pc}	; <UNPREDICTABLE>
   1e744:	380e380f 	stmdacc	lr, {r0, r1, r2, r3, fp, ip, sp}
   1e748:	380e380e 	stmdacc	lr, {r1, r2, r3, fp, ip, sp}
   1e74c:	381e380e 	ldmdacc	lr, {r1, r2, r3, fp, ip, sp}
	...
   1e758:	c001c001 	andgt	ip, r1, r1
   1e75c:	0000c001 	andeq	ip, r0, r1
   1e760:	c001c00f 	andgt	ip, r1, pc
   1e764:	c001c001 	andgt	ip, r1, r1
   1e768:	c001c001 	andgt	ip, r1, r1
   1e76c:	f80fc001 			; <UNDEFINED> instruction: 0xf80fc001
	...
   1e778:	70007000 	andvc	r7, r0, r0
   1e77c:	00007000 	andeq	r7, r0, r0
   1e780:	7000f003 	andvc	pc, r0, r3
   1e784:	70007000 	andvc	r7, r0, r0
   1e788:	70007000 	andvc	r7, r0, r0
   1e78c:	701c7000 	andsvc	r7, ip, r0
   1e790:	e007f00c 	and	pc, r7, ip
   1e794:	00000000 	andeq	r0, r0, r0
   1e798:	000e001e 	andeq	r0, lr, lr, lsl r0
   1e79c:	000e000e 	andeq	r0, lr, lr
   1e7a0:	700e380e 	andvc	r3, lr, lr, lsl #16
   1e7a4:	c00fe00e 	andgt	lr, pc, lr
   1e7a8:	700ee00e 	andvc	lr, lr, lr
   1e7ac:	381e380e 	ldmdacc	lr, {r1, r2, r3, fp, ip, sp}
	...
   1e7b8:	c001c00f 	andgt	ip, r1, pc
   1e7bc:	c001c001 	andgt	ip, r1, r1
   1e7c0:	c001c001 	andgt	ip, r1, r1
   1e7c4:	c001c001 	andgt	ip, r1, r1
   1e7c8:	c001c001 	andgt	ip, r1, r1
   1e7cc:	f80fc001 			; <UNDEFINED> instruction: 0xf80fc001
	...
   1e7e0:	9c1cf81f 	ldcls	8, cr15, [ip], {31}
   1e7e4:	9c1c9c1c 	ldcls	12, cr9, [ip], {28}
   1e7e8:	9c1c9c1c 	ldcls	12, cr9, [ip], {28}
   1e7ec:	9c1c9c1c 	ldcls	12, cr9, [ip], {28}
	...
   1e800:	701ce01f 	andsvc	lr, ip, pc, lsl r0
   1e804:	701c701c 	andsvc	r7, ip, ip, lsl r0
   1e808:	701c701c 	andsvc	r7, ip, ip, lsl r0
   1e80c:	701c701c 	andsvc	r7, ip, ip, lsl r0
	...
   1e820:	701ce00f 	andsvc	lr, ip, pc
   1e824:	701c701c 	andsvc	r7, ip, ip, lsl r0
   1e828:	701c701c 	andsvc	r7, ip, ip, lsl r0
   1e82c:	e00f701c 	and	r7, pc, ip, lsl r0	; <UNPREDICTABLE>
	...
   1e840:	380ef01b 	stmdacc	lr, {r0, r1, r3, r4, ip, sp, lr, pc}
   1e844:	380e380e 	stmdacc	lr, {r1, r2, r3, fp, ip, sp}
   1e848:	380e380e 	stmdacc	lr, {r1, r2, r3, fp, ip, sp}
   1e84c:	000ef00f 	andeq	pc, lr, pc
   1e850:	001f000e 	andseq	r0, pc, lr
	...
   1e860:	e038b01f 	eors	fp, r8, pc, lsl r0
   1e864:	e038e038 	eors	lr, r8, r8, lsr r0
   1e868:	e038e038 	eors	lr, r8, r8, lsr r0
   1e86c:	e000e01f 	and	lr, r0, pc, lsl r0
   1e870:	f001e000 			; <UNDEFINED> instruction: 0xf001e000
	...
   1e880:	f80ff01e 			; <UNDEFINED> instruction: 0xf80ff01e
   1e884:	000e380f 	andeq	r3, lr, pc, lsl #16
   1e888:	000e000e 	andeq	r0, lr, lr
   1e88c:	001f000e 	andseq	r0, pc, lr
	...
   1e8a0:	301ce00f 	andscc	lr, ip, pc
   1e8a4:	800f301c 	andhi	r3, pc, ip, lsl r0	; <UNPREDICTABLE>
   1e8a8:	7018e003 	andsvc	lr, r8, r3
   1e8ac:	e00f7018 	and	r7, pc, r8, lsl r0	; <UNPREDICTABLE>
	...
   1e8b8:	00010000 	andeq	r0, r1, r0
   1e8bc:	00070003 	andeq	r0, r7, r3
   1e8c0:	0007f01f 	andeq	pc, r7, pc, lsl r0	; <UNPREDICTABLE>
   1e8c4:	00070007 	andeq	r0, r7, r7
   1e8c8:	70070007 	andvc	r0, r7, r7
   1e8cc:	e0037007 	and	r7, r3, r7
	...
   1e8e0:	701c701c 	andsvc	r7, ip, ip, lsl r0
   1e8e4:	701c701c 	andsvc	r7, ip, ip, lsl r0
   1e8e8:	701c701c 	andsvc	r7, ip, ip, lsl r0
   1e8ec:	d80f701c 	stmdale	pc, {r2, r3, r4, ip, sp, lr}	; <UNPREDICTABLE>
	...
   1e900:	701c701c 	andsvc	r7, ip, ip, lsl r0
   1e904:	701c701c 	andsvc	r7, ip, ip, lsl r0
   1e908:	e00e701c 	and	r7, lr, ip, lsl r0
   1e90c:	8003c007 	andhi	ip, r3, r7
	...
   1e920:	1c1c1c1c 	ldcne	12, cr1, [ip], {28}
   1e924:	9c1c1c1c 	ldcls	12, cr1, [ip], {28}
   1e928:	f80f9c1c 			; <UNDEFINED> instruction: 0xf80f9c1c
   1e92c:	70077007 	andvc	r7, r7, r7
	...
   1e940:	e01ce01c 	ands	lr, ip, ip, lsl r0
   1e944:	8007c00f 	andhi	ip, r7, pc
   1e948:	c00f8007 	andgt	r8, pc, r7
   1e94c:	e01ce01c 	ands	lr, ip, ip, lsl r0
	...
   1e960:	380e380e 	stmdacc	lr, {r1, r2, r3, fp, ip, sp}
   1e964:	380e380e 	stmdacc	lr, {r1, r2, r3, fp, ip, sp}
   1e968:	f007380e 			; <UNDEFINED> instruction: 0xf007380e
   1e96c:	e000e003 	and	lr, r0, r3
   1e970:	801fc001 	andshi	ip, pc, r1
	...
   1e980:	e018e01f 	ands	lr, r8, pc, lsl r0
   1e984:	8003c011 	andhi	ip, r3, r1, lsl r0
   1e988:	200e0007 	andcs	r0, lr, r7
   1e98c:	e01f601c 	ands	r6, pc, ip, lsl r0	; <UNPREDICTABLE>
	...
   1e998:	8003f801 	andhi	pc, r3, r1, lsl #16
   1e99c:	80038003 	andhi	r8, r3, r3
   1e9a0:	001c0007 	andseq	r0, ip, r7
   1e9a4:	0007001c 	andeq	r0, r7, ip, lsl r0
   1e9a8:	80038003 	andhi	r8, r3, r3
   1e9ac:	f8018003 			; <UNDEFINED> instruction: 0xf8018003
   1e9b0:	00000000 	andeq	r0, r0, r0
   1e9b4:	c0010000 	andgt	r0, r1, r0
   1e9b8:	c001c001 	andgt	ip, r1, r1
   1e9bc:	c001c001 	andgt	ip, r1, r1
   1e9c0:	c001c001 	andgt	ip, r1, r1
   1e9c4:	c001c001 	andgt	ip, r1, r1
   1e9c8:	c001c001 	andgt	ip, r1, r1
   1e9cc:	c001c001 	andgt	ip, r1, r1
   1e9d0:	0000c001 	andeq	ip, r0, r1
   1e9d4:	00000000 	andeq	r0, r0, r0
   1e9d8:	c001801f 	andgt	r8, r1, pc, lsl r0
   1e9dc:	c001c001 	andgt	ip, r1, r1
   1e9e0:	3800e000 	stmdacc	r0, {sp, lr, pc}
   1e9e4:	e0003800 	and	r3, r0, r0, lsl #16
   1e9e8:	c001c001 	andgt	ip, r1, r1
   1e9ec:	801fc001 	andshi	ip, pc, r1
	...
   1e9f8:	9c3b1c1f 	ldcls	12, cr1, [fp], #-124	; 0xffffff84
   1e9fc:	f838dc39 			; <UNDEFINED> instruction: 0xf838dc39
	...
   1ea18:	9c3b1c1f 	ldcls	12, cr1, [fp], #-124	; 0xffffff84
   1ea1c:	f838dc39 			; <UNDEFINED> instruction: 0xf838dc39
	...
   1ea38:	9c3b1c1f 	ldcls	12, cr1, [fp], #-124	; 0xffffff84
   1ea3c:	f838dc39 			; <UNDEFINED> instruction: 0xf838dc39
	...
   1ea58:	9c3b1c1f 	ldcls	12, cr1, [fp], #-124	; 0xffffff84
   1ea5c:	f838dc39 			; <UNDEFINED> instruction: 0xf838dc39
	...
   1ea78:	ff0f0000 			; <UNDEFINED> instruction: 0xff0f0000
   1ea7c:	0f330318 	svceq	0x00330318
   1ea80:	f3c09b61 			; <UNDEFINED> instruction: 0xf3c09b61
   1ea84:	9b61f3c0 	blls	189b98c <__bss_end+0x153398c>
   1ea88:	03180f33 	tsteq	r8, #51, 30	; 0xcc
   1ea8c:	0000ff0f 	andeq	pc, r0, pc, lsl #30
	...
   1ea98:	06000600 	streq	r0, [r0], -r0, lsl #12
   1ea9c:	0c000600 	stceq	6, cr0, [r0], {-0}
   1eaa0:	30101800 	andscc	r1, r0, r0, lsl #16
   1eaa4:	c0706030 	rsbsgt	r6, r0, r0, lsr r0
   1eaa8:	00ff80ff 	ldrshteq	r8, [pc], #15
   1eaac:	00300070 	eorseq	r0, r0, r0, ror r0
   1eab0:	00000010 	andeq	r0, r0, r0, lsl r0

0001eab4 <FONT_8x8>:
	...
   1eabc:	30787830 	rsbscc	r7, r8, r0, lsr r8
   1eac0:	00300030 	eorseq	r0, r0, r0, lsr r0
   1eac4:	006c6c6c 	rsbeq	r6, ip, ip, ror #24
   1eac8:	00000000 	andeq	r0, r0, r0
   1eacc:	6cfe6c6c 	ldclvs	12, cr6, [lr], #432	; 0x1b0
   1ead0:	006c6cfe 	strdeq	r6, [ip], #-206	; 0xffffff32	; <UNPREDICTABLE>
   1ead4:	3c603e18 	stclcc	14, cr3, [r0], #-96	; 0xffffffa0
   1ead8:	00187c06 	andseq	r7, r8, r6, lsl #24
   1eadc:	0c666300 	stcleq	3, cr6, [r6], #-0
   1eae0:	00633318 	rsbeq	r3, r3, r8, lsl r3
   1eae4:	3b1c361c 	blcc	72c35c <__bss_end+0x3c435c>
   1eae8:	003b666e 	eorseq	r6, fp, lr, ror #12
   1eaec:	00603030 	rsbeq	r3, r0, r0, lsr r0
   1eaf0:	00000000 	andeq	r0, r0, r0
   1eaf4:	3030180c 	eorscc	r1, r0, ip, lsl #16
   1eaf8:	000c1830 	andeq	r1, ip, r0, lsr r8
   1eafc:	0c0c1830 	stceq	8, cr1, [ip], {48}	; 0x30
   1eb00:	0030180c 	eorseq	r1, r0, ip, lsl #16
   1eb04:	ff3c6600 			; <UNDEFINED> instruction: 0xff3c6600
   1eb08:	0000663c 	andeq	r6, r0, ip, lsr r6
   1eb0c:	fc303000 	ldc2	0, cr3, [r0], #-0
   1eb10:	00003030 	andeq	r3, r0, r0, lsr r0
   1eb14:	00000000 	andeq	r0, r0, r0
   1eb18:	30181800 	andscc	r1, r8, r0, lsl #16
   1eb1c:	7e000000 	cdpvc	0, 0, cr0, cr0, cr0, {0}
	...
   1eb28:	00181800 	andseq	r1, r8, r0, lsl #16
   1eb2c:	180c0603 	stmdane	ip, {r0, r1, r9, sl}
   1eb30:	00406030 	subeq	r6, r0, r0, lsr r0
   1eb34:	6b63633e 	blvs	18f7834 <__bss_end+0x158f834>
   1eb38:	003e6363 	eorseq	r6, lr, r3, ror #6
   1eb3c:	18583818 	ldmdane	r8, {r3, r4, fp, ip, sp}^
   1eb40:	007e1818 	rsbseq	r1, lr, r8, lsl r8
   1eb44:	1c06663c 	stcne	6, cr6, [r6], {60}	; 0x3c
   1eb48:	007e6630 	rsbseq	r6, lr, r0, lsr r6
   1eb4c:	1c06663c 	stcne	6, cr6, [r6], {60}	; 0x3c
   1eb50:	003c6606 	eorseq	r6, ip, r6, lsl #12
   1eb54:	66361e0e 	ldrtvs	r1, [r6], -lr, lsl #28
   1eb58:	000f067f 	andeq	r0, pc, pc, ror r6	; <UNPREDICTABLE>
   1eb5c:	067c607e 			; <UNDEFINED> instruction: 0x067c607e
   1eb60:	003c6606 	eorseq	r6, ip, r6, lsl #12
   1eb64:	7c60301c 	stclvc	0, cr3, [r0], #-112	; 0xffffff90
   1eb68:	003c6666 	eorseq	r6, ip, r6, ror #12
   1eb6c:	0c06667e 	stceq	6, cr6, [r6], {126}	; 0x7e
   1eb70:	00181818 	andseq	r1, r8, r8, lsl r8
   1eb74:	3c66663c 	stclcc	6, cr6, [r6], #-240	; 0xffffff10
   1eb78:	003c6666 	eorseq	r6, ip, r6, ror #12
   1eb7c:	3e66663c 	mcrcc	6, 3, r6, cr6, cr12, {1}
   1eb80:	00380c06 	eorseq	r0, r8, r6, lsl #24
   1eb84:	00181800 	andseq	r1, r8, r0, lsl #16
   1eb88:	00181800 	andseq	r1, r8, r0, lsl #16
   1eb8c:	00181800 	andseq	r1, r8, r0, lsl #16
   1eb90:	30181800 	andscc	r1, r8, r0, lsl #16
   1eb94:	6030180c 	eorsvs	r1, r0, ip, lsl #16
   1eb98:	000c1830 	andeq	r1, ip, r0, lsr r8
   1eb9c:	007e0000 	rsbseq	r0, lr, r0
   1eba0:	00007e00 	andeq	r7, r0, r0, lsl #28
   1eba4:	060c1830 			; <UNDEFINED> instruction: 0x060c1830
   1eba8:	0030180c 	eorseq	r1, r0, ip, lsl #16
   1ebac:	0c06663c 	stceq	6, cr6, [r6], {60}	; 0x3c
   1ebb0:	00180018 	andseq	r0, r8, r8, lsl r0
   1ebb4:	696f633e 	stmdbvs	pc!, {r1, r2, r3, r4, r5, r8, r9, sp, lr}^	; <UNPREDICTABLE>
   1ebb8:	003e606f 	eorseq	r6, lr, pc, rrx
   1ebbc:	66663c18 			; <UNDEFINED> instruction: 0x66663c18
   1ebc0:	0066667e 	rsbeq	r6, r6, lr, ror r6
   1ebc4:	3e33337e 	mrccc	3, 1, r3, cr3, cr14, {3}
   1ebc8:	007e3333 	rsbseq	r3, lr, r3, lsr r3
   1ebcc:	6060331e 	rsbvs	r3, r0, lr, lsl r3
   1ebd0:	001e3360 	andseq	r3, lr, r0, ror #6
   1ebd4:	3333367c 	teqcc	r3, #124, 12	; 0x7c00000
   1ebd8:	007c3633 	rsbseq	r3, ip, r3, lsr r6
   1ebdc:	3c34317f 	ldfccs	f3, [r4], #-508	; 0xfffffe04
   1ebe0:	007f3134 	rsbseq	r3, pc, r4, lsr r1	; <UNPREDICTABLE>
   1ebe4:	3c34317f 	ldfccs	f3, [r4], #-508	; 0xfffffe04
   1ebe8:	00783034 	rsbseq	r3, r8, r4, lsr r0
   1ebec:	6060331e 	rsbvs	r3, r0, lr, lsl r3
   1ebf0:	001f3367 	andseq	r3, pc, r7, ror #6
   1ebf4:	7e666666 	cdpvc	6, 6, cr6, cr6, cr6, {3}
   1ebf8:	00666666 	rsbeq	r6, r6, r6, ror #12
   1ebfc:	1818183c 	ldmdane	r8, {r2, r3, r4, r5, fp, ip}
   1ec00:	003c1818 	eorseq	r1, ip, r8, lsl r8
   1ec04:	0606060f 	streq	r0, [r6], -pc, lsl #12
   1ec08:	003c6666 	eorseq	r6, ip, r6, ror #12
   1ec0c:	3c363373 	ldccc	3, cr3, [r6], #-460	; 0xfffffe34
   1ec10:	00733336 	rsbseq	r3, r3, r6, lsr r3
   1ec14:	30303078 	eorscc	r3, r0, r8, ror r0
   1ec18:	007f3331 	rsbseq	r3, pc, r1, lsr r3	; <UNPREDICTABLE>
   1ec1c:	7f7f7763 	svcvc	0x007f7763
   1ec20:	0063636b 	rsbeq	r6, r3, fp, ror #6
   1ec24:	6f7b7363 	svcvs	0x007b7363
   1ec28:	00636367 	rsbeq	r6, r3, r7, ror #6
   1ec2c:	6363633e 	cmnvs	r3, #-134217728	; 0xf8000000
   1ec30:	003e6363 	eorseq	r6, lr, r3, ror #6
   1ec34:	3e33337e 	mrccc	3, 1, r3, cr3, cr14, {3}
   1ec38:	00783030 	rsbseq	r3, r8, r0, lsr r0
   1ec3c:	6666663c 			; <UNDEFINED> instruction: 0x6666663c
   1ec40:	000e3c6e 	andeq	r3, lr, lr, ror #24
   1ec44:	3e33337e 	mrccc	3, 1, r3, cr3, cr14, {3}
   1ec48:	00733336 	rsbseq	r3, r3, r6, lsr r3
   1ec4c:	1830663c 	ldmdane	r0!, {r2, r3, r4, r5, r9, sl, sp, lr}
   1ec50:	003c660c 	eorseq	r6, ip, ip, lsl #12
   1ec54:	18185a7e 	ldmdane	r8, {r1, r2, r3, r4, r5, r6, r9, fp, ip, lr}
   1ec58:	003c1818 	eorseq	r1, ip, r8, lsl r8
   1ec5c:	66666666 	strbtvs	r6, [r6], -r6, ror #12
   1ec60:	007e6666 	rsbseq	r6, lr, r6, ror #12
   1ec64:	66666666 	strbtvs	r6, [r6], -r6, ror #12
   1ec68:	00183c66 	andseq	r3, r8, r6, ror #24
   1ec6c:	6b636363 	blvs	18f7a00 <__bss_end+0x158fa00>
   1ec70:	0063777f 	rsbeq	r7, r3, pc, ror r7
   1ec74:	1c366363 	ldcne	3, cr6, [r6], #-396	; 0xfffffe74
   1ec78:	0063361c 	rsbeq	r3, r3, ip, lsl r6
   1ec7c:	3c666666 	stclcc	6, cr6, [r6], #-408	; 0xfffffe68
   1ec80:	003c1818 	eorseq	r1, ip, r8, lsl r8
   1ec84:	0c46637f 	mcrreq	3, 7, r6, r6, cr15
   1ec88:	007f3319 	rsbseq	r3, pc, r9, lsl r3	; <UNPREDICTABLE>
   1ec8c:	3030303c 	eorscc	r3, r0, ip, lsr r0
   1ec90:	003c3030 	eorseq	r3, ip, r0, lsr r0
   1ec94:	0c183060 	ldceq	0, cr3, [r8], {96}	; 0x60
   1ec98:	00010306 	andeq	r0, r1, r6, lsl #6
   1ec9c:	0c0c0c3c 	stceq	12, cr0, [ip], {60}	; 0x3c
   1eca0:	003c0c0c 	eorseq	r0, ip, ip, lsl #24
   1eca4:	63361c08 	teqvs	r6, #8, 24	; 0x800
	...
   1ecb0:	ff000000 			; <UNDEFINED> instruction: 0xff000000
   1ecb4:	000c1818 	andeq	r1, ip, r8, lsl r8
   1ecb8:	00000000 	andeq	r0, r0, r0
   1ecbc:	063c0000 	ldrteq	r0, [ip], -r0
   1ecc0:	003b663e 	eorseq	r6, fp, lr, lsr r6
   1ecc4:	333e3070 	teqcc	lr, #112	; 0x70
   1ecc8:	006e3333 	rsbeq	r3, lr, r3, lsr r3
   1eccc:	663c0000 	ldrtvs	r0, [ip], -r0
   1ecd0:	003c6660 	eorseq	r6, ip, r0, ror #12
   1ecd4:	663e060e 	ldrtvs	r0, [lr], -lr, lsl #12
   1ecd8:	003b6666 	eorseq	r6, fp, r6, ror #12
   1ecdc:	663c0000 	ldrtvs	r0, [ip], -r0
   1ece0:	003c607e 	eorseq	r6, ip, lr, ror r0
   1ece4:	7830361c 	ldmdavc	r0!, {r2, r3, r4, r9, sl, ip, sp}
   1ece8:	00783030 	rsbseq	r3, r8, r0, lsr r0
   1ecec:	663b0000 	ldrtvs	r0, [fp], -r0
   1ecf0:	7c063e66 	stcvc	14, cr3, [r6], {102}	; 0x66
   1ecf4:	3b363070 	blcc	daaebc <__bss_end+0xa42ebc>
   1ecf8:	00733333 	rsbseq	r3, r3, r3, lsr r3
   1ecfc:	18380018 	ldmdane	r8!, {r3, r4}
   1ed00:	003c1818 	eorseq	r1, ip, r8, lsl r8
   1ed04:	06060006 	streq	r0, [r6], -r6
   1ed08:	3c666606 	stclcc	6, cr6, [r6], #-24	; 0xffffffe8
   1ed0c:	36333070 			; <UNDEFINED> instruction: 0x36333070
   1ed10:	0073363c 	rsbseq	r3, r3, ip, lsr r6
   1ed14:	18181838 	ldmdane	r8, {r3, r4, r5, fp, ip}
   1ed18:	003c1818 	eorseq	r1, ip, r8, lsl r8
   1ed1c:	7f660000 	svcvc	0x00660000
   1ed20:	00636b7f 	rsbeq	r6, r3, pc, ror fp
   1ed24:	667c0000 	ldrbtvs	r0, [ip], -r0
   1ed28:	00666666 	rsbeq	r6, r6, r6, ror #12
   1ed2c:	663c0000 	ldrtvs	r0, [ip], -r0
   1ed30:	003c6666 	eorseq	r6, ip, r6, ror #12
   1ed34:	336e0000 	cmncc	lr, #0
   1ed38:	78303e33 	ldmdavc	r0!, {r0, r1, r4, r5, r9, sl, fp, ip, sp}
   1ed3c:	663b0000 	ldrtvs	r0, [fp], -r0
   1ed40:	0f063e66 	svceq	0x00063e66
   1ed44:	3b6e0000 	blcc	1b9ed4c <__bss_end+0x1836d4c>
   1ed48:	00783033 	rsbseq	r3, r8, r3, lsr r0
   1ed4c:	603e0000 	eorsvs	r0, lr, r0
   1ed50:	007c063c 	rsbseq	r0, ip, ip, lsr r6
   1ed54:	183e1808 	ldmdane	lr!, {r3, fp, ip}
   1ed58:	000c1a18 	andeq	r1, ip, r8, lsl sl
   1ed5c:	66660000 	strbtvs	r0, [r6], -r0
   1ed60:	003b6666 	eorseq	r6, fp, r6, ror #12
   1ed64:	66660000 	strbtvs	r0, [r6], -r0
   1ed68:	00183c66 	andseq	r3, r8, r6, ror #24
   1ed6c:	6b630000 	blvs	18ded74 <__bss_end+0x1576d74>
   1ed70:	00367f7f 	eorseq	r7, r6, pc, ror pc
   1ed74:	36630000 	strbtcc	r0, [r3], -r0
   1ed78:	0063361c 	rsbeq	r3, r3, ip, lsl r6
   1ed7c:	66660000 	strbtvs	r0, [r6], -r0
   1ed80:	7c063e66 	stcvc	14, cr3, [r6], {102}	; 0x66
   1ed84:	4c7e0000 	ldclmi	0, cr0, [lr], #-0
   1ed88:	007e3218 	rsbseq	r3, lr, r8, lsl r2
   1ed8c:	7018180e 	andsvc	r1, r8, lr, lsl #16
   1ed90:	000e1818 	andeq	r1, lr, r8, lsl r8
   1ed94:	000c0c0c 	andeq	r0, ip, ip, lsl #24
   1ed98:	000c0c0c 	andeq	r0, ip, ip, lsl #24
   1ed9c:	0e181870 	mrceq	8, 0, r1, cr8, cr0, {3}
   1eda0:	00701818 	rsbseq	r1, r0, r8, lsl r8
   1eda4:	00006e3b 	andeq	r6, r0, fp, lsr lr
   1eda8:	00000000 	andeq	r0, r0, r0
   1edac:	1c36361c 	ldcne	6, cr3, [r6], #-112	; 0xffffff90
   1edb0:	00000000 	andeq	r0, r0, r0
   1edb4:	60909060 	addsvs	r9, r0, r0, rrx
   1edb8:	00000000 	andeq	r0, r0, r0
   1edbc:	7f7f7722 	svcvc	0x007f7722
   1edc0:	00081c3e 	andeq	r1, r8, lr, lsr ip
   1edc4:	00000000 	andeq	r0, r0, r0
   1edc8:	00fefe00 	rscseq	pc, lr, r0, lsl #28

0001edcc <fcorcur>:
   1edcc:	0000ffff 	strdeq	pc, [r0], -pc	; <UNPREDICTABLE>

0001edd0 <fcor>:
   1edd0:	0000ffff 	strdeq	pc, [r0], -pc	; <UNPREDICTABLE>

0001edd4 <vtipofimkey>:
   1edd4:	 	andeq	r0, r0, r1, lsl #2

0001edd5 <pmode>:
   1edd5:	 	svccc	0x00000001

0001edd8 <y_max>:
   1edd8:	0000013f 	andeq	r0, r0, pc, lsr r1

0001eddc <x_max>:
   1eddc:	000000ef 	andeq	r0, r0, pc, ror #1

0001ede0 <RootHubDescriptor>:
   1ede0:	00012909 	andeq	r2, r1, r9, lsl #18
   1ede4:	02000000 	andeq	r0, r0, #0
   1ede8:	000000ff 	strdeq	r0, [r0], -pc	; <UNPREDICTABLE>

0001edec <RootHubString2>:
   1edec:	00460328 	subeq	r0, r6, r8, lsr #6
   1edf0:	004b0041 	subeq	r0, fp, r1, asr #32
   1edf4:	00200045 	eoreq	r0, r0, r5, asr #32
   1edf8:	006f0063 	rsbeq	r0, pc, r3, rrx
   1edfc:	0066006e 	rsbeq	r0, r6, lr, rrx
   1ee00:	00670069 	rsbeq	r0, r7, r9, rrx
   1ee04:	00730020 	rsbseq	r0, r3, r0, lsr #32
   1ee08:	00720074 	rsbseq	r0, r2, r4, ror r0
   1ee0c:	006e0069 	rsbeq	r0, lr, r9, rrx
   1ee10:	00000067 	andeq	r0, r0, r7, rrx

0001ee14 <RootHubString1>:
   1ee14:	0046032a 	subeq	r0, r6, sl, lsr #6
   1ee18:	004b0041 	subeq	r0, fp, r1, asr #32
   1ee1c:	00440045 	subeq	r0, r4, r5, asr #32
   1ee20:	00520020 	subseq	r0, r2, r0, lsr #32
   1ee24:	006f006f 	rsbeq	r0, pc, pc, rrx
   1ee28:	00200074 	eoreq	r0, r0, r4, ror r0
   1ee2c:	00750048 	rsbseq	r0, r5, r8, asr #32
   1ee30:	00200062 	eoreq	r0, r0, r2, rrx
   1ee34:	00740028 	rsbseq	r0, r4, r8, lsr #32
   1ee38:	0029006d 	eoreq	r0, r9, sp, rrx
   1ee3c:	00000000 	andeq	r0, r0, r0

0001ee40 <RootHubString0>:
   1ee40:	04090304 	streq	r0, [r9], #-772	; 0xfffffcfc

0001ee44 <root_hub_configuration>:
   1ee44:	00190209 	andseq	r0, r9, r9, lsl #4
   1ee48:	c0020101 	andgt	r0, r2, r1, lsl #2
   1ee4c:	00040900 	andeq	r0, r4, r0, lsl #18
   1ee50:	00090100 	andeq	r0, r9, r0, lsl #2
   1ee54:	05070000 	streq	r0, [r7, #-0]
   1ee58:	00400381 	subeq	r0, r0, r1, lsl #7
   1ee5c:	000000ff 	strdeq	r0, [r0], -pc	; <UNPREDICTABLE>

0001ee60 <RootHubDeviceDescriptor>:
   1ee60:	02000112 	andeq	r0, r0, #-2147483644	; 0x80000004
   1ee64:	40000009 	andmi	r0, r0, r9
   1ee68:	00000000 	andeq	r0, r0, r0
   1ee6c:	01000100 	mrseq	r0, (UNDEF: 16)
   1ee70:	00000100 	andeq	r0, r0, r0, lsl #2

0001ee74 <RPi_ARM_TO_GPU_Alias>:
   1ee74:	40000000 	andmi	r0, r0, r0

0001ee78 <RPi_IO_Base_Addr>:
   1ee78:	20000000 	andcs	r0, r0, r0

0001ee7c <diskio_status>:
   1ee7c:	Address 0x0001ee7c is out of bounds.


Disassembly of section .got:

0001ee80 <.got>:
   1ee80:	00363880 	eorseq	r3, r6, r0, lsl #17
   1ee84:	00367118 	eorseq	r7, r6, r8, lsl r1
   1ee88:	00366df0 	ldrshteq	r6, [r6], -r0
   1ee8c:	00366df4 	ldrshteq	r6, [r6], -r4
   1ee90:	00366df8 	ldrshteq	r6, [r6], -r8
   1ee94:	0036711c 	eorseq	r7, r6, ip, lsl r1
   1ee98:	00363884 	eorseq	r3, r6, r4, lsl #17
   1ee9c:	0001d064 	andeq	sp, r1, r4, rrx
   1eea0:	00366dfc 	ldrshteq	r6, [r6], -ip
   1eea4:	0001d0ac 	andeq	sp, r1, ip, lsr #1
   1eea8:	000202ac 	andeq	r0, r2, ip, lsr #5
   1eeac:	00366e04 	eorseq	r6, r6, r4, lsl #28
   1eeb0:	00367a1c 	eorseq	r7, r6, ip, lsl sl
   1eeb4:	0001de34 	andeq	sp, r1, r4, lsr lr
   1eeb8:	0001b628 	andeq	fp, r1, r8, lsr #12
   1eebc:	00366e0c 	eorseq	r6, r6, ip, lsl #28
   1eec0:	00366e10 	eorseq	r6, r6, r0, lsl lr
   1eec4:	0001edd4 	ldrdeq	lr, [r1], -r4
   1eec8:	0001ede0 	andeq	lr, r1, r0, ror #27
   1eecc:	00366e14 	eorseq	r6, r6, r4, lsl lr
   1eed0:	00366e18 	eorseq	r6, r6, r8, lsl lr
   1eed4:	00367a24 	eorseq	r7, r6, r4, lsr #20
   1eed8:	00366e1c 	eorseq	r6, r6, ip, lsl lr
   1eedc:	000202a4 	andeq	r0, r2, r4, lsr #5
   1eee0:	000202bc 			; <UNDEFINED> instruction: 0x000202bc
   1eee4:	00366e20 	eorseq	r6, r6, r0, lsr #28
   1eee8:	00020288 	andeq	r0, r2, r8, lsl #5
   1eeec:	00367a28 	eorseq	r7, r6, r8, lsr #20
   1eef0:	0001f0e8 	andeq	pc, r1, r8, ror #1
   1eef4:	0002027c 	andeq	r0, r2, ip, ror r2
   1eef8:	003638c8 	eorseq	r3, r6, r8, asr #17
   1eefc:	003668c8 	eorseq	r6, r6, r8, asr #17
   1ef00:	003668cc 	eorseq	r6, r6, ip, asr #17
   1ef04:	00366e24 	eorseq	r6, r6, r4, lsr #28
   1ef08:	000202c4 	andeq	r0, r2, r4, asr #5
   1ef0c:	0001f0e4 	andeq	pc, r1, r4, ror #1
   1ef10:	00367a2c 	eorseq	r7, r6, ip, lsr #20
   1ef14:	0036707c 	eorseq	r7, r6, ip, ror r0
   1ef18:	000202c8 	andeq	r0, r2, r8, asr #5
   1ef1c:	0035995c 	eorseq	r9, r5, ip, asr r9
   1ef20:	00366e28 	eorseq	r6, r6, r8, lsr #28
   1ef24:	00366e2c 	eorseq	r6, r6, ip, lsr #28
   1ef28:	0002029c 	muleq	r2, ip, r2
   1ef2c:	00363870 	eorseq	r3, r6, r0, ror r8
   1ef30:	0001ee60 	andeq	lr, r1, r0, ror #28
   1ef34:	00366ea0 	eorseq	r6, r6, r0, lsr #29
   1ef38:	00367a3c 	eorseq	r7, r6, ip, lsr sl
   1ef3c:	00366ea4 	eorseq	r6, r6, r4, lsr #29
   1ef40:	003595dc 	ldrsbteq	r9, [r5], -ip
   1ef44:	00367a84 	eorseq	r7, r6, r4, lsl #21
   1ef48:	003617dc 	ldrsbteq	r1, [r6], -ip
   1ef4c:	00020260 	andeq	r0, r2, r0, ror #4
   1ef50:	00367084 	eorseq	r7, r6, r4, lsl #1
   1ef54:	0001edec 	andeq	lr, r1, ip, ror #27
   1ef58:	0001f0fc 	strdeq	pc, [r1], -ip
   1ef5c:	00366ea5 	eorseq	r6, r6, r5, lsr #29
   1ef60:	0001ee44 	andeq	lr, r1, r4, asr #28
   1ef64:	00366ea8 	eorseq	r6, r6, r8, lsr #29
   1ef68:	003668d0 	ldrsbteq	r6, [r6], -r0
   1ef6c:	0001d114 	andeq	sp, r1, r4, lsl r1
   1ef70:	00366eac 	eorseq	r6, r6, ip, lsr #29
   1ef74:	0001d024 	andeq	sp, r1, r4, lsr #32
   1ef78:	00366eb0 	ldrhteq	r6, [r6], -r0
   1ef7c:	0001edd8 	ldrdeq	lr, [r1], -r8
   1ef80:	0001edcc 	andeq	lr, r1, ip, asr #27
   1ef84:	0001ee14 	andeq	lr, r1, r4, lsl lr
   1ef88:	00366eb8 	ldrhteq	r6, [r6], -r8
   1ef8c:	0035931c 	eorseq	r9, r5, ip, lsl r3
   1ef90:	000202a5 	andeq	r0, r2, r5, lsr #5
   1ef94:	00367ac5 	eorseq	r7, r6, r5, asr #21
   1ef98:	00366ebc 	ldrhteq	r6, [r6], -ip
   1ef9c:	000202a0 	andeq	r0, r2, r0, lsr #5
   1efa0:	00366950 	eorseq	r6, r6, r0, asr r9
   1efa4:	00367ac8 	eorseq	r7, r6, r8, asr #21
   1efa8:	00367acc 	eorseq	r7, r6, ip, asr #21
   1efac:	00366ec0 	eorseq	r6, r6, r0, asr #29
   1efb0:	00368000 	eorseq	r8, r6, r0
   1efb4:	003669d0 	ldrsbteq	r6, [r6], -r0
   1efb8:	00366ec4 	eorseq	r6, r6, r4, asr #29
   1efbc:	00367ad0 	ldrsbteq	r7, [r6], -r0
   1efc0:	00020264 	andeq	r0, r2, r4, ror #4
   1efc4:	00367ad4 	ldrsbteq	r7, [r6], -r4
   1efc8:	00020284 	andeq	r0, r2, r4, lsl #5
   1efcc:	0001edd0 	ldrdeq	lr, [r1], -r0
   1efd0:	0001eab4 			; <UNDEFINED> instruction: 0x0001eab4
   1efd4:	0001ee78 	andeq	lr, r1, r8, ror lr
   1efd8:	00367ad8 	ldrsbteq	r7, [r6], -r8
   1efdc:	00020270 	andeq	r0, r2, r0, ror r2
   1efe0:	00020278 	andeq	r0, r2, r8, ror r2
   1efe4:	00366bd8 	ldrsbteq	r6, [r6], -r8
   1efe8:	000202bd 			; <UNDEFINED> instruction: 0x000202bd
   1efec:	0036708c 	eorseq	r7, r6, ip, lsl #1
   1eff0:	00367b68 	eorseq	r7, r6, r8, ror #22
   1eff4:	00367b6c 	eorseq	r7, r6, ip, ror #22
   1eff8:	00367b6d 	eorseq	r7, r6, sp, ror #22
   1effc:	000202c0 	andeq	r0, r2, r0, asr #5
   1f000:	00020298 	muleq	r2, r8, r2
   1f004:	00020280 	andeq	r0, r2, r0, lsl #5
   1f008:	003670a4 	eorseq	r7, r6, r4, lsr #1
   1f00c:	00366cd8 	ldrsbteq	r6, [r6], -r8
   1f010:	003670c0 	eorseq	r7, r6, r0, asr #1
   1f014:	00366ed8 	ldrsbteq	r6, [r6], -r8
   1f018:	00366cdc 	ldrsbteq	r6, [r6], -ip
   1f01c:	0002028c 	andeq	r0, r2, ip, lsl #5
   1f020:	00366edc 	ldrsbteq	r6, [r6], -ip
   1f024:	000202bb 			; <UNDEFINED> instruction: 0x000202bb
   1f028:	00020254 	andeq	r0, r2, r4, asr r2
   1f02c:	00366ee0 	eorseq	r6, r6, r0, ror #29
   1f030:	00366d5c 	eorseq	r6, r6, ip, asr sp
   1f034:	00366d5e 	eorseq	r6, r6, lr, asr sp
   1f038:	0001ee40 	andeq	lr, r1, r0, asr #28
   1f03c:	00366ee4 	eorseq	r6, r6, r4, ror #29
   1f040:	00367b70 	eorseq	r7, r6, r0, ror fp
   1f044:	000202b8 			; <UNDEFINED> instruction: 0x000202b8
   1f048:	0001adb0 			; <UNDEFINED> instruction: 0x0001adb0
   1f04c:	00367b74 	eorseq	r7, r6, r4, ror fp
   1f050:	000202b9 			; <UNDEFINED> instruction: 0x000202b9
   1f054:	00366d98 	mlaseq	r6, r8, sp, r6
   1f058:	0001d000 	andeq	sp, r1, r0
   1f05c:	000202b4 			; <UNDEFINED> instruction: 0x000202b4
   1f060:	0001eddc 	ldrdeq	lr, [r1], -ip
   1f064:	000202be 			; <UNDEFINED> instruction: 0x000202be
   1f068:	00366dc0 	eorseq	r6, r6, r0, asr #27
   1f06c:	00367b7c 	eorseq	r7, r6, ip, ror fp
   1f070:	00366dc4 	eorseq	r6, r6, r4, asr #27
   1f074:	00367ba0 	eorseq	r7, r6, r0, lsr #23
   1f078:	00366ef4 	ldrshteq	r6, [r6], -r4
   1f07c:	00366ef8 	ldrshteq	r6, [r6], -r8
   1f080:	00366ff8 	ldrshteq	r6, [r6], -r8
   1f084:	00367ba4 	eorseq	r7, r6, r4, lsr #23
   1f088:	00367ba8 	eorseq	r7, r6, r8, lsr #23
   1f08c:	00366ffc 	ldrshteq	r6, [r6], -ip
   1f090:	00367000 	eorseq	r7, r6, r0
   1f094:	00020268 	andeq	r0, r2, r8, ror #4
   1f098:	00367004 	eorseq	r7, r6, r4
   1f09c:	00367ba9 	eorseq	r7, r6, r9, lsr #23
   1f0a0:	000202b0 			; <UNDEFINED> instruction: 0x000202b0
   1f0a4:	00367008 	eorseq	r7, r6, r8
   1f0a8:	0036706c 	eorseq	r7, r6, ip, rrx
   1f0ac:	003617dd 	ldrsbteq	r1, [r6], -sp
   1f0b0:	0002026c 	andeq	r0, r2, ip, ror #4
   1f0b4:	000202a8 	andeq	r0, r2, r8, lsr #5
   1f0b8:	000202ba 			; <UNDEFINED> instruction: 0x000202ba
   1f0bc:	00020274 	andeq	r0, r2, r4, ror r2
   1f0c0:	00367bb0 	ldrhteq	r7, [r6], -r0
   1f0c4:	00367074 	eorseq	r7, r6, r4, ror r0
   1f0c8:	00367bb1 	ldrhteq	r7, [r6], -r1
   1f0cc:	00367078 	eorseq	r7, r6, r8, ror r0
   1f0d0:	00367bb4 	ldrhteq	r7, [r6], -r4
   1f0d4:	0001f0f8 	strdeq	pc, [r1], -r8

Disassembly of section .got.plt:

0001f0d8 <_GLOBAL_OFFSET_TABLE_>:
	...

Disassembly of section .data.rel:

0001f0e4 <vdisk>:
   1f0e4:	00366dcc 	eorseq	r6, r6, ip, asr #27

0001f0e8 <vdir>:
   1f0e8:	00366d60 	eorseq	r6, r6, r0, ror #26

0001f0ec <keysend2>:
   1f0ec:	00367a2c 	eorseq	r7, r6, ip, lsr #20

0001f0f0 <keysend>:
   1f0f0:	00367a2c 	eorseq	r7, r6, ip, lsr #20

0001f0f4 <keyPntr>:
   1f0f4:	00367a2c 	eorseq	r7, r6, ip, lsr #20

Disassembly of section .data.rel.local:

0001f0f8 <pVersionSO>:
   1f0f8:	0001bc4c 	andeq	fp, r1, ip, asr #24

0001f0fc <SpeedString>:
   1f0fc:	0001cc78 	andeq	ip, r1, r8, ror ip
   1f100:	0001cc80 	andeq	ip, r1, r0, lsl #25
   1f104:	0001cc88 	andeq	ip, r1, r8, lsl #25

Disassembly of section .bss:

00020000 <__bss_start>:
   20000:	00000000 	andeq	r0, r0, r0

00020004 <handlers>:
	...

00020124 <clearers>:
	...

00020244 <num_pages>:
   20244:	00000000 	andeq	r0, r0, r0

00020248 <all_pages_array>:
   20248:	00000000 	andeq	r0, r0, r0

0002024c <heap_segment_list_head>:
   2024c:	00000000 	andeq	r0, r0, r0

00020250 <timer_regs>:
   20250:	00000000 	andeq	r0, r0, r0

00020254 <base_adjust>:
   20254:	00000000 	andeq	r0, r0, r0

00020258 <extDebugActiv>:
   20258:	00000000 	andeq	r0, r0, r0

0002025c <spi1_speed>:
   2025c:	00000000 	andeq	r0, r0, r0

00020260 <bcm2835_spi1>:
   20260:	00000000 	andeq	r0, r0, r0

00020264 <bcm2835_aux>:
   20264:	00000000 	andeq	r0, r0, r0

00020268 <bcm2835_st>:
   20268:	00000000 	andeq	r0, r0, r0

0002026c <bcm2835_bsc1>:
   2026c:	00000000 	andeq	r0, r0, r0

00020270 <bcm2835_bsc0>:
   20270:	00000000 	andeq	r0, r0, r0

00020274 <bcm2835_spi0>:
   20274:	00000000 	andeq	r0, r0, r0

00020278 <bcm2835_pads>:
   20278:	00000000 	andeq	r0, r0, r0

0002027c <bcm2835_clk>:
   2027c:	00000000 	andeq	r0, r0, r0

00020280 <bcm2835_pwm>:
   20280:	00000000 	andeq	r0, r0, r0

00020284 <bcm2835_gpio>:
   20284:	00000000 	andeq	r0, r0, r0

00020288 <bcm2835_peripherals>:
   20288:	00000000 	andeq	r0, r0, r0

0002028c <count>:
   2028c:	00000000 	andeq	r0, r0, r0

00020290 <tBlack>:
   20290:	00000000 	andeq	r0, r0, r0

00020294 <pOldData>:
   20294:	00000000 	andeq	r0, r0, r0

00020298 <KBD_DATARDY>:
   20298:	00000000 	andeq	r0, r0, r0

0002029c <icountp>:
   2029c:	00000000 	andeq	r0, r0, r0

000202a0 <icount>:
   202a0:	00000000 	andeq	r0, r0, r0

000202a4 <vfirstshowkey>:
	...

000202a5 <vcur>:
   202a5:	 	andeq	r0, r0, r0

000202a8 <vcurcont>:
   202a8:	00000000 	andeq	r0, r0, r0

000202ac <fcorgraf>:
   202ac:	00000000 	andeq	r0, r0, r0

000202b0 <bcorcur>:
   202b0:	00000000 	andeq	r0, r0, r0

000202b4 <bcor>:
   202b4:	00000000 	andeq	r0, r0, r0

000202b8 <irqTchOn>:
	...

000202b9 <vkeyteste>:
	...

000202ba <vkeyrep>:
	...

000202bb <vtipokey>:
	...

000202bc <vcapson>:
	...

000202bd <pshowkeyontouch>:
	...

000202be <pkeyativo>:
	...

000202c0 <pBaseVideoAddrY>:
   202c0:	00000000 	andeq	r0, r0, r0

000202c4 <pBaseVideoAddrX>:
   202c4:	00000000 	andeq	r0, r0, r0

000202c8 <pBaseVideoMem>:
	...

003592c8 <TreeLevelInUse>:
	...

00359318 <chfree>:
  359318:	00000000 	andeq	r0, r0, r0

0035931c <HidTable>:
	...

003595dc <HubTable>:
	...

0035995c <DeviceTable>:
	...

003617dc <RootHubDeviceNumber>:
	...

003617dd <PhyInitialised>:
  3617dd:	 	andeq	r0, r0, r0

003617e0 <aligned_bufs>:
	...

003637e0 <block_dev>:
	...

00363830 <base_clock>:
  363830:	00000000 	andeq	r0, r0, r0

00363834 <sdcard_scr>:
	...

00363848 <MBOX_INFO_RESP>:
	...

00363870 <free_pages>:
	...

00363880 <vcorwf>:
  363880:	00000000 	andeq	r0, r0, r0

00363884 <arrvbuf>:
	...

003638c4 <errno>:
  3638c4:	00000000 	andeq	r0, r0, r0

003638c8 <arrmcfgfile>:
	...

003668c8 <vboardserial>:
  3668c8:	00000000 	andeq	r0, r0, r0

003668cc <vcorwb>:
  3668cc:	00000000 	andeq	r0, r0, r0

003668d0 <arrvdiratup>:
	...

00366950 <arrvdiratu>:
	...

003669d0 <arrgDataBuffer>:
	...

00366bd8 <paramVDG>:
	...

00366cd8 <vboardmodel>:
  366cd8:	00000000 	andeq	r0, r0, r0

00366cdc <arrvbufkptr>:
	...

00366d5c <vboardrev>:
	...

00366d5e <vboardfirm>:
	...

00366d60 <varToPtrvdir>:
	...

00366d98 <MBOX_INFO_BOARD>:
	...

00366dc0 <vtotclock>:
  366dc0:	00000000 	andeq	r0, r0, r0

00366dc4 <vboardmacaddr>:
	...

00366dcc <varToPtrvdisk>:
	...

00366df0 <verro>:
  366df0:	00000000 	andeq	r0, r0, r0

00366df4 <vbuttonwiny>:
  366df4:	00000000 	andeq	r0, r0, r0

00366df8 <inten>:
  366df8:	00000000 	andeq	r0, r0, r0

00366dfc <voverx>:
  366dfc:	00000000 	andeq	r0, r0, r0

00366e00 <xpos>:
  366e00:	00000000 	andeq	r0, r0, r0

00366e04 <gDataBuffer>:
  366e04:	00000000 	andeq	r0, r0, r0

00366e08 <vmtaskatu>:
  366e08:	00000000 	andeq	r0, r0, r0

00366e0c <diskDrv>:
  366e0c:	00000000 	andeq	r0, r0, r0

00366e10 <vcorb>:
  366e10:	00000000 	andeq	r0, r0, r0

00366e14 <vcol>:
  366e14:	00000000 	andeq	r0, r0, r0

00366e18 <vxmax>:
  366e18:	00000000 	andeq	r0, r0, r0

00366e1c <vkeyopen>:
  366e1c:	00000000 	andeq	r0, r0, r0

00366e20 <mcfgfile>:
  366e20:	00000000 	andeq	r0, r0, r0

00366e24 <vposty>:
  366e24:	00000000 	andeq	r0, r0, r0

00366e28 <vbufkptr>:
  366e28:	00000000 	andeq	r0, r0, r0

00366e2c <vparam>:
	...

00366ea0 <pposy>:
  366ea0:	00000000 	andeq	r0, r0, r0

00366ea4 <vbbutton>:
	...

00366ea5 <vbytetec>:
  366ea5:	 	andeq	r0, r0, r0

00366ea8 <vymax>:
  366ea8:	00000000 	andeq	r0, r0, r0

00366eac <next_pos>:
	...

00366ead <vmtask>:
  366ead:	 	andeq	r0, r0, r0

00366eb0 <vovery>:
  366eb0:	00000000 	andeq	r0, r0, r0

00366eb4 <vbufkmove>:
  366eb4:	00000000 	andeq	r0, r0, r0

00366eb8 <viconef>:
  366eb8:	00000000 	andeq	r0, r0, r0

00366ebc <vcorf>:
  366ebc:	00000000 	andeq	r0, r0, r0

00366ec0 <vygmax>:
  366ec0:	00000000 	andeq	r0, r0, r0

00366ec4 <vtotmem>:
  366ec4:	00000000 	andeq	r0, r0, r0

00366ec8 <intpos>:
  366ec8:	00000000 	andeq	r0, r0, r0

00366ecc <vclusteros>:
  366ecc:	00000000 	andeq	r0, r0, r0

00366ed0 <vbufk>:
  366ed0:	00000000 	andeq	r0, r0, r0

00366ed4 <vmtaskup>:
  366ed4:	00000000 	andeq	r0, r0, r0

00366ed8 <voutput>:
  366ed8:	00000000 	andeq	r0, r0, r0

00366edc <pposx>:
  366edc:	00000000 	andeq	r0, r0, r0

00366ee0 <vxgmax>:
  366ee0:	00000000 	andeq	r0, r0, r0

00366ee4 <vclusterdir>:
  366ee4:	00000000 	andeq	r0, r0, r0

00366ee8 <ypos>:
  366ee8:	00000000 	andeq	r0, r0, r0

00366eec <vbufkbios>:
  366eec:	00000000 	andeq	r0, r0, r0

00366ef0 <v10ms>:
  366ef0:	00000000 	andeq	r0, r0, r0

00366ef4 <vinip>:
  366ef4:	00000000 	andeq	r0, r0, r0

00366ef8 <vparamstr>:
	...

00366ff8 <vxmaxold>:
  366ff8:	00000000 	andeq	r0, r0, r0

00366ffc <vlin>:
  366ffc:	00000000 	andeq	r0, r0, r0

00367000 <vdiratup>:
  367000:	00000000 	andeq	r0, r0, r0

00367004 <vpostx>:
  367004:	00000000 	andeq	r0, r0, r0

00367008 <vbuttonwin>:
	...

0036706c <vdiratu>:
  36706c:	00000000 	andeq	r0, r0, r0

00367070 <vbufkatu>:
  367070:	00000000 	andeq	r0, r0, r0

00367074 <vymaxold>:
  367074:	00000000 	andeq	r0, r0, r0

00367078 <vbuf>:
  367078:	00000000 	andeq	r0, r0, r0

0036707c <screen>:
	...

00367084 <display>:
	...

0036708c <ScreenSample>:
	...

003670a4 <matrix>:
	...

003670c0 <DisplaySample>:
	...

003670d8 <ptext>:
	...

00367118 <keyvxx>:
  367118:	00000000 	andeq	r0, r0, r0

0036711c <pvideo>:
	...

00367a1c <screen_cal>:
	...

00367a24 <vycur>:
  367a24:	00000000 	andeq	r0, r0, r0

00367a28 <iz>:
  367a28:	00000000 	andeq	r0, r0, r0

00367a2c <keyBuffer>:
	...

00367a3c <pxxxreturn>:
	...

00367a7c <D_ORIENTATION>:
  367a7c:	00000000 	andeq	r0, r0, r0

00367a80 <pconv2>:
  367a80:	00000000 	andeq	r0, r0, r0

00367a84 <pyyyreturn>:
	...

00367ac4 <vmove>:
	...

00367ac5 <preadycs>:
  367ac5:	 	andeq	r0, r0, r0

00367ac8 <vtimetec>:
  367ac8:	00000000 	andeq	r0, r0, r0

00367acc <vxx>:
  367acc:	00000000 	andeq	r0, r0, r0

00367ad0 <ptec>:
  367ad0:	00000000 	andeq	r0, r0, r0

00367ad4 <iy>:
  367ad4:	00000000 	andeq	r0, r0, r0

00367ad8 <vlayx>:
	...

00367b68 <vyyf>:
  367b68:	00000000 	andeq	r0, r0, r0

00367b6c <pbytecountr>:
	...

00367b6d <cchar>:
  367b6d:	 	andeq	r0, r0, r0

00367b70 <vyy>:
  367b70:	00000000 	andeq	r0, r0, r0

00367b74 <vxxf>:
  367b74:	00000000 	andeq	r0, r0, r0

00367b78 <pDataRdy>:
  367b78:	00000000 	andeq	r0, r0, r0

00367b7c <vlaytec>:
	...

00367ba0 <ix>:
  367ba0:	00000000 	andeq	r0, r0, r0

00367ba4 <keyvyy>:
  367ba4:	00000000 	andeq	r0, r0, r0

00367ba8 <pbytecountw>:
	...

00367ba9 <preadywr>:
  367ba9:	 	andeq	r0, r0, r0

00367bac <pconv1>:
  367bac:	00000000 	andeq	r0, r0, r0

00367bb0 <preadyrd>:
	...

00367bb1 <dfont>:
  367bb1:	 	andeq	r0, r0, r0

00367bb4 <vxcur>:
  367bb4:	00000000 	andeq	r0, r0, r0

Disassembly of section .ARM.attributes:

00000000 <.ARM.attributes>:
   0:	00003741 	andeq	r3, r0, r1, asr #14
   4:	61656100 	cmnvs	r5, r0, lsl #2
   8:	01006962 	tsteq	r0, r2, ror #18
   c:	0000002d 	andeq	r0, r0, sp, lsr #32
  10:	4d524105 	ldfmie	f4, [r2, #-20]	; 0xffffffec
  14:	36373131 			; <UNDEFINED> instruction: 0x36373131
  18:	2d465a4a 	vstrcs	s11, [r6, #-296]	; 0xfffffed8
  1c:	07060053 	smlsdeq	r6, r3, r0, r0
  20:	01090108 	tsteq	r9, r8, lsl #2
  24:	0412020a 	ldreq	r0, [r2], #-522	; 0xfffffdf6
  28:	01150114 	tsteq	r5, r4, lsl r1
  2c:	01180317 	tsteq	r8, r7, lsl r3
  30:	011c011a 	tsteq	ip, sl, lsl r1
  34:	01440122 	cmpeq	r4, r2, lsr #2

Disassembly of section .comment:

00000000 <.comment>:
   0:	3a434347 	bcc	10d0d24 <__bss_end+0xd68d24>
   4:	4e472820 	cdpmi	8, 4, cr2, cr7, cr0, {1}
   8:	6f542055 	svcvs	0x00542055
   c:	20736c6f 	rsbscs	r6, r3, pc, ror #24
  10:	20726f66 	rsbscs	r6, r2, r6, ror #30
  14:	206d7241 	rsbcs	r7, sp, r1, asr #4
  18:	65626d45 	strbvs	r6, [r2, #-3397]!	; 0xfffff2bb
  1c:	64656464 	strbtvs	r6, [r5], #-1124	; 0xfffffb9c
  20:	6f725020 	svcvs	0x00725020
  24:	73736563 	cmnvc	r3, #415236096	; 0x18c00000
  28:	2073726f 	rsbscs	r7, r3, pc, ror #4
  2c:	30322d37 	eorscc	r2, r2, r7, lsr sp
  30:	712d3831 			; <UNDEFINED> instruction: 0x712d3831
  34:	70752d32 	rsbsvc	r2, r5, r2, lsr sp
  38:	65746164 	ldrbvs	r6, [r4, #-356]!	; 0xfffffe9c
  3c:	2e372029 	cdpcs	0, 3, cr2, cr7, cr9, {1}
  40:	20312e33 	eorscs	r2, r1, r3, lsr lr
  44:	38313032 	ldmdacc	r1!, {r1, r4, r5, ip, sp}
  48:	32323630 	eorscc	r3, r2, #48, 12	; 0x3000000
  4c:	65722820 	ldrbvs	r2, [r2, #-2080]!	; 0xfffff7e0
  50:	7361656c 	cmnvc	r1, #108, 10	; 0x1b000000
  54:	5b202965 	blpl	80a5f0 <__bss_end+0x4a25f0>
  58:	2f4d5241 	svccs	0x004d5241
  5c:	65626d65 	strbvs	r6, [r2, #-3429]!	; 0xfffff29b
  60:	64656464 	strbtvs	r6, [r5], #-1124	; 0xfffffb9c
  64:	622d372d 	eorvs	r3, sp, #11796480	; 0xb40000
  68:	636e6172 	cmnvs	lr, #-2147483620	; 0x8000001c
  6c:	65722068 	ldrbvs	r2, [r2, #-104]!	; 0xffffff98
  70:	69736976 	ldmdbvs	r3!, {r1, r2, r4, r5, r6, r8, fp, sp, lr}^
  74:	32206e6f 	eorcc	r6, r0, #1776	; 0x6f0
  78:	30393136 	eorscc	r3, r9, r6, lsr r1
  7c:	Address 0x0000007c is out of bounds.

